
STM32ProjectForLab2.elf:     file format elf32-littlearm

Sections:
Idx Name          Size      VMA       LMA       File off  Algn
  0 .isr_vector   0000010c  08000000  08000000  00010000  2**0
                  CONTENTS, ALLOC, LOAD, READONLY, DATA
  1 .text         00001eb0  0800010c  0800010c  0001010c  2**2
                  CONTENTS, ALLOC, LOAD, READONLY, CODE
  2 .rodata       00000024  08001fbc  08001fbc  00011fbc  2**2
                  CONTENTS, ALLOC, LOAD, READONLY, DATA
  3 .ARM.extab    00000000  08001fe0  08001fe0  0002000c  2**0
                  CONTENTS
  4 .ARM          00000000  08001fe0  08001fe0  0002000c  2**0
                  CONTENTS
  5 .preinit_array 00000000  08001fe0  08001fe0  0002000c  2**0
                  CONTENTS, ALLOC, LOAD, DATA
  6 .init_array   00000004  08001fe0  08001fe0  00011fe0  2**2
                  CONTENTS, ALLOC, LOAD, DATA
  7 .fini_array   00000004  08001fe4  08001fe4  00011fe4  2**2
                  CONTENTS, ALLOC, LOAD, DATA
  8 .data         0000000c  20000000  08001fe8  00020000  2**2
                  CONTENTS, ALLOC, LOAD, DATA
  9 .bss          0000007c  2000000c  08001ff4  0002000c  2**2
                  ALLOC
 10 ._user_heap_stack 00000600  20000088  08001ff4  00020088  2**0
                  ALLOC
 11 .ARM.attributes 00000029  00000000  00000000  0002000c  2**0
                  CONTENTS, READONLY
 12 .debug_info   000085e5  00000000  00000000  00020035  2**0
                  CONTENTS, READONLY, DEBUGGING, OCTETS
 13 .debug_abbrev 0000180d  00000000  00000000  0002861a  2**0
                  CONTENTS, READONLY, DEBUGGING, OCTETS
 14 .debug_aranges 000009c0  00000000  00000000  00029e28  2**3
                  CONTENTS, READONLY, DEBUGGING, OCTETS
 15 .debug_ranges 000008d0  00000000  00000000  0002a7e8  2**3
                  CONTENTS, READONLY, DEBUGGING, OCTETS
 16 .debug_macro  00016829  00000000  00000000  0002b0b8  2**0
                  CONTENTS, READONLY, DEBUGGING, OCTETS
 17 .debug_line   0000a854  00000000  00000000  000418e1  2**0
                  CONTENTS, READONLY, DEBUGGING, OCTETS
 18 .debug_str    00081f81  00000000  00000000  0004c135  2**0
                  CONTENTS, READONLY, DEBUGGING, OCTETS
 19 .comment      00000050  00000000  00000000  000ce0b6  2**0
                  CONTENTS, READONLY
 20 .debug_frame  000026c8  00000000  00000000  000ce108  2**2
                  CONTENTS, READONLY, DEBUGGING, OCTETS

Disassembly of section .text:

0800010c <__do_global_dtors_aux>:
 800010c:	b510      	push	{r4, lr}
 800010e:	4c05      	ldr	r4, [pc, #20]	; (8000124 <__do_global_dtors_aux+0x18>)
 8000110:	7823      	ldrb	r3, [r4, #0]
 8000112:	b933      	cbnz	r3, 8000122 <__do_global_dtors_aux+0x16>
 8000114:	4b04      	ldr	r3, [pc, #16]	; (8000128 <__do_global_dtors_aux+0x1c>)
 8000116:	b113      	cbz	r3, 800011e <__do_global_dtors_aux+0x12>
 8000118:	4804      	ldr	r0, [pc, #16]	; (800012c <__do_global_dtors_aux+0x20>)
 800011a:	f3af 8000 	nop.w
 800011e:	2301      	movs	r3, #1
 8000120:	7023      	strb	r3, [r4, #0]
 8000122:	bd10      	pop	{r4, pc}
 8000124:	2000000c 	.word	0x2000000c
 8000128:	00000000 	.word	0x00000000
 800012c:	08001fa4 	.word	0x08001fa4

08000130 <frame_dummy>:
 8000130:	b508      	push	{r3, lr}
 8000132:	4b03      	ldr	r3, [pc, #12]	; (8000140 <frame_dummy+0x10>)
 8000134:	b11b      	cbz	r3, 800013e <frame_dummy+0xe>
 8000136:	4903      	ldr	r1, [pc, #12]	; (8000144 <frame_dummy+0x14>)
 8000138:	4803      	ldr	r0, [pc, #12]	; (8000148 <frame_dummy+0x18>)
 800013a:	f3af 8000 	nop.w
 800013e:	bd08      	pop	{r3, pc}
 8000140:	00000000 	.word	0x00000000
 8000144:	20000010 	.word	0x20000010
 8000148:	08001fa4 	.word	0x08001fa4

0800014c <display7SEG>:
 *  Created on: Nov 2, 2023
 *      Author: Huy
 */
#include "7SegmentLed.h"

void display7SEG(int num){
 800014c:	b580      	push	{r7, lr}
 800014e:	b082      	sub	sp, #8
 8000150:	af00      	add	r7, sp, #0
 8000152:	6078      	str	r0, [r7, #4]
	if( num == 0)
 8000154:	687b      	ldr	r3, [r7, #4]
 8000156:	2b00      	cmp	r3, #0
 8000158:	d122      	bne.n	80001a0 <display7SEG+0x54>
	{
		HAL_GPIO_WritePin(SEG0_GPIO_Port, SEG0_Pin, GPIO_PIN_RESET);
 800015a:	2200      	movs	r2, #0
 800015c:	2101      	movs	r1, #1
 800015e:	48bd      	ldr	r0, [pc, #756]	; (8000454 <display7SEG+0x308>)
 8000160:	f000 ff16 	bl	8000f90 <HAL_GPIO_WritePin>
		HAL_GPIO_WritePin(SEG1_GPIO_Port, SEG1_Pin, GPIO_PIN_RESET);
 8000164:	2200      	movs	r2, #0
 8000166:	2102      	movs	r1, #2
 8000168:	48ba      	ldr	r0, [pc, #744]	; (8000454 <display7SEG+0x308>)
 800016a:	f000 ff11 	bl	8000f90 <HAL_GPIO_WritePin>
		HAL_GPIO_WritePin(SEG2_GPIO_Port, SEG2_Pin, GPIO_PIN_RESET);
 800016e:	2200      	movs	r2, #0
 8000170:	2104      	movs	r1, #4
 8000172:	48b8      	ldr	r0, [pc, #736]	; (8000454 <display7SEG+0x308>)
 8000174:	f000 ff0c 	bl	8000f90 <HAL_GPIO_WritePin>
		HAL_GPIO_WritePin(SEG3_GPIO_Port, SEG3_Pin, GPIO_PIN_RESET);
 8000178:	2200      	movs	r2, #0
 800017a:	2108      	movs	r1, #8
 800017c:	48b5      	ldr	r0, [pc, #724]	; (8000454 <display7SEG+0x308>)
 800017e:	f000 ff07 	bl	8000f90 <HAL_GPIO_WritePin>
		HAL_GPIO_WritePin(SEG4_GPIO_Port, SEG4_Pin, GPIO_PIN_RESET);
 8000182:	2200      	movs	r2, #0
 8000184:	2110      	movs	r1, #16
 8000186:	48b3      	ldr	r0, [pc, #716]	; (8000454 <display7SEG+0x308>)
 8000188:	f000 ff02 	bl	8000f90 <HAL_GPIO_WritePin>
		HAL_GPIO_WritePin(SEG5_GPIO_Port, SEG5_Pin, GPIO_PIN_RESET);
 800018c:	2200      	movs	r2, #0
 800018e:	2120      	movs	r1, #32
 8000190:	48b0      	ldr	r0, [pc, #704]	; (8000454 <display7SEG+0x308>)
 8000192:	f000 fefd 	bl	8000f90 <HAL_GPIO_WritePin>
		HAL_GPIO_WritePin(SEG6_GPIO_Port, SEG6_Pin, GPIO_PIN_SET);
 8000196:	2201      	movs	r2, #1
 8000198:	2140      	movs	r1, #64	; 0x40
 800019a:	48ae      	ldr	r0, [pc, #696]	; (8000454 <display7SEG+0x308>)
 800019c:	f000 fef8 	bl	8000f90 <HAL_GPIO_WritePin>
	}

	if(num == 1){
 80001a0:	687b      	ldr	r3, [r7, #4]
 80001a2:	2b01      	cmp	r3, #1
 80001a4:	d122      	bne.n	80001ec <display7SEG+0xa0>
		HAL_GPIO_WritePin(SEG0_GPIO_Port, SEG0_Pin, GPIO_PIN_SET);
 80001a6:	2201      	movs	r2, #1
 80001a8:	2101      	movs	r1, #1
 80001aa:	48aa      	ldr	r0, [pc, #680]	; (8000454 <display7SEG+0x308>)
 80001ac:	f000 fef0 	bl	8000f90 <HAL_GPIO_WritePin>
		HAL_GPIO_WritePin(SEG1_GPIO_Port, SEG1_Pin, GPIO_PIN_RESET);
 80001b0:	2200      	movs	r2, #0
 80001b2:	2102      	movs	r1, #2
 80001b4:	48a7      	ldr	r0, [pc, #668]	; (8000454 <display7SEG+0x308>)
 80001b6:	f000 feeb 	bl	8000f90 <HAL_GPIO_WritePin>
		HAL_GPIO_WritePin(SEG2_GPIO_Port, SEG2_Pin, GPIO_PIN_RESET);
 80001ba:	2200      	movs	r2, #0
 80001bc:	2104      	movs	r1, #4
 80001be:	48a5      	ldr	r0, [pc, #660]	; (8000454 <display7SEG+0x308>)
 80001c0:	f000 fee6 	bl	8000f90 <HAL_GPIO_WritePin>
		HAL_GPIO_WritePin(SEG3_GPIO_Port, SEG3_Pin, GPIO_PIN_SET );
 80001c4:	2201      	movs	r2, #1
 80001c6:	2108      	movs	r1, #8
 80001c8:	48a2      	ldr	r0, [pc, #648]	; (8000454 <display7SEG+0x308>)
 80001ca:	f000 fee1 	bl	8000f90 <HAL_GPIO_WritePin>
		HAL_GPIO_WritePin(SEG4_GPIO_Port, SEG4_Pin, GPIO_PIN_SET);
 80001ce:	2201      	movs	r2, #1
 80001d0:	2110      	movs	r1, #16
 80001d2:	48a0      	ldr	r0, [pc, #640]	; (8000454 <display7SEG+0x308>)
 80001d4:	f000 fedc 	bl	8000f90 <HAL_GPIO_WritePin>
		HAL_GPIO_WritePin(SEG5_GPIO_Port, SEG5_Pin, GPIO_PIN_SET);
 80001d8:	2201      	movs	r2, #1
 80001da:	2120      	movs	r1, #32
 80001dc:	489d      	ldr	r0, [pc, #628]	; (8000454 <display7SEG+0x308>)
 80001de:	f000 fed7 	bl	8000f90 <HAL_GPIO_WritePin>
		HAL_GPIO_WritePin(SEG6_GPIO_Port, SEG6_Pin, GPIO_PIN_SET);
 80001e2:	2201      	movs	r2, #1
 80001e4:	2140      	movs	r1, #64	; 0x40
 80001e6:	489b      	ldr	r0, [pc, #620]	; (8000454 <display7SEG+0x308>)
 80001e8:	f000 fed2 	bl	8000f90 <HAL_GPIO_WritePin>
	}

	if(num == 2){
 80001ec:	687b      	ldr	r3, [r7, #4]
 80001ee:	2b02      	cmp	r3, #2
 80001f0:	d122      	bne.n	8000238 <display7SEG+0xec>
		HAL_GPIO_WritePin(SEG0_GPIO_Port, SEG0_Pin, GPIO_PIN_RESET);
 80001f2:	2200      	movs	r2, #0
 80001f4:	2101      	movs	r1, #1
 80001f6:	4897      	ldr	r0, [pc, #604]	; (8000454 <display7SEG+0x308>)
 80001f8:	f000 feca 	bl	8000f90 <HAL_GPIO_WritePin>
		HAL_GPIO_WritePin(SEG1_GPIO_Port, SEG1_Pin, GPIO_PIN_RESET);
 80001fc:	2200      	movs	r2, #0
 80001fe:	2102      	movs	r1, #2
 8000200:	4894      	ldr	r0, [pc, #592]	; (8000454 <display7SEG+0x308>)
 8000202:	f000 fec5 	bl	8000f90 <HAL_GPIO_WritePin>
		HAL_GPIO_WritePin(SEG2_GPIO_Port, SEG2_Pin, GPIO_PIN_SET);
 8000206:	2201      	movs	r2, #1
 8000208:	2104      	movs	r1, #4
 800020a:	4892      	ldr	r0, [pc, #584]	; (8000454 <display7SEG+0x308>)
 800020c:	f000 fec0 	bl	8000f90 <HAL_GPIO_WritePin>
		HAL_GPIO_WritePin(SEG3_GPIO_Port, SEG3_Pin, GPIO_PIN_RESET);
 8000210:	2200      	movs	r2, #0
 8000212:	2108      	movs	r1, #8
 8000214:	488f      	ldr	r0, [pc, #572]	; (8000454 <display7SEG+0x308>)
 8000216:	f000 febb 	bl	8000f90 <HAL_GPIO_WritePin>
		HAL_GPIO_WritePin(SEG4_GPIO_Port, SEG4_Pin, GPIO_PIN_RESET);
 800021a:	2200      	movs	r2, #0
 800021c:	2110      	movs	r1, #16
 800021e:	488d      	ldr	r0, [pc, #564]	; (8000454 <display7SEG+0x308>)
 8000220:	f000 feb6 	bl	8000f90 <HAL_GPIO_WritePin>
		HAL_GPIO_WritePin(SEG5_GPIO_Port, SEG5_Pin, GPIO_PIN_SET);
 8000224:	2201      	movs	r2, #1
 8000226:	2120      	movs	r1, #32
 8000228:	488a      	ldr	r0, [pc, #552]	; (8000454 <display7SEG+0x308>)
 800022a:	f000 feb1 	bl	8000f90 <HAL_GPIO_WritePin>
		HAL_GPIO_WritePin(SEG6_GPIO_Port, SEG6_Pin, GPIO_PIN_RESET);
 800022e:	2200      	movs	r2, #0
 8000230:	2140      	movs	r1, #64	; 0x40
 8000232:	4888      	ldr	r0, [pc, #544]	; (8000454 <display7SEG+0x308>)
 8000234:	f000 feac 	bl	8000f90 <HAL_GPIO_WritePin>
	}

	if(num == 3){
 8000238:	687b      	ldr	r3, [r7, #4]
 800023a:	2b03      	cmp	r3, #3
 800023c:	d122      	bne.n	8000284 <display7SEG+0x138>
		HAL_GPIO_WritePin(SEG0_GPIO_Port, SEG0_Pin, GPIO_PIN_RESET);
 800023e:	2200      	movs	r2, #0
 8000240:	2101      	movs	r1, #1
 8000242:	4884      	ldr	r0, [pc, #528]	; (8000454 <display7SEG+0x308>)
 8000244:	f000 fea4 	bl	8000f90 <HAL_GPIO_WritePin>
		HAL_GPIO_WritePin(SEG1_GPIO_Port, SEG1_Pin, GPIO_PIN_RESET);
 8000248:	2200      	movs	r2, #0
 800024a:	2102      	movs	r1, #2
 800024c:	4881      	ldr	r0, [pc, #516]	; (8000454 <display7SEG+0x308>)
 800024e:	f000 fe9f 	bl	8000f90 <HAL_GPIO_WritePin>
		HAL_GPIO_WritePin(SEG2_GPIO_Port, SEG2_Pin, GPIO_PIN_RESET);
 8000252:	2200      	movs	r2, #0
 8000254:	2104      	movs	r1, #4
 8000256:	487f      	ldr	r0, [pc, #508]	; (8000454 <display7SEG+0x308>)
 8000258:	f000 fe9a 	bl	8000f90 <HAL_GPIO_WritePin>
		HAL_GPIO_WritePin(SEG3_GPIO_Port, SEG3_Pin, GPIO_PIN_RESET);
 800025c:	2200      	movs	r2, #0
 800025e:	2108      	movs	r1, #8
 8000260:	487c      	ldr	r0, [pc, #496]	; (8000454 <display7SEG+0x308>)
 8000262:	f000 fe95 	bl	8000f90 <HAL_GPIO_WritePin>
		HAL_GPIO_WritePin(SEG4_GPIO_Port, SEG4_Pin, GPIO_PIN_SET);
 8000266:	2201      	movs	r2, #1
 8000268:	2110      	movs	r1, #16
 800026a:	487a      	ldr	r0, [pc, #488]	; (8000454 <display7SEG+0x308>)
 800026c:	f000 fe90 	bl	8000f90 <HAL_GPIO_WritePin>
		HAL_GPIO_WritePin(SEG5_GPIO_Port, SEG5_Pin, GPIO_PIN_SET);
 8000270:	2201      	movs	r2, #1
 8000272:	2120      	movs	r1, #32
 8000274:	4877      	ldr	r0, [pc, #476]	; (8000454 <display7SEG+0x308>)
 8000276:	f000 fe8b 	bl	8000f90 <HAL_GPIO_WritePin>
		HAL_GPIO_WritePin(SEG6_GPIO_Port, SEG6_Pin, GPIO_PIN_RESET);
 800027a:	2200      	movs	r2, #0
 800027c:	2140      	movs	r1, #64	; 0x40
 800027e:	4875      	ldr	r0, [pc, #468]	; (8000454 <display7SEG+0x308>)
 8000280:	f000 fe86 	bl	8000f90 <HAL_GPIO_WritePin>
	}

	if(num == 4){
 8000284:	687b      	ldr	r3, [r7, #4]
 8000286:	2b04      	cmp	r3, #4
 8000288:	d122      	bne.n	80002d0 <display7SEG+0x184>
		HAL_GPIO_WritePin(SEG0_GPIO_Port, SEG0_Pin, GPIO_PIN_SET);
 800028a:	2201      	movs	r2, #1
 800028c:	2101      	movs	r1, #1
 800028e:	4871      	ldr	r0, [pc, #452]	; (8000454 <display7SEG+0x308>)
 8000290:	f000 fe7e 	bl	8000f90 <HAL_GPIO_WritePin>
		HAL_GPIO_WritePin(SEG1_GPIO_Port, SEG1_Pin, GPIO_PIN_RESET);
 8000294:	2200      	movs	r2, #0
 8000296:	2102      	movs	r1, #2
 8000298:	486e      	ldr	r0, [pc, #440]	; (8000454 <display7SEG+0x308>)
 800029a:	f000 fe79 	bl	8000f90 <HAL_GPIO_WritePin>
		HAL_GPIO_WritePin(SEG2_GPIO_Port, SEG2_Pin, GPIO_PIN_RESET);
 800029e:	2200      	movs	r2, #0
 80002a0:	2104      	movs	r1, #4
 80002a2:	486c      	ldr	r0, [pc, #432]	; (8000454 <display7SEG+0x308>)
 80002a4:	f000 fe74 	bl	8000f90 <HAL_GPIO_WritePin>
		HAL_GPIO_WritePin(SEG3_GPIO_Port, SEG3_Pin, GPIO_PIN_SET);
 80002a8:	2201      	movs	r2, #1
 80002aa:	2108      	movs	r1, #8
 80002ac:	4869      	ldr	r0, [pc, #420]	; (8000454 <display7SEG+0x308>)
 80002ae:	f000 fe6f 	bl	8000f90 <HAL_GPIO_WritePin>
		HAL_GPIO_WritePin(SEG4_GPIO_Port, SEG4_Pin, GPIO_PIN_SET);
 80002b2:	2201      	movs	r2, #1
 80002b4:	2110      	movs	r1, #16
 80002b6:	4867      	ldr	r0, [pc, #412]	; (8000454 <display7SEG+0x308>)
 80002b8:	f000 fe6a 	bl	8000f90 <HAL_GPIO_WritePin>
		HAL_GPIO_WritePin(SEG5_GPIO_Port, SEG5_Pin, GPIO_PIN_RESET);
 80002bc:	2200      	movs	r2, #0
 80002be:	2120      	movs	r1, #32
 80002c0:	4864      	ldr	r0, [pc, #400]	; (8000454 <display7SEG+0x308>)
 80002c2:	f000 fe65 	bl	8000f90 <HAL_GPIO_WritePin>
		HAL_GPIO_WritePin(SEG6_GPIO_Port, SEG6_Pin, GPIO_PIN_RESET);
 80002c6:	2200      	movs	r2, #0
 80002c8:	2140      	movs	r1, #64	; 0x40
 80002ca:	4862      	ldr	r0, [pc, #392]	; (8000454 <display7SEG+0x308>)
 80002cc:	f000 fe60 	bl	8000f90 <HAL_GPIO_WritePin>
	}

	if(num == 5){
 80002d0:	687b      	ldr	r3, [r7, #4]
 80002d2:	2b05      	cmp	r3, #5
 80002d4:	d122      	bne.n	800031c <display7SEG+0x1d0>
		HAL_GPIO_WritePin(SEG0_GPIO_Port, SEG0_Pin, GPIO_PIN_RESET);
 80002d6:	2200      	movs	r2, #0
 80002d8:	2101      	movs	r1, #1
 80002da:	485e      	ldr	r0, [pc, #376]	; (8000454 <display7SEG+0x308>)
 80002dc:	f000 fe58 	bl	8000f90 <HAL_GPIO_WritePin>
		HAL_GPIO_WritePin(SEG1_GPIO_Port, SEG1_Pin, GPIO_PIN_SET);
 80002e0:	2201      	movs	r2, #1
 80002e2:	2102      	movs	r1, #2
 80002e4:	485b      	ldr	r0, [pc, #364]	; (8000454 <display7SEG+0x308>)
 80002e6:	f000 fe53 	bl	8000f90 <HAL_GPIO_WritePin>
		HAL_GPIO_WritePin(SEG2_GPIO_Port, SEG2_Pin, GPIO_PIN_RESET);
 80002ea:	2200      	movs	r2, #0
 80002ec:	2104      	movs	r1, #4
 80002ee:	4859      	ldr	r0, [pc, #356]	; (8000454 <display7SEG+0x308>)
 80002f0:	f000 fe4e 	bl	8000f90 <HAL_GPIO_WritePin>
		HAL_GPIO_WritePin(SEG3_GPIO_Port, SEG3_Pin, GPIO_PIN_RESET);
 80002f4:	2200      	movs	r2, #0
 80002f6:	2108      	movs	r1, #8
 80002f8:	4856      	ldr	r0, [pc, #344]	; (8000454 <display7SEG+0x308>)
 80002fa:	f000 fe49 	bl	8000f90 <HAL_GPIO_WritePin>
		HAL_GPIO_WritePin(SEG4_GPIO_Port, SEG4_Pin, GPIO_PIN_SET);
 80002fe:	2201      	movs	r2, #1
 8000300:	2110      	movs	r1, #16
 8000302:	4854      	ldr	r0, [pc, #336]	; (8000454 <display7SEG+0x308>)
 8000304:	f000 fe44 	bl	8000f90 <HAL_GPIO_WritePin>
		HAL_GPIO_WritePin(SEG5_GPIO_Port, SEG5_Pin, GPIO_PIN_RESET);
 8000308:	2200      	movs	r2, #0
 800030a:	2120      	movs	r1, #32
 800030c:	4851      	ldr	r0, [pc, #324]	; (8000454 <display7SEG+0x308>)
 800030e:	f000 fe3f 	bl	8000f90 <HAL_GPIO_WritePin>
		HAL_GPIO_WritePin(SEG6_GPIO_Port, SEG6_Pin, GPIO_PIN_RESET);
 8000312:	2200      	movs	r2, #0
 8000314:	2140      	movs	r1, #64	; 0x40
 8000316:	484f      	ldr	r0, [pc, #316]	; (8000454 <display7SEG+0x308>)
 8000318:	f000 fe3a 	bl	8000f90 <HAL_GPIO_WritePin>
	}

	if(num == 6){
 800031c:	687b      	ldr	r3, [r7, #4]
 800031e:	2b06      	cmp	r3, #6
 8000320:	d122      	bne.n	8000368 <display7SEG+0x21c>
		HAL_GPIO_WritePin(SEG0_GPIO_Port, SEG0_Pin, GPIO_PIN_RESET);
 8000322:	2200      	movs	r2, #0
 8000324:	2101      	movs	r1, #1
 8000326:	484b      	ldr	r0, [pc, #300]	; (8000454 <display7SEG+0x308>)
 8000328:	f000 fe32 	bl	8000f90 <HAL_GPIO_WritePin>
		HAL_GPIO_WritePin(SEG1_GPIO_Port, SEG1_Pin, GPIO_PIN_SET);
 800032c:	2201      	movs	r2, #1
 800032e:	2102      	movs	r1, #2
 8000330:	4848      	ldr	r0, [pc, #288]	; (8000454 <display7SEG+0x308>)
 8000332:	f000 fe2d 	bl	8000f90 <HAL_GPIO_WritePin>
		HAL_GPIO_WritePin(SEG2_GPIO_Port, SEG2_Pin, GPIO_PIN_RESET);
 8000336:	2200      	movs	r2, #0
 8000338:	2104      	movs	r1, #4
 800033a:	4846      	ldr	r0, [pc, #280]	; (8000454 <display7SEG+0x308>)
 800033c:	f000 fe28 	bl	8000f90 <HAL_GPIO_WritePin>
		HAL_GPIO_WritePin(SEG3_GPIO_Port, SEG3_Pin, GPIO_PIN_RESET);
 8000340:	2200      	movs	r2, #0
 8000342:	2108      	movs	r1, #8
 8000344:	4843      	ldr	r0, [pc, #268]	; (8000454 <display7SEG+0x308>)
 8000346:	f000 fe23 	bl	8000f90 <HAL_GPIO_WritePin>
		HAL_GPIO_WritePin(SEG4_GPIO_Port, SEG4_Pin, GPIO_PIN_RESET);
 800034a:	2200      	movs	r2, #0
 800034c:	2110      	movs	r1, #16
 800034e:	4841      	ldr	r0, [pc, #260]	; (8000454 <display7SEG+0x308>)
 8000350:	f000 fe1e 	bl	8000f90 <HAL_GPIO_WritePin>
		HAL_GPIO_WritePin(SEG5_GPIO_Port, SEG5_Pin, GPIO_PIN_RESET);
 8000354:	2200      	movs	r2, #0
 8000356:	2120      	movs	r1, #32
 8000358:	483e      	ldr	r0, [pc, #248]	; (8000454 <display7SEG+0x308>)
 800035a:	f000 fe19 	bl	8000f90 <HAL_GPIO_WritePin>
		HAL_GPIO_WritePin(SEG6_GPIO_Port, SEG6_Pin, GPIO_PIN_RESET);
 800035e:	2200      	movs	r2, #0
 8000360:	2140      	movs	r1, #64	; 0x40
 8000362:	483c      	ldr	r0, [pc, #240]	; (8000454 <display7SEG+0x308>)
 8000364:	f000 fe14 	bl	8000f90 <HAL_GPIO_WritePin>
	}

	if(num == 7){
 8000368:	687b      	ldr	r3, [r7, #4]
 800036a:	2b07      	cmp	r3, #7
 800036c:	d122      	bne.n	80003b4 <display7SEG+0x268>
		HAL_GPIO_WritePin(SEG0_GPIO_Port, SEG0_Pin, GPIO_PIN_RESET);
 800036e:	2200      	movs	r2, #0
 8000370:	2101      	movs	r1, #1
 8000372:	4838      	ldr	r0, [pc, #224]	; (8000454 <display7SEG+0x308>)
 8000374:	f000 fe0c 	bl	8000f90 <HAL_GPIO_WritePin>
		HAL_GPIO_WritePin(SEG1_GPIO_Port, SEG1_Pin, GPIO_PIN_RESET);
 8000378:	2200      	movs	r2, #0
 800037a:	2102      	movs	r1, #2
 800037c:	4835      	ldr	r0, [pc, #212]	; (8000454 <display7SEG+0x308>)
 800037e:	f000 fe07 	bl	8000f90 <HAL_GPIO_WritePin>
		HAL_GPIO_WritePin(SEG2_GPIO_Port, SEG2_Pin, GPIO_PIN_RESET);
 8000382:	2200      	movs	r2, #0
 8000384:	2104      	movs	r1, #4
 8000386:	4833      	ldr	r0, [pc, #204]	; (8000454 <display7SEG+0x308>)
 8000388:	f000 fe02 	bl	8000f90 <HAL_GPIO_WritePin>
		HAL_GPIO_WritePin(SEG3_GPIO_Port, SEG3_Pin, GPIO_PIN_SET);
 800038c:	2201      	movs	r2, #1
 800038e:	2108      	movs	r1, #8
 8000390:	4830      	ldr	r0, [pc, #192]	; (8000454 <display7SEG+0x308>)
 8000392:	f000 fdfd 	bl	8000f90 <HAL_GPIO_WritePin>
		HAL_GPIO_WritePin(SEG4_GPIO_Port, SEG4_Pin, GPIO_PIN_SET);
 8000396:	2201      	movs	r2, #1
 8000398:	2110      	movs	r1, #16
 800039a:	482e      	ldr	r0, [pc, #184]	; (8000454 <display7SEG+0x308>)
 800039c:	f000 fdf8 	bl	8000f90 <HAL_GPIO_WritePin>
		HAL_GPIO_WritePin(SEG5_GPIO_Port, SEG5_Pin, GPIO_PIN_SET);
 80003a0:	2201      	movs	r2, #1
 80003a2:	2120      	movs	r1, #32
 80003a4:	482b      	ldr	r0, [pc, #172]	; (8000454 <display7SEG+0x308>)
 80003a6:	f000 fdf3 	bl	8000f90 <HAL_GPIO_WritePin>
		HAL_GPIO_WritePin(SEG6_GPIO_Port, SEG6_Pin, GPIO_PIN_SET);
 80003aa:	2201      	movs	r2, #1
 80003ac:	2140      	movs	r1, #64	; 0x40
 80003ae:	4829      	ldr	r0, [pc, #164]	; (8000454 <display7SEG+0x308>)
 80003b0:	f000 fdee 	bl	8000f90 <HAL_GPIO_WritePin>
	}

	if(num == 8){
 80003b4:	687b      	ldr	r3, [r7, #4]
 80003b6:	2b08      	cmp	r3, #8
 80003b8:	d122      	bne.n	8000400 <display7SEG+0x2b4>
		HAL_GPIO_WritePin(SEG0_GPIO_Port, SEG0_Pin, GPIO_PIN_RESET);
 80003ba:	2200      	movs	r2, #0
 80003bc:	2101      	movs	r1, #1
 80003be:	4825      	ldr	r0, [pc, #148]	; (8000454 <display7SEG+0x308>)
 80003c0:	f000 fde6 	bl	8000f90 <HAL_GPIO_WritePin>
		HAL_GPIO_WritePin(SEG1_GPIO_Port, SEG1_Pin, GPIO_PIN_RESET);
 80003c4:	2200      	movs	r2, #0
 80003c6:	2102      	movs	r1, #2
 80003c8:	4822      	ldr	r0, [pc, #136]	; (8000454 <display7SEG+0x308>)
 80003ca:	f000 fde1 	bl	8000f90 <HAL_GPIO_WritePin>
		HAL_GPIO_WritePin(SEG2_GPIO_Port, SEG2_Pin, GPIO_PIN_RESET);
 80003ce:	2200      	movs	r2, #0
 80003d0:	2104      	movs	r1, #4
 80003d2:	4820      	ldr	r0, [pc, #128]	; (8000454 <display7SEG+0x308>)
 80003d4:	f000 fddc 	bl	8000f90 <HAL_GPIO_WritePin>
		HAL_GPIO_WritePin(SEG3_GPIO_Port, SEG3_Pin, GPIO_PIN_RESET);
 80003d8:	2200      	movs	r2, #0
 80003da:	2108      	movs	r1, #8
 80003dc:	481d      	ldr	r0, [pc, #116]	; (8000454 <display7SEG+0x308>)
 80003de:	f000 fdd7 	bl	8000f90 <HAL_GPIO_WritePin>
		HAL_GPIO_WritePin(SEG4_GPIO_Port, SEG4_Pin, GPIO_PIN_RESET);
 80003e2:	2200      	movs	r2, #0
 80003e4:	2110      	movs	r1, #16
 80003e6:	481b      	ldr	r0, [pc, #108]	; (8000454 <display7SEG+0x308>)
 80003e8:	f000 fdd2 	bl	8000f90 <HAL_GPIO_WritePin>
		HAL_GPIO_WritePin(SEG5_GPIO_Port, SEG5_Pin, GPIO_PIN_RESET);
 80003ec:	2200      	movs	r2, #0
 80003ee:	2120      	movs	r1, #32
 80003f0:	4818      	ldr	r0, [pc, #96]	; (8000454 <display7SEG+0x308>)
 80003f2:	f000 fdcd 	bl	8000f90 <HAL_GPIO_WritePin>
		HAL_GPIO_WritePin(SEG6_GPIO_Port, SEG6_Pin, GPIO_PIN_RESET);
 80003f6:	2200      	movs	r2, #0
 80003f8:	2140      	movs	r1, #64	; 0x40
 80003fa:	4816      	ldr	r0, [pc, #88]	; (8000454 <display7SEG+0x308>)
 80003fc:	f000 fdc8 	bl	8000f90 <HAL_GPIO_WritePin>
	}

	if(num == 9){
 8000400:	687b      	ldr	r3, [r7, #4]
 8000402:	2b09      	cmp	r3, #9
 8000404:	d122      	bne.n	800044c <display7SEG+0x300>
		HAL_GPIO_WritePin(SEG0_GPIO_Port, SEG0_Pin, GPIO_PIN_RESET);
 8000406:	2200      	movs	r2, #0
 8000408:	2101      	movs	r1, #1
 800040a:	4812      	ldr	r0, [pc, #72]	; (8000454 <display7SEG+0x308>)
 800040c:	f000 fdc0 	bl	8000f90 <HAL_GPIO_WritePin>
		HAL_GPIO_WritePin(SEG1_GPIO_Port, SEG1_Pin, GPIO_PIN_RESET);
 8000410:	2200      	movs	r2, #0
 8000412:	2102      	movs	r1, #2
 8000414:	480f      	ldr	r0, [pc, #60]	; (8000454 <display7SEG+0x308>)
 8000416:	f000 fdbb 	bl	8000f90 <HAL_GPIO_WritePin>
		HAL_GPIO_WritePin(SEG2_GPIO_Port, SEG2_Pin, GPIO_PIN_RESET);
 800041a:	2200      	movs	r2, #0
 800041c:	2104      	movs	r1, #4
 800041e:	480d      	ldr	r0, [pc, #52]	; (8000454 <display7SEG+0x308>)
 8000420:	f000 fdb6 	bl	8000f90 <HAL_GPIO_WritePin>
		HAL_GPIO_WritePin(SEG3_GPIO_Port, SEG3_Pin, GPIO_PIN_RESET);
 8000424:	2200      	movs	r2, #0
 8000426:	2108      	movs	r1, #8
 8000428:	480a      	ldr	r0, [pc, #40]	; (8000454 <display7SEG+0x308>)
 800042a:	f000 fdb1 	bl	8000f90 <HAL_GPIO_WritePin>
		HAL_GPIO_WritePin(SEG4_GPIO_Port, SEG4_Pin, GPIO_PIN_SET);
 800042e:	2201      	movs	r2, #1
 8000430:	2110      	movs	r1, #16
 8000432:	4808      	ldr	r0, [pc, #32]	; (8000454 <display7SEG+0x308>)
 8000434:	f000 fdac 	bl	8000f90 <HAL_GPIO_WritePin>
		HAL_GPIO_WritePin(SEG5_GPIO_Port, SEG5_Pin, GPIO_PIN_RESET);
 8000438:	2200      	movs	r2, #0
 800043a:	2120      	movs	r1, #32
 800043c:	4805      	ldr	r0, [pc, #20]	; (8000454 <display7SEG+0x308>)
 800043e:	f000 fda7 	bl	8000f90 <HAL_GPIO_WritePin>
		HAL_GPIO_WritePin(SEG6_GPIO_Port, SEG6_Pin, GPIO_PIN_RESET);
 8000442:	2200      	movs	r2, #0
 8000444:	2140      	movs	r1, #64	; 0x40
 8000446:	4803      	ldr	r0, [pc, #12]	; (8000454 <display7SEG+0x308>)
 8000448:	f000 fda2 	bl	8000f90 <HAL_GPIO_WritePin>
	}
}
 800044c:	bf00      	nop
 800044e:	3708      	adds	r7, #8
 8000450:	46bd      	mov	sp, r7
 8000452:	bd80      	pop	{r7, pc}
 8000454:	40010c00 	.word	0x40010c00

08000458 <fsm_automatic_run>:
 */
#include "fsm_automatic.h"


void fsm_automatic_run(void)
{
 8000458:	b580      	push	{r7, lr}
 800045a:	af00      	add	r7, sp, #0
	switch(scan_led_status)
 800045c:	4b2a      	ldr	r3, [pc, #168]	; (8000508 <fsm_automatic_run+0xb0>)
 800045e:	781b      	ldrb	r3, [r3, #0]
 8000460:	2b02      	cmp	r3, #2
 8000462:	d031      	beq.n	80004c8 <fsm_automatic_run+0x70>
 8000464:	2b02      	cmp	r3, #2
 8000466:	dc48      	bgt.n	80004fa <fsm_automatic_run+0xa2>
 8000468:	2b00      	cmp	r3, #0
 800046a:	d002      	beq.n	8000472 <fsm_automatic_run+0x1a>
 800046c:	2b01      	cmp	r3, #1
 800046e:	d012      	beq.n	8000496 <fsm_automatic_run+0x3e>
			setTimer2(ON_TIME);
			scan_led_status = LED1;
		}
		break;
	default:
		break;
 8000470:	e043      	b.n	80004fa <fsm_automatic_run+0xa2>
		HAL_GPIO_WritePin(EN0_GPIO_Port, EN0_Pin, GPIO_PIN_SET);
 8000472:	2201      	movs	r2, #1
 8000474:	2140      	movs	r1, #64	; 0x40
 8000476:	4825      	ldr	r0, [pc, #148]	; (800050c <fsm_automatic_run+0xb4>)
 8000478:	f000 fd8a 	bl	8000f90 <HAL_GPIO_WritePin>
		HAL_GPIO_WritePin(EN1_GPIO_Port, EN1_Pin, GPIO_PIN_SET);
 800047c:	2201      	movs	r2, #1
 800047e:	2180      	movs	r1, #128	; 0x80
 8000480:	4822      	ldr	r0, [pc, #136]	; (800050c <fsm_automatic_run+0xb4>)
 8000482:	f000 fd85 	bl	8000f90 <HAL_GPIO_WritePin>
		scan_led_status = LED1;
 8000486:	4b20      	ldr	r3, [pc, #128]	; (8000508 <fsm_automatic_run+0xb0>)
 8000488:	2201      	movs	r2, #1
 800048a:	701a      	strb	r2, [r3, #0]
		setTimer2(ON_TIME);
 800048c:	f44f 70fa 	mov.w	r0, #500	; 0x1f4
 8000490:	f000 f9a4 	bl	80007dc <setTimer2>
		break;
 8000494:	e036      	b.n	8000504 <fsm_automatic_run+0xac>
		HAL_GPIO_WritePin(EN0_GPIO_Port, EN0_Pin, GPIO_PIN_RESET);
 8000496:	2200      	movs	r2, #0
 8000498:	2140      	movs	r1, #64	; 0x40
 800049a:	481c      	ldr	r0, [pc, #112]	; (800050c <fsm_automatic_run+0xb4>)
 800049c:	f000 fd78 	bl	8000f90 <HAL_GPIO_WritePin>
		HAL_GPIO_WritePin(EN1_GPIO_Port, EN1_Pin, GPIO_PIN_SET);
 80004a0:	2201      	movs	r2, #1
 80004a2:	2180      	movs	r1, #128	; 0x80
 80004a4:	4819      	ldr	r0, [pc, #100]	; (800050c <fsm_automatic_run+0xb4>)
 80004a6:	f000 fd73 	bl	8000f90 <HAL_GPIO_WritePin>
		display7SEG(1);
 80004aa:	2001      	movs	r0, #1
 80004ac:	f7ff fe4e 	bl	800014c <display7SEG>
		if(timer2_flag == 1)
 80004b0:	4b17      	ldr	r3, [pc, #92]	; (8000510 <fsm_automatic_run+0xb8>)
 80004b2:	681b      	ldr	r3, [r3, #0]
 80004b4:	2b01      	cmp	r3, #1
 80004b6:	d122      	bne.n	80004fe <fsm_automatic_run+0xa6>
			setTimer2(ON_TIME);
 80004b8:	f44f 70fa 	mov.w	r0, #500	; 0x1f4
 80004bc:	f000 f98e 	bl	80007dc <setTimer2>
			scan_led_status = LED2;
 80004c0:	4b11      	ldr	r3, [pc, #68]	; (8000508 <fsm_automatic_run+0xb0>)
 80004c2:	2202      	movs	r2, #2
 80004c4:	701a      	strb	r2, [r3, #0]
		break;
 80004c6:	e01a      	b.n	80004fe <fsm_automatic_run+0xa6>
		HAL_GPIO_WritePin(EN0_GPIO_Port, EN0_Pin, GPIO_PIN_SET);
 80004c8:	2201      	movs	r2, #1
 80004ca:	2140      	movs	r1, #64	; 0x40
 80004cc:	480f      	ldr	r0, [pc, #60]	; (800050c <fsm_automatic_run+0xb4>)
 80004ce:	f000 fd5f 	bl	8000f90 <HAL_GPIO_WritePin>
		HAL_GPIO_WritePin(EN1_GPIO_Port, EN1_Pin, GPIO_PIN_RESET);
 80004d2:	2200      	movs	r2, #0
 80004d4:	2180      	movs	r1, #128	; 0x80
 80004d6:	480d      	ldr	r0, [pc, #52]	; (800050c <fsm_automatic_run+0xb4>)
 80004d8:	f000 fd5a 	bl	8000f90 <HAL_GPIO_WritePin>
		display7SEG(2);
 80004dc:	2002      	movs	r0, #2
 80004de:	f7ff fe35 	bl	800014c <display7SEG>
		if(timer2_flag == 1)
 80004e2:	4b0b      	ldr	r3, [pc, #44]	; (8000510 <fsm_automatic_run+0xb8>)
 80004e4:	681b      	ldr	r3, [r3, #0]
 80004e6:	2b01      	cmp	r3, #1
 80004e8:	d10b      	bne.n	8000502 <fsm_automatic_run+0xaa>
			setTimer2(ON_TIME);
 80004ea:	f44f 70fa 	mov.w	r0, #500	; 0x1f4
 80004ee:	f000 f975 	bl	80007dc <setTimer2>
			scan_led_status = LED1;
 80004f2:	4b05      	ldr	r3, [pc, #20]	; (8000508 <fsm_automatic_run+0xb0>)
 80004f4:	2201      	movs	r2, #1
 80004f6:	701a      	strb	r2, [r3, #0]
		break;
 80004f8:	e003      	b.n	8000502 <fsm_automatic_run+0xaa>
		break;
 80004fa:	bf00      	nop
 80004fc:	e002      	b.n	8000504 <fsm_automatic_run+0xac>
		break;
 80004fe:	bf00      	nop
 8000500:	e000      	b.n	8000504 <fsm_automatic_run+0xac>
		break;
 8000502:	bf00      	nop
	}
}
 8000504:	bf00      	nop
 8000506:	bd80      	pop	{r7, pc}
 8000508:	20000028 	.word	0x20000028
 800050c:	40010800 	.word	0x40010800
 8000510:	20000080 	.word	0x20000080

08000514 <blink_led>:


void blink_led(void)
{
 8000514:	b580      	push	{r7, lr}
 8000516:	af00      	add	r7, sp, #0
	switch(blink_status)
 8000518:	4b20      	ldr	r3, [pc, #128]	; (800059c <blink_led+0x88>)
 800051a:	781b      	ldrb	r3, [r3, #0]
 800051c:	2b02      	cmp	r3, #2
 800051e:	d024      	beq.n	800056a <blink_led+0x56>
 8000520:	2b02      	cmp	r3, #2
 8000522:	dc33      	bgt.n	800058c <blink_led+0x78>
 8000524:	2b00      	cmp	r3, #0
 8000526:	d002      	beq.n	800052e <blink_led+0x1a>
 8000528:	2b01      	cmp	r3, #1
 800052a:	d00d      	beq.n	8000548 <blink_led+0x34>
			setTimer1(BLINK_ON_TIME);
			blink_status = BLINK_ON;
		}
		break;
	default:
		break;
 800052c:	e02e      	b.n	800058c <blink_led+0x78>
		HAL_GPIO_WritePin(LED_RED_GPIO_Port, LED_RED_Pin, GPIO_PIN_SET); /* Turn off led red*/
 800052e:	2201      	movs	r2, #1
 8000530:	2120      	movs	r1, #32
 8000532:	481b      	ldr	r0, [pc, #108]	; (80005a0 <blink_led+0x8c>)
 8000534:	f000 fd2c 	bl	8000f90 <HAL_GPIO_WritePin>
		blink_status = BLINK_ON;
 8000538:	4b18      	ldr	r3, [pc, #96]	; (800059c <blink_led+0x88>)
 800053a:	2201      	movs	r2, #1
 800053c:	701a      	strb	r2, [r3, #0]
		setTimer1(BLINK_ON_TIME);
 800053e:	f44f 70fa 	mov.w	r0, #500	; 0x1f4
 8000542:	f000 f92f 	bl	80007a4 <setTimer1>
		break;
 8000546:	e026      	b.n	8000596 <blink_led+0x82>
		HAL_GPIO_WritePin(LED_RED_GPIO_Port, LED_RED_Pin, GPIO_PIN_RESET);
 8000548:	2200      	movs	r2, #0
 800054a:	2120      	movs	r1, #32
 800054c:	4814      	ldr	r0, [pc, #80]	; (80005a0 <blink_led+0x8c>)
 800054e:	f000 fd1f 	bl	8000f90 <HAL_GPIO_WritePin>
		if(timer1_flag == 1)
 8000552:	4b14      	ldr	r3, [pc, #80]	; (80005a4 <blink_led+0x90>)
 8000554:	681b      	ldr	r3, [r3, #0]
 8000556:	2b01      	cmp	r3, #1
 8000558:	d11a      	bne.n	8000590 <blink_led+0x7c>
			setTimer1(BLINK_OFF_TIME);
 800055a:	f44f 70fa 	mov.w	r0, #500	; 0x1f4
 800055e:	f000 f921 	bl	80007a4 <setTimer1>
			blink_status = BLINK_OFF;
 8000562:	4b0e      	ldr	r3, [pc, #56]	; (800059c <blink_led+0x88>)
 8000564:	2202      	movs	r2, #2
 8000566:	701a      	strb	r2, [r3, #0]
		break;
 8000568:	e012      	b.n	8000590 <blink_led+0x7c>
		HAL_GPIO_WritePin(LED_RED_GPIO_Port, LED_RED_Pin, GPIO_PIN_SET);
 800056a:	2201      	movs	r2, #1
 800056c:	2120      	movs	r1, #32
 800056e:	480c      	ldr	r0, [pc, #48]	; (80005a0 <blink_led+0x8c>)
 8000570:	f000 fd0e 	bl	8000f90 <HAL_GPIO_WritePin>
		if(timer1_flag == 1)
 8000574:	4b0b      	ldr	r3, [pc, #44]	; (80005a4 <blink_led+0x90>)
 8000576:	681b      	ldr	r3, [r3, #0]
 8000578:	2b01      	cmp	r3, #1
 800057a:	d10b      	bne.n	8000594 <blink_led+0x80>
			setTimer1(BLINK_ON_TIME);
 800057c:	f44f 70fa 	mov.w	r0, #500	; 0x1f4
 8000580:	f000 f910 	bl	80007a4 <setTimer1>
			blink_status = BLINK_ON;
 8000584:	4b05      	ldr	r3, [pc, #20]	; (800059c <blink_led+0x88>)
 8000586:	2201      	movs	r2, #1
 8000588:	701a      	strb	r2, [r3, #0]
		break;
 800058a:	e003      	b.n	8000594 <blink_led+0x80>
		break;
 800058c:	bf00      	nop
 800058e:	e002      	b.n	8000596 <blink_led+0x82>
		break;
 8000590:	bf00      	nop
 8000592:	e000      	b.n	8000596 <blink_led+0x82>
		break;
 8000594:	bf00      	nop
	}
}
 8000596:	bf00      	nop
 8000598:	bd80      	pop	{r7, pc}
 800059a:	bf00      	nop
 800059c:	20000029 	.word	0x20000029
 80005a0:	40010800 	.word	0x40010800
 80005a4:	20000078 	.word	0x20000078

080005a8 <main>:
/**
  * @brief  The application entry point.
  * @retval int
  */
int main(void)
{
 80005a8:	b580      	push	{r7, lr}
 80005aa:	af00      	add	r7, sp, #0
  /* USER CODE END 1 */

  /* MCU Configuration--------------------------------------------------------*/

  /* Reset of all peripherals, Initializes the Flash interface and the Systick. */
  HAL_Init();
 80005ac:	f000 fa04 	bl	80009b8 <HAL_Init>
  /* USER CODE BEGIN Init */

  /* USER CODE END Init */

  /* Configure the system clock */
  SystemClock_Config();
 80005b0:	f000 f80e 	bl	80005d0 <SystemClock_Config>
  /* USER CODE BEGIN SysInit */

  /* USER CODE END SysInit */

  /* Initialize all configured peripherals */
  MX_GPIO_Init();
 80005b4:	f000 f894 	bl	80006e0 <MX_GPIO_Init>
  MX_TIM2_Init();
 80005b8:	f000 f846 	bl	8000648 <MX_TIM2_Init>
  /* USER CODE BEGIN 2 */
  HAL_TIM_Base_Start_IT(& htim2); /*function to initialize the timer*/
 80005bc:	4803      	ldr	r0, [pc, #12]	; (80005cc <main+0x24>)
 80005be:	f001 f92d 	bl	800181c <HAL_TIM_Base_Start_IT>
  /* Infinite loop */
  /* USER CODE BEGIN WHILE */

  while (1)
  {
	  blink_led();
 80005c2:	f7ff ffa7 	bl	8000514 <blink_led>
	  fsm_automatic_run();
 80005c6:	f7ff ff47 	bl	8000458 <fsm_automatic_run>
	  blink_led();
 80005ca:	e7fa      	b.n	80005c2 <main+0x1a>
 80005cc:	2000002c 	.word	0x2000002c

080005d0 <SystemClock_Config>:
/**
  * @brief System Clock Configuration
  * @retval None
  */
void SystemClock_Config(void)
{
 80005d0:	b580      	push	{r7, lr}
 80005d2:	b090      	sub	sp, #64	; 0x40
 80005d4:	af00      	add	r7, sp, #0
  RCC_OscInitTypeDef RCC_OscInitStruct = {0};
 80005d6:	f107 0318 	add.w	r3, r7, #24
 80005da:	2228      	movs	r2, #40	; 0x28
 80005dc:	2100      	movs	r1, #0
 80005de:	4618      	mov	r0, r3
 80005e0:	f001 fcd8 	bl	8001f94 <memset>
  RCC_ClkInitTypeDef RCC_ClkInitStruct = {0};
 80005e4:	1d3b      	adds	r3, r7, #4
 80005e6:	2200      	movs	r2, #0
 80005e8:	601a      	str	r2, [r3, #0]
 80005ea:	605a      	str	r2, [r3, #4]
 80005ec:	609a      	str	r2, [r3, #8]
 80005ee:	60da      	str	r2, [r3, #12]
 80005f0:	611a      	str	r2, [r3, #16]

  /** Initializes the RCC Oscillators according to the specified parameters
  * in the RCC_OscInitTypeDef structure.
  */
  RCC_OscInitStruct.OscillatorType = RCC_OSCILLATORTYPE_HSI;
 80005f2:	2302      	movs	r3, #2
 80005f4:	61bb      	str	r3, [r7, #24]
  RCC_OscInitStruct.HSIState = RCC_HSI_ON;
 80005f6:	2301      	movs	r3, #1
 80005f8:	62bb      	str	r3, [r7, #40]	; 0x28
  RCC_OscInitStruct.HSICalibrationValue = RCC_HSICALIBRATION_DEFAULT;
 80005fa:	2310      	movs	r3, #16
 80005fc:	62fb      	str	r3, [r7, #44]	; 0x2c
  RCC_OscInitStruct.PLL.PLLState = RCC_PLL_NONE;
 80005fe:	2300      	movs	r3, #0
 8000600:	637b      	str	r3, [r7, #52]	; 0x34
  if (HAL_RCC_OscConfig(&RCC_OscInitStruct) != HAL_OK)
 8000602:	f107 0318 	add.w	r3, r7, #24
 8000606:	4618      	mov	r0, r3
 8000608:	f000 fcda 	bl	8000fc0 <HAL_RCC_OscConfig>
 800060c:	4603      	mov	r3, r0
 800060e:	2b00      	cmp	r3, #0
 8000610:	d001      	beq.n	8000616 <SystemClock_Config+0x46>
  {
    Error_Handler();
 8000612:	f000 f8c1 	bl	8000798 <Error_Handler>
  }

  /** Initializes the CPU, AHB and APB buses clocks
  */
  RCC_ClkInitStruct.ClockType = RCC_CLOCKTYPE_HCLK|RCC_CLOCKTYPE_SYSCLK
 8000616:	230f      	movs	r3, #15
 8000618:	607b      	str	r3, [r7, #4]
                              |RCC_CLOCKTYPE_PCLK1|RCC_CLOCKTYPE_PCLK2;
  RCC_ClkInitStruct.SYSCLKSource = RCC_SYSCLKSOURCE_HSI;
 800061a:	2300      	movs	r3, #0
 800061c:	60bb      	str	r3, [r7, #8]
  RCC_ClkInitStruct.AHBCLKDivider = RCC_SYSCLK_DIV1;
 800061e:	2300      	movs	r3, #0
 8000620:	60fb      	str	r3, [r7, #12]
  RCC_ClkInitStruct.APB1CLKDivider = RCC_HCLK_DIV1;
 8000622:	2300      	movs	r3, #0
 8000624:	613b      	str	r3, [r7, #16]
  RCC_ClkInitStruct.APB2CLKDivider = RCC_HCLK_DIV1;
 8000626:	2300      	movs	r3, #0
 8000628:	617b      	str	r3, [r7, #20]

  if (HAL_RCC_ClockConfig(&RCC_ClkInitStruct, FLASH_LATENCY_0) != HAL_OK)
 800062a:	1d3b      	adds	r3, r7, #4
 800062c:	2100      	movs	r1, #0
 800062e:	4618      	mov	r0, r3
 8000630:	f000 ff48 	bl	80014c4 <HAL_RCC_ClockConfig>
 8000634:	4603      	mov	r3, r0
 8000636:	2b00      	cmp	r3, #0
 8000638:	d001      	beq.n	800063e <SystemClock_Config+0x6e>
  {
    Error_Handler();
 800063a:	f000 f8ad 	bl	8000798 <Error_Handler>
  }
}
 800063e:	bf00      	nop
 8000640:	3740      	adds	r7, #64	; 0x40
 8000642:	46bd      	mov	sp, r7
 8000644:	bd80      	pop	{r7, pc}
	...

08000648 <MX_TIM2_Init>:
  * @brief TIM2 Initialization Function
  * @param None
  * @retval None
  */
static void MX_TIM2_Init(void)
{
 8000648:	b580      	push	{r7, lr}
 800064a:	b086      	sub	sp, #24
 800064c:	af00      	add	r7, sp, #0

  /* USER CODE BEGIN TIM2_Init 0 */

  /* USER CODE END TIM2_Init 0 */

  TIM_ClockConfigTypeDef sClockSourceConfig = {0};
 800064e:	f107 0308 	add.w	r3, r7, #8
 8000652:	2200      	movs	r2, #0
 8000654:	601a      	str	r2, [r3, #0]
 8000656:	605a      	str	r2, [r3, #4]
 8000658:	609a      	str	r2, [r3, #8]
 800065a:	60da      	str	r2, [r3, #12]
  TIM_MasterConfigTypeDef sMasterConfig = {0};
 800065c:	463b      	mov	r3, r7
 800065e:	2200      	movs	r2, #0
 8000660:	601a      	str	r2, [r3, #0]
 8000662:	605a      	str	r2, [r3, #4]

  /* USER CODE BEGIN TIM2_Init 1 */

  /* USER CODE END TIM2_Init 1 */
  htim2.Instance = TIM2;
 8000664:	4b1d      	ldr	r3, [pc, #116]	; (80006dc <MX_TIM2_Init+0x94>)
 8000666:	f04f 4280 	mov.w	r2, #1073741824	; 0x40000000
 800066a:	601a      	str	r2, [r3, #0]
  htim2.Init.Prescaler = 7999;
 800066c:	4b1b      	ldr	r3, [pc, #108]	; (80006dc <MX_TIM2_Init+0x94>)
 800066e:	f641 723f 	movw	r2, #7999	; 0x1f3f
 8000672:	605a      	str	r2, [r3, #4]
  htim2.Init.CounterMode = TIM_COUNTERMODE_UP;
 8000674:	4b19      	ldr	r3, [pc, #100]	; (80006dc <MX_TIM2_Init+0x94>)
 8000676:	2200      	movs	r2, #0
 8000678:	609a      	str	r2, [r3, #8]
  htim2.Init.Period = 9;
 800067a:	4b18      	ldr	r3, [pc, #96]	; (80006dc <MX_TIM2_Init+0x94>)
 800067c:	2209      	movs	r2, #9
 800067e:	60da      	str	r2, [r3, #12]
  htim2.Init.ClockDivision = TIM_CLOCKDIVISION_DIV1;
 8000680:	4b16      	ldr	r3, [pc, #88]	; (80006dc <MX_TIM2_Init+0x94>)
 8000682:	2200      	movs	r2, #0
 8000684:	611a      	str	r2, [r3, #16]
  htim2.Init.AutoReloadPreload = TIM_AUTORELOAD_PRELOAD_DISABLE;
 8000686:	4b15      	ldr	r3, [pc, #84]	; (80006dc <MX_TIM2_Init+0x94>)
 8000688:	2200      	movs	r2, #0
 800068a:	619a      	str	r2, [r3, #24]
  if (HAL_TIM_Base_Init(&htim2) != HAL_OK)
 800068c:	4813      	ldr	r0, [pc, #76]	; (80006dc <MX_TIM2_Init+0x94>)
 800068e:	f001 f875 	bl	800177c <HAL_TIM_Base_Init>
 8000692:	4603      	mov	r3, r0
 8000694:	2b00      	cmp	r3, #0
 8000696:	d001      	beq.n	800069c <MX_TIM2_Init+0x54>
  {
    Error_Handler();
 8000698:	f000 f87e 	bl	8000798 <Error_Handler>
  }
  sClockSourceConfig.ClockSource = TIM_CLOCKSOURCE_INTERNAL;
 800069c:	f44f 5380 	mov.w	r3, #4096	; 0x1000
 80006a0:	60bb      	str	r3, [r7, #8]
  if (HAL_TIM_ConfigClockSource(&htim2, &sClockSourceConfig) != HAL_OK)
 80006a2:	f107 0308 	add.w	r3, r7, #8
 80006a6:	4619      	mov	r1, r3
 80006a8:	480c      	ldr	r0, [pc, #48]	; (80006dc <MX_TIM2_Init+0x94>)
 80006aa:	f001 fa0b 	bl	8001ac4 <HAL_TIM_ConfigClockSource>
 80006ae:	4603      	mov	r3, r0
 80006b0:	2b00      	cmp	r3, #0
 80006b2:	d001      	beq.n	80006b8 <MX_TIM2_Init+0x70>
  {
    Error_Handler();
 80006b4:	f000 f870 	bl	8000798 <Error_Handler>
  }
  sMasterConfig.MasterOutputTrigger = TIM_TRGO_RESET;
 80006b8:	2300      	movs	r3, #0
 80006ba:	603b      	str	r3, [r7, #0]
  sMasterConfig.MasterSlaveMode = TIM_MASTERSLAVEMODE_DISABLE;
 80006bc:	2300      	movs	r3, #0
 80006be:	607b      	str	r3, [r7, #4]
  if (HAL_TIMEx_MasterConfigSynchronization(&htim2, &sMasterConfig) != HAL_OK)
 80006c0:	463b      	mov	r3, r7
 80006c2:	4619      	mov	r1, r3
 80006c4:	4805      	ldr	r0, [pc, #20]	; (80006dc <MX_TIM2_Init+0x94>)
 80006c6:	f001 fbd7 	bl	8001e78 <HAL_TIMEx_MasterConfigSynchronization>
 80006ca:	4603      	mov	r3, r0
 80006cc:	2b00      	cmp	r3, #0
 80006ce:	d001      	beq.n	80006d4 <MX_TIM2_Init+0x8c>
  {
    Error_Handler();
 80006d0:	f000 f862 	bl	8000798 <Error_Handler>
  }
  /* USER CODE BEGIN TIM2_Init 2 */

  /* USER CODE END TIM2_Init 2 */

}
 80006d4:	bf00      	nop
 80006d6:	3718      	adds	r7, #24
 80006d8:	46bd      	mov	sp, r7
 80006da:	bd80      	pop	{r7, pc}
 80006dc:	2000002c 	.word	0x2000002c

080006e0 <MX_GPIO_Init>:
  * @brief GPIO Initialization Function
  * @param None
  * @retval None
  */
static void MX_GPIO_Init(void)
{
 80006e0:	b580      	push	{r7, lr}
 80006e2:	b086      	sub	sp, #24
 80006e4:	af00      	add	r7, sp, #0
  GPIO_InitTypeDef GPIO_InitStruct = {0};
 80006e6:	f107 0308 	add.w	r3, r7, #8
 80006ea:	2200      	movs	r2, #0
 80006ec:	601a      	str	r2, [r3, #0]
 80006ee:	605a      	str	r2, [r3, #4]
 80006f0:	609a      	str	r2, [r3, #8]
 80006f2:	60da      	str	r2, [r3, #12]
/* USER CODE BEGIN MX_GPIO_Init_1 */
/* USER CODE END MX_GPIO_Init_1 */

  /* GPIO Ports Clock Enable */
  __HAL_RCC_GPIOA_CLK_ENABLE();
 80006f4:	4b20      	ldr	r3, [pc, #128]	; (8000778 <MX_GPIO_Init+0x98>)
 80006f6:	699b      	ldr	r3, [r3, #24]
 80006f8:	4a1f      	ldr	r2, [pc, #124]	; (8000778 <MX_GPIO_Init+0x98>)
 80006fa:	f043 0304 	orr.w	r3, r3, #4
 80006fe:	6193      	str	r3, [r2, #24]
 8000700:	4b1d      	ldr	r3, [pc, #116]	; (8000778 <MX_GPIO_Init+0x98>)
 8000702:	699b      	ldr	r3, [r3, #24]
 8000704:	f003 0304 	and.w	r3, r3, #4
 8000708:	607b      	str	r3, [r7, #4]
 800070a:	687b      	ldr	r3, [r7, #4]
  __HAL_RCC_GPIOB_CLK_ENABLE();
 800070c:	4b1a      	ldr	r3, [pc, #104]	; (8000778 <MX_GPIO_Init+0x98>)
 800070e:	699b      	ldr	r3, [r3, #24]
 8000710:	4a19      	ldr	r2, [pc, #100]	; (8000778 <MX_GPIO_Init+0x98>)
 8000712:	f043 0308 	orr.w	r3, r3, #8
 8000716:	6193      	str	r3, [r2, #24]
 8000718:	4b17      	ldr	r3, [pc, #92]	; (8000778 <MX_GPIO_Init+0x98>)
 800071a:	699b      	ldr	r3, [r3, #24]
 800071c:	f003 0308 	and.w	r3, r3, #8
 8000720:	603b      	str	r3, [r7, #0]
 8000722:	683b      	ldr	r3, [r7, #0]

  /*Configure GPIO pin Output Level */
  HAL_GPIO_WritePin(GPIOA, LED_RED_Pin|EN0_Pin|EN1_Pin, GPIO_PIN_RESET);
 8000724:	2200      	movs	r2, #0
 8000726:	21e0      	movs	r1, #224	; 0xe0
 8000728:	4814      	ldr	r0, [pc, #80]	; (800077c <MX_GPIO_Init+0x9c>)
 800072a:	f000 fc31 	bl	8000f90 <HAL_GPIO_WritePin>

  /*Configure GPIO pin Output Level */
  HAL_GPIO_WritePin(GPIOB, SEG0_Pin|SEG1_Pin|SEG2_Pin|SEG3_Pin
 800072e:	2200      	movs	r2, #0
 8000730:	217f      	movs	r1, #127	; 0x7f
 8000732:	4813      	ldr	r0, [pc, #76]	; (8000780 <MX_GPIO_Init+0xa0>)
 8000734:	f000 fc2c 	bl	8000f90 <HAL_GPIO_WritePin>
                          |SEG4_Pin|SEG5_Pin|SEG6_Pin, GPIO_PIN_RESET);

  /*Configure GPIO pins : LED_RED_Pin EN0_Pin EN1_Pin */
  GPIO_InitStruct.Pin = LED_RED_Pin|EN0_Pin|EN1_Pin;
 8000738:	23e0      	movs	r3, #224	; 0xe0
 800073a:	60bb      	str	r3, [r7, #8]
  GPIO_InitStruct.Mode = GPIO_MODE_OUTPUT_PP;
 800073c:	2301      	movs	r3, #1
 800073e:	60fb      	str	r3, [r7, #12]
  GPIO_InitStruct.Pull = GPIO_NOPULL;
 8000740:	2300      	movs	r3, #0
 8000742:	613b      	str	r3, [r7, #16]
  GPIO_InitStruct.Speed = GPIO_SPEED_FREQ_LOW;
 8000744:	2302      	movs	r3, #2
 8000746:	617b      	str	r3, [r7, #20]
  HAL_GPIO_Init(GPIOA, &GPIO_InitStruct);
 8000748:	f107 0308 	add.w	r3, r7, #8
 800074c:	4619      	mov	r1, r3
 800074e:	480b      	ldr	r0, [pc, #44]	; (800077c <MX_GPIO_Init+0x9c>)
 8000750:	f000 faa2 	bl	8000c98 <HAL_GPIO_Init>

  /*Configure GPIO pins : SEG0_Pin SEG1_Pin SEG2_Pin SEG3_Pin
                           SEG4_Pin SEG5_Pin SEG6_Pin */
  GPIO_InitStruct.Pin = SEG0_Pin|SEG1_Pin|SEG2_Pin|SEG3_Pin
 8000754:	237f      	movs	r3, #127	; 0x7f
 8000756:	60bb      	str	r3, [r7, #8]
                          |SEG4_Pin|SEG5_Pin|SEG6_Pin;
  GPIO_InitStruct.Mode = GPIO_MODE_OUTPUT_PP;
 8000758:	2301      	movs	r3, #1
 800075a:	60fb      	str	r3, [r7, #12]
  GPIO_InitStruct.Pull = GPIO_NOPULL;
 800075c:	2300      	movs	r3, #0
 800075e:	613b      	str	r3, [r7, #16]
  GPIO_InitStruct.Speed = GPIO_SPEED_FREQ_LOW;
 8000760:	2302      	movs	r3, #2
 8000762:	617b      	str	r3, [r7, #20]
  HAL_GPIO_Init(GPIOB, &GPIO_InitStruct);
 8000764:	f107 0308 	add.w	r3, r7, #8
 8000768:	4619      	mov	r1, r3
 800076a:	4805      	ldr	r0, [pc, #20]	; (8000780 <MX_GPIO_Init+0xa0>)
 800076c:	f000 fa94 	bl	8000c98 <HAL_GPIO_Init>

/* USER CODE BEGIN MX_GPIO_Init_2 */
/* USER CODE END MX_GPIO_Init_2 */
}
 8000770:	bf00      	nop
 8000772:	3718      	adds	r7, #24
 8000774:	46bd      	mov	sp, r7
 8000776:	bd80      	pop	{r7, pc}
 8000778:	40021000 	.word	0x40021000
 800077c:	40010800 	.word	0x40010800
 8000780:	40010c00 	.word	0x40010c00

08000784 <HAL_TIM_PeriodElapsedCallback>:

/* USER CODE BEGIN 4 */
/*******************************************************
 Interrupt function is called every 10 ms
*******************************************************/
void HAL_TIM_PeriodElapsedCallback(TIM_HandleTypeDef *htim){
 8000784:	b580      	push	{r7, lr}
 8000786:	b082      	sub	sp, #8
 8000788:	af00      	add	r7, sp, #0
 800078a:	6078      	str	r0, [r7, #4]
	timerRun();
 800078c:	f000 f842 	bl	8000814 <timerRun>
}
 8000790:	bf00      	nop
 8000792:	3708      	adds	r7, #8
 8000794:	46bd      	mov	sp, r7
 8000796:	bd80      	pop	{r7, pc}

08000798 <Error_Handler>:
/**
  * @brief  This function is executed in case of error occurrence.
  * @retval None
  */
void Error_Handler(void)
{
 8000798:	b480      	push	{r7}
 800079a:	af00      	add	r7, sp, #0
  \details Disables IRQ interrupts by setting the I-bit in the CPSR.
           Can only be executed in Privileged modes.
 */
__STATIC_FORCEINLINE void __disable_irq(void)
{
  __ASM volatile ("cpsid i" : : : "memory");
 800079c:	b672      	cpsid	i
}
 800079e:	bf00      	nop
  /* USER CODE BEGIN Error_Handler_Debug */
  /* User can add his own implementation to report the HAL error return state */
  __disable_irq();
  while (1)
 80007a0:	e7fe      	b.n	80007a0 <Error_Handler+0x8>
	...

080007a4 <setTimer1>:
 */
#include "software_timer.h"
int timer1_counter = 0;
int timer1_flag = 0;

void setTimer1(int duration){
 80007a4:	b480      	push	{r7}
 80007a6:	b083      	sub	sp, #12
 80007a8:	af00      	add	r7, sp, #0
 80007aa:	6078      	str	r0, [r7, #4]
	timer1_counter = duration/TICK;
 80007ac:	687b      	ldr	r3, [r7, #4]
 80007ae:	4a08      	ldr	r2, [pc, #32]	; (80007d0 <setTimer1+0x2c>)
 80007b0:	fb82 1203 	smull	r1, r2, r2, r3
 80007b4:	1092      	asrs	r2, r2, #2
 80007b6:	17db      	asrs	r3, r3, #31
 80007b8:	1ad3      	subs	r3, r2, r3
 80007ba:	4a06      	ldr	r2, [pc, #24]	; (80007d4 <setTimer1+0x30>)
 80007bc:	6013      	str	r3, [r2, #0]
	timer1_flag = 0;
 80007be:	4b06      	ldr	r3, [pc, #24]	; (80007d8 <setTimer1+0x34>)
 80007c0:	2200      	movs	r2, #0
 80007c2:	601a      	str	r2, [r3, #0]
}
 80007c4:	bf00      	nop
 80007c6:	370c      	adds	r7, #12
 80007c8:	46bd      	mov	sp, r7
 80007ca:	bc80      	pop	{r7}
 80007cc:	4770      	bx	lr
 80007ce:	bf00      	nop
 80007d0:	66666667 	.word	0x66666667
 80007d4:	20000074 	.word	0x20000074
 80007d8:	20000078 	.word	0x20000078

080007dc <setTimer2>:

int timer2_counter = 0;
int timer2_flag = 0;
void setTimer2(int duration)
{
 80007dc:	b480      	push	{r7}
 80007de:	b083      	sub	sp, #12
 80007e0:	af00      	add	r7, sp, #0
 80007e2:	6078      	str	r0, [r7, #4]
	timer2_counter = duration/TICK;
 80007e4:	687b      	ldr	r3, [r7, #4]
 80007e6:	4a08      	ldr	r2, [pc, #32]	; (8000808 <setTimer2+0x2c>)
 80007e8:	fb82 1203 	smull	r1, r2, r2, r3
 80007ec:	1092      	asrs	r2, r2, #2
 80007ee:	17db      	asrs	r3, r3, #31
 80007f0:	1ad3      	subs	r3, r2, r3
 80007f2:	4a06      	ldr	r2, [pc, #24]	; (800080c <setTimer2+0x30>)
 80007f4:	6013      	str	r3, [r2, #0]
	timer2_flag = 0;
 80007f6:	4b06      	ldr	r3, [pc, #24]	; (8000810 <setTimer2+0x34>)
 80007f8:	2200      	movs	r2, #0
 80007fa:	601a      	str	r2, [r3, #0]
}
 80007fc:	bf00      	nop
 80007fe:	370c      	adds	r7, #12
 8000800:	46bd      	mov	sp, r7
 8000802:	bc80      	pop	{r7}
 8000804:	4770      	bx	lr
 8000806:	bf00      	nop
 8000808:	66666667 	.word	0x66666667
 800080c:	2000007c 	.word	0x2000007c
 8000810:	20000080 	.word	0x20000080

08000814 <timerRun>:

void timerRun(){
 8000814:	b480      	push	{r7}
 8000816:	af00      	add	r7, sp, #0
	if(timer1_counter > 0){
 8000818:	4b11      	ldr	r3, [pc, #68]	; (8000860 <timerRun+0x4c>)
 800081a:	681b      	ldr	r3, [r3, #0]
 800081c:	2b00      	cmp	r3, #0
 800081e:	dd0b      	ble.n	8000838 <timerRun+0x24>
		timer1_counter--;
 8000820:	4b0f      	ldr	r3, [pc, #60]	; (8000860 <timerRun+0x4c>)
 8000822:	681b      	ldr	r3, [r3, #0]
 8000824:	3b01      	subs	r3, #1
 8000826:	4a0e      	ldr	r2, [pc, #56]	; (8000860 <timerRun+0x4c>)
 8000828:	6013      	str	r3, [r2, #0]
		if(timer1_counter <= 0){
 800082a:	4b0d      	ldr	r3, [pc, #52]	; (8000860 <timerRun+0x4c>)
 800082c:	681b      	ldr	r3, [r3, #0]
 800082e:	2b00      	cmp	r3, #0
 8000830:	dc02      	bgt.n	8000838 <timerRun+0x24>
			timer1_flag = 1;
 8000832:	4b0c      	ldr	r3, [pc, #48]	; (8000864 <timerRun+0x50>)
 8000834:	2201      	movs	r2, #1
 8000836:	601a      	str	r2, [r3, #0]
		}
	}
	if(timer2_counter > 0)
 8000838:	4b0b      	ldr	r3, [pc, #44]	; (8000868 <timerRun+0x54>)
 800083a:	681b      	ldr	r3, [r3, #0]
 800083c:	2b00      	cmp	r3, #0
 800083e:	dd0b      	ble.n	8000858 <timerRun+0x44>
	{
		timer2_counter--;
 8000840:	4b09      	ldr	r3, [pc, #36]	; (8000868 <timerRun+0x54>)
 8000842:	681b      	ldr	r3, [r3, #0]
 8000844:	3b01      	subs	r3, #1
 8000846:	4a08      	ldr	r2, [pc, #32]	; (8000868 <timerRun+0x54>)
 8000848:	6013      	str	r3, [r2, #0]
		if(timer2_counter <= 0)
 800084a:	4b07      	ldr	r3, [pc, #28]	; (8000868 <timerRun+0x54>)
 800084c:	681b      	ldr	r3, [r3, #0]
 800084e:	2b00      	cmp	r3, #0
 8000850:	dc02      	bgt.n	8000858 <timerRun+0x44>
		{
			timer2_flag = 1;
 8000852:	4b06      	ldr	r3, [pc, #24]	; (800086c <timerRun+0x58>)
 8000854:	2201      	movs	r2, #1
 8000856:	601a      	str	r2, [r3, #0]
		}
	}
}
 8000858:	bf00      	nop
 800085a:	46bd      	mov	sp, r7
 800085c:	bc80      	pop	{r7}
 800085e:	4770      	bx	lr
 8000860:	20000074 	.word	0x20000074
 8000864:	20000078 	.word	0x20000078
 8000868:	2000007c 	.word	0x2000007c
 800086c:	20000080 	.word	0x20000080

08000870 <HAL_MspInit>:
/* USER CODE END 0 */
/**
  * Initializes the Global MSP.
  */
void HAL_MspInit(void)
{
 8000870:	b480      	push	{r7}
 8000872:	b083      	sub	sp, #12
 8000874:	af00      	add	r7, sp, #0
  /* USER CODE BEGIN MspInit 0 */

  /* USER CODE END MspInit 0 */

  __HAL_RCC_AFIO_CLK_ENABLE();
 8000876:	4b0e      	ldr	r3, [pc, #56]	; (80008b0 <HAL_MspInit+0x40>)
 8000878:	699b      	ldr	r3, [r3, #24]
 800087a:	4a0d      	ldr	r2, [pc, #52]	; (80008b0 <HAL_MspInit+0x40>)
 800087c:	f043 0301 	orr.w	r3, r3, #1
 8000880:	6193      	str	r3, [r2, #24]
 8000882:	4b0b      	ldr	r3, [pc, #44]	; (80008b0 <HAL_MspInit+0x40>)
 8000884:	699b      	ldr	r3, [r3, #24]
 8000886:	f003 0301 	and.w	r3, r3, #1
 800088a:	607b      	str	r3, [r7, #4]
 800088c:	687b      	ldr	r3, [r7, #4]
  __HAL_RCC_PWR_CLK_ENABLE();
 800088e:	4b08      	ldr	r3, [pc, #32]	; (80008b0 <HAL_MspInit+0x40>)
 8000890:	69db      	ldr	r3, [r3, #28]
 8000892:	4a07      	ldr	r2, [pc, #28]	; (80008b0 <HAL_MspInit+0x40>)
 8000894:	f043 5380 	orr.w	r3, r3, #268435456	; 0x10000000
 8000898:	61d3      	str	r3, [r2, #28]
 800089a:	4b05      	ldr	r3, [pc, #20]	; (80008b0 <HAL_MspInit+0x40>)
 800089c:	69db      	ldr	r3, [r3, #28]
 800089e:	f003 5380 	and.w	r3, r3, #268435456	; 0x10000000
 80008a2:	603b      	str	r3, [r7, #0]
 80008a4:	683b      	ldr	r3, [r7, #0]
  /* System interrupt init*/

  /* USER CODE BEGIN MspInit 1 */

  /* USER CODE END MspInit 1 */
}
 80008a6:	bf00      	nop
 80008a8:	370c      	adds	r7, #12
 80008aa:	46bd      	mov	sp, r7
 80008ac:	bc80      	pop	{r7}
 80008ae:	4770      	bx	lr
 80008b0:	40021000 	.word	0x40021000

080008b4 <HAL_TIM_Base_MspInit>:
* This function configures the hardware resources used in this example
* @param htim_base: TIM_Base handle pointer
* @retval None
*/
void HAL_TIM_Base_MspInit(TIM_HandleTypeDef* htim_base)
{
 80008b4:	b580      	push	{r7, lr}
 80008b6:	b084      	sub	sp, #16
 80008b8:	af00      	add	r7, sp, #0
 80008ba:	6078      	str	r0, [r7, #4]
  if(htim_base->Instance==TIM2)
 80008bc:	687b      	ldr	r3, [r7, #4]
 80008be:	681b      	ldr	r3, [r3, #0]
 80008c0:	f1b3 4f80 	cmp.w	r3, #1073741824	; 0x40000000
 80008c4:	d113      	bne.n	80008ee <HAL_TIM_Base_MspInit+0x3a>
  {
  /* USER CODE BEGIN TIM2_MspInit 0 */

  /* USER CODE END TIM2_MspInit 0 */
    /* Peripheral clock enable */
    __HAL_RCC_TIM2_CLK_ENABLE();
 80008c6:	4b0c      	ldr	r3, [pc, #48]	; (80008f8 <HAL_TIM_Base_MspInit+0x44>)
 80008c8:	69db      	ldr	r3, [r3, #28]
 80008ca:	4a0b      	ldr	r2, [pc, #44]	; (80008f8 <HAL_TIM_Base_MspInit+0x44>)
 80008cc:	f043 0301 	orr.w	r3, r3, #1
 80008d0:	61d3      	str	r3, [r2, #28]
 80008d2:	4b09      	ldr	r3, [pc, #36]	; (80008f8 <HAL_TIM_Base_MspInit+0x44>)
 80008d4:	69db      	ldr	r3, [r3, #28]
 80008d6:	f003 0301 	and.w	r3, r3, #1
 80008da:	60fb      	str	r3, [r7, #12]
 80008dc:	68fb      	ldr	r3, [r7, #12]
    /* TIM2 interrupt Init */
    HAL_NVIC_SetPriority(TIM2_IRQn, 0, 0);
 80008de:	2200      	movs	r2, #0
 80008e0:	2100      	movs	r1, #0
 80008e2:	201c      	movs	r0, #28
 80008e4:	f000 f9a1 	bl	8000c2a <HAL_NVIC_SetPriority>
    HAL_NVIC_EnableIRQ(TIM2_IRQn);
 80008e8:	201c      	movs	r0, #28
 80008ea:	f000 f9ba 	bl	8000c62 <HAL_NVIC_EnableIRQ>
  /* USER CODE BEGIN TIM2_MspInit 1 */

  /* USER CODE END TIM2_MspInit 1 */
  }

}
 80008ee:	bf00      	nop
 80008f0:	3710      	adds	r7, #16
 80008f2:	46bd      	mov	sp, r7
 80008f4:	bd80      	pop	{r7, pc}
 80008f6:	bf00      	nop
 80008f8:	40021000 	.word	0x40021000

080008fc <NMI_Handler>:
/******************************************************************************/
/**
  * @brief This function handles Non maskable interrupt.
  */
void NMI_Handler(void)
{
 80008fc:	b480      	push	{r7}
 80008fe:	af00      	add	r7, sp, #0
  /* USER CODE BEGIN NonMaskableInt_IRQn 0 */

  /* USER CODE END NonMaskableInt_IRQn 0 */
  /* USER CODE BEGIN NonMaskableInt_IRQn 1 */
  while (1)
 8000900:	e7fe      	b.n	8000900 <NMI_Handler+0x4>

08000902 <HardFault_Handler>:

/**
  * @brief This function handles Hard fault interrupt.
  */
void HardFault_Handler(void)
{
 8000902:	b480      	push	{r7}
 8000904:	af00      	add	r7, sp, #0
  /* USER CODE BEGIN HardFault_IRQn 0 */

  /* USER CODE END HardFault_IRQn 0 */
  while (1)
 8000906:	e7fe      	b.n	8000906 <HardFault_Handler+0x4>

08000908 <MemManage_Handler>:

/**
  * @brief This function handles Memory management fault.
  */
void MemManage_Handler(void)
{
 8000908:	b480      	push	{r7}
 800090a:	af00      	add	r7, sp, #0
  /* USER CODE BEGIN MemoryManagement_IRQn 0 */

  /* USER CODE END MemoryManagement_IRQn 0 */
  while (1)
 800090c:	e7fe      	b.n	800090c <MemManage_Handler+0x4>

0800090e <BusFault_Handler>:

/**
  * @brief This function handles Prefetch fault, memory access fault.
  */
void BusFault_Handler(void)
{
 800090e:	b480      	push	{r7}
 8000910:	af00      	add	r7, sp, #0
  /* USER CODE BEGIN BusFault_IRQn 0 */

  /* USER CODE END BusFault_IRQn 0 */
  while (1)
 8000912:	e7fe      	b.n	8000912 <BusFault_Handler+0x4>

08000914 <UsageFault_Handler>:

/**
  * @brief This function handles Undefined instruction or illegal state.
  */
void UsageFault_Handler(void)
{
 8000914:	b480      	push	{r7}
 8000916:	af00      	add	r7, sp, #0
  /* USER CODE BEGIN UsageFault_IRQn 0 */

  /* USER CODE END UsageFault_IRQn 0 */
  while (1)
 8000918:	e7fe      	b.n	8000918 <UsageFault_Handler+0x4>

0800091a <SVC_Handler>:

/**
  * @brief This function handles System service call via SWI instruction.
  */
void SVC_Handler(void)
{
 800091a:	b480      	push	{r7}
 800091c:	af00      	add	r7, sp, #0

  /* USER CODE END SVCall_IRQn 0 */
  /* USER CODE BEGIN SVCall_IRQn 1 */

  /* USER CODE END SVCall_IRQn 1 */
}
 800091e:	bf00      	nop
 8000920:	46bd      	mov	sp, r7
 8000922:	bc80      	pop	{r7}
 8000924:	4770      	bx	lr

08000926 <DebugMon_Handler>:

/**
  * @brief This function handles Debug monitor.
  */
void DebugMon_Handler(void)
{
 8000926:	b480      	push	{r7}
 8000928:	af00      	add	r7, sp, #0

  /* USER CODE END DebugMonitor_IRQn 0 */
  /* USER CODE BEGIN DebugMonitor_IRQn 1 */

  /* USER CODE END DebugMonitor_IRQn 1 */
}
 800092a:	bf00      	nop
 800092c:	46bd      	mov	sp, r7
 800092e:	bc80      	pop	{r7}
 8000930:	4770      	bx	lr

08000932 <PendSV_Handler>:

/**
  * @brief This function handles Pendable request for system service.
  */
void PendSV_Handler(void)
{
 8000932:	b480      	push	{r7}
 8000934:	af00      	add	r7, sp, #0

  /* USER CODE END PendSV_IRQn 0 */
  /* USER CODE BEGIN PendSV_IRQn 1 */

  /* USER CODE END PendSV_IRQn 1 */
}
 8000936:	bf00      	nop
 8000938:	46bd      	mov	sp, r7
 800093a:	bc80      	pop	{r7}
 800093c:	4770      	bx	lr

0800093e <SysTick_Handler>:

/**
  * @brief This function handles System tick timer.
  */
void SysTick_Handler(void)
{
 800093e:	b580      	push	{r7, lr}
 8000940:	af00      	add	r7, sp, #0
  /* USER CODE BEGIN SysTick_IRQn 0 */

  /* USER CODE END SysTick_IRQn 0 */
  HAL_IncTick();
 8000942:	f000 f87f 	bl	8000a44 <HAL_IncTick>
  /* USER CODE BEGIN SysTick_IRQn 1 */

  /* USER CODE END SysTick_IRQn 1 */
}
 8000946:	bf00      	nop
 8000948:	bd80      	pop	{r7, pc}
	...

0800094c <TIM2_IRQHandler>:

/**
  * @brief This function handles TIM2 global interrupt.
  */
void TIM2_IRQHandler(void)
{
 800094c:	b580      	push	{r7, lr}
 800094e:	af00      	add	r7, sp, #0
  /* USER CODE BEGIN TIM2_IRQn 0 */

  /* USER CODE END TIM2_IRQn 0 */
  HAL_TIM_IRQHandler(&htim2);
 8000950:	4802      	ldr	r0, [pc, #8]	; (800095c <TIM2_IRQHandler+0x10>)
 8000952:	f000 ffaf 	bl	80018b4 <HAL_TIM_IRQHandler>
  /* USER CODE BEGIN TIM2_IRQn 1 */

  /* USER CODE END TIM2_IRQn 1 */
}
 8000956:	bf00      	nop
 8000958:	bd80      	pop	{r7, pc}
 800095a:	bf00      	nop
 800095c:	2000002c 	.word	0x2000002c

08000960 <SystemInit>:
  * @note   This function should be used only after reset.
  * @param  None
  * @retval None
  */
void SystemInit (void)
{
 8000960:	b480      	push	{r7}
 8000962:	af00      	add	r7, sp, #0

  /* Configure the Vector Table location -------------------------------------*/
#if defined(USER_VECT_TAB_ADDRESS)
  SCB->VTOR = VECT_TAB_BASE_ADDRESS | VECT_TAB_OFFSET; /* Vector Table Relocation in Internal SRAM. */
#endif /* USER_VECT_TAB_ADDRESS */
}
 8000964:	bf00      	nop
 8000966:	46bd      	mov	sp, r7
 8000968:	bc80      	pop	{r7}
 800096a:	4770      	bx	lr

0800096c <Reset_Handler>:
  .weak Reset_Handler
  .type Reset_Handler, %function
Reset_Handler:

/* Call the clock system initialization function.*/
    bl  SystemInit
 800096c:	f7ff fff8 	bl	8000960 <SystemInit>

/* Copy the data segment initializers from flash to SRAM */
  ldr r0, =_sdata
 8000970:	480b      	ldr	r0, [pc, #44]	; (80009a0 <LoopFillZerobss+0xe>)
  ldr r1, =_edata
 8000972:	490c      	ldr	r1, [pc, #48]	; (80009a4 <LoopFillZerobss+0x12>)
  ldr r2, =_sidata
 8000974:	4a0c      	ldr	r2, [pc, #48]	; (80009a8 <LoopFillZerobss+0x16>)
  movs r3, #0
 8000976:	2300      	movs	r3, #0
  b LoopCopyDataInit
 8000978:	e002      	b.n	8000980 <LoopCopyDataInit>

0800097a <CopyDataInit>:

CopyDataInit:
  ldr r4, [r2, r3]
 800097a:	58d4      	ldr	r4, [r2, r3]
  str r4, [r0, r3]
 800097c:	50c4      	str	r4, [r0, r3]
  adds r3, r3, #4
 800097e:	3304      	adds	r3, #4

08000980 <LoopCopyDataInit>:

LoopCopyDataInit:
  adds r4, r0, r3
 8000980:	18c4      	adds	r4, r0, r3
  cmp r4, r1
 8000982:	428c      	cmp	r4, r1
  bcc CopyDataInit
 8000984:	d3f9      	bcc.n	800097a <CopyDataInit>
  
/* Zero fill the bss segment. */
  ldr r2, =_sbss
 8000986:	4a09      	ldr	r2, [pc, #36]	; (80009ac <LoopFillZerobss+0x1a>)
  ldr r4, =_ebss
 8000988:	4c09      	ldr	r4, [pc, #36]	; (80009b0 <LoopFillZerobss+0x1e>)
  movs r3, #0
 800098a:	2300      	movs	r3, #0
  b LoopFillZerobss
 800098c:	e001      	b.n	8000992 <LoopFillZerobss>

0800098e <FillZerobss>:

FillZerobss:
  str  r3, [r2]
 800098e:	6013      	str	r3, [r2, #0]
  adds r2, r2, #4
 8000990:	3204      	adds	r2, #4

08000992 <LoopFillZerobss>:

LoopFillZerobss:
  cmp r2, r4
 8000992:	42a2      	cmp	r2, r4
  bcc FillZerobss
 8000994:	d3fb      	bcc.n	800098e <FillZerobss>

/* Call static constructors */
    bl __libc_init_array
 8000996:	f001 fad9 	bl	8001f4c <__libc_init_array>
/* Call the application's entry point.*/
  bl main
 800099a:	f7ff fe05 	bl	80005a8 <main>
  bx lr
 800099e:	4770      	bx	lr
  ldr r0, =_sdata
 80009a0:	20000000 	.word	0x20000000
  ldr r1, =_edata
 80009a4:	2000000c 	.word	0x2000000c
  ldr r2, =_sidata
 80009a8:	08001fe8 	.word	0x08001fe8
  ldr r2, =_sbss
 80009ac:	2000000c 	.word	0x2000000c
  ldr r4, =_ebss
 80009b0:	20000088 	.word	0x20000088

080009b4 <ADC1_2_IRQHandler>:
 * @retval : None
*/
    .section .text.Default_Handler,"ax",%progbits
Default_Handler:
Infinite_Loop:
  b Infinite_Loop
 80009b4:	e7fe      	b.n	80009b4 <ADC1_2_IRQHandler>
	...

080009b8 <HAL_Init>:
  *         need to ensure that the SysTick time base is always set to 1 millisecond
  *         to have correct HAL operation.
  * @retval HAL status
  */
HAL_StatusTypeDef HAL_Init(void)
{
 80009b8:	b580      	push	{r7, lr}
 80009ba:	af00      	add	r7, sp, #0
    defined(STM32F102x6) || defined(STM32F102xB) || \
    defined(STM32F103x6) || defined(STM32F103xB) || defined(STM32F103xE) || defined(STM32F103xG) || \
    defined(STM32F105xC) || defined(STM32F107xC)

  /* Prefetch buffer is not available on value line devices */
  __HAL_FLASH_PREFETCH_BUFFER_ENABLE();
 80009bc:	4b08      	ldr	r3, [pc, #32]	; (80009e0 <HAL_Init+0x28>)
 80009be:	681b      	ldr	r3, [r3, #0]
 80009c0:	4a07      	ldr	r2, [pc, #28]	; (80009e0 <HAL_Init+0x28>)
 80009c2:	f043 0310 	orr.w	r3, r3, #16
 80009c6:	6013      	str	r3, [r2, #0]
#endif
#endif /* PREFETCH_ENABLE */

  /* Set Interrupt Group Priority */
  HAL_NVIC_SetPriorityGrouping(NVIC_PRIORITYGROUP_4);
 80009c8:	2003      	movs	r0, #3
 80009ca:	f000 f923 	bl	8000c14 <HAL_NVIC_SetPriorityGrouping>

  /* Use systick as time base source and configure 1ms tick (default clock after Reset is HSI) */
  HAL_InitTick(TICK_INT_PRIORITY);
 80009ce:	200f      	movs	r0, #15
 80009d0:	f000 f808 	bl	80009e4 <HAL_InitTick>

  /* Init the low level hardware */
  HAL_MspInit();
 80009d4:	f7ff ff4c 	bl	8000870 <HAL_MspInit>

  /* Return function status */
  return HAL_OK;
 80009d8:	2300      	movs	r3, #0
}
 80009da:	4618      	mov	r0, r3
 80009dc:	bd80      	pop	{r7, pc}
 80009de:	bf00      	nop
 80009e0:	40022000 	.word	0x40022000

080009e4 <HAL_InitTick>:
  *       implementation  in user file.
  * @param TickPriority Tick interrupt priority.
  * @retval HAL status
  */
__weak HAL_StatusTypeDef HAL_InitTick(uint32_t TickPriority)
{
 80009e4:	b580      	push	{r7, lr}
 80009e6:	b082      	sub	sp, #8
 80009e8:	af00      	add	r7, sp, #0
 80009ea:	6078      	str	r0, [r7, #4]
  /* Configure the SysTick to have interrupt in 1ms time basis*/
  if (HAL_SYSTICK_Config(SystemCoreClock / (1000U / uwTickFreq)) > 0U)
 80009ec:	4b12      	ldr	r3, [pc, #72]	; (8000a38 <HAL_InitTick+0x54>)
 80009ee:	681a      	ldr	r2, [r3, #0]
 80009f0:	4b12      	ldr	r3, [pc, #72]	; (8000a3c <HAL_InitTick+0x58>)
 80009f2:	781b      	ldrb	r3, [r3, #0]
 80009f4:	4619      	mov	r1, r3
 80009f6:	f44f 737a 	mov.w	r3, #1000	; 0x3e8
 80009fa:	fbb3 f3f1 	udiv	r3, r3, r1
 80009fe:	fbb2 f3f3 	udiv	r3, r2, r3
 8000a02:	4618      	mov	r0, r3
 8000a04:	f000 f93b 	bl	8000c7e <HAL_SYSTICK_Config>
 8000a08:	4603      	mov	r3, r0
 8000a0a:	2b00      	cmp	r3, #0
 8000a0c:	d001      	beq.n	8000a12 <HAL_InitTick+0x2e>
  {
    return HAL_ERROR;
 8000a0e:	2301      	movs	r3, #1
 8000a10:	e00e      	b.n	8000a30 <HAL_InitTick+0x4c>
  }

  /* Configure the SysTick IRQ priority */
  if (TickPriority < (1UL << __NVIC_PRIO_BITS))
 8000a12:	687b      	ldr	r3, [r7, #4]
 8000a14:	2b0f      	cmp	r3, #15
 8000a16:	d80a      	bhi.n	8000a2e <HAL_InitTick+0x4a>
  {
    HAL_NVIC_SetPriority(SysTick_IRQn, TickPriority, 0U);
 8000a18:	2200      	movs	r2, #0
 8000a1a:	6879      	ldr	r1, [r7, #4]
 8000a1c:	f04f 30ff 	mov.w	r0, #4294967295
 8000a20:	f000 f903 	bl	8000c2a <HAL_NVIC_SetPriority>
    uwTickPrio = TickPriority;
 8000a24:	4a06      	ldr	r2, [pc, #24]	; (8000a40 <HAL_InitTick+0x5c>)
 8000a26:	687b      	ldr	r3, [r7, #4]
 8000a28:	6013      	str	r3, [r2, #0]
  {
    return HAL_ERROR;
  }

  /* Return function status */
  return HAL_OK;
 8000a2a:	2300      	movs	r3, #0
 8000a2c:	e000      	b.n	8000a30 <HAL_InitTick+0x4c>
    return HAL_ERROR;
 8000a2e:	2301      	movs	r3, #1
}
 8000a30:	4618      	mov	r0, r3
 8000a32:	3708      	adds	r7, #8
 8000a34:	46bd      	mov	sp, r7
 8000a36:	bd80      	pop	{r7, pc}
 8000a38:	20000000 	.word	0x20000000
 8000a3c:	20000008 	.word	0x20000008
 8000a40:	20000004 	.word	0x20000004

08000a44 <HAL_IncTick>:
  * @note This function is declared as __weak to be overwritten in case of other
  *      implementations in user file.
  * @retval None
  */
__weak void HAL_IncTick(void)
{
 8000a44:	b480      	push	{r7}
 8000a46:	af00      	add	r7, sp, #0
  uwTick += uwTickFreq;
 8000a48:	4b05      	ldr	r3, [pc, #20]	; (8000a60 <HAL_IncTick+0x1c>)
 8000a4a:	781b      	ldrb	r3, [r3, #0]
 8000a4c:	461a      	mov	r2, r3
 8000a4e:	4b05      	ldr	r3, [pc, #20]	; (8000a64 <HAL_IncTick+0x20>)
 8000a50:	681b      	ldr	r3, [r3, #0]
 8000a52:	4413      	add	r3, r2
 8000a54:	4a03      	ldr	r2, [pc, #12]	; (8000a64 <HAL_IncTick+0x20>)
 8000a56:	6013      	str	r3, [r2, #0]
}
 8000a58:	bf00      	nop
 8000a5a:	46bd      	mov	sp, r7
 8000a5c:	bc80      	pop	{r7}
 8000a5e:	4770      	bx	lr
 8000a60:	20000008 	.word	0x20000008
 8000a64:	20000084 	.word	0x20000084

08000a68 <HAL_GetTick>:
  * @note  This function is declared as __weak to be overwritten in case of other
  *       implementations in user file.
  * @retval tick value
  */
__weak uint32_t HAL_GetTick(void)
{
 8000a68:	b480      	push	{r7}
 8000a6a:	af00      	add	r7, sp, #0
  return uwTick;
 8000a6c:	4b02      	ldr	r3, [pc, #8]	; (8000a78 <HAL_GetTick+0x10>)
 8000a6e:	681b      	ldr	r3, [r3, #0]
}
 8000a70:	4618      	mov	r0, r3
 8000a72:	46bd      	mov	sp, r7
 8000a74:	bc80      	pop	{r7}
 8000a76:	4770      	bx	lr
 8000a78:	20000084 	.word	0x20000084

08000a7c <__NVIC_SetPriorityGrouping>:
           In case of a conflict between priority grouping and available
           priority bits (__NVIC_PRIO_BITS), the smallest possible priority group is set.
  \param [in]      PriorityGroup  Priority grouping field.
 */
__STATIC_INLINE void __NVIC_SetPriorityGrouping(uint32_t PriorityGroup)
{
 8000a7c:	b480      	push	{r7}
 8000a7e:	b085      	sub	sp, #20
 8000a80:	af00      	add	r7, sp, #0
 8000a82:	6078      	str	r0, [r7, #4]
  uint32_t reg_value;
  uint32_t PriorityGroupTmp = (PriorityGroup & (uint32_t)0x07UL);             /* only values 0..7 are used          */
 8000a84:	687b      	ldr	r3, [r7, #4]
 8000a86:	f003 0307 	and.w	r3, r3, #7
 8000a8a:	60fb      	str	r3, [r7, #12]

  reg_value  =  SCB->AIRCR;                                                   /* read old register configuration    */
 8000a8c:	4b0c      	ldr	r3, [pc, #48]	; (8000ac0 <__NVIC_SetPriorityGrouping+0x44>)
 8000a8e:	68db      	ldr	r3, [r3, #12]
 8000a90:	60bb      	str	r3, [r7, #8]
  reg_value &= ~((uint32_t)(SCB_AIRCR_VECTKEY_Msk | SCB_AIRCR_PRIGROUP_Msk)); /* clear bits to change               */
 8000a92:	68ba      	ldr	r2, [r7, #8]
 8000a94:	f64f 03ff 	movw	r3, #63743	; 0xf8ff
 8000a98:	4013      	ands	r3, r2
 8000a9a:	60bb      	str	r3, [r7, #8]
  reg_value  =  (reg_value                                   |
                ((uint32_t)0x5FAUL << SCB_AIRCR_VECTKEY_Pos) |
                (PriorityGroupTmp << SCB_AIRCR_PRIGROUP_Pos) );               /* Insert write key and priority group */
 8000a9c:	68fb      	ldr	r3, [r7, #12]
 8000a9e:	021a      	lsls	r2, r3, #8
                ((uint32_t)0x5FAUL << SCB_AIRCR_VECTKEY_Pos) |
 8000aa0:	68bb      	ldr	r3, [r7, #8]
 8000aa2:	4313      	orrs	r3, r2
  reg_value  =  (reg_value                                   |
 8000aa4:	f043 63bf 	orr.w	r3, r3, #100139008	; 0x5f80000
 8000aa8:	f443 3300 	orr.w	r3, r3, #131072	; 0x20000
 8000aac:	60bb      	str	r3, [r7, #8]
  SCB->AIRCR =  reg_value;
 8000aae:	4a04      	ldr	r2, [pc, #16]	; (8000ac0 <__NVIC_SetPriorityGrouping+0x44>)
 8000ab0:	68bb      	ldr	r3, [r7, #8]
 8000ab2:	60d3      	str	r3, [r2, #12]
}
 8000ab4:	bf00      	nop
 8000ab6:	3714      	adds	r7, #20
 8000ab8:	46bd      	mov	sp, r7
 8000aba:	bc80      	pop	{r7}
 8000abc:	4770      	bx	lr
 8000abe:	bf00      	nop
 8000ac0:	e000ed00 	.word	0xe000ed00

08000ac4 <__NVIC_GetPriorityGrouping>:
  \brief   Get Priority Grouping
  \details Reads the priority grouping field from the NVIC Interrupt Controller.
  \return                Priority grouping field (SCB->AIRCR [10:8] PRIGROUP field).
 */
__STATIC_INLINE uint32_t __NVIC_GetPriorityGrouping(void)
{
 8000ac4:	b480      	push	{r7}
 8000ac6:	af00      	add	r7, sp, #0
  return ((uint32_t)((SCB->AIRCR & SCB_AIRCR_PRIGROUP_Msk) >> SCB_AIRCR_PRIGROUP_Pos));
 8000ac8:	4b04      	ldr	r3, [pc, #16]	; (8000adc <__NVIC_GetPriorityGrouping+0x18>)
 8000aca:	68db      	ldr	r3, [r3, #12]
 8000acc:	0a1b      	lsrs	r3, r3, #8
 8000ace:	f003 0307 	and.w	r3, r3, #7
}
 8000ad2:	4618      	mov	r0, r3
 8000ad4:	46bd      	mov	sp, r7
 8000ad6:	bc80      	pop	{r7}
 8000ad8:	4770      	bx	lr
 8000ada:	bf00      	nop
 8000adc:	e000ed00 	.word	0xe000ed00

08000ae0 <__NVIC_EnableIRQ>:
  \details Enables a device specific interrupt in the NVIC interrupt controller.
  \param [in]      IRQn  Device specific interrupt number.
  \note    IRQn must not be negative.
 */
__STATIC_INLINE void __NVIC_EnableIRQ(IRQn_Type IRQn)
{
 8000ae0:	b480      	push	{r7}
 8000ae2:	b083      	sub	sp, #12
 8000ae4:	af00      	add	r7, sp, #0
 8000ae6:	4603      	mov	r3, r0
 8000ae8:	71fb      	strb	r3, [r7, #7]
  if ((int32_t)(IRQn) >= 0)
 8000aea:	f997 3007 	ldrsb.w	r3, [r7, #7]
 8000aee:	2b00      	cmp	r3, #0
 8000af0:	db0b      	blt.n	8000b0a <__NVIC_EnableIRQ+0x2a>
  {
    NVIC->ISER[(((uint32_t)IRQn) >> 5UL)] = (uint32_t)(1UL << (((uint32_t)IRQn) & 0x1FUL));
 8000af2:	79fb      	ldrb	r3, [r7, #7]
 8000af4:	f003 021f 	and.w	r2, r3, #31
 8000af8:	4906      	ldr	r1, [pc, #24]	; (8000b14 <__NVIC_EnableIRQ+0x34>)
 8000afa:	f997 3007 	ldrsb.w	r3, [r7, #7]
 8000afe:	095b      	lsrs	r3, r3, #5
 8000b00:	2001      	movs	r0, #1
 8000b02:	fa00 f202 	lsl.w	r2, r0, r2
 8000b06:	f841 2023 	str.w	r2, [r1, r3, lsl #2]
  }
}
 8000b0a:	bf00      	nop
 8000b0c:	370c      	adds	r7, #12
 8000b0e:	46bd      	mov	sp, r7
 8000b10:	bc80      	pop	{r7}
 8000b12:	4770      	bx	lr
 8000b14:	e000e100 	.word	0xe000e100

08000b18 <__NVIC_SetPriority>:
  \param [in]      IRQn  Interrupt number.
  \param [in]  priority  Priority to set.
  \note    The priority cannot be set for every processor exception.
 */
__STATIC_INLINE void __NVIC_SetPriority(IRQn_Type IRQn, uint32_t priority)
{
 8000b18:	b480      	push	{r7}
 8000b1a:	b083      	sub	sp, #12
 8000b1c:	af00      	add	r7, sp, #0
 8000b1e:	4603      	mov	r3, r0
 8000b20:	6039      	str	r1, [r7, #0]
 8000b22:	71fb      	strb	r3, [r7, #7]
  if ((int32_t)(IRQn) >= 0)
 8000b24:	f997 3007 	ldrsb.w	r3, [r7, #7]
 8000b28:	2b00      	cmp	r3, #0
 8000b2a:	db0a      	blt.n	8000b42 <__NVIC_SetPriority+0x2a>
  {
    NVIC->IP[((uint32_t)IRQn)]               = (uint8_t)((priority << (8U - __NVIC_PRIO_BITS)) & (uint32_t)0xFFUL);
 8000b2c:	683b      	ldr	r3, [r7, #0]
 8000b2e:	b2da      	uxtb	r2, r3
 8000b30:	490c      	ldr	r1, [pc, #48]	; (8000b64 <__NVIC_SetPriority+0x4c>)
 8000b32:	f997 3007 	ldrsb.w	r3, [r7, #7]
 8000b36:	0112      	lsls	r2, r2, #4
 8000b38:	b2d2      	uxtb	r2, r2
 8000b3a:	440b      	add	r3, r1
 8000b3c:	f883 2300 	strb.w	r2, [r3, #768]	; 0x300
  }
  else
  {
    SCB->SHP[(((uint32_t)IRQn) & 0xFUL)-4UL] = (uint8_t)((priority << (8U - __NVIC_PRIO_BITS)) & (uint32_t)0xFFUL);
  }
}
 8000b40:	e00a      	b.n	8000b58 <__NVIC_SetPriority+0x40>
    SCB->SHP[(((uint32_t)IRQn) & 0xFUL)-4UL] = (uint8_t)((priority << (8U - __NVIC_PRIO_BITS)) & (uint32_t)0xFFUL);
 8000b42:	683b      	ldr	r3, [r7, #0]
 8000b44:	b2da      	uxtb	r2, r3
 8000b46:	4908      	ldr	r1, [pc, #32]	; (8000b68 <__NVIC_SetPriority+0x50>)
 8000b48:	79fb      	ldrb	r3, [r7, #7]
 8000b4a:	f003 030f 	and.w	r3, r3, #15
 8000b4e:	3b04      	subs	r3, #4
 8000b50:	0112      	lsls	r2, r2, #4
 8000b52:	b2d2      	uxtb	r2, r2
 8000b54:	440b      	add	r3, r1
 8000b56:	761a      	strb	r2, [r3, #24]
}
 8000b58:	bf00      	nop
 8000b5a:	370c      	adds	r7, #12
 8000b5c:	46bd      	mov	sp, r7
 8000b5e:	bc80      	pop	{r7}
 8000b60:	4770      	bx	lr
 8000b62:	bf00      	nop
 8000b64:	e000e100 	.word	0xe000e100
 8000b68:	e000ed00 	.word	0xe000ed00

08000b6c <NVIC_EncodePriority>:
  \param [in]   PreemptPriority  Preemptive priority value (starting from 0).
  \param [in]       SubPriority  Subpriority value (starting from 0).
  \return                        Encoded priority. Value can be used in the function \ref NVIC_SetPriority().
 */
__STATIC_INLINE uint32_t NVIC_EncodePriority (uint32_t PriorityGroup, uint32_t PreemptPriority, uint32_t SubPriority)
{
 8000b6c:	b480      	push	{r7}
 8000b6e:	b089      	sub	sp, #36	; 0x24
 8000b70:	af00      	add	r7, sp, #0
 8000b72:	60f8      	str	r0, [r7, #12]
 8000b74:	60b9      	str	r1, [r7, #8]
 8000b76:	607a      	str	r2, [r7, #4]
  uint32_t PriorityGroupTmp = (PriorityGroup & (uint32_t)0x07UL);   /* only values 0..7 are used          */
 8000b78:	68fb      	ldr	r3, [r7, #12]
 8000b7a:	f003 0307 	and.w	r3, r3, #7
 8000b7e:	61fb      	str	r3, [r7, #28]
  uint32_t PreemptPriorityBits;
  uint32_t SubPriorityBits;

  PreemptPriorityBits = ((7UL - PriorityGroupTmp) > (uint32_t)(__NVIC_PRIO_BITS)) ? (uint32_t)(__NVIC_PRIO_BITS) : (uint32_t)(7UL - PriorityGroupTmp);
 8000b80:	69fb      	ldr	r3, [r7, #28]
 8000b82:	f1c3 0307 	rsb	r3, r3, #7
 8000b86:	2b04      	cmp	r3, #4
 8000b88:	bf28      	it	cs
 8000b8a:	2304      	movcs	r3, #4
 8000b8c:	61bb      	str	r3, [r7, #24]
  SubPriorityBits     = ((PriorityGroupTmp + (uint32_t)(__NVIC_PRIO_BITS)) < (uint32_t)7UL) ? (uint32_t)0UL : (uint32_t)((PriorityGroupTmp - 7UL) + (uint32_t)(__NVIC_PRIO_BITS));
 8000b8e:	69fb      	ldr	r3, [r7, #28]
 8000b90:	3304      	adds	r3, #4
 8000b92:	2b06      	cmp	r3, #6
 8000b94:	d902      	bls.n	8000b9c <NVIC_EncodePriority+0x30>
 8000b96:	69fb      	ldr	r3, [r7, #28]
 8000b98:	3b03      	subs	r3, #3
 8000b9a:	e000      	b.n	8000b9e <NVIC_EncodePriority+0x32>
 8000b9c:	2300      	movs	r3, #0
 8000b9e:	617b      	str	r3, [r7, #20]

  return (
           ((PreemptPriority & (uint32_t)((1UL << (PreemptPriorityBits)) - 1UL)) << SubPriorityBits) |
 8000ba0:	f04f 32ff 	mov.w	r2, #4294967295
 8000ba4:	69bb      	ldr	r3, [r7, #24]
 8000ba6:	fa02 f303 	lsl.w	r3, r2, r3
 8000baa:	43da      	mvns	r2, r3
 8000bac:	68bb      	ldr	r3, [r7, #8]
 8000bae:	401a      	ands	r2, r3
 8000bb0:	697b      	ldr	r3, [r7, #20]
 8000bb2:	409a      	lsls	r2, r3
           ((SubPriority     & (uint32_t)((1UL << (SubPriorityBits    )) - 1UL)))
 8000bb4:	f04f 31ff 	mov.w	r1, #4294967295
 8000bb8:	697b      	ldr	r3, [r7, #20]
 8000bba:	fa01 f303 	lsl.w	r3, r1, r3
 8000bbe:	43d9      	mvns	r1, r3
 8000bc0:	687b      	ldr	r3, [r7, #4]
 8000bc2:	400b      	ands	r3, r1
           ((PreemptPriority & (uint32_t)((1UL << (PreemptPriorityBits)) - 1UL)) << SubPriorityBits) |
 8000bc4:	4313      	orrs	r3, r2
         );
}
 8000bc6:	4618      	mov	r0, r3
 8000bc8:	3724      	adds	r7, #36	; 0x24
 8000bca:	46bd      	mov	sp, r7
 8000bcc:	bc80      	pop	{r7}
 8000bce:	4770      	bx	lr

08000bd0 <SysTick_Config>:
  \note    When the variable <b>__Vendor_SysTickConfig</b> is set to 1, then the
           function <b>SysTick_Config</b> is not included. In this case, the file <b><i>device</i>.h</b>
           must contain a vendor-specific implementation of this function.
 */
__STATIC_INLINE uint32_t SysTick_Config(uint32_t ticks)
{
 8000bd0:	b580      	push	{r7, lr}
 8000bd2:	b082      	sub	sp, #8
 8000bd4:	af00      	add	r7, sp, #0
 8000bd6:	6078      	str	r0, [r7, #4]
  if ((ticks - 1UL) > SysTick_LOAD_RELOAD_Msk)
 8000bd8:	687b      	ldr	r3, [r7, #4]
 8000bda:	3b01      	subs	r3, #1
 8000bdc:	f1b3 7f80 	cmp.w	r3, #16777216	; 0x1000000
 8000be0:	d301      	bcc.n	8000be6 <SysTick_Config+0x16>
  {
    return (1UL);                                                   /* Reload value impossible */
 8000be2:	2301      	movs	r3, #1
 8000be4:	e00f      	b.n	8000c06 <SysTick_Config+0x36>
  }

  SysTick->LOAD  = (uint32_t)(ticks - 1UL);                         /* set reload register */
 8000be6:	4a0a      	ldr	r2, [pc, #40]	; (8000c10 <SysTick_Config+0x40>)
 8000be8:	687b      	ldr	r3, [r7, #4]
 8000bea:	3b01      	subs	r3, #1
 8000bec:	6053      	str	r3, [r2, #4]
  NVIC_SetPriority (SysTick_IRQn, (1UL << __NVIC_PRIO_BITS) - 1UL); /* set Priority for Systick Interrupt */
 8000bee:	210f      	movs	r1, #15
 8000bf0:	f04f 30ff 	mov.w	r0, #4294967295
 8000bf4:	f7ff ff90 	bl	8000b18 <__NVIC_SetPriority>
  SysTick->VAL   = 0UL;                                             /* Load the SysTick Counter Value */
 8000bf8:	4b05      	ldr	r3, [pc, #20]	; (8000c10 <SysTick_Config+0x40>)
 8000bfa:	2200      	movs	r2, #0
 8000bfc:	609a      	str	r2, [r3, #8]
  SysTick->CTRL  = SysTick_CTRL_CLKSOURCE_Msk |
 8000bfe:	4b04      	ldr	r3, [pc, #16]	; (8000c10 <SysTick_Config+0x40>)
 8000c00:	2207      	movs	r2, #7
 8000c02:	601a      	str	r2, [r3, #0]
                   SysTick_CTRL_TICKINT_Msk   |
                   SysTick_CTRL_ENABLE_Msk;                         /* Enable SysTick IRQ and SysTick Timer */
  return (0UL);                                                     /* Function successful */
 8000c04:	2300      	movs	r3, #0
}
 8000c06:	4618      	mov	r0, r3
 8000c08:	3708      	adds	r7, #8
 8000c0a:	46bd      	mov	sp, r7
 8000c0c:	bd80      	pop	{r7, pc}
 8000c0e:	bf00      	nop
 8000c10:	e000e010 	.word	0xe000e010

08000c14 <HAL_NVIC_SetPriorityGrouping>:
  * @note   When the NVIC_PriorityGroup_0 is selected, IRQ preemption is no more possible. 
  *         The pending IRQ priority will be managed only by the subpriority. 
  * @retval None
  */
void HAL_NVIC_SetPriorityGrouping(uint32_t PriorityGroup)
{
 8000c14:	b580      	push	{r7, lr}
 8000c16:	b082      	sub	sp, #8
 8000c18:	af00      	add	r7, sp, #0
 8000c1a:	6078      	str	r0, [r7, #4]
  /* Check the parameters */
  assert_param(IS_NVIC_PRIORITY_GROUP(PriorityGroup));
  
  /* Set the PRIGROUP[10:8] bits according to the PriorityGroup parameter value */
  NVIC_SetPriorityGrouping(PriorityGroup);
 8000c1c:	6878      	ldr	r0, [r7, #4]
 8000c1e:	f7ff ff2d 	bl	8000a7c <__NVIC_SetPriorityGrouping>
}
 8000c22:	bf00      	nop
 8000c24:	3708      	adds	r7, #8
 8000c26:	46bd      	mov	sp, r7
 8000c28:	bd80      	pop	{r7, pc}

08000c2a <HAL_NVIC_SetPriority>:
  *         This parameter can be a value between 0 and 15
  *         A lower priority value indicates a higher priority.          
  * @retval None
  */
void HAL_NVIC_SetPriority(IRQn_Type IRQn, uint32_t PreemptPriority, uint32_t SubPriority)
{ 
 8000c2a:	b580      	push	{r7, lr}
 8000c2c:	b086      	sub	sp, #24
 8000c2e:	af00      	add	r7, sp, #0
 8000c30:	4603      	mov	r3, r0
 8000c32:	60b9      	str	r1, [r7, #8]
 8000c34:	607a      	str	r2, [r7, #4]
 8000c36:	73fb      	strb	r3, [r7, #15]
  uint32_t prioritygroup = 0x00U;
 8000c38:	2300      	movs	r3, #0
 8000c3a:	617b      	str	r3, [r7, #20]
  
  /* Check the parameters */
  assert_param(IS_NVIC_SUB_PRIORITY(SubPriority));
  assert_param(IS_NVIC_PREEMPTION_PRIORITY(PreemptPriority));
  
  prioritygroup = NVIC_GetPriorityGrouping();
 8000c3c:	f7ff ff42 	bl	8000ac4 <__NVIC_GetPriorityGrouping>
 8000c40:	6178      	str	r0, [r7, #20]
  
  NVIC_SetPriority(IRQn, NVIC_EncodePriority(prioritygroup, PreemptPriority, SubPriority));
 8000c42:	687a      	ldr	r2, [r7, #4]
 8000c44:	68b9      	ldr	r1, [r7, #8]
 8000c46:	6978      	ldr	r0, [r7, #20]
 8000c48:	f7ff ff90 	bl	8000b6c <NVIC_EncodePriority>
 8000c4c:	4602      	mov	r2, r0
 8000c4e:	f997 300f 	ldrsb.w	r3, [r7, #15]
 8000c52:	4611      	mov	r1, r2
 8000c54:	4618      	mov	r0, r3
 8000c56:	f7ff ff5f 	bl	8000b18 <__NVIC_SetPriority>
}
 8000c5a:	bf00      	nop
 8000c5c:	3718      	adds	r7, #24
 8000c5e:	46bd      	mov	sp, r7
 8000c60:	bd80      	pop	{r7, pc}

08000c62 <HAL_NVIC_EnableIRQ>:
  *         This parameter can be an enumerator of IRQn_Type enumeration
  *         (For the complete STM32 Devices IRQ Channels list, please refer to the appropriate CMSIS device file (stm32f10xxx.h))
  * @retval None
  */
void HAL_NVIC_EnableIRQ(IRQn_Type IRQn)
{
 8000c62:	b580      	push	{r7, lr}
 8000c64:	b082      	sub	sp, #8
 8000c66:	af00      	add	r7, sp, #0
 8000c68:	4603      	mov	r3, r0
 8000c6a:	71fb      	strb	r3, [r7, #7]
  /* Check the parameters */
  assert_param(IS_NVIC_DEVICE_IRQ(IRQn));

  /* Enable interrupt */
  NVIC_EnableIRQ(IRQn);
 8000c6c:	f997 3007 	ldrsb.w	r3, [r7, #7]
 8000c70:	4618      	mov	r0, r3
 8000c72:	f7ff ff35 	bl	8000ae0 <__NVIC_EnableIRQ>
}
 8000c76:	bf00      	nop
 8000c78:	3708      	adds	r7, #8
 8000c7a:	46bd      	mov	sp, r7
 8000c7c:	bd80      	pop	{r7, pc}

08000c7e <HAL_SYSTICK_Config>:
  * @param  TicksNumb: Specifies the ticks Number of ticks between two interrupts.
  * @retval status:  - 0  Function succeeded.
  *                  - 1  Function failed.
  */
uint32_t HAL_SYSTICK_Config(uint32_t TicksNumb)
{
 8000c7e:	b580      	push	{r7, lr}
 8000c80:	b082      	sub	sp, #8
 8000c82:	af00      	add	r7, sp, #0
 8000c84:	6078      	str	r0, [r7, #4]
   return SysTick_Config(TicksNumb);
 8000c86:	6878      	ldr	r0, [r7, #4]
 8000c88:	f7ff ffa2 	bl	8000bd0 <SysTick_Config>
 8000c8c:	4603      	mov	r3, r0
}
 8000c8e:	4618      	mov	r0, r3
 8000c90:	3708      	adds	r7, #8
 8000c92:	46bd      	mov	sp, r7
 8000c94:	bd80      	pop	{r7, pc}
	...

08000c98 <HAL_GPIO_Init>:
  * @param  GPIO_Init: pointer to a GPIO_InitTypeDef structure that contains
  *         the configuration information for the specified GPIO peripheral.
  * @retval None
  */
void HAL_GPIO_Init(GPIO_TypeDef  *GPIOx, GPIO_InitTypeDef *GPIO_Init)
{
 8000c98:	b480      	push	{r7}
 8000c9a:	b08b      	sub	sp, #44	; 0x2c
 8000c9c:	af00      	add	r7, sp, #0
 8000c9e:	6078      	str	r0, [r7, #4]
 8000ca0:	6039      	str	r1, [r7, #0]
  uint32_t position = 0x00u;
 8000ca2:	2300      	movs	r3, #0
 8000ca4:	627b      	str	r3, [r7, #36]	; 0x24
  uint32_t ioposition;
  uint32_t iocurrent;
  uint32_t temp;
  uint32_t config = 0x00u;
 8000ca6:	2300      	movs	r3, #0
 8000ca8:	623b      	str	r3, [r7, #32]
  assert_param(IS_GPIO_ALL_INSTANCE(GPIOx));
  assert_param(IS_GPIO_PIN(GPIO_Init->Pin));
  assert_param(IS_GPIO_MODE(GPIO_Init->Mode));

  /* Configure the port pins */
  while (((GPIO_Init->Pin) >> position) != 0x00u)
 8000caa:	e161      	b.n	8000f70 <HAL_GPIO_Init+0x2d8>
  {
    /* Get the IO position */
    ioposition = (0x01uL << position);
 8000cac:	2201      	movs	r2, #1
 8000cae:	6a7b      	ldr	r3, [r7, #36]	; 0x24
 8000cb0:	fa02 f303 	lsl.w	r3, r2, r3
 8000cb4:	61fb      	str	r3, [r7, #28]

    /* Get the current IO position */
    iocurrent = (uint32_t)(GPIO_Init->Pin) & ioposition;
 8000cb6:	683b      	ldr	r3, [r7, #0]
 8000cb8:	681b      	ldr	r3, [r3, #0]
 8000cba:	69fa      	ldr	r2, [r7, #28]
 8000cbc:	4013      	ands	r3, r2
 8000cbe:	61bb      	str	r3, [r7, #24]

    if (iocurrent == ioposition)
 8000cc0:	69ba      	ldr	r2, [r7, #24]
 8000cc2:	69fb      	ldr	r3, [r7, #28]
 8000cc4:	429a      	cmp	r2, r3
 8000cc6:	f040 8150 	bne.w	8000f6a <HAL_GPIO_Init+0x2d2>
    {
      /* Check the Alternate function parameters */
      assert_param(IS_GPIO_AF_INSTANCE(GPIOx));

      /* Based on the required mode, filling config variable with MODEy[1:0] and CNFy[3:2] corresponding bits */
      switch (GPIO_Init->Mode)
 8000cca:	683b      	ldr	r3, [r7, #0]
 8000ccc:	685b      	ldr	r3, [r3, #4]
 8000cce:	4a97      	ldr	r2, [pc, #604]	; (8000f2c <HAL_GPIO_Init+0x294>)
 8000cd0:	4293      	cmp	r3, r2
 8000cd2:	d05e      	beq.n	8000d92 <HAL_GPIO_Init+0xfa>
 8000cd4:	4a95      	ldr	r2, [pc, #596]	; (8000f2c <HAL_GPIO_Init+0x294>)
 8000cd6:	4293      	cmp	r3, r2
 8000cd8:	d875      	bhi.n	8000dc6 <HAL_GPIO_Init+0x12e>
 8000cda:	4a95      	ldr	r2, [pc, #596]	; (8000f30 <HAL_GPIO_Init+0x298>)
 8000cdc:	4293      	cmp	r3, r2
 8000cde:	d058      	beq.n	8000d92 <HAL_GPIO_Init+0xfa>
 8000ce0:	4a93      	ldr	r2, [pc, #588]	; (8000f30 <HAL_GPIO_Init+0x298>)
 8000ce2:	4293      	cmp	r3, r2
 8000ce4:	d86f      	bhi.n	8000dc6 <HAL_GPIO_Init+0x12e>
 8000ce6:	4a93      	ldr	r2, [pc, #588]	; (8000f34 <HAL_GPIO_Init+0x29c>)
 8000ce8:	4293      	cmp	r3, r2
 8000cea:	d052      	beq.n	8000d92 <HAL_GPIO_Init+0xfa>
 8000cec:	4a91      	ldr	r2, [pc, #580]	; (8000f34 <HAL_GPIO_Init+0x29c>)
 8000cee:	4293      	cmp	r3, r2
 8000cf0:	d869      	bhi.n	8000dc6 <HAL_GPIO_Init+0x12e>
 8000cf2:	4a91      	ldr	r2, [pc, #580]	; (8000f38 <HAL_GPIO_Init+0x2a0>)
 8000cf4:	4293      	cmp	r3, r2
 8000cf6:	d04c      	beq.n	8000d92 <HAL_GPIO_Init+0xfa>
 8000cf8:	4a8f      	ldr	r2, [pc, #572]	; (8000f38 <HAL_GPIO_Init+0x2a0>)
 8000cfa:	4293      	cmp	r3, r2
 8000cfc:	d863      	bhi.n	8000dc6 <HAL_GPIO_Init+0x12e>
 8000cfe:	4a8f      	ldr	r2, [pc, #572]	; (8000f3c <HAL_GPIO_Init+0x2a4>)
 8000d00:	4293      	cmp	r3, r2
 8000d02:	d046      	beq.n	8000d92 <HAL_GPIO_Init+0xfa>
 8000d04:	4a8d      	ldr	r2, [pc, #564]	; (8000f3c <HAL_GPIO_Init+0x2a4>)
 8000d06:	4293      	cmp	r3, r2
 8000d08:	d85d      	bhi.n	8000dc6 <HAL_GPIO_Init+0x12e>
 8000d0a:	2b12      	cmp	r3, #18
 8000d0c:	d82a      	bhi.n	8000d64 <HAL_GPIO_Init+0xcc>
 8000d0e:	2b12      	cmp	r3, #18
 8000d10:	d859      	bhi.n	8000dc6 <HAL_GPIO_Init+0x12e>
 8000d12:	a201      	add	r2, pc, #4	; (adr r2, 8000d18 <HAL_GPIO_Init+0x80>)
 8000d14:	f852 f023 	ldr.w	pc, [r2, r3, lsl #2]
 8000d18:	08000d93 	.word	0x08000d93
 8000d1c:	08000d6d 	.word	0x08000d6d
 8000d20:	08000d7f 	.word	0x08000d7f
 8000d24:	08000dc1 	.word	0x08000dc1
 8000d28:	08000dc7 	.word	0x08000dc7
 8000d2c:	08000dc7 	.word	0x08000dc7
 8000d30:	08000dc7 	.word	0x08000dc7
 8000d34:	08000dc7 	.word	0x08000dc7
 8000d38:	08000dc7 	.word	0x08000dc7
 8000d3c:	08000dc7 	.word	0x08000dc7
 8000d40:	08000dc7 	.word	0x08000dc7
 8000d44:	08000dc7 	.word	0x08000dc7
 8000d48:	08000dc7 	.word	0x08000dc7
 8000d4c:	08000dc7 	.word	0x08000dc7
 8000d50:	08000dc7 	.word	0x08000dc7
 8000d54:	08000dc7 	.word	0x08000dc7
 8000d58:	08000dc7 	.word	0x08000dc7
 8000d5c:	08000d75 	.word	0x08000d75
 8000d60:	08000d89 	.word	0x08000d89
 8000d64:	4a76      	ldr	r2, [pc, #472]	; (8000f40 <HAL_GPIO_Init+0x2a8>)
 8000d66:	4293      	cmp	r3, r2
 8000d68:	d013      	beq.n	8000d92 <HAL_GPIO_Init+0xfa>
          config = GPIO_CR_MODE_INPUT + GPIO_CR_CNF_ANALOG;
          break;

        /* Parameters are checked with assert_param */
        default:
          break;
 8000d6a:	e02c      	b.n	8000dc6 <HAL_GPIO_Init+0x12e>
          config = GPIO_Init->Speed + GPIO_CR_CNF_GP_OUTPUT_PP;
 8000d6c:	683b      	ldr	r3, [r7, #0]
 8000d6e:	68db      	ldr	r3, [r3, #12]
 8000d70:	623b      	str	r3, [r7, #32]
          break;
 8000d72:	e029      	b.n	8000dc8 <HAL_GPIO_Init+0x130>
          config = GPIO_Init->Speed + GPIO_CR_CNF_GP_OUTPUT_OD;
 8000d74:	683b      	ldr	r3, [r7, #0]
 8000d76:	68db      	ldr	r3, [r3, #12]
 8000d78:	3304      	adds	r3, #4
 8000d7a:	623b      	str	r3, [r7, #32]
          break;
 8000d7c:	e024      	b.n	8000dc8 <HAL_GPIO_Init+0x130>
          config = GPIO_Init->Speed + GPIO_CR_CNF_AF_OUTPUT_PP;
 8000d7e:	683b      	ldr	r3, [r7, #0]
 8000d80:	68db      	ldr	r3, [r3, #12]
 8000d82:	3308      	adds	r3, #8
 8000d84:	623b      	str	r3, [r7, #32]
          break;
 8000d86:	e01f      	b.n	8000dc8 <HAL_GPIO_Init+0x130>
          config = GPIO_Init->Speed + GPIO_CR_CNF_AF_OUTPUT_OD;
 8000d88:	683b      	ldr	r3, [r7, #0]
 8000d8a:	68db      	ldr	r3, [r3, #12]
 8000d8c:	330c      	adds	r3, #12
 8000d8e:	623b      	str	r3, [r7, #32]
          break;
 8000d90:	e01a      	b.n	8000dc8 <HAL_GPIO_Init+0x130>
          if (GPIO_Init->Pull == GPIO_NOPULL)
 8000d92:	683b      	ldr	r3, [r7, #0]
 8000d94:	689b      	ldr	r3, [r3, #8]
 8000d96:	2b00      	cmp	r3, #0
 8000d98:	d102      	bne.n	8000da0 <HAL_GPIO_Init+0x108>
            config = GPIO_CR_MODE_INPUT + GPIO_CR_CNF_INPUT_FLOATING;
 8000d9a:	2304      	movs	r3, #4
 8000d9c:	623b      	str	r3, [r7, #32]
          break;
 8000d9e:	e013      	b.n	8000dc8 <HAL_GPIO_Init+0x130>
          else if (GPIO_Init->Pull == GPIO_PULLUP)
 8000da0:	683b      	ldr	r3, [r7, #0]
 8000da2:	689b      	ldr	r3, [r3, #8]
 8000da4:	2b01      	cmp	r3, #1
 8000da6:	d105      	bne.n	8000db4 <HAL_GPIO_Init+0x11c>
            config = GPIO_CR_MODE_INPUT + GPIO_CR_CNF_INPUT_PU_PD;
 8000da8:	2308      	movs	r3, #8
 8000daa:	623b      	str	r3, [r7, #32]
            GPIOx->BSRR = ioposition;
 8000dac:	687b      	ldr	r3, [r7, #4]
 8000dae:	69fa      	ldr	r2, [r7, #28]
 8000db0:	611a      	str	r2, [r3, #16]
          break;
 8000db2:	e009      	b.n	8000dc8 <HAL_GPIO_Init+0x130>
            config = GPIO_CR_MODE_INPUT + GPIO_CR_CNF_INPUT_PU_PD;
 8000db4:	2308      	movs	r3, #8
 8000db6:	623b      	str	r3, [r7, #32]
            GPIOx->BRR = ioposition;
 8000db8:	687b      	ldr	r3, [r7, #4]
 8000dba:	69fa      	ldr	r2, [r7, #28]
 8000dbc:	615a      	str	r2, [r3, #20]
          break;
 8000dbe:	e003      	b.n	8000dc8 <HAL_GPIO_Init+0x130>
          config = GPIO_CR_MODE_INPUT + GPIO_CR_CNF_ANALOG;
 8000dc0:	2300      	movs	r3, #0
 8000dc2:	623b      	str	r3, [r7, #32]
          break;
 8000dc4:	e000      	b.n	8000dc8 <HAL_GPIO_Init+0x130>
          break;
 8000dc6:	bf00      	nop
      }

      /* Check if the current bit belongs to first half or last half of the pin count number
       in order to address CRH or CRL register*/
      configregister = (iocurrent < GPIO_PIN_8) ? &GPIOx->CRL     : &GPIOx->CRH;
 8000dc8:	69bb      	ldr	r3, [r7, #24]
 8000dca:	2bff      	cmp	r3, #255	; 0xff
 8000dcc:	d801      	bhi.n	8000dd2 <HAL_GPIO_Init+0x13a>
 8000dce:	687b      	ldr	r3, [r7, #4]
 8000dd0:	e001      	b.n	8000dd6 <HAL_GPIO_Init+0x13e>
 8000dd2:	687b      	ldr	r3, [r7, #4]
 8000dd4:	3304      	adds	r3, #4
 8000dd6:	617b      	str	r3, [r7, #20]
      registeroffset = (iocurrent < GPIO_PIN_8) ? (position << 2u) : ((position - 8u) << 2u);
 8000dd8:	69bb      	ldr	r3, [r7, #24]
 8000dda:	2bff      	cmp	r3, #255	; 0xff
 8000ddc:	d802      	bhi.n	8000de4 <HAL_GPIO_Init+0x14c>
 8000dde:	6a7b      	ldr	r3, [r7, #36]	; 0x24
 8000de0:	009b      	lsls	r3, r3, #2
 8000de2:	e002      	b.n	8000dea <HAL_GPIO_Init+0x152>
 8000de4:	6a7b      	ldr	r3, [r7, #36]	; 0x24
 8000de6:	3b08      	subs	r3, #8
 8000de8:	009b      	lsls	r3, r3, #2
 8000dea:	613b      	str	r3, [r7, #16]

      /* Apply the new configuration of the pin to the register */
      MODIFY_REG((*configregister), ((GPIO_CRL_MODE0 | GPIO_CRL_CNF0) << registeroffset), (config << registeroffset));
 8000dec:	697b      	ldr	r3, [r7, #20]
 8000dee:	681a      	ldr	r2, [r3, #0]
 8000df0:	210f      	movs	r1, #15
 8000df2:	693b      	ldr	r3, [r7, #16]
 8000df4:	fa01 f303 	lsl.w	r3, r1, r3
 8000df8:	43db      	mvns	r3, r3
 8000dfa:	401a      	ands	r2, r3
 8000dfc:	6a39      	ldr	r1, [r7, #32]
 8000dfe:	693b      	ldr	r3, [r7, #16]
 8000e00:	fa01 f303 	lsl.w	r3, r1, r3
 8000e04:	431a      	orrs	r2, r3
 8000e06:	697b      	ldr	r3, [r7, #20]
 8000e08:	601a      	str	r2, [r3, #0]

      /*--------------------- EXTI Mode Configuration ------------------------*/
      /* Configure the External Interrupt or event for the current IO */
      if ((GPIO_Init->Mode & EXTI_MODE) == EXTI_MODE)
 8000e0a:	683b      	ldr	r3, [r7, #0]
 8000e0c:	685b      	ldr	r3, [r3, #4]
 8000e0e:	f003 5380 	and.w	r3, r3, #268435456	; 0x10000000
 8000e12:	2b00      	cmp	r3, #0
 8000e14:	f000 80a9 	beq.w	8000f6a <HAL_GPIO_Init+0x2d2>
      {
        /* Enable AFIO Clock */
        __HAL_RCC_AFIO_CLK_ENABLE();
 8000e18:	4b4a      	ldr	r3, [pc, #296]	; (8000f44 <HAL_GPIO_Init+0x2ac>)
 8000e1a:	699b      	ldr	r3, [r3, #24]
 8000e1c:	4a49      	ldr	r2, [pc, #292]	; (8000f44 <HAL_GPIO_Init+0x2ac>)
 8000e1e:	f043 0301 	orr.w	r3, r3, #1
 8000e22:	6193      	str	r3, [r2, #24]
 8000e24:	4b47      	ldr	r3, [pc, #284]	; (8000f44 <HAL_GPIO_Init+0x2ac>)
 8000e26:	699b      	ldr	r3, [r3, #24]
 8000e28:	f003 0301 	and.w	r3, r3, #1
 8000e2c:	60bb      	str	r3, [r7, #8]
 8000e2e:	68bb      	ldr	r3, [r7, #8]
        temp = AFIO->EXTICR[position >> 2u];
 8000e30:	4a45      	ldr	r2, [pc, #276]	; (8000f48 <HAL_GPIO_Init+0x2b0>)
 8000e32:	6a7b      	ldr	r3, [r7, #36]	; 0x24
 8000e34:	089b      	lsrs	r3, r3, #2
 8000e36:	3302      	adds	r3, #2
 8000e38:	f852 3023 	ldr.w	r3, [r2, r3, lsl #2]
 8000e3c:	60fb      	str	r3, [r7, #12]
        CLEAR_BIT(temp, (0x0Fu) << (4u * (position & 0x03u)));
 8000e3e:	6a7b      	ldr	r3, [r7, #36]	; 0x24
 8000e40:	f003 0303 	and.w	r3, r3, #3
 8000e44:	009b      	lsls	r3, r3, #2
 8000e46:	220f      	movs	r2, #15
 8000e48:	fa02 f303 	lsl.w	r3, r2, r3
 8000e4c:	43db      	mvns	r3, r3
 8000e4e:	68fa      	ldr	r2, [r7, #12]
 8000e50:	4013      	ands	r3, r2
 8000e52:	60fb      	str	r3, [r7, #12]
        SET_BIT(temp, (GPIO_GET_INDEX(GPIOx)) << (4u * (position & 0x03u)));
 8000e54:	687b      	ldr	r3, [r7, #4]
 8000e56:	4a3d      	ldr	r2, [pc, #244]	; (8000f4c <HAL_GPIO_Init+0x2b4>)
 8000e58:	4293      	cmp	r3, r2
 8000e5a:	d00d      	beq.n	8000e78 <HAL_GPIO_Init+0x1e0>
 8000e5c:	687b      	ldr	r3, [r7, #4]
 8000e5e:	4a3c      	ldr	r2, [pc, #240]	; (8000f50 <HAL_GPIO_Init+0x2b8>)
 8000e60:	4293      	cmp	r3, r2
 8000e62:	d007      	beq.n	8000e74 <HAL_GPIO_Init+0x1dc>
 8000e64:	687b      	ldr	r3, [r7, #4]
 8000e66:	4a3b      	ldr	r2, [pc, #236]	; (8000f54 <HAL_GPIO_Init+0x2bc>)
 8000e68:	4293      	cmp	r3, r2
 8000e6a:	d101      	bne.n	8000e70 <HAL_GPIO_Init+0x1d8>
 8000e6c:	2302      	movs	r3, #2
 8000e6e:	e004      	b.n	8000e7a <HAL_GPIO_Init+0x1e2>
 8000e70:	2303      	movs	r3, #3
 8000e72:	e002      	b.n	8000e7a <HAL_GPIO_Init+0x1e2>
 8000e74:	2301      	movs	r3, #1
 8000e76:	e000      	b.n	8000e7a <HAL_GPIO_Init+0x1e2>
 8000e78:	2300      	movs	r3, #0
 8000e7a:	6a7a      	ldr	r2, [r7, #36]	; 0x24
 8000e7c:	f002 0203 	and.w	r2, r2, #3
 8000e80:	0092      	lsls	r2, r2, #2
 8000e82:	4093      	lsls	r3, r2
 8000e84:	68fa      	ldr	r2, [r7, #12]
 8000e86:	4313      	orrs	r3, r2
 8000e88:	60fb      	str	r3, [r7, #12]
        AFIO->EXTICR[position >> 2u] = temp;
 8000e8a:	492f      	ldr	r1, [pc, #188]	; (8000f48 <HAL_GPIO_Init+0x2b0>)
 8000e8c:	6a7b      	ldr	r3, [r7, #36]	; 0x24
 8000e8e:	089b      	lsrs	r3, r3, #2
 8000e90:	3302      	adds	r3, #2
 8000e92:	68fa      	ldr	r2, [r7, #12]
 8000e94:	f841 2023 	str.w	r2, [r1, r3, lsl #2]


        /* Enable or disable the rising trigger */
        if ((GPIO_Init->Mode & RISING_EDGE) == RISING_EDGE)
 8000e98:	683b      	ldr	r3, [r7, #0]
 8000e9a:	685b      	ldr	r3, [r3, #4]
 8000e9c:	f403 1380 	and.w	r3, r3, #1048576	; 0x100000
 8000ea0:	2b00      	cmp	r3, #0
 8000ea2:	d006      	beq.n	8000eb2 <HAL_GPIO_Init+0x21a>
        {
          SET_BIT(EXTI->RTSR, iocurrent);
 8000ea4:	4b2c      	ldr	r3, [pc, #176]	; (8000f58 <HAL_GPIO_Init+0x2c0>)
 8000ea6:	689a      	ldr	r2, [r3, #8]
 8000ea8:	492b      	ldr	r1, [pc, #172]	; (8000f58 <HAL_GPIO_Init+0x2c0>)
 8000eaa:	69bb      	ldr	r3, [r7, #24]
 8000eac:	4313      	orrs	r3, r2
 8000eae:	608b      	str	r3, [r1, #8]
 8000eb0:	e006      	b.n	8000ec0 <HAL_GPIO_Init+0x228>
        }
        else
        {
          CLEAR_BIT(EXTI->RTSR, iocurrent);
 8000eb2:	4b29      	ldr	r3, [pc, #164]	; (8000f58 <HAL_GPIO_Init+0x2c0>)
 8000eb4:	689a      	ldr	r2, [r3, #8]
 8000eb6:	69bb      	ldr	r3, [r7, #24]
 8000eb8:	43db      	mvns	r3, r3
 8000eba:	4927      	ldr	r1, [pc, #156]	; (8000f58 <HAL_GPIO_Init+0x2c0>)
 8000ebc:	4013      	ands	r3, r2
 8000ebe:	608b      	str	r3, [r1, #8]
        }

        /* Enable or disable the falling trigger */
        if ((GPIO_Init->Mode & FALLING_EDGE) == FALLING_EDGE)
 8000ec0:	683b      	ldr	r3, [r7, #0]
 8000ec2:	685b      	ldr	r3, [r3, #4]
 8000ec4:	f403 1300 	and.w	r3, r3, #2097152	; 0x200000
 8000ec8:	2b00      	cmp	r3, #0
 8000eca:	d006      	beq.n	8000eda <HAL_GPIO_Init+0x242>
        {
          SET_BIT(EXTI->FTSR, iocurrent);
 8000ecc:	4b22      	ldr	r3, [pc, #136]	; (8000f58 <HAL_GPIO_Init+0x2c0>)
 8000ece:	68da      	ldr	r2, [r3, #12]
 8000ed0:	4921      	ldr	r1, [pc, #132]	; (8000f58 <HAL_GPIO_Init+0x2c0>)
 8000ed2:	69bb      	ldr	r3, [r7, #24]
 8000ed4:	4313      	orrs	r3, r2
 8000ed6:	60cb      	str	r3, [r1, #12]
 8000ed8:	e006      	b.n	8000ee8 <HAL_GPIO_Init+0x250>
        }
        else
        {
          CLEAR_BIT(EXTI->FTSR, iocurrent);
 8000eda:	4b1f      	ldr	r3, [pc, #124]	; (8000f58 <HAL_GPIO_Init+0x2c0>)
 8000edc:	68da      	ldr	r2, [r3, #12]
 8000ede:	69bb      	ldr	r3, [r7, #24]
 8000ee0:	43db      	mvns	r3, r3
 8000ee2:	491d      	ldr	r1, [pc, #116]	; (8000f58 <HAL_GPIO_Init+0x2c0>)
 8000ee4:	4013      	ands	r3, r2
 8000ee6:	60cb      	str	r3, [r1, #12]
        }

        /* Configure the event mask */
        if ((GPIO_Init->Mode & GPIO_MODE_EVT) == GPIO_MODE_EVT)
 8000ee8:	683b      	ldr	r3, [r7, #0]
 8000eea:	685b      	ldr	r3, [r3, #4]
 8000eec:	f403 3300 	and.w	r3, r3, #131072	; 0x20000
 8000ef0:	2b00      	cmp	r3, #0
 8000ef2:	d006      	beq.n	8000f02 <HAL_GPIO_Init+0x26a>
        {
          SET_BIT(EXTI->EMR, iocurrent);
 8000ef4:	4b18      	ldr	r3, [pc, #96]	; (8000f58 <HAL_GPIO_Init+0x2c0>)
 8000ef6:	685a      	ldr	r2, [r3, #4]
 8000ef8:	4917      	ldr	r1, [pc, #92]	; (8000f58 <HAL_GPIO_Init+0x2c0>)
 8000efa:	69bb      	ldr	r3, [r7, #24]
 8000efc:	4313      	orrs	r3, r2
 8000efe:	604b      	str	r3, [r1, #4]
 8000f00:	e006      	b.n	8000f10 <HAL_GPIO_Init+0x278>
        }
        else
        {
          CLEAR_BIT(EXTI->EMR, iocurrent);
 8000f02:	4b15      	ldr	r3, [pc, #84]	; (8000f58 <HAL_GPIO_Init+0x2c0>)
 8000f04:	685a      	ldr	r2, [r3, #4]
 8000f06:	69bb      	ldr	r3, [r7, #24]
 8000f08:	43db      	mvns	r3, r3
 8000f0a:	4913      	ldr	r1, [pc, #76]	; (8000f58 <HAL_GPIO_Init+0x2c0>)
 8000f0c:	4013      	ands	r3, r2
 8000f0e:	604b      	str	r3, [r1, #4]
        }

        /* Configure the interrupt mask */
        if ((GPIO_Init->Mode & GPIO_MODE_IT) == GPIO_MODE_IT)
 8000f10:	683b      	ldr	r3, [r7, #0]
 8000f12:	685b      	ldr	r3, [r3, #4]
 8000f14:	f403 3380 	and.w	r3, r3, #65536	; 0x10000
 8000f18:	2b00      	cmp	r3, #0
 8000f1a:	d01f      	beq.n	8000f5c <HAL_GPIO_Init+0x2c4>
        {
          SET_BIT(EXTI->IMR, iocurrent);
 8000f1c:	4b0e      	ldr	r3, [pc, #56]	; (8000f58 <HAL_GPIO_Init+0x2c0>)
 8000f1e:	681a      	ldr	r2, [r3, #0]
 8000f20:	490d      	ldr	r1, [pc, #52]	; (8000f58 <HAL_GPIO_Init+0x2c0>)
 8000f22:	69bb      	ldr	r3, [r7, #24]
 8000f24:	4313      	orrs	r3, r2
 8000f26:	600b      	str	r3, [r1, #0]
 8000f28:	e01f      	b.n	8000f6a <HAL_GPIO_Init+0x2d2>
 8000f2a:	bf00      	nop
 8000f2c:	10320000 	.word	0x10320000
 8000f30:	10310000 	.word	0x10310000
 8000f34:	10220000 	.word	0x10220000
 8000f38:	10210000 	.word	0x10210000
 8000f3c:	10120000 	.word	0x10120000
 8000f40:	10110000 	.word	0x10110000
 8000f44:	40021000 	.word	0x40021000
 8000f48:	40010000 	.word	0x40010000
 8000f4c:	40010800 	.word	0x40010800
 8000f50:	40010c00 	.word	0x40010c00
 8000f54:	40011000 	.word	0x40011000
 8000f58:	40010400 	.word	0x40010400
        }
        else
        {
          CLEAR_BIT(EXTI->IMR, iocurrent);
 8000f5c:	4b0b      	ldr	r3, [pc, #44]	; (8000f8c <HAL_GPIO_Init+0x2f4>)
 8000f5e:	681a      	ldr	r2, [r3, #0]
 8000f60:	69bb      	ldr	r3, [r7, #24]
 8000f62:	43db      	mvns	r3, r3
 8000f64:	4909      	ldr	r1, [pc, #36]	; (8000f8c <HAL_GPIO_Init+0x2f4>)
 8000f66:	4013      	ands	r3, r2
 8000f68:	600b      	str	r3, [r1, #0]
        }
      }
    }

	position++;
 8000f6a:	6a7b      	ldr	r3, [r7, #36]	; 0x24
 8000f6c:	3301      	adds	r3, #1
 8000f6e:	627b      	str	r3, [r7, #36]	; 0x24
  while (((GPIO_Init->Pin) >> position) != 0x00u)
 8000f70:	683b      	ldr	r3, [r7, #0]
 8000f72:	681a      	ldr	r2, [r3, #0]
 8000f74:	6a7b      	ldr	r3, [r7, #36]	; 0x24
 8000f76:	fa22 f303 	lsr.w	r3, r2, r3
 8000f7a:	2b00      	cmp	r3, #0
 8000f7c:	f47f ae96 	bne.w	8000cac <HAL_GPIO_Init+0x14>
  }
}
 8000f80:	bf00      	nop
 8000f82:	bf00      	nop
 8000f84:	372c      	adds	r7, #44	; 0x2c
 8000f86:	46bd      	mov	sp, r7
 8000f88:	bc80      	pop	{r7}
 8000f8a:	4770      	bx	lr
 8000f8c:	40010400 	.word	0x40010400

08000f90 <HAL_GPIO_WritePin>:
  *            @arg GPIO_PIN_RESET: to clear the port pin
  *            @arg GPIO_PIN_SET: to set the port pin
  * @retval None
  */
void HAL_GPIO_WritePin(GPIO_TypeDef *GPIOx, uint16_t GPIO_Pin, GPIO_PinState PinState)
{
 8000f90:	b480      	push	{r7}
 8000f92:	b083      	sub	sp, #12
 8000f94:	af00      	add	r7, sp, #0
 8000f96:	6078      	str	r0, [r7, #4]
 8000f98:	460b      	mov	r3, r1
 8000f9a:	807b      	strh	r3, [r7, #2]
 8000f9c:	4613      	mov	r3, r2
 8000f9e:	707b      	strb	r3, [r7, #1]
  /* Check the parameters */
  assert_param(IS_GPIO_PIN(GPIO_Pin));
  assert_param(IS_GPIO_PIN_ACTION(PinState));

  if (PinState != GPIO_PIN_RESET)
 8000fa0:	787b      	ldrb	r3, [r7, #1]
 8000fa2:	2b00      	cmp	r3, #0
 8000fa4:	d003      	beq.n	8000fae <HAL_GPIO_WritePin+0x1e>
  {
    GPIOx->BSRR = GPIO_Pin;
 8000fa6:	887a      	ldrh	r2, [r7, #2]
 8000fa8:	687b      	ldr	r3, [r7, #4]
 8000faa:	611a      	str	r2, [r3, #16]
  }
  else
  {
    GPIOx->BSRR = (uint32_t)GPIO_Pin << 16u;
  }
}
 8000fac:	e003      	b.n	8000fb6 <HAL_GPIO_WritePin+0x26>
    GPIOx->BSRR = (uint32_t)GPIO_Pin << 16u;
 8000fae:	887b      	ldrh	r3, [r7, #2]
 8000fb0:	041a      	lsls	r2, r3, #16
 8000fb2:	687b      	ldr	r3, [r7, #4]
 8000fb4:	611a      	str	r2, [r3, #16]
}
 8000fb6:	bf00      	nop
 8000fb8:	370c      	adds	r7, #12
 8000fba:	46bd      	mov	sp, r7
 8000fbc:	bc80      	pop	{r7}
 8000fbe:	4770      	bx	lr

08000fc0 <HAL_RCC_OscConfig>:
  *         supported by this macro. User should request a transition to HSE Off
  *         first and then HSE On or HSE Bypass.
  * @retval HAL status
  */
HAL_StatusTypeDef HAL_RCC_OscConfig(RCC_OscInitTypeDef  *RCC_OscInitStruct)
{
 8000fc0:	b580      	push	{r7, lr}
 8000fc2:	b086      	sub	sp, #24
 8000fc4:	af00      	add	r7, sp, #0
 8000fc6:	6078      	str	r0, [r7, #4]
  uint32_t tickstart;
  uint32_t pll_config;

  /* Check Null pointer */
  if (RCC_OscInitStruct == NULL)
 8000fc8:	687b      	ldr	r3, [r7, #4]
 8000fca:	2b00      	cmp	r3, #0
 8000fcc:	d101      	bne.n	8000fd2 <HAL_RCC_OscConfig+0x12>
  {
    return HAL_ERROR;
 8000fce:	2301      	movs	r3, #1
 8000fd0:	e272      	b.n	80014b8 <HAL_RCC_OscConfig+0x4f8>

  /* Check the parameters */
  assert_param(IS_RCC_OSCILLATORTYPE(RCC_OscInitStruct->OscillatorType));

  /*------------------------------- HSE Configuration ------------------------*/
  if (((RCC_OscInitStruct->OscillatorType) & RCC_OSCILLATORTYPE_HSE) == RCC_OSCILLATORTYPE_HSE)
 8000fd2:	687b      	ldr	r3, [r7, #4]
 8000fd4:	681b      	ldr	r3, [r3, #0]
 8000fd6:	f003 0301 	and.w	r3, r3, #1
 8000fda:	2b00      	cmp	r3, #0
 8000fdc:	f000 8087 	beq.w	80010ee <HAL_RCC_OscConfig+0x12e>
  {
    /* Check the parameters */
    assert_param(IS_RCC_HSE(RCC_OscInitStruct->HSEState));

    /* When the HSE is used as system clock or clock source for PLL in these cases it is not allowed to be disabled */
    if ((__HAL_RCC_GET_SYSCLK_SOURCE() == RCC_SYSCLKSOURCE_STATUS_HSE)
 8000fe0:	4b92      	ldr	r3, [pc, #584]	; (800122c <HAL_RCC_OscConfig+0x26c>)
 8000fe2:	685b      	ldr	r3, [r3, #4]
 8000fe4:	f003 030c 	and.w	r3, r3, #12
 8000fe8:	2b04      	cmp	r3, #4
 8000fea:	d00c      	beq.n	8001006 <HAL_RCC_OscConfig+0x46>
        || ((__HAL_RCC_GET_SYSCLK_SOURCE() == RCC_SYSCLKSOURCE_STATUS_PLLCLK) && (__HAL_RCC_GET_PLL_OSCSOURCE() == RCC_PLLSOURCE_HSE)))
 8000fec:	4b8f      	ldr	r3, [pc, #572]	; (800122c <HAL_RCC_OscConfig+0x26c>)
 8000fee:	685b      	ldr	r3, [r3, #4]
 8000ff0:	f003 030c 	and.w	r3, r3, #12
 8000ff4:	2b08      	cmp	r3, #8
 8000ff6:	d112      	bne.n	800101e <HAL_RCC_OscConfig+0x5e>
 8000ff8:	4b8c      	ldr	r3, [pc, #560]	; (800122c <HAL_RCC_OscConfig+0x26c>)
 8000ffa:	685b      	ldr	r3, [r3, #4]
 8000ffc:	f403 3380 	and.w	r3, r3, #65536	; 0x10000
 8001000:	f5b3 3f80 	cmp.w	r3, #65536	; 0x10000
 8001004:	d10b      	bne.n	800101e <HAL_RCC_OscConfig+0x5e>
    {
      if ((__HAL_RCC_GET_FLAG(RCC_FLAG_HSERDY) != RESET) && (RCC_OscInitStruct->HSEState == RCC_HSE_OFF))
 8001006:	4b89      	ldr	r3, [pc, #548]	; (800122c <HAL_RCC_OscConfig+0x26c>)
 8001008:	681b      	ldr	r3, [r3, #0]
 800100a:	f403 3300 	and.w	r3, r3, #131072	; 0x20000
 800100e:	2b00      	cmp	r3, #0
 8001010:	d06c      	beq.n	80010ec <HAL_RCC_OscConfig+0x12c>
 8001012:	687b      	ldr	r3, [r7, #4]
 8001014:	685b      	ldr	r3, [r3, #4]
 8001016:	2b00      	cmp	r3, #0
 8001018:	d168      	bne.n	80010ec <HAL_RCC_OscConfig+0x12c>
      {
        return HAL_ERROR;
 800101a:	2301      	movs	r3, #1
 800101c:	e24c      	b.n	80014b8 <HAL_RCC_OscConfig+0x4f8>
      }
    }
    else
    {
      /* Set the new HSE configuration ---------------------------------------*/
      __HAL_RCC_HSE_CONFIG(RCC_OscInitStruct->HSEState);
 800101e:	687b      	ldr	r3, [r7, #4]
 8001020:	685b      	ldr	r3, [r3, #4]
 8001022:	f5b3 3f80 	cmp.w	r3, #65536	; 0x10000
 8001026:	d106      	bne.n	8001036 <HAL_RCC_OscConfig+0x76>
 8001028:	4b80      	ldr	r3, [pc, #512]	; (800122c <HAL_RCC_OscConfig+0x26c>)
 800102a:	681b      	ldr	r3, [r3, #0]
 800102c:	4a7f      	ldr	r2, [pc, #508]	; (800122c <HAL_RCC_OscConfig+0x26c>)
 800102e:	f443 3380 	orr.w	r3, r3, #65536	; 0x10000
 8001032:	6013      	str	r3, [r2, #0]
 8001034:	e02e      	b.n	8001094 <HAL_RCC_OscConfig+0xd4>
 8001036:	687b      	ldr	r3, [r7, #4]
 8001038:	685b      	ldr	r3, [r3, #4]
 800103a:	2b00      	cmp	r3, #0
 800103c:	d10c      	bne.n	8001058 <HAL_RCC_OscConfig+0x98>
 800103e:	4b7b      	ldr	r3, [pc, #492]	; (800122c <HAL_RCC_OscConfig+0x26c>)
 8001040:	681b      	ldr	r3, [r3, #0]
 8001042:	4a7a      	ldr	r2, [pc, #488]	; (800122c <HAL_RCC_OscConfig+0x26c>)
 8001044:	f423 3380 	bic.w	r3, r3, #65536	; 0x10000
 8001048:	6013      	str	r3, [r2, #0]
 800104a:	4b78      	ldr	r3, [pc, #480]	; (800122c <HAL_RCC_OscConfig+0x26c>)
 800104c:	681b      	ldr	r3, [r3, #0]
 800104e:	4a77      	ldr	r2, [pc, #476]	; (800122c <HAL_RCC_OscConfig+0x26c>)
 8001050:	f423 2380 	bic.w	r3, r3, #262144	; 0x40000
 8001054:	6013      	str	r3, [r2, #0]
 8001056:	e01d      	b.n	8001094 <HAL_RCC_OscConfig+0xd4>
 8001058:	687b      	ldr	r3, [r7, #4]
 800105a:	685b      	ldr	r3, [r3, #4]
 800105c:	f5b3 2fa0 	cmp.w	r3, #327680	; 0x50000
 8001060:	d10c      	bne.n	800107c <HAL_RCC_OscConfig+0xbc>
 8001062:	4b72      	ldr	r3, [pc, #456]	; (800122c <HAL_RCC_OscConfig+0x26c>)
 8001064:	681b      	ldr	r3, [r3, #0]
 8001066:	4a71      	ldr	r2, [pc, #452]	; (800122c <HAL_RCC_OscConfig+0x26c>)
 8001068:	f443 2380 	orr.w	r3, r3, #262144	; 0x40000
 800106c:	6013      	str	r3, [r2, #0]
 800106e:	4b6f      	ldr	r3, [pc, #444]	; (800122c <HAL_RCC_OscConfig+0x26c>)
 8001070:	681b      	ldr	r3, [r3, #0]
 8001072:	4a6e      	ldr	r2, [pc, #440]	; (800122c <HAL_RCC_OscConfig+0x26c>)
 8001074:	f443 3380 	orr.w	r3, r3, #65536	; 0x10000
 8001078:	6013      	str	r3, [r2, #0]
 800107a:	e00b      	b.n	8001094 <HAL_RCC_OscConfig+0xd4>
 800107c:	4b6b      	ldr	r3, [pc, #428]	; (800122c <HAL_RCC_OscConfig+0x26c>)
 800107e:	681b      	ldr	r3, [r3, #0]
 8001080:	4a6a      	ldr	r2, [pc, #424]	; (800122c <HAL_RCC_OscConfig+0x26c>)
 8001082:	f423 3380 	bic.w	r3, r3, #65536	; 0x10000
 8001086:	6013      	str	r3, [r2, #0]
 8001088:	4b68      	ldr	r3, [pc, #416]	; (800122c <HAL_RCC_OscConfig+0x26c>)
 800108a:	681b      	ldr	r3, [r3, #0]
 800108c:	4a67      	ldr	r2, [pc, #412]	; (800122c <HAL_RCC_OscConfig+0x26c>)
 800108e:	f423 2380 	bic.w	r3, r3, #262144	; 0x40000
 8001092:	6013      	str	r3, [r2, #0]


      /* Check the HSE State */
      if (RCC_OscInitStruct->HSEState != RCC_HSE_OFF)
 8001094:	687b      	ldr	r3, [r7, #4]
 8001096:	685b      	ldr	r3, [r3, #4]
 8001098:	2b00      	cmp	r3, #0
 800109a:	d013      	beq.n	80010c4 <HAL_RCC_OscConfig+0x104>
      {
        /* Get Start Tick */
        tickstart = HAL_GetTick();
 800109c:	f7ff fce4 	bl	8000a68 <HAL_GetTick>
 80010a0:	6138      	str	r0, [r7, #16]

        /* Wait till HSE is ready */
        while (__HAL_RCC_GET_FLAG(RCC_FLAG_HSERDY) == RESET)
 80010a2:	e008      	b.n	80010b6 <HAL_RCC_OscConfig+0xf6>
        {
          if ((HAL_GetTick() - tickstart) > HSE_TIMEOUT_VALUE)
 80010a4:	f7ff fce0 	bl	8000a68 <HAL_GetTick>
 80010a8:	4602      	mov	r2, r0
 80010aa:	693b      	ldr	r3, [r7, #16]
 80010ac:	1ad3      	subs	r3, r2, r3
 80010ae:	2b64      	cmp	r3, #100	; 0x64
 80010b0:	d901      	bls.n	80010b6 <HAL_RCC_OscConfig+0xf6>
          {
            return HAL_TIMEOUT;
 80010b2:	2303      	movs	r3, #3
 80010b4:	e200      	b.n	80014b8 <HAL_RCC_OscConfig+0x4f8>
        while (__HAL_RCC_GET_FLAG(RCC_FLAG_HSERDY) == RESET)
 80010b6:	4b5d      	ldr	r3, [pc, #372]	; (800122c <HAL_RCC_OscConfig+0x26c>)
 80010b8:	681b      	ldr	r3, [r3, #0]
 80010ba:	f403 3300 	and.w	r3, r3, #131072	; 0x20000
 80010be:	2b00      	cmp	r3, #0
 80010c0:	d0f0      	beq.n	80010a4 <HAL_RCC_OscConfig+0xe4>
 80010c2:	e014      	b.n	80010ee <HAL_RCC_OscConfig+0x12e>
        }
      }
      else
      {
        /* Get Start Tick */
        tickstart = HAL_GetTick();
 80010c4:	f7ff fcd0 	bl	8000a68 <HAL_GetTick>
 80010c8:	6138      	str	r0, [r7, #16]

        /* Wait till HSE is disabled */
        while (__HAL_RCC_GET_FLAG(RCC_FLAG_HSERDY) != RESET)
 80010ca:	e008      	b.n	80010de <HAL_RCC_OscConfig+0x11e>
        {
          if ((HAL_GetTick() - tickstart) > HSE_TIMEOUT_VALUE)
 80010cc:	f7ff fccc 	bl	8000a68 <HAL_GetTick>
 80010d0:	4602      	mov	r2, r0
 80010d2:	693b      	ldr	r3, [r7, #16]
 80010d4:	1ad3      	subs	r3, r2, r3
 80010d6:	2b64      	cmp	r3, #100	; 0x64
 80010d8:	d901      	bls.n	80010de <HAL_RCC_OscConfig+0x11e>
          {
            return HAL_TIMEOUT;
 80010da:	2303      	movs	r3, #3
 80010dc:	e1ec      	b.n	80014b8 <HAL_RCC_OscConfig+0x4f8>
        while (__HAL_RCC_GET_FLAG(RCC_FLAG_HSERDY) != RESET)
 80010de:	4b53      	ldr	r3, [pc, #332]	; (800122c <HAL_RCC_OscConfig+0x26c>)
 80010e0:	681b      	ldr	r3, [r3, #0]
 80010e2:	f403 3300 	and.w	r3, r3, #131072	; 0x20000
 80010e6:	2b00      	cmp	r3, #0
 80010e8:	d1f0      	bne.n	80010cc <HAL_RCC_OscConfig+0x10c>
 80010ea:	e000      	b.n	80010ee <HAL_RCC_OscConfig+0x12e>
      if ((__HAL_RCC_GET_FLAG(RCC_FLAG_HSERDY) != RESET) && (RCC_OscInitStruct->HSEState == RCC_HSE_OFF))
 80010ec:	bf00      	nop
        }
      }
    }
  }
  /*----------------------------- HSI Configuration --------------------------*/
  if (((RCC_OscInitStruct->OscillatorType) & RCC_OSCILLATORTYPE_HSI) == RCC_OSCILLATORTYPE_HSI)
 80010ee:	687b      	ldr	r3, [r7, #4]
 80010f0:	681b      	ldr	r3, [r3, #0]
 80010f2:	f003 0302 	and.w	r3, r3, #2
 80010f6:	2b00      	cmp	r3, #0
 80010f8:	d063      	beq.n	80011c2 <HAL_RCC_OscConfig+0x202>
    /* Check the parameters */
    assert_param(IS_RCC_HSI(RCC_OscInitStruct->HSIState));
    assert_param(IS_RCC_CALIBRATION_VALUE(RCC_OscInitStruct->HSICalibrationValue));

    /* Check if HSI is used as system clock or as PLL source when PLL is selected as system clock */
    if ((__HAL_RCC_GET_SYSCLK_SOURCE() == RCC_SYSCLKSOURCE_STATUS_HSI)
 80010fa:	4b4c      	ldr	r3, [pc, #304]	; (800122c <HAL_RCC_OscConfig+0x26c>)
 80010fc:	685b      	ldr	r3, [r3, #4]
 80010fe:	f003 030c 	and.w	r3, r3, #12
 8001102:	2b00      	cmp	r3, #0
 8001104:	d00b      	beq.n	800111e <HAL_RCC_OscConfig+0x15e>
        || ((__HAL_RCC_GET_SYSCLK_SOURCE() == RCC_SYSCLKSOURCE_STATUS_PLLCLK) && (__HAL_RCC_GET_PLL_OSCSOURCE() == RCC_PLLSOURCE_HSI_DIV2)))
 8001106:	4b49      	ldr	r3, [pc, #292]	; (800122c <HAL_RCC_OscConfig+0x26c>)
 8001108:	685b      	ldr	r3, [r3, #4]
 800110a:	f003 030c 	and.w	r3, r3, #12
 800110e:	2b08      	cmp	r3, #8
 8001110:	d11c      	bne.n	800114c <HAL_RCC_OscConfig+0x18c>
 8001112:	4b46      	ldr	r3, [pc, #280]	; (800122c <HAL_RCC_OscConfig+0x26c>)
 8001114:	685b      	ldr	r3, [r3, #4]
 8001116:	f403 3380 	and.w	r3, r3, #65536	; 0x10000
 800111a:	2b00      	cmp	r3, #0
 800111c:	d116      	bne.n	800114c <HAL_RCC_OscConfig+0x18c>
    {
      /* When HSI is used as system clock it will not disabled */
      if ((__HAL_RCC_GET_FLAG(RCC_FLAG_HSIRDY) != RESET) && (RCC_OscInitStruct->HSIState != RCC_HSI_ON))
 800111e:	4b43      	ldr	r3, [pc, #268]	; (800122c <HAL_RCC_OscConfig+0x26c>)
 8001120:	681b      	ldr	r3, [r3, #0]
 8001122:	f003 0302 	and.w	r3, r3, #2
 8001126:	2b00      	cmp	r3, #0
 8001128:	d005      	beq.n	8001136 <HAL_RCC_OscConfig+0x176>
 800112a:	687b      	ldr	r3, [r7, #4]
 800112c:	691b      	ldr	r3, [r3, #16]
 800112e:	2b01      	cmp	r3, #1
 8001130:	d001      	beq.n	8001136 <HAL_RCC_OscConfig+0x176>
      {
        return HAL_ERROR;
 8001132:	2301      	movs	r3, #1
 8001134:	e1c0      	b.n	80014b8 <HAL_RCC_OscConfig+0x4f8>
      }
      /* Otherwise, just the calibration is allowed */
      else
      {
        /* Adjusts the Internal High Speed oscillator (HSI) calibration value.*/
        __HAL_RCC_HSI_CALIBRATIONVALUE_ADJUST(RCC_OscInitStruct->HSICalibrationValue);
 8001136:	4b3d      	ldr	r3, [pc, #244]	; (800122c <HAL_RCC_OscConfig+0x26c>)
 8001138:	681b      	ldr	r3, [r3, #0]
 800113a:	f023 02f8 	bic.w	r2, r3, #248	; 0xf8
 800113e:	687b      	ldr	r3, [r7, #4]
 8001140:	695b      	ldr	r3, [r3, #20]
 8001142:	00db      	lsls	r3, r3, #3
 8001144:	4939      	ldr	r1, [pc, #228]	; (800122c <HAL_RCC_OscConfig+0x26c>)
 8001146:	4313      	orrs	r3, r2
 8001148:	600b      	str	r3, [r1, #0]
      if ((__HAL_RCC_GET_FLAG(RCC_FLAG_HSIRDY) != RESET) && (RCC_OscInitStruct->HSIState != RCC_HSI_ON))
 800114a:	e03a      	b.n	80011c2 <HAL_RCC_OscConfig+0x202>
      }
    }
    else
    {
      /* Check the HSI State */
      if (RCC_OscInitStruct->HSIState != RCC_HSI_OFF)
 800114c:	687b      	ldr	r3, [r7, #4]
 800114e:	691b      	ldr	r3, [r3, #16]
 8001150:	2b00      	cmp	r3, #0
 8001152:	d020      	beq.n	8001196 <HAL_RCC_OscConfig+0x1d6>
      {
        /* Enable the Internal High Speed oscillator (HSI). */
        __HAL_RCC_HSI_ENABLE();
 8001154:	4b36      	ldr	r3, [pc, #216]	; (8001230 <HAL_RCC_OscConfig+0x270>)
 8001156:	2201      	movs	r2, #1
 8001158:	601a      	str	r2, [r3, #0]

        /* Get Start Tick */
        tickstart = HAL_GetTick();
 800115a:	f7ff fc85 	bl	8000a68 <HAL_GetTick>
 800115e:	6138      	str	r0, [r7, #16]

        /* Wait till HSI is ready */
        while (__HAL_RCC_GET_FLAG(RCC_FLAG_HSIRDY) == RESET)
 8001160:	e008      	b.n	8001174 <HAL_RCC_OscConfig+0x1b4>
        {
          if ((HAL_GetTick() - tickstart) > HSI_TIMEOUT_VALUE)
 8001162:	f7ff fc81 	bl	8000a68 <HAL_GetTick>
 8001166:	4602      	mov	r2, r0
 8001168:	693b      	ldr	r3, [r7, #16]
 800116a:	1ad3      	subs	r3, r2, r3
 800116c:	2b02      	cmp	r3, #2
 800116e:	d901      	bls.n	8001174 <HAL_RCC_OscConfig+0x1b4>
          {
            return HAL_TIMEOUT;
 8001170:	2303      	movs	r3, #3
 8001172:	e1a1      	b.n	80014b8 <HAL_RCC_OscConfig+0x4f8>
        while (__HAL_RCC_GET_FLAG(RCC_FLAG_HSIRDY) == RESET)
 8001174:	4b2d      	ldr	r3, [pc, #180]	; (800122c <HAL_RCC_OscConfig+0x26c>)
 8001176:	681b      	ldr	r3, [r3, #0]
 8001178:	f003 0302 	and.w	r3, r3, #2
 800117c:	2b00      	cmp	r3, #0
 800117e:	d0f0      	beq.n	8001162 <HAL_RCC_OscConfig+0x1a2>
          }
        }

        /* Adjusts the Internal High Speed oscillator (HSI) calibration value.*/
        __HAL_RCC_HSI_CALIBRATIONVALUE_ADJUST(RCC_OscInitStruct->HSICalibrationValue);
 8001180:	4b2a      	ldr	r3, [pc, #168]	; (800122c <HAL_RCC_OscConfig+0x26c>)
 8001182:	681b      	ldr	r3, [r3, #0]
 8001184:	f023 02f8 	bic.w	r2, r3, #248	; 0xf8
 8001188:	687b      	ldr	r3, [r7, #4]
 800118a:	695b      	ldr	r3, [r3, #20]
 800118c:	00db      	lsls	r3, r3, #3
 800118e:	4927      	ldr	r1, [pc, #156]	; (800122c <HAL_RCC_OscConfig+0x26c>)
 8001190:	4313      	orrs	r3, r2
 8001192:	600b      	str	r3, [r1, #0]
 8001194:	e015      	b.n	80011c2 <HAL_RCC_OscConfig+0x202>
      }
      else
      {
        /* Disable the Internal High Speed oscillator (HSI). */
        __HAL_RCC_HSI_DISABLE();
 8001196:	4b26      	ldr	r3, [pc, #152]	; (8001230 <HAL_RCC_OscConfig+0x270>)
 8001198:	2200      	movs	r2, #0
 800119a:	601a      	str	r2, [r3, #0]

        /* Get Start Tick */
        tickstart = HAL_GetTick();
 800119c:	f7ff fc64 	bl	8000a68 <HAL_GetTick>
 80011a0:	6138      	str	r0, [r7, #16]

        /* Wait till HSI is disabled */
        while (__HAL_RCC_GET_FLAG(RCC_FLAG_HSIRDY) != RESET)
 80011a2:	e008      	b.n	80011b6 <HAL_RCC_OscConfig+0x1f6>
        {
          if ((HAL_GetTick() - tickstart) > HSI_TIMEOUT_VALUE)
 80011a4:	f7ff fc60 	bl	8000a68 <HAL_GetTick>
 80011a8:	4602      	mov	r2, r0
 80011aa:	693b      	ldr	r3, [r7, #16]
 80011ac:	1ad3      	subs	r3, r2, r3
 80011ae:	2b02      	cmp	r3, #2
 80011b0:	d901      	bls.n	80011b6 <HAL_RCC_OscConfig+0x1f6>
          {
            return HAL_TIMEOUT;
 80011b2:	2303      	movs	r3, #3
 80011b4:	e180      	b.n	80014b8 <HAL_RCC_OscConfig+0x4f8>
        while (__HAL_RCC_GET_FLAG(RCC_FLAG_HSIRDY) != RESET)
 80011b6:	4b1d      	ldr	r3, [pc, #116]	; (800122c <HAL_RCC_OscConfig+0x26c>)
 80011b8:	681b      	ldr	r3, [r3, #0]
 80011ba:	f003 0302 	and.w	r3, r3, #2
 80011be:	2b00      	cmp	r3, #0
 80011c0:	d1f0      	bne.n	80011a4 <HAL_RCC_OscConfig+0x1e4>
        }
      }
    }
  }
  /*------------------------------ LSI Configuration -------------------------*/
  if (((RCC_OscInitStruct->OscillatorType) & RCC_OSCILLATORTYPE_LSI) == RCC_OSCILLATORTYPE_LSI)
 80011c2:	687b      	ldr	r3, [r7, #4]
 80011c4:	681b      	ldr	r3, [r3, #0]
 80011c6:	f003 0308 	and.w	r3, r3, #8
 80011ca:	2b00      	cmp	r3, #0
 80011cc:	d03a      	beq.n	8001244 <HAL_RCC_OscConfig+0x284>
  {
    /* Check the parameters */
    assert_param(IS_RCC_LSI(RCC_OscInitStruct->LSIState));

    /* Check the LSI State */
    if (RCC_OscInitStruct->LSIState != RCC_LSI_OFF)
 80011ce:	687b      	ldr	r3, [r7, #4]
 80011d0:	699b      	ldr	r3, [r3, #24]
 80011d2:	2b00      	cmp	r3, #0
 80011d4:	d019      	beq.n	800120a <HAL_RCC_OscConfig+0x24a>
    {
      /* Enable the Internal Low Speed oscillator (LSI). */
      __HAL_RCC_LSI_ENABLE();
 80011d6:	4b17      	ldr	r3, [pc, #92]	; (8001234 <HAL_RCC_OscConfig+0x274>)
 80011d8:	2201      	movs	r2, #1
 80011da:	601a      	str	r2, [r3, #0]

      /* Get Start Tick */
      tickstart = HAL_GetTick();
 80011dc:	f7ff fc44 	bl	8000a68 <HAL_GetTick>
 80011e0:	6138      	str	r0, [r7, #16]

      /* Wait till LSI is ready */
      while (__HAL_RCC_GET_FLAG(RCC_FLAG_LSIRDY) == RESET)
 80011e2:	e008      	b.n	80011f6 <HAL_RCC_OscConfig+0x236>
      {
        if ((HAL_GetTick() - tickstart) > LSI_TIMEOUT_VALUE)
 80011e4:	f7ff fc40 	bl	8000a68 <HAL_GetTick>
 80011e8:	4602      	mov	r2, r0
 80011ea:	693b      	ldr	r3, [r7, #16]
 80011ec:	1ad3      	subs	r3, r2, r3
 80011ee:	2b02      	cmp	r3, #2
 80011f0:	d901      	bls.n	80011f6 <HAL_RCC_OscConfig+0x236>
        {
          return HAL_TIMEOUT;
 80011f2:	2303      	movs	r3, #3
 80011f4:	e160      	b.n	80014b8 <HAL_RCC_OscConfig+0x4f8>
      while (__HAL_RCC_GET_FLAG(RCC_FLAG_LSIRDY) == RESET)
 80011f6:	4b0d      	ldr	r3, [pc, #52]	; (800122c <HAL_RCC_OscConfig+0x26c>)
 80011f8:	6a5b      	ldr	r3, [r3, #36]	; 0x24
 80011fa:	f003 0302 	and.w	r3, r3, #2
 80011fe:	2b00      	cmp	r3, #0
 8001200:	d0f0      	beq.n	80011e4 <HAL_RCC_OscConfig+0x224>
        }
      }
      /*  To have a fully stabilized clock in the specified range, a software delay of 1ms
          should be added.*/
      RCC_Delay(1);
 8001202:	2001      	movs	r0, #1
 8001204:	f000 fa9c 	bl	8001740 <RCC_Delay>
 8001208:	e01c      	b.n	8001244 <HAL_RCC_OscConfig+0x284>
    }
    else
    {
      /* Disable the Internal Low Speed oscillator (LSI). */
      __HAL_RCC_LSI_DISABLE();
 800120a:	4b0a      	ldr	r3, [pc, #40]	; (8001234 <HAL_RCC_OscConfig+0x274>)
 800120c:	2200      	movs	r2, #0
 800120e:	601a      	str	r2, [r3, #0]

      /* Get Start Tick */
      tickstart = HAL_GetTick();
 8001210:	f7ff fc2a 	bl	8000a68 <HAL_GetTick>
 8001214:	6138      	str	r0, [r7, #16]

      /* Wait till LSI is disabled */
      while (__HAL_RCC_GET_FLAG(RCC_FLAG_LSIRDY) != RESET)
 8001216:	e00f      	b.n	8001238 <HAL_RCC_OscConfig+0x278>
      {
        if ((HAL_GetTick() - tickstart) > LSI_TIMEOUT_VALUE)
 8001218:	f7ff fc26 	bl	8000a68 <HAL_GetTick>
 800121c:	4602      	mov	r2, r0
 800121e:	693b      	ldr	r3, [r7, #16]
 8001220:	1ad3      	subs	r3, r2, r3
 8001222:	2b02      	cmp	r3, #2
 8001224:	d908      	bls.n	8001238 <HAL_RCC_OscConfig+0x278>
        {
          return HAL_TIMEOUT;
 8001226:	2303      	movs	r3, #3
 8001228:	e146      	b.n	80014b8 <HAL_RCC_OscConfig+0x4f8>
 800122a:	bf00      	nop
 800122c:	40021000 	.word	0x40021000
 8001230:	42420000 	.word	0x42420000
 8001234:	42420480 	.word	0x42420480
      while (__HAL_RCC_GET_FLAG(RCC_FLAG_LSIRDY) != RESET)
 8001238:	4b92      	ldr	r3, [pc, #584]	; (8001484 <HAL_RCC_OscConfig+0x4c4>)
 800123a:	6a5b      	ldr	r3, [r3, #36]	; 0x24
 800123c:	f003 0302 	and.w	r3, r3, #2
 8001240:	2b00      	cmp	r3, #0
 8001242:	d1e9      	bne.n	8001218 <HAL_RCC_OscConfig+0x258>
        }
      }
    }
  }
  /*------------------------------ LSE Configuration -------------------------*/
  if (((RCC_OscInitStruct->OscillatorType) & RCC_OSCILLATORTYPE_LSE) == RCC_OSCILLATORTYPE_LSE)
 8001244:	687b      	ldr	r3, [r7, #4]
 8001246:	681b      	ldr	r3, [r3, #0]
 8001248:	f003 0304 	and.w	r3, r3, #4
 800124c:	2b00      	cmp	r3, #0
 800124e:	f000 80a6 	beq.w	800139e <HAL_RCC_OscConfig+0x3de>
  {
    FlagStatus       pwrclkchanged = RESET;
 8001252:	2300      	movs	r3, #0
 8001254:	75fb      	strb	r3, [r7, #23]
    /* Check the parameters */
    assert_param(IS_RCC_LSE(RCC_OscInitStruct->LSEState));

    /* Update LSE configuration in Backup Domain control register    */
    /* Requires to enable write access to Backup Domain of necessary */
    if (__HAL_RCC_PWR_IS_CLK_DISABLED())
 8001256:	4b8b      	ldr	r3, [pc, #556]	; (8001484 <HAL_RCC_OscConfig+0x4c4>)
 8001258:	69db      	ldr	r3, [r3, #28]
 800125a:	f003 5380 	and.w	r3, r3, #268435456	; 0x10000000
 800125e:	2b00      	cmp	r3, #0
 8001260:	d10d      	bne.n	800127e <HAL_RCC_OscConfig+0x2be>
    {
      __HAL_RCC_PWR_CLK_ENABLE();
 8001262:	4b88      	ldr	r3, [pc, #544]	; (8001484 <HAL_RCC_OscConfig+0x4c4>)
 8001264:	69db      	ldr	r3, [r3, #28]
 8001266:	4a87      	ldr	r2, [pc, #540]	; (8001484 <HAL_RCC_OscConfig+0x4c4>)
 8001268:	f043 5380 	orr.w	r3, r3, #268435456	; 0x10000000
 800126c:	61d3      	str	r3, [r2, #28]
 800126e:	4b85      	ldr	r3, [pc, #532]	; (8001484 <HAL_RCC_OscConfig+0x4c4>)
 8001270:	69db      	ldr	r3, [r3, #28]
 8001272:	f003 5380 	and.w	r3, r3, #268435456	; 0x10000000
 8001276:	60bb      	str	r3, [r7, #8]
 8001278:	68bb      	ldr	r3, [r7, #8]
      pwrclkchanged = SET;
 800127a:	2301      	movs	r3, #1
 800127c:	75fb      	strb	r3, [r7, #23]
    }

    if (HAL_IS_BIT_CLR(PWR->CR, PWR_CR_DBP))
 800127e:	4b82      	ldr	r3, [pc, #520]	; (8001488 <HAL_RCC_OscConfig+0x4c8>)
 8001280:	681b      	ldr	r3, [r3, #0]
 8001282:	f403 7380 	and.w	r3, r3, #256	; 0x100
 8001286:	2b00      	cmp	r3, #0
 8001288:	d118      	bne.n	80012bc <HAL_RCC_OscConfig+0x2fc>
    {
      /* Enable write access to Backup domain */
      SET_BIT(PWR->CR, PWR_CR_DBP);
 800128a:	4b7f      	ldr	r3, [pc, #508]	; (8001488 <HAL_RCC_OscConfig+0x4c8>)
 800128c:	681b      	ldr	r3, [r3, #0]
 800128e:	4a7e      	ldr	r2, [pc, #504]	; (8001488 <HAL_RCC_OscConfig+0x4c8>)
 8001290:	f443 7380 	orr.w	r3, r3, #256	; 0x100
 8001294:	6013      	str	r3, [r2, #0]

      /* Wait for Backup domain Write protection disable */
      tickstart = HAL_GetTick();
 8001296:	f7ff fbe7 	bl	8000a68 <HAL_GetTick>
 800129a:	6138      	str	r0, [r7, #16]

      while (HAL_IS_BIT_CLR(PWR->CR, PWR_CR_DBP))
 800129c:	e008      	b.n	80012b0 <HAL_RCC_OscConfig+0x2f0>
      {
        if ((HAL_GetTick() - tickstart) > RCC_DBP_TIMEOUT_VALUE)
 800129e:	f7ff fbe3 	bl	8000a68 <HAL_GetTick>
 80012a2:	4602      	mov	r2, r0
 80012a4:	693b      	ldr	r3, [r7, #16]
 80012a6:	1ad3      	subs	r3, r2, r3
 80012a8:	2b64      	cmp	r3, #100	; 0x64
 80012aa:	d901      	bls.n	80012b0 <HAL_RCC_OscConfig+0x2f0>
        {
          return HAL_TIMEOUT;
 80012ac:	2303      	movs	r3, #3
 80012ae:	e103      	b.n	80014b8 <HAL_RCC_OscConfig+0x4f8>
      while (HAL_IS_BIT_CLR(PWR->CR, PWR_CR_DBP))
 80012b0:	4b75      	ldr	r3, [pc, #468]	; (8001488 <HAL_RCC_OscConfig+0x4c8>)
 80012b2:	681b      	ldr	r3, [r3, #0]
 80012b4:	f403 7380 	and.w	r3, r3, #256	; 0x100
 80012b8:	2b00      	cmp	r3, #0
 80012ba:	d0f0      	beq.n	800129e <HAL_RCC_OscConfig+0x2de>
        }
      }
    }

    /* Set the new LSE configuration -----------------------------------------*/
    __HAL_RCC_LSE_CONFIG(RCC_OscInitStruct->LSEState);
 80012bc:	687b      	ldr	r3, [r7, #4]
 80012be:	68db      	ldr	r3, [r3, #12]
 80012c0:	2b01      	cmp	r3, #1
 80012c2:	d106      	bne.n	80012d2 <HAL_RCC_OscConfig+0x312>
 80012c4:	4b6f      	ldr	r3, [pc, #444]	; (8001484 <HAL_RCC_OscConfig+0x4c4>)
 80012c6:	6a1b      	ldr	r3, [r3, #32]
 80012c8:	4a6e      	ldr	r2, [pc, #440]	; (8001484 <HAL_RCC_OscConfig+0x4c4>)
 80012ca:	f043 0301 	orr.w	r3, r3, #1
 80012ce:	6213      	str	r3, [r2, #32]
 80012d0:	e02d      	b.n	800132e <HAL_RCC_OscConfig+0x36e>
 80012d2:	687b      	ldr	r3, [r7, #4]
 80012d4:	68db      	ldr	r3, [r3, #12]
 80012d6:	2b00      	cmp	r3, #0
 80012d8:	d10c      	bne.n	80012f4 <HAL_RCC_OscConfig+0x334>
 80012da:	4b6a      	ldr	r3, [pc, #424]	; (8001484 <HAL_RCC_OscConfig+0x4c4>)
 80012dc:	6a1b      	ldr	r3, [r3, #32]
 80012de:	4a69      	ldr	r2, [pc, #420]	; (8001484 <HAL_RCC_OscConfig+0x4c4>)
 80012e0:	f023 0301 	bic.w	r3, r3, #1
 80012e4:	6213      	str	r3, [r2, #32]
 80012e6:	4b67      	ldr	r3, [pc, #412]	; (8001484 <HAL_RCC_OscConfig+0x4c4>)
 80012e8:	6a1b      	ldr	r3, [r3, #32]
 80012ea:	4a66      	ldr	r2, [pc, #408]	; (8001484 <HAL_RCC_OscConfig+0x4c4>)
 80012ec:	f023 0304 	bic.w	r3, r3, #4
 80012f0:	6213      	str	r3, [r2, #32]
 80012f2:	e01c      	b.n	800132e <HAL_RCC_OscConfig+0x36e>
 80012f4:	687b      	ldr	r3, [r7, #4]
 80012f6:	68db      	ldr	r3, [r3, #12]
 80012f8:	2b05      	cmp	r3, #5
 80012fa:	d10c      	bne.n	8001316 <HAL_RCC_OscConfig+0x356>
 80012fc:	4b61      	ldr	r3, [pc, #388]	; (8001484 <HAL_RCC_OscConfig+0x4c4>)
 80012fe:	6a1b      	ldr	r3, [r3, #32]
 8001300:	4a60      	ldr	r2, [pc, #384]	; (8001484 <HAL_RCC_OscConfig+0x4c4>)
 8001302:	f043 0304 	orr.w	r3, r3, #4
 8001306:	6213      	str	r3, [r2, #32]
 8001308:	4b5e      	ldr	r3, [pc, #376]	; (8001484 <HAL_RCC_OscConfig+0x4c4>)
 800130a:	6a1b      	ldr	r3, [r3, #32]
 800130c:	4a5d      	ldr	r2, [pc, #372]	; (8001484 <HAL_RCC_OscConfig+0x4c4>)
 800130e:	f043 0301 	orr.w	r3, r3, #1
 8001312:	6213      	str	r3, [r2, #32]
 8001314:	e00b      	b.n	800132e <HAL_RCC_OscConfig+0x36e>
 8001316:	4b5b      	ldr	r3, [pc, #364]	; (8001484 <HAL_RCC_OscConfig+0x4c4>)
 8001318:	6a1b      	ldr	r3, [r3, #32]
 800131a:	4a5a      	ldr	r2, [pc, #360]	; (8001484 <HAL_RCC_OscConfig+0x4c4>)
 800131c:	f023 0301 	bic.w	r3, r3, #1
 8001320:	6213      	str	r3, [r2, #32]
 8001322:	4b58      	ldr	r3, [pc, #352]	; (8001484 <HAL_RCC_OscConfig+0x4c4>)
 8001324:	6a1b      	ldr	r3, [r3, #32]
 8001326:	4a57      	ldr	r2, [pc, #348]	; (8001484 <HAL_RCC_OscConfig+0x4c4>)
 8001328:	f023 0304 	bic.w	r3, r3, #4
 800132c:	6213      	str	r3, [r2, #32]
    /* Check the LSE State */
    if (RCC_OscInitStruct->LSEState != RCC_LSE_OFF)
 800132e:	687b      	ldr	r3, [r7, #4]
 8001330:	68db      	ldr	r3, [r3, #12]
 8001332:	2b00      	cmp	r3, #0
 8001334:	d015      	beq.n	8001362 <HAL_RCC_OscConfig+0x3a2>
    {
      /* Get Start Tick */
      tickstart = HAL_GetTick();
 8001336:	f7ff fb97 	bl	8000a68 <HAL_GetTick>
 800133a:	6138      	str	r0, [r7, #16]

      /* Wait till LSE is ready */
      while (__HAL_RCC_GET_FLAG(RCC_FLAG_LSERDY) == RESET)
 800133c:	e00a      	b.n	8001354 <HAL_RCC_OscConfig+0x394>
      {
        if ((HAL_GetTick() - tickstart) > RCC_LSE_TIMEOUT_VALUE)
 800133e:	f7ff fb93 	bl	8000a68 <HAL_GetTick>
 8001342:	4602      	mov	r2, r0
 8001344:	693b      	ldr	r3, [r7, #16]
 8001346:	1ad3      	subs	r3, r2, r3
 8001348:	f241 3288 	movw	r2, #5000	; 0x1388
 800134c:	4293      	cmp	r3, r2
 800134e:	d901      	bls.n	8001354 <HAL_RCC_OscConfig+0x394>
        {
          return HAL_TIMEOUT;
 8001350:	2303      	movs	r3, #3
 8001352:	e0b1      	b.n	80014b8 <HAL_RCC_OscConfig+0x4f8>
      while (__HAL_RCC_GET_FLAG(RCC_FLAG_LSERDY) == RESET)
 8001354:	4b4b      	ldr	r3, [pc, #300]	; (8001484 <HAL_RCC_OscConfig+0x4c4>)
 8001356:	6a1b      	ldr	r3, [r3, #32]
 8001358:	f003 0302 	and.w	r3, r3, #2
 800135c:	2b00      	cmp	r3, #0
 800135e:	d0ee      	beq.n	800133e <HAL_RCC_OscConfig+0x37e>
 8001360:	e014      	b.n	800138c <HAL_RCC_OscConfig+0x3cc>
      }
    }
    else
    {
      /* Get Start Tick */
      tickstart = HAL_GetTick();
 8001362:	f7ff fb81 	bl	8000a68 <HAL_GetTick>
 8001366:	6138      	str	r0, [r7, #16]

      /* Wait till LSE is disabled */
      while (__HAL_RCC_GET_FLAG(RCC_FLAG_LSERDY) != RESET)
 8001368:	e00a      	b.n	8001380 <HAL_RCC_OscConfig+0x3c0>
      {
        if ((HAL_GetTick() - tickstart) > RCC_LSE_TIMEOUT_VALUE)
 800136a:	f7ff fb7d 	bl	8000a68 <HAL_GetTick>
 800136e:	4602      	mov	r2, r0
 8001370:	693b      	ldr	r3, [r7, #16]
 8001372:	1ad3      	subs	r3, r2, r3
 8001374:	f241 3288 	movw	r2, #5000	; 0x1388
 8001378:	4293      	cmp	r3, r2
 800137a:	d901      	bls.n	8001380 <HAL_RCC_OscConfig+0x3c0>
        {
          return HAL_TIMEOUT;
 800137c:	2303      	movs	r3, #3
 800137e:	e09b      	b.n	80014b8 <HAL_RCC_OscConfig+0x4f8>
      while (__HAL_RCC_GET_FLAG(RCC_FLAG_LSERDY) != RESET)
 8001380:	4b40      	ldr	r3, [pc, #256]	; (8001484 <HAL_RCC_OscConfig+0x4c4>)
 8001382:	6a1b      	ldr	r3, [r3, #32]
 8001384:	f003 0302 	and.w	r3, r3, #2
 8001388:	2b00      	cmp	r3, #0
 800138a:	d1ee      	bne.n	800136a <HAL_RCC_OscConfig+0x3aa>
        }
      }
    }

    /* Require to disable power clock if necessary */
    if (pwrclkchanged == SET)
 800138c:	7dfb      	ldrb	r3, [r7, #23]
 800138e:	2b01      	cmp	r3, #1
 8001390:	d105      	bne.n	800139e <HAL_RCC_OscConfig+0x3de>
    {
      __HAL_RCC_PWR_CLK_DISABLE();
 8001392:	4b3c      	ldr	r3, [pc, #240]	; (8001484 <HAL_RCC_OscConfig+0x4c4>)
 8001394:	69db      	ldr	r3, [r3, #28]
 8001396:	4a3b      	ldr	r2, [pc, #236]	; (8001484 <HAL_RCC_OscConfig+0x4c4>)
 8001398:	f023 5380 	bic.w	r3, r3, #268435456	; 0x10000000
 800139c:	61d3      	str	r3, [r2, #28]

#endif /* RCC_CR_PLL2ON */
  /*-------------------------------- PLL Configuration -----------------------*/
  /* Check the parameters */
  assert_param(IS_RCC_PLL(RCC_OscInitStruct->PLL.PLLState));
  if ((RCC_OscInitStruct->PLL.PLLState) != RCC_PLL_NONE)
 800139e:	687b      	ldr	r3, [r7, #4]
 80013a0:	69db      	ldr	r3, [r3, #28]
 80013a2:	2b00      	cmp	r3, #0
 80013a4:	f000 8087 	beq.w	80014b6 <HAL_RCC_OscConfig+0x4f6>
  {
    /* Check if the PLL is used as system clock or not */
    if (__HAL_RCC_GET_SYSCLK_SOURCE() != RCC_SYSCLKSOURCE_STATUS_PLLCLK)
 80013a8:	4b36      	ldr	r3, [pc, #216]	; (8001484 <HAL_RCC_OscConfig+0x4c4>)
 80013aa:	685b      	ldr	r3, [r3, #4]
 80013ac:	f003 030c 	and.w	r3, r3, #12
 80013b0:	2b08      	cmp	r3, #8
 80013b2:	d061      	beq.n	8001478 <HAL_RCC_OscConfig+0x4b8>
    {
      if ((RCC_OscInitStruct->PLL.PLLState) == RCC_PLL_ON)
 80013b4:	687b      	ldr	r3, [r7, #4]
 80013b6:	69db      	ldr	r3, [r3, #28]
 80013b8:	2b02      	cmp	r3, #2
 80013ba:	d146      	bne.n	800144a <HAL_RCC_OscConfig+0x48a>
        /* Check the parameters */
        assert_param(IS_RCC_PLLSOURCE(RCC_OscInitStruct->PLL.PLLSource));
        assert_param(IS_RCC_PLL_MUL(RCC_OscInitStruct->PLL.PLLMUL));

        /* Disable the main PLL. */
        __HAL_RCC_PLL_DISABLE();
 80013bc:	4b33      	ldr	r3, [pc, #204]	; (800148c <HAL_RCC_OscConfig+0x4cc>)
 80013be:	2200      	movs	r2, #0
 80013c0:	601a      	str	r2, [r3, #0]

        /* Get Start Tick */
        tickstart = HAL_GetTick();
 80013c2:	f7ff fb51 	bl	8000a68 <HAL_GetTick>
 80013c6:	6138      	str	r0, [r7, #16]

        /* Wait till PLL is disabled */
        while (__HAL_RCC_GET_FLAG(RCC_FLAG_PLLRDY)  != RESET)
 80013c8:	e008      	b.n	80013dc <HAL_RCC_OscConfig+0x41c>
        {
          if ((HAL_GetTick() - tickstart) > PLL_TIMEOUT_VALUE)
 80013ca:	f7ff fb4d 	bl	8000a68 <HAL_GetTick>
 80013ce:	4602      	mov	r2, r0
 80013d0:	693b      	ldr	r3, [r7, #16]
 80013d2:	1ad3      	subs	r3, r2, r3
 80013d4:	2b02      	cmp	r3, #2
 80013d6:	d901      	bls.n	80013dc <HAL_RCC_OscConfig+0x41c>
          {
            return HAL_TIMEOUT;
 80013d8:	2303      	movs	r3, #3
 80013da:	e06d      	b.n	80014b8 <HAL_RCC_OscConfig+0x4f8>
        while (__HAL_RCC_GET_FLAG(RCC_FLAG_PLLRDY)  != RESET)
 80013dc:	4b29      	ldr	r3, [pc, #164]	; (8001484 <HAL_RCC_OscConfig+0x4c4>)
 80013de:	681b      	ldr	r3, [r3, #0]
 80013e0:	f003 7300 	and.w	r3, r3, #33554432	; 0x2000000
 80013e4:	2b00      	cmp	r3, #0
 80013e6:	d1f0      	bne.n	80013ca <HAL_RCC_OscConfig+0x40a>
          }
        }

        /* Configure the HSE prediv factor --------------------------------*/
        /* It can be written only when the PLL is disabled. Not used in PLL source is different than HSE */
        if (RCC_OscInitStruct->PLL.PLLSource == RCC_PLLSOURCE_HSE)
 80013e8:	687b      	ldr	r3, [r7, #4]
 80013ea:	6a1b      	ldr	r3, [r3, #32]
 80013ec:	f5b3 3f80 	cmp.w	r3, #65536	; 0x10000
 80013f0:	d108      	bne.n	8001404 <HAL_RCC_OscConfig+0x444>
          /* Set PREDIV1 source */
          SET_BIT(RCC->CFGR2, RCC_OscInitStruct->Prediv1Source);
#endif /* RCC_CFGR2_PREDIV1SRC */

          /* Set PREDIV1 Value */
          __HAL_RCC_HSE_PREDIV_CONFIG(RCC_OscInitStruct->HSEPredivValue);
 80013f2:	4b24      	ldr	r3, [pc, #144]	; (8001484 <HAL_RCC_OscConfig+0x4c4>)
 80013f4:	685b      	ldr	r3, [r3, #4]
 80013f6:	f423 3200 	bic.w	r2, r3, #131072	; 0x20000
 80013fa:	687b      	ldr	r3, [r7, #4]
 80013fc:	689b      	ldr	r3, [r3, #8]
 80013fe:	4921      	ldr	r1, [pc, #132]	; (8001484 <HAL_RCC_OscConfig+0x4c4>)
 8001400:	4313      	orrs	r3, r2
 8001402:	604b      	str	r3, [r1, #4]
        }

        /* Configure the main PLL clock source and multiplication factors. */
        __HAL_RCC_PLL_CONFIG(RCC_OscInitStruct->PLL.PLLSource,
 8001404:	4b1f      	ldr	r3, [pc, #124]	; (8001484 <HAL_RCC_OscConfig+0x4c4>)
 8001406:	685b      	ldr	r3, [r3, #4]
 8001408:	f423 1274 	bic.w	r2, r3, #3997696	; 0x3d0000
 800140c:	687b      	ldr	r3, [r7, #4]
 800140e:	6a19      	ldr	r1, [r3, #32]
 8001410:	687b      	ldr	r3, [r7, #4]
 8001412:	6a5b      	ldr	r3, [r3, #36]	; 0x24
 8001414:	430b      	orrs	r3, r1
 8001416:	491b      	ldr	r1, [pc, #108]	; (8001484 <HAL_RCC_OscConfig+0x4c4>)
 8001418:	4313      	orrs	r3, r2
 800141a:	604b      	str	r3, [r1, #4]
                             RCC_OscInitStruct->PLL.PLLMUL);
        /* Enable the main PLL. */
        __HAL_RCC_PLL_ENABLE();
 800141c:	4b1b      	ldr	r3, [pc, #108]	; (800148c <HAL_RCC_OscConfig+0x4cc>)
 800141e:	2201      	movs	r2, #1
 8001420:	601a      	str	r2, [r3, #0]

        /* Get Start Tick */
        tickstart = HAL_GetTick();
 8001422:	f7ff fb21 	bl	8000a68 <HAL_GetTick>
 8001426:	6138      	str	r0, [r7, #16]

        /* Wait till PLL is ready */
        while (__HAL_RCC_GET_FLAG(RCC_FLAG_PLLRDY)  == RESET)
 8001428:	e008      	b.n	800143c <HAL_RCC_OscConfig+0x47c>
        {
          if ((HAL_GetTick() - tickstart) > PLL_TIMEOUT_VALUE)
 800142a:	f7ff fb1d 	bl	8000a68 <HAL_GetTick>
 800142e:	4602      	mov	r2, r0
 8001430:	693b      	ldr	r3, [r7, #16]
 8001432:	1ad3      	subs	r3, r2, r3
 8001434:	2b02      	cmp	r3, #2
 8001436:	d901      	bls.n	800143c <HAL_RCC_OscConfig+0x47c>
          {
            return HAL_TIMEOUT;
 8001438:	2303      	movs	r3, #3
 800143a:	e03d      	b.n	80014b8 <HAL_RCC_OscConfig+0x4f8>
        while (__HAL_RCC_GET_FLAG(RCC_FLAG_PLLRDY)  == RESET)
 800143c:	4b11      	ldr	r3, [pc, #68]	; (8001484 <HAL_RCC_OscConfig+0x4c4>)
 800143e:	681b      	ldr	r3, [r3, #0]
 8001440:	f003 7300 	and.w	r3, r3, #33554432	; 0x2000000
 8001444:	2b00      	cmp	r3, #0
 8001446:	d0f0      	beq.n	800142a <HAL_RCC_OscConfig+0x46a>
 8001448:	e035      	b.n	80014b6 <HAL_RCC_OscConfig+0x4f6>
        }
      }
      else
      {
        /* Disable the main PLL. */
        __HAL_RCC_PLL_DISABLE();
 800144a:	4b10      	ldr	r3, [pc, #64]	; (800148c <HAL_RCC_OscConfig+0x4cc>)
 800144c:	2200      	movs	r2, #0
 800144e:	601a      	str	r2, [r3, #0]

        /* Get Start Tick */
        tickstart = HAL_GetTick();
 8001450:	f7ff fb0a 	bl	8000a68 <HAL_GetTick>
 8001454:	6138      	str	r0, [r7, #16]

        /* Wait till PLL is disabled */
        while (__HAL_RCC_GET_FLAG(RCC_FLAG_PLLRDY)  != RESET)
 8001456:	e008      	b.n	800146a <HAL_RCC_OscConfig+0x4aa>
        {
          if ((HAL_GetTick() - tickstart) > PLL_TIMEOUT_VALUE)
 8001458:	f7ff fb06 	bl	8000a68 <HAL_GetTick>
 800145c:	4602      	mov	r2, r0
 800145e:	693b      	ldr	r3, [r7, #16]
 8001460:	1ad3      	subs	r3, r2, r3
 8001462:	2b02      	cmp	r3, #2
 8001464:	d901      	bls.n	800146a <HAL_RCC_OscConfig+0x4aa>
          {
            return HAL_TIMEOUT;
 8001466:	2303      	movs	r3, #3
 8001468:	e026      	b.n	80014b8 <HAL_RCC_OscConfig+0x4f8>
        while (__HAL_RCC_GET_FLAG(RCC_FLAG_PLLRDY)  != RESET)
 800146a:	4b06      	ldr	r3, [pc, #24]	; (8001484 <HAL_RCC_OscConfig+0x4c4>)
 800146c:	681b      	ldr	r3, [r3, #0]
 800146e:	f003 7300 	and.w	r3, r3, #33554432	; 0x2000000
 8001472:	2b00      	cmp	r3, #0
 8001474:	d1f0      	bne.n	8001458 <HAL_RCC_OscConfig+0x498>
 8001476:	e01e      	b.n	80014b6 <HAL_RCC_OscConfig+0x4f6>
      }
    }
    else
    {
      /* Check if there is a request to disable the PLL used as System clock source */
      if ((RCC_OscInitStruct->PLL.PLLState) == RCC_PLL_OFF)
 8001478:	687b      	ldr	r3, [r7, #4]
 800147a:	69db      	ldr	r3, [r3, #28]
 800147c:	2b01      	cmp	r3, #1
 800147e:	d107      	bne.n	8001490 <HAL_RCC_OscConfig+0x4d0>
      {
        return HAL_ERROR;
 8001480:	2301      	movs	r3, #1
 8001482:	e019      	b.n	80014b8 <HAL_RCC_OscConfig+0x4f8>
 8001484:	40021000 	.word	0x40021000
 8001488:	40007000 	.word	0x40007000
 800148c:	42420060 	.word	0x42420060
      }
      else
      {
        /* Do not return HAL_ERROR if request repeats the current configuration */
        pll_config = RCC->CFGR;
 8001490:	4b0b      	ldr	r3, [pc, #44]	; (80014c0 <HAL_RCC_OscConfig+0x500>)
 8001492:	685b      	ldr	r3, [r3, #4]
 8001494:	60fb      	str	r3, [r7, #12]
        if ((READ_BIT(pll_config, RCC_CFGR_PLLSRC) != RCC_OscInitStruct->PLL.PLLSource) ||
 8001496:	68fb      	ldr	r3, [r7, #12]
 8001498:	f403 3280 	and.w	r2, r3, #65536	; 0x10000
 800149c:	687b      	ldr	r3, [r7, #4]
 800149e:	6a1b      	ldr	r3, [r3, #32]
 80014a0:	429a      	cmp	r2, r3
 80014a2:	d106      	bne.n	80014b2 <HAL_RCC_OscConfig+0x4f2>
            (READ_BIT(pll_config, RCC_CFGR_PLLMULL) != RCC_OscInitStruct->PLL.PLLMUL))
 80014a4:	68fb      	ldr	r3, [r7, #12]
 80014a6:	f403 1270 	and.w	r2, r3, #3932160	; 0x3c0000
 80014aa:	687b      	ldr	r3, [r7, #4]
 80014ac:	6a5b      	ldr	r3, [r3, #36]	; 0x24
        if ((READ_BIT(pll_config, RCC_CFGR_PLLSRC) != RCC_OscInitStruct->PLL.PLLSource) ||
 80014ae:	429a      	cmp	r2, r3
 80014b0:	d001      	beq.n	80014b6 <HAL_RCC_OscConfig+0x4f6>
        {
          return HAL_ERROR;
 80014b2:	2301      	movs	r3, #1
 80014b4:	e000      	b.n	80014b8 <HAL_RCC_OscConfig+0x4f8>
        }
      }
    }
  }

  return HAL_OK;
 80014b6:	2300      	movs	r3, #0
}
 80014b8:	4618      	mov	r0, r3
 80014ba:	3718      	adds	r7, #24
 80014bc:	46bd      	mov	sp, r7
 80014be:	bd80      	pop	{r7, pc}
 80014c0:	40021000 	.word	0x40021000

080014c4 <HAL_RCC_ClockConfig>:
  *         You can use @ref HAL_RCC_GetClockConfig() function to know which clock is
  *         currently used as system clock source.
  * @retval HAL status
  */
HAL_StatusTypeDef HAL_RCC_ClockConfig(RCC_ClkInitTypeDef  *RCC_ClkInitStruct, uint32_t FLatency)
{
 80014c4:	b580      	push	{r7, lr}
 80014c6:	b084      	sub	sp, #16
 80014c8:	af00      	add	r7, sp, #0
 80014ca:	6078      	str	r0, [r7, #4]
 80014cc:	6039      	str	r1, [r7, #0]
  uint32_t tickstart;

  /* Check Null pointer */
  if (RCC_ClkInitStruct == NULL)
 80014ce:	687b      	ldr	r3, [r7, #4]
 80014d0:	2b00      	cmp	r3, #0
 80014d2:	d101      	bne.n	80014d8 <HAL_RCC_ClockConfig+0x14>
  {
    return HAL_ERROR;
 80014d4:	2301      	movs	r3, #1
 80014d6:	e0d0      	b.n	800167a <HAL_RCC_ClockConfig+0x1b6>
  must be correctly programmed according to the frequency of the CPU clock
    (HCLK) of the device. */

#if defined(FLASH_ACR_LATENCY)
  /* Increasing the number of wait states because of higher CPU frequency */
  if (FLatency > __HAL_FLASH_GET_LATENCY())
 80014d8:	4b6a      	ldr	r3, [pc, #424]	; (8001684 <HAL_RCC_ClockConfig+0x1c0>)
 80014da:	681b      	ldr	r3, [r3, #0]
 80014dc:	f003 0307 	and.w	r3, r3, #7
 80014e0:	683a      	ldr	r2, [r7, #0]
 80014e2:	429a      	cmp	r2, r3
 80014e4:	d910      	bls.n	8001508 <HAL_RCC_ClockConfig+0x44>
  {
    /* Program the new number of wait states to the LATENCY bits in the FLASH_ACR register */
    __HAL_FLASH_SET_LATENCY(FLatency);
 80014e6:	4b67      	ldr	r3, [pc, #412]	; (8001684 <HAL_RCC_ClockConfig+0x1c0>)
 80014e8:	681b      	ldr	r3, [r3, #0]
 80014ea:	f023 0207 	bic.w	r2, r3, #7
 80014ee:	4965      	ldr	r1, [pc, #404]	; (8001684 <HAL_RCC_ClockConfig+0x1c0>)
 80014f0:	683b      	ldr	r3, [r7, #0]
 80014f2:	4313      	orrs	r3, r2
 80014f4:	600b      	str	r3, [r1, #0]

    /* Check that the new number of wait states is taken into account to access the Flash
    memory by reading the FLASH_ACR register */
    if (__HAL_FLASH_GET_LATENCY() != FLatency)
 80014f6:	4b63      	ldr	r3, [pc, #396]	; (8001684 <HAL_RCC_ClockConfig+0x1c0>)
 80014f8:	681b      	ldr	r3, [r3, #0]
 80014fa:	f003 0307 	and.w	r3, r3, #7
 80014fe:	683a      	ldr	r2, [r7, #0]
 8001500:	429a      	cmp	r2, r3
 8001502:	d001      	beq.n	8001508 <HAL_RCC_ClockConfig+0x44>
  {
    return HAL_ERROR;
 8001504:	2301      	movs	r3, #1
 8001506:	e0b8      	b.n	800167a <HAL_RCC_ClockConfig+0x1b6>
  }
}

#endif /* FLASH_ACR_LATENCY */
/*-------------------------- HCLK Configuration --------------------------*/
if (((RCC_ClkInitStruct->ClockType) & RCC_CLOCKTYPE_HCLK) == RCC_CLOCKTYPE_HCLK)
 8001508:	687b      	ldr	r3, [r7, #4]
 800150a:	681b      	ldr	r3, [r3, #0]
 800150c:	f003 0302 	and.w	r3, r3, #2
 8001510:	2b00      	cmp	r3, #0
 8001512:	d020      	beq.n	8001556 <HAL_RCC_ClockConfig+0x92>
  {
    /* Set the highest APBx dividers in order to ensure that we do not go through
    a non-spec phase whatever we decrease or increase HCLK. */
    if (((RCC_ClkInitStruct->ClockType) & RCC_CLOCKTYPE_PCLK1) == RCC_CLOCKTYPE_PCLK1)
 8001514:	687b      	ldr	r3, [r7, #4]
 8001516:	681b      	ldr	r3, [r3, #0]
 8001518:	f003 0304 	and.w	r3, r3, #4
 800151c:	2b00      	cmp	r3, #0
 800151e:	d005      	beq.n	800152c <HAL_RCC_ClockConfig+0x68>
    {
      MODIFY_REG(RCC->CFGR, RCC_CFGR_PPRE1, RCC_HCLK_DIV16);
 8001520:	4b59      	ldr	r3, [pc, #356]	; (8001688 <HAL_RCC_ClockConfig+0x1c4>)
 8001522:	685b      	ldr	r3, [r3, #4]
 8001524:	4a58      	ldr	r2, [pc, #352]	; (8001688 <HAL_RCC_ClockConfig+0x1c4>)
 8001526:	f443 63e0 	orr.w	r3, r3, #1792	; 0x700
 800152a:	6053      	str	r3, [r2, #4]
    }

    if (((RCC_ClkInitStruct->ClockType) & RCC_CLOCKTYPE_PCLK2) == RCC_CLOCKTYPE_PCLK2)
 800152c:	687b      	ldr	r3, [r7, #4]
 800152e:	681b      	ldr	r3, [r3, #0]
 8001530:	f003 0308 	and.w	r3, r3, #8
 8001534:	2b00      	cmp	r3, #0
 8001536:	d005      	beq.n	8001544 <HAL_RCC_ClockConfig+0x80>
    {
      MODIFY_REG(RCC->CFGR, RCC_CFGR_PPRE2, (RCC_HCLK_DIV16 << 3));
 8001538:	4b53      	ldr	r3, [pc, #332]	; (8001688 <HAL_RCC_ClockConfig+0x1c4>)
 800153a:	685b      	ldr	r3, [r3, #4]
 800153c:	4a52      	ldr	r2, [pc, #328]	; (8001688 <HAL_RCC_ClockConfig+0x1c4>)
 800153e:	f443 5360 	orr.w	r3, r3, #14336	; 0x3800
 8001542:	6053      	str	r3, [r2, #4]
    }

    /* Set the new HCLK clock divider */
    assert_param(IS_RCC_HCLK(RCC_ClkInitStruct->AHBCLKDivider));
    MODIFY_REG(RCC->CFGR, RCC_CFGR_HPRE, RCC_ClkInitStruct->AHBCLKDivider);
 8001544:	4b50      	ldr	r3, [pc, #320]	; (8001688 <HAL_RCC_ClockConfig+0x1c4>)
 8001546:	685b      	ldr	r3, [r3, #4]
 8001548:	f023 02f0 	bic.w	r2, r3, #240	; 0xf0
 800154c:	687b      	ldr	r3, [r7, #4]
 800154e:	689b      	ldr	r3, [r3, #8]
 8001550:	494d      	ldr	r1, [pc, #308]	; (8001688 <HAL_RCC_ClockConfig+0x1c4>)
 8001552:	4313      	orrs	r3, r2
 8001554:	604b      	str	r3, [r1, #4]
  }

  /*------------------------- SYSCLK Configuration ---------------------------*/
  if (((RCC_ClkInitStruct->ClockType) & RCC_CLOCKTYPE_SYSCLK) == RCC_CLOCKTYPE_SYSCLK)
 8001556:	687b      	ldr	r3, [r7, #4]
 8001558:	681b      	ldr	r3, [r3, #0]
 800155a:	f003 0301 	and.w	r3, r3, #1
 800155e:	2b00      	cmp	r3, #0
 8001560:	d040      	beq.n	80015e4 <HAL_RCC_ClockConfig+0x120>
  {
    assert_param(IS_RCC_SYSCLKSOURCE(RCC_ClkInitStruct->SYSCLKSource));

    /* HSE is selected as System Clock Source */
    if (RCC_ClkInitStruct->SYSCLKSource == RCC_SYSCLKSOURCE_HSE)
 8001562:	687b      	ldr	r3, [r7, #4]
 8001564:	685b      	ldr	r3, [r3, #4]
 8001566:	2b01      	cmp	r3, #1
 8001568:	d107      	bne.n	800157a <HAL_RCC_ClockConfig+0xb6>
    {
      /* Check the HSE ready flag */
      if (__HAL_RCC_GET_FLAG(RCC_FLAG_HSERDY) == RESET)
 800156a:	4b47      	ldr	r3, [pc, #284]	; (8001688 <HAL_RCC_ClockConfig+0x1c4>)
 800156c:	681b      	ldr	r3, [r3, #0]
 800156e:	f403 3300 	and.w	r3, r3, #131072	; 0x20000
 8001572:	2b00      	cmp	r3, #0
 8001574:	d115      	bne.n	80015a2 <HAL_RCC_ClockConfig+0xde>
      {
        return HAL_ERROR;
 8001576:	2301      	movs	r3, #1
 8001578:	e07f      	b.n	800167a <HAL_RCC_ClockConfig+0x1b6>
      }
    }
    /* PLL is selected as System Clock Source */
    else if (RCC_ClkInitStruct->SYSCLKSource == RCC_SYSCLKSOURCE_PLLCLK)
 800157a:	687b      	ldr	r3, [r7, #4]
 800157c:	685b      	ldr	r3, [r3, #4]
 800157e:	2b02      	cmp	r3, #2
 8001580:	d107      	bne.n	8001592 <HAL_RCC_ClockConfig+0xce>
    {
      /* Check the PLL ready flag */
      if (__HAL_RCC_GET_FLAG(RCC_FLAG_PLLRDY) == RESET)
 8001582:	4b41      	ldr	r3, [pc, #260]	; (8001688 <HAL_RCC_ClockConfig+0x1c4>)
 8001584:	681b      	ldr	r3, [r3, #0]
 8001586:	f003 7300 	and.w	r3, r3, #33554432	; 0x2000000
 800158a:	2b00      	cmp	r3, #0
 800158c:	d109      	bne.n	80015a2 <HAL_RCC_ClockConfig+0xde>
      {
        return HAL_ERROR;
 800158e:	2301      	movs	r3, #1
 8001590:	e073      	b.n	800167a <HAL_RCC_ClockConfig+0x1b6>
    }
    /* HSI is selected as System Clock Source */
    else
    {
      /* Check the HSI ready flag */
      if (__HAL_RCC_GET_FLAG(RCC_FLAG_HSIRDY) == RESET)
 8001592:	4b3d      	ldr	r3, [pc, #244]	; (8001688 <HAL_RCC_ClockConfig+0x1c4>)
 8001594:	681b      	ldr	r3, [r3, #0]
 8001596:	f003 0302 	and.w	r3, r3, #2
 800159a:	2b00      	cmp	r3, #0
 800159c:	d101      	bne.n	80015a2 <HAL_RCC_ClockConfig+0xde>
      {
        return HAL_ERROR;
 800159e:	2301      	movs	r3, #1
 80015a0:	e06b      	b.n	800167a <HAL_RCC_ClockConfig+0x1b6>
      }
    }
    __HAL_RCC_SYSCLK_CONFIG(RCC_ClkInitStruct->SYSCLKSource);
 80015a2:	4b39      	ldr	r3, [pc, #228]	; (8001688 <HAL_RCC_ClockConfig+0x1c4>)
 80015a4:	685b      	ldr	r3, [r3, #4]
 80015a6:	f023 0203 	bic.w	r2, r3, #3
 80015aa:	687b      	ldr	r3, [r7, #4]
 80015ac:	685b      	ldr	r3, [r3, #4]
 80015ae:	4936      	ldr	r1, [pc, #216]	; (8001688 <HAL_RCC_ClockConfig+0x1c4>)
 80015b0:	4313      	orrs	r3, r2
 80015b2:	604b      	str	r3, [r1, #4]

    /* Get Start Tick */
    tickstart = HAL_GetTick();
 80015b4:	f7ff fa58 	bl	8000a68 <HAL_GetTick>
 80015b8:	60f8      	str	r0, [r7, #12]

    while (__HAL_RCC_GET_SYSCLK_SOURCE() != (RCC_ClkInitStruct->SYSCLKSource << RCC_CFGR_SWS_Pos))
 80015ba:	e00a      	b.n	80015d2 <HAL_RCC_ClockConfig+0x10e>
    {
      if ((HAL_GetTick() - tickstart) > CLOCKSWITCH_TIMEOUT_VALUE)
 80015bc:	f7ff fa54 	bl	8000a68 <HAL_GetTick>
 80015c0:	4602      	mov	r2, r0
 80015c2:	68fb      	ldr	r3, [r7, #12]
 80015c4:	1ad3      	subs	r3, r2, r3
 80015c6:	f241 3288 	movw	r2, #5000	; 0x1388
 80015ca:	4293      	cmp	r3, r2
 80015cc:	d901      	bls.n	80015d2 <HAL_RCC_ClockConfig+0x10e>
      {
        return HAL_TIMEOUT;
 80015ce:	2303      	movs	r3, #3
 80015d0:	e053      	b.n	800167a <HAL_RCC_ClockConfig+0x1b6>
    while (__HAL_RCC_GET_SYSCLK_SOURCE() != (RCC_ClkInitStruct->SYSCLKSource << RCC_CFGR_SWS_Pos))
 80015d2:	4b2d      	ldr	r3, [pc, #180]	; (8001688 <HAL_RCC_ClockConfig+0x1c4>)
 80015d4:	685b      	ldr	r3, [r3, #4]
 80015d6:	f003 020c 	and.w	r2, r3, #12
 80015da:	687b      	ldr	r3, [r7, #4]
 80015dc:	685b      	ldr	r3, [r3, #4]
 80015de:	009b      	lsls	r3, r3, #2
 80015e0:	429a      	cmp	r2, r3
 80015e2:	d1eb      	bne.n	80015bc <HAL_RCC_ClockConfig+0xf8>
    }
  }

#if defined(FLASH_ACR_LATENCY)
  /* Decreasing the number of wait states because of lower CPU frequency */
  if (FLatency < __HAL_FLASH_GET_LATENCY())
 80015e4:	4b27      	ldr	r3, [pc, #156]	; (8001684 <HAL_RCC_ClockConfig+0x1c0>)
 80015e6:	681b      	ldr	r3, [r3, #0]
 80015e8:	f003 0307 	and.w	r3, r3, #7
 80015ec:	683a      	ldr	r2, [r7, #0]
 80015ee:	429a      	cmp	r2, r3
 80015f0:	d210      	bcs.n	8001614 <HAL_RCC_ClockConfig+0x150>
  {
    /* Program the new number of wait states to the LATENCY bits in the FLASH_ACR register */
    __HAL_FLASH_SET_LATENCY(FLatency);
 80015f2:	4b24      	ldr	r3, [pc, #144]	; (8001684 <HAL_RCC_ClockConfig+0x1c0>)
 80015f4:	681b      	ldr	r3, [r3, #0]
 80015f6:	f023 0207 	bic.w	r2, r3, #7
 80015fa:	4922      	ldr	r1, [pc, #136]	; (8001684 <HAL_RCC_ClockConfig+0x1c0>)
 80015fc:	683b      	ldr	r3, [r7, #0]
 80015fe:	4313      	orrs	r3, r2
 8001600:	600b      	str	r3, [r1, #0]

    /* Check that the new number of wait states is taken into account to access the Flash
    memory by reading the FLASH_ACR register */
    if (__HAL_FLASH_GET_LATENCY() != FLatency)
 8001602:	4b20      	ldr	r3, [pc, #128]	; (8001684 <HAL_RCC_ClockConfig+0x1c0>)
 8001604:	681b      	ldr	r3, [r3, #0]
 8001606:	f003 0307 	and.w	r3, r3, #7
 800160a:	683a      	ldr	r2, [r7, #0]
 800160c:	429a      	cmp	r2, r3
 800160e:	d001      	beq.n	8001614 <HAL_RCC_ClockConfig+0x150>
  {
    return HAL_ERROR;
 8001610:	2301      	movs	r3, #1
 8001612:	e032      	b.n	800167a <HAL_RCC_ClockConfig+0x1b6>
  }
}
#endif /* FLASH_ACR_LATENCY */

/*-------------------------- PCLK1 Configuration ---------------------------*/
if (((RCC_ClkInitStruct->ClockType) & RCC_CLOCKTYPE_PCLK1) == RCC_CLOCKTYPE_PCLK1)
 8001614:	687b      	ldr	r3, [r7, #4]
 8001616:	681b      	ldr	r3, [r3, #0]
 8001618:	f003 0304 	and.w	r3, r3, #4
 800161c:	2b00      	cmp	r3, #0
 800161e:	d008      	beq.n	8001632 <HAL_RCC_ClockConfig+0x16e>
  {
    assert_param(IS_RCC_PCLK(RCC_ClkInitStruct->APB1CLKDivider));
    MODIFY_REG(RCC->CFGR, RCC_CFGR_PPRE1, RCC_ClkInitStruct->APB1CLKDivider);
 8001620:	4b19      	ldr	r3, [pc, #100]	; (8001688 <HAL_RCC_ClockConfig+0x1c4>)
 8001622:	685b      	ldr	r3, [r3, #4]
 8001624:	f423 62e0 	bic.w	r2, r3, #1792	; 0x700
 8001628:	687b      	ldr	r3, [r7, #4]
 800162a:	68db      	ldr	r3, [r3, #12]
 800162c:	4916      	ldr	r1, [pc, #88]	; (8001688 <HAL_RCC_ClockConfig+0x1c4>)
 800162e:	4313      	orrs	r3, r2
 8001630:	604b      	str	r3, [r1, #4]
  }

  /*-------------------------- PCLK2 Configuration ---------------------------*/
  if (((RCC_ClkInitStruct->ClockType) & RCC_CLOCKTYPE_PCLK2) == RCC_CLOCKTYPE_PCLK2)
 8001632:	687b      	ldr	r3, [r7, #4]
 8001634:	681b      	ldr	r3, [r3, #0]
 8001636:	f003 0308 	and.w	r3, r3, #8
 800163a:	2b00      	cmp	r3, #0
 800163c:	d009      	beq.n	8001652 <HAL_RCC_ClockConfig+0x18e>
  {
    assert_param(IS_RCC_PCLK(RCC_ClkInitStruct->APB2CLKDivider));
    MODIFY_REG(RCC->CFGR, RCC_CFGR_PPRE2, ((RCC_ClkInitStruct->APB2CLKDivider) << 3));
 800163e:	4b12      	ldr	r3, [pc, #72]	; (8001688 <HAL_RCC_ClockConfig+0x1c4>)
 8001640:	685b      	ldr	r3, [r3, #4]
 8001642:	f423 5260 	bic.w	r2, r3, #14336	; 0x3800
 8001646:	687b      	ldr	r3, [r7, #4]
 8001648:	691b      	ldr	r3, [r3, #16]
 800164a:	00db      	lsls	r3, r3, #3
 800164c:	490e      	ldr	r1, [pc, #56]	; (8001688 <HAL_RCC_ClockConfig+0x1c4>)
 800164e:	4313      	orrs	r3, r2
 8001650:	604b      	str	r3, [r1, #4]
  }

  /* Update the SystemCoreClock global variable */
  SystemCoreClock = HAL_RCC_GetSysClockFreq() >> AHBPrescTable[(RCC->CFGR & RCC_CFGR_HPRE) >> RCC_CFGR_HPRE_Pos];
 8001652:	f000 f821 	bl	8001698 <HAL_RCC_GetSysClockFreq>
 8001656:	4602      	mov	r2, r0
 8001658:	4b0b      	ldr	r3, [pc, #44]	; (8001688 <HAL_RCC_ClockConfig+0x1c4>)
 800165a:	685b      	ldr	r3, [r3, #4]
 800165c:	091b      	lsrs	r3, r3, #4
 800165e:	f003 030f 	and.w	r3, r3, #15
 8001662:	490a      	ldr	r1, [pc, #40]	; (800168c <HAL_RCC_ClockConfig+0x1c8>)
 8001664:	5ccb      	ldrb	r3, [r1, r3]
 8001666:	fa22 f303 	lsr.w	r3, r2, r3
 800166a:	4a09      	ldr	r2, [pc, #36]	; (8001690 <HAL_RCC_ClockConfig+0x1cc>)
 800166c:	6013      	str	r3, [r2, #0]

  /* Configure the source of time base considering new system clocks settings*/
  HAL_InitTick(uwTickPrio);
 800166e:	4b09      	ldr	r3, [pc, #36]	; (8001694 <HAL_RCC_ClockConfig+0x1d0>)
 8001670:	681b      	ldr	r3, [r3, #0]
 8001672:	4618      	mov	r0, r3
 8001674:	f7ff f9b6 	bl	80009e4 <HAL_InitTick>

  return HAL_OK;
 8001678:	2300      	movs	r3, #0
}
 800167a:	4618      	mov	r0, r3
 800167c:	3710      	adds	r7, #16
 800167e:	46bd      	mov	sp, r7
 8001680:	bd80      	pop	{r7, pc}
 8001682:	bf00      	nop
 8001684:	40022000 	.word	0x40022000
 8001688:	40021000 	.word	0x40021000
 800168c:	08001fbc 	.word	0x08001fbc
 8001690:	20000000 	.word	0x20000000
 8001694:	20000004 	.word	0x20000004

08001698 <HAL_RCC_GetSysClockFreq>:
  *         right SYSCLK value. Otherwise, any configuration based on this function will be incorrect.
  *
  * @retval SYSCLK frequency
  */
uint32_t HAL_RCC_GetSysClockFreq(void)
{
 8001698:	b480      	push	{r7}
 800169a:	b087      	sub	sp, #28
 800169c:	af00      	add	r7, sp, #0
#else
  static const uint8_t aPredivFactorTable[2U] = {1, 2};
#endif /*RCC_CFGR2_PREDIV1*/

#endif
  uint32_t tmpreg = 0U, prediv = 0U, pllclk = 0U, pllmul = 0U;
 800169e:	2300      	movs	r3, #0
 80016a0:	60fb      	str	r3, [r7, #12]
 80016a2:	2300      	movs	r3, #0
 80016a4:	60bb      	str	r3, [r7, #8]
 80016a6:	2300      	movs	r3, #0
 80016a8:	617b      	str	r3, [r7, #20]
 80016aa:	2300      	movs	r3, #0
 80016ac:	607b      	str	r3, [r7, #4]
  uint32_t sysclockfreq = 0U;
 80016ae:	2300      	movs	r3, #0
 80016b0:	613b      	str	r3, [r7, #16]
#if defined(RCC_CFGR2_PREDIV1SRC)
  uint32_t prediv2 = 0U, pll2mul = 0U;
#endif /*RCC_CFGR2_PREDIV1SRC*/

  tmpreg = RCC->CFGR;
 80016b2:	4b1e      	ldr	r3, [pc, #120]	; (800172c <HAL_RCC_GetSysClockFreq+0x94>)
 80016b4:	685b      	ldr	r3, [r3, #4]
 80016b6:	60fb      	str	r3, [r7, #12]

  /* Get SYSCLK source -------------------------------------------------------*/
  switch (tmpreg & RCC_CFGR_SWS)
 80016b8:	68fb      	ldr	r3, [r7, #12]
 80016ba:	f003 030c 	and.w	r3, r3, #12
 80016be:	2b04      	cmp	r3, #4
 80016c0:	d002      	beq.n	80016c8 <HAL_RCC_GetSysClockFreq+0x30>
 80016c2:	2b08      	cmp	r3, #8
 80016c4:	d003      	beq.n	80016ce <HAL_RCC_GetSysClockFreq+0x36>
 80016c6:	e027      	b.n	8001718 <HAL_RCC_GetSysClockFreq+0x80>
  {
    case RCC_SYSCLKSOURCE_STATUS_HSE:  /* HSE used as system clock */
    {
      sysclockfreq = HSE_VALUE;
 80016c8:	4b19      	ldr	r3, [pc, #100]	; (8001730 <HAL_RCC_GetSysClockFreq+0x98>)
 80016ca:	613b      	str	r3, [r7, #16]
      break;
 80016cc:	e027      	b.n	800171e <HAL_RCC_GetSysClockFreq+0x86>
    }
    case RCC_SYSCLKSOURCE_STATUS_PLLCLK:  /* PLL used as system clock */
    {
      pllmul = aPLLMULFactorTable[(uint32_t)(tmpreg & RCC_CFGR_PLLMULL) >> RCC_CFGR_PLLMULL_Pos];
 80016ce:	68fb      	ldr	r3, [r7, #12]
 80016d0:	0c9b      	lsrs	r3, r3, #18
 80016d2:	f003 030f 	and.w	r3, r3, #15
 80016d6:	4a17      	ldr	r2, [pc, #92]	; (8001734 <HAL_RCC_GetSysClockFreq+0x9c>)
 80016d8:	5cd3      	ldrb	r3, [r2, r3]
 80016da:	607b      	str	r3, [r7, #4]
      if ((tmpreg & RCC_CFGR_PLLSRC) != RCC_PLLSOURCE_HSI_DIV2)
 80016dc:	68fb      	ldr	r3, [r7, #12]
 80016de:	f403 3380 	and.w	r3, r3, #65536	; 0x10000
 80016e2:	2b00      	cmp	r3, #0
 80016e4:	d010      	beq.n	8001708 <HAL_RCC_GetSysClockFreq+0x70>
      {
#if defined(RCC_CFGR2_PREDIV1)
        prediv = aPredivFactorTable[(uint32_t)(RCC->CFGR2 & RCC_CFGR2_PREDIV1) >> RCC_CFGR2_PREDIV1_Pos];
#else
        prediv = aPredivFactorTable[(uint32_t)(RCC->CFGR & RCC_CFGR_PLLXTPRE) >> RCC_CFGR_PLLXTPRE_Pos];
 80016e6:	4b11      	ldr	r3, [pc, #68]	; (800172c <HAL_RCC_GetSysClockFreq+0x94>)
 80016e8:	685b      	ldr	r3, [r3, #4]
 80016ea:	0c5b      	lsrs	r3, r3, #17
 80016ec:	f003 0301 	and.w	r3, r3, #1
 80016f0:	4a11      	ldr	r2, [pc, #68]	; (8001738 <HAL_RCC_GetSysClockFreq+0xa0>)
 80016f2:	5cd3      	ldrb	r3, [r2, r3]
 80016f4:	60bb      	str	r3, [r7, #8]
        {
          pllclk = pllclk / 2;
        }
#else
        /* HSE used as PLL clock source : PLLCLK = HSE/PREDIV1 * PLLMUL */
        pllclk = (uint32_t)((HSE_VALUE  * pllmul) / prediv);
 80016f6:	687b      	ldr	r3, [r7, #4]
 80016f8:	4a0d      	ldr	r2, [pc, #52]	; (8001730 <HAL_RCC_GetSysClockFreq+0x98>)
 80016fa:	fb03 f202 	mul.w	r2, r3, r2
 80016fe:	68bb      	ldr	r3, [r7, #8]
 8001700:	fbb2 f3f3 	udiv	r3, r2, r3
 8001704:	617b      	str	r3, [r7, #20]
 8001706:	e004      	b.n	8001712 <HAL_RCC_GetSysClockFreq+0x7a>
#endif /*RCC_CFGR2_PREDIV1SRC*/
      }
      else
      {
        /* HSI used as PLL clock source : PLLCLK = HSI/2 * PLLMUL */
        pllclk = (uint32_t)((HSI_VALUE >> 1) * pllmul);
 8001708:	687b      	ldr	r3, [r7, #4]
 800170a:	4a0c      	ldr	r2, [pc, #48]	; (800173c <HAL_RCC_GetSysClockFreq+0xa4>)
 800170c:	fb02 f303 	mul.w	r3, r2, r3
 8001710:	617b      	str	r3, [r7, #20]
      }
      sysclockfreq = pllclk;
 8001712:	697b      	ldr	r3, [r7, #20]
 8001714:	613b      	str	r3, [r7, #16]
      break;
 8001716:	e002      	b.n	800171e <HAL_RCC_GetSysClockFreq+0x86>
    }
    case RCC_SYSCLKSOURCE_STATUS_HSI:  /* HSI used as system clock source */
    default: /* HSI used as system clock */
    {
      sysclockfreq = HSI_VALUE;
 8001718:	4b05      	ldr	r3, [pc, #20]	; (8001730 <HAL_RCC_GetSysClockFreq+0x98>)
 800171a:	613b      	str	r3, [r7, #16]
      break;
 800171c:	bf00      	nop
    }
  }
  return sysclockfreq;
 800171e:	693b      	ldr	r3, [r7, #16]
}
 8001720:	4618      	mov	r0, r3
 8001722:	371c      	adds	r7, #28
 8001724:	46bd      	mov	sp, r7
 8001726:	bc80      	pop	{r7}
 8001728:	4770      	bx	lr
 800172a:	bf00      	nop
 800172c:	40021000 	.word	0x40021000
 8001730:	007a1200 	.word	0x007a1200
 8001734:	08001fcc 	.word	0x08001fcc
 8001738:	08001fdc 	.word	0x08001fdc
 800173c:	003d0900 	.word	0x003d0900

08001740 <RCC_Delay>:
  * @brief  This function provides delay (in milliseconds) based on CPU cycles method.
  * @param  mdelay: specifies the delay time length, in milliseconds.
  * @retval None
  */
static void RCC_Delay(uint32_t mdelay)
{
 8001740:	b480      	push	{r7}
 8001742:	b085      	sub	sp, #20
 8001744:	af00      	add	r7, sp, #0
 8001746:	6078      	str	r0, [r7, #4]
  __IO uint32_t Delay = mdelay * (SystemCoreClock / 8U / 1000U);
 8001748:	4b0a      	ldr	r3, [pc, #40]	; (8001774 <RCC_Delay+0x34>)
 800174a:	681b      	ldr	r3, [r3, #0]
 800174c:	4a0a      	ldr	r2, [pc, #40]	; (8001778 <RCC_Delay+0x38>)
 800174e:	fba2 2303 	umull	r2, r3, r2, r3
 8001752:	0a5b      	lsrs	r3, r3, #9
 8001754:	687a      	ldr	r2, [r7, #4]
 8001756:	fb02 f303 	mul.w	r3, r2, r3
 800175a:	60fb      	str	r3, [r7, #12]
  do
  {
    __NOP();
 800175c:	bf00      	nop
  }
  while (Delay --);
 800175e:	68fb      	ldr	r3, [r7, #12]
 8001760:	1e5a      	subs	r2, r3, #1
 8001762:	60fa      	str	r2, [r7, #12]
 8001764:	2b00      	cmp	r3, #0
 8001766:	d1f9      	bne.n	800175c <RCC_Delay+0x1c>
}
 8001768:	bf00      	nop
 800176a:	bf00      	nop
 800176c:	3714      	adds	r7, #20
 800176e:	46bd      	mov	sp, r7
 8001770:	bc80      	pop	{r7}
 8001772:	4770      	bx	lr
 8001774:	20000000 	.word	0x20000000
 8001778:	10624dd3 	.word	0x10624dd3

0800177c <HAL_TIM_Base_Init>:
  *         Ex: call @ref HAL_TIM_Base_DeInit() before HAL_TIM_Base_Init()
  * @param  htim TIM Base handle
  * @retval HAL status
  */
HAL_StatusTypeDef HAL_TIM_Base_Init(TIM_HandleTypeDef *htim)
{
 800177c:	b580      	push	{r7, lr}
 800177e:	b082      	sub	sp, #8
 8001780:	af00      	add	r7, sp, #0
 8001782:	6078      	str	r0, [r7, #4]
  /* Check the TIM handle allocation */
  if (htim == NULL)
 8001784:	687b      	ldr	r3, [r7, #4]
 8001786:	2b00      	cmp	r3, #0
 8001788:	d101      	bne.n	800178e <HAL_TIM_Base_Init+0x12>
  {
    return HAL_ERROR;
 800178a:	2301      	movs	r3, #1
 800178c:	e041      	b.n	8001812 <HAL_TIM_Base_Init+0x96>
  assert_param(IS_TIM_COUNTER_MODE(htim->Init.CounterMode));
  assert_param(IS_TIM_CLOCKDIVISION_DIV(htim->Init.ClockDivision));
  assert_param(IS_TIM_PERIOD(htim->Init.Period));
  assert_param(IS_TIM_AUTORELOAD_PRELOAD(htim->Init.AutoReloadPreload));

  if (htim->State == HAL_TIM_STATE_RESET)
 800178e:	687b      	ldr	r3, [r7, #4]
 8001790:	f893 303d 	ldrb.w	r3, [r3, #61]	; 0x3d
 8001794:	b2db      	uxtb	r3, r3
 8001796:	2b00      	cmp	r3, #0
 8001798:	d106      	bne.n	80017a8 <HAL_TIM_Base_Init+0x2c>
  {
    /* Allocate lock resource and initialize it */
    htim->Lock = HAL_UNLOCKED;
 800179a:	687b      	ldr	r3, [r7, #4]
 800179c:	2200      	movs	r2, #0
 800179e:	f883 203c 	strb.w	r2, [r3, #60]	; 0x3c
    }
    /* Init the low level hardware : GPIO, CLOCK, NVIC */
    htim->Base_MspInitCallback(htim);
#else
    /* Init the low level hardware : GPIO, CLOCK, NVIC */
    HAL_TIM_Base_MspInit(htim);
 80017a2:	6878      	ldr	r0, [r7, #4]
 80017a4:	f7ff f886 	bl	80008b4 <HAL_TIM_Base_MspInit>
#endif /* USE_HAL_TIM_REGISTER_CALLBACKS */
  }

  /* Set the TIM state */
  htim->State = HAL_TIM_STATE_BUSY;
 80017a8:	687b      	ldr	r3, [r7, #4]
 80017aa:	2202      	movs	r2, #2
 80017ac:	f883 203d 	strb.w	r2, [r3, #61]	; 0x3d

  /* Set the Time Base configuration */
  TIM_Base_SetConfig(htim->Instance, &htim->Init);
 80017b0:	687b      	ldr	r3, [r7, #4]
 80017b2:	681a      	ldr	r2, [r3, #0]
 80017b4:	687b      	ldr	r3, [r7, #4]
 80017b6:	3304      	adds	r3, #4
 80017b8:	4619      	mov	r1, r3
 80017ba:	4610      	mov	r0, r2
 80017bc:	f000 fa6e 	bl	8001c9c <TIM_Base_SetConfig>

  /* Initialize the DMA burst operation state */
  htim->DMABurstState = HAL_DMA_BURST_STATE_READY;
 80017c0:	687b      	ldr	r3, [r7, #4]
 80017c2:	2201      	movs	r2, #1
 80017c4:	f883 2046 	strb.w	r2, [r3, #70]	; 0x46

  /* Initialize the TIM channels state */
  TIM_CHANNEL_STATE_SET_ALL(htim, HAL_TIM_CHANNEL_STATE_READY);
 80017c8:	687b      	ldr	r3, [r7, #4]
 80017ca:	2201      	movs	r2, #1
 80017cc:	f883 203e 	strb.w	r2, [r3, #62]	; 0x3e
 80017d0:	687b      	ldr	r3, [r7, #4]
 80017d2:	2201      	movs	r2, #1
 80017d4:	f883 203f 	strb.w	r2, [r3, #63]	; 0x3f
 80017d8:	687b      	ldr	r3, [r7, #4]
 80017da:	2201      	movs	r2, #1
 80017dc:	f883 2040 	strb.w	r2, [r3, #64]	; 0x40
 80017e0:	687b      	ldr	r3, [r7, #4]
 80017e2:	2201      	movs	r2, #1
 80017e4:	f883 2041 	strb.w	r2, [r3, #65]	; 0x41
  TIM_CHANNEL_N_STATE_SET_ALL(htim, HAL_TIM_CHANNEL_STATE_READY);
 80017e8:	687b      	ldr	r3, [r7, #4]
 80017ea:	2201      	movs	r2, #1
 80017ec:	f883 2042 	strb.w	r2, [r3, #66]	; 0x42
 80017f0:	687b      	ldr	r3, [r7, #4]
 80017f2:	2201      	movs	r2, #1
 80017f4:	f883 2043 	strb.w	r2, [r3, #67]	; 0x43
 80017f8:	687b      	ldr	r3, [r7, #4]
 80017fa:	2201      	movs	r2, #1
 80017fc:	f883 2044 	strb.w	r2, [r3, #68]	; 0x44
 8001800:	687b      	ldr	r3, [r7, #4]
 8001802:	2201      	movs	r2, #1
 8001804:	f883 2045 	strb.w	r2, [r3, #69]	; 0x45

  /* Initialize the TIM state*/
  htim->State = HAL_TIM_STATE_READY;
 8001808:	687b      	ldr	r3, [r7, #4]
 800180a:	2201      	movs	r2, #1
 800180c:	f883 203d 	strb.w	r2, [r3, #61]	; 0x3d

  return HAL_OK;
 8001810:	2300      	movs	r3, #0
}
 8001812:	4618      	mov	r0, r3
 8001814:	3708      	adds	r7, #8
 8001816:	46bd      	mov	sp, r7
 8001818:	bd80      	pop	{r7, pc}
	...

0800181c <HAL_TIM_Base_Start_IT>:
  * @brief  Starts the TIM Base generation in interrupt mode.
  * @param  htim TIM Base handle
  * @retval HAL status
  */
HAL_StatusTypeDef HAL_TIM_Base_Start_IT(TIM_HandleTypeDef *htim)
{
 800181c:	b480      	push	{r7}
 800181e:	b085      	sub	sp, #20
 8001820:	af00      	add	r7, sp, #0
 8001822:	6078      	str	r0, [r7, #4]

  /* Check the parameters */
  assert_param(IS_TIM_INSTANCE(htim->Instance));

  /* Check the TIM state */
  if (htim->State != HAL_TIM_STATE_READY)
 8001824:	687b      	ldr	r3, [r7, #4]
 8001826:	f893 303d 	ldrb.w	r3, [r3, #61]	; 0x3d
 800182a:	b2db      	uxtb	r3, r3
 800182c:	2b01      	cmp	r3, #1
 800182e:	d001      	beq.n	8001834 <HAL_TIM_Base_Start_IT+0x18>
  {
    return HAL_ERROR;
 8001830:	2301      	movs	r3, #1
 8001832:	e035      	b.n	80018a0 <HAL_TIM_Base_Start_IT+0x84>
  }

  /* Set the TIM state */
  htim->State = HAL_TIM_STATE_BUSY;
 8001834:	687b      	ldr	r3, [r7, #4]
 8001836:	2202      	movs	r2, #2
 8001838:	f883 203d 	strb.w	r2, [r3, #61]	; 0x3d

  /* Enable the TIM Update interrupt */
  __HAL_TIM_ENABLE_IT(htim, TIM_IT_UPDATE);
 800183c:	687b      	ldr	r3, [r7, #4]
 800183e:	681b      	ldr	r3, [r3, #0]
 8001840:	68da      	ldr	r2, [r3, #12]
 8001842:	687b      	ldr	r3, [r7, #4]
 8001844:	681b      	ldr	r3, [r3, #0]
 8001846:	f042 0201 	orr.w	r2, r2, #1
 800184a:	60da      	str	r2, [r3, #12]

  /* Enable the Peripheral, except in trigger mode where enable is automatically done with trigger */
  if (IS_TIM_SLAVE_INSTANCE(htim->Instance))
 800184c:	687b      	ldr	r3, [r7, #4]
 800184e:	681b      	ldr	r3, [r3, #0]
 8001850:	4a16      	ldr	r2, [pc, #88]	; (80018ac <HAL_TIM_Base_Start_IT+0x90>)
 8001852:	4293      	cmp	r3, r2
 8001854:	d009      	beq.n	800186a <HAL_TIM_Base_Start_IT+0x4e>
 8001856:	687b      	ldr	r3, [r7, #4]
 8001858:	681b      	ldr	r3, [r3, #0]
 800185a:	f1b3 4f80 	cmp.w	r3, #1073741824	; 0x40000000
 800185e:	d004      	beq.n	800186a <HAL_TIM_Base_Start_IT+0x4e>
 8001860:	687b      	ldr	r3, [r7, #4]
 8001862:	681b      	ldr	r3, [r3, #0]
 8001864:	4a12      	ldr	r2, [pc, #72]	; (80018b0 <HAL_TIM_Base_Start_IT+0x94>)
 8001866:	4293      	cmp	r3, r2
 8001868:	d111      	bne.n	800188e <HAL_TIM_Base_Start_IT+0x72>
  {
    tmpsmcr = htim->Instance->SMCR & TIM_SMCR_SMS;
 800186a:	687b      	ldr	r3, [r7, #4]
 800186c:	681b      	ldr	r3, [r3, #0]
 800186e:	689b      	ldr	r3, [r3, #8]
 8001870:	f003 0307 	and.w	r3, r3, #7
 8001874:	60fb      	str	r3, [r7, #12]
    if (!IS_TIM_SLAVEMODE_TRIGGER_ENABLED(tmpsmcr))
 8001876:	68fb      	ldr	r3, [r7, #12]
 8001878:	2b06      	cmp	r3, #6
 800187a:	d010      	beq.n	800189e <HAL_TIM_Base_Start_IT+0x82>
    {
      __HAL_TIM_ENABLE(htim);
 800187c:	687b      	ldr	r3, [r7, #4]
 800187e:	681b      	ldr	r3, [r3, #0]
 8001880:	681a      	ldr	r2, [r3, #0]
 8001882:	687b      	ldr	r3, [r7, #4]
 8001884:	681b      	ldr	r3, [r3, #0]
 8001886:	f042 0201 	orr.w	r2, r2, #1
 800188a:	601a      	str	r2, [r3, #0]
    if (!IS_TIM_SLAVEMODE_TRIGGER_ENABLED(tmpsmcr))
 800188c:	e007      	b.n	800189e <HAL_TIM_Base_Start_IT+0x82>
    }
  }
  else
  {
    __HAL_TIM_ENABLE(htim);
 800188e:	687b      	ldr	r3, [r7, #4]
 8001890:	681b      	ldr	r3, [r3, #0]
 8001892:	681a      	ldr	r2, [r3, #0]
 8001894:	687b      	ldr	r3, [r7, #4]
 8001896:	681b      	ldr	r3, [r3, #0]
 8001898:	f042 0201 	orr.w	r2, r2, #1
 800189c:	601a      	str	r2, [r3, #0]
  }

  /* Return function status */
  return HAL_OK;
 800189e:	2300      	movs	r3, #0
}
 80018a0:	4618      	mov	r0, r3
 80018a2:	3714      	adds	r7, #20
 80018a4:	46bd      	mov	sp, r7
 80018a6:	bc80      	pop	{r7}
 80018a8:	4770      	bx	lr
 80018aa:	bf00      	nop
 80018ac:	40012c00 	.word	0x40012c00
 80018b0:	40000400 	.word	0x40000400

080018b4 <HAL_TIM_IRQHandler>:
  * @brief  This function handles TIM interrupts requests.
  * @param  htim TIM  handle
  * @retval None
  */
void HAL_TIM_IRQHandler(TIM_HandleTypeDef *htim)
{
 80018b4:	b580      	push	{r7, lr}
 80018b6:	b082      	sub	sp, #8
 80018b8:	af00      	add	r7, sp, #0
 80018ba:	6078      	str	r0, [r7, #4]
  /* Capture compare 1 event */
  if (__HAL_TIM_GET_FLAG(htim, TIM_FLAG_CC1) != RESET)
 80018bc:	687b      	ldr	r3, [r7, #4]
 80018be:	681b      	ldr	r3, [r3, #0]
 80018c0:	691b      	ldr	r3, [r3, #16]
 80018c2:	f003 0302 	and.w	r3, r3, #2
 80018c6:	2b02      	cmp	r3, #2
 80018c8:	d122      	bne.n	8001910 <HAL_TIM_IRQHandler+0x5c>
  {
    if (__HAL_TIM_GET_IT_SOURCE(htim, TIM_IT_CC1) != RESET)
 80018ca:	687b      	ldr	r3, [r7, #4]
 80018cc:	681b      	ldr	r3, [r3, #0]
 80018ce:	68db      	ldr	r3, [r3, #12]
 80018d0:	f003 0302 	and.w	r3, r3, #2
 80018d4:	2b02      	cmp	r3, #2
 80018d6:	d11b      	bne.n	8001910 <HAL_TIM_IRQHandler+0x5c>
    {
      {
        __HAL_TIM_CLEAR_IT(htim, TIM_IT_CC1);
 80018d8:	687b      	ldr	r3, [r7, #4]
 80018da:	681b      	ldr	r3, [r3, #0]
 80018dc:	f06f 0202 	mvn.w	r2, #2
 80018e0:	611a      	str	r2, [r3, #16]
        htim->Channel = HAL_TIM_ACTIVE_CHANNEL_1;
 80018e2:	687b      	ldr	r3, [r7, #4]
 80018e4:	2201      	movs	r2, #1
 80018e6:	771a      	strb	r2, [r3, #28]

        /* Input capture event */
        if ((htim->Instance->CCMR1 & TIM_CCMR1_CC1S) != 0x00U)
 80018e8:	687b      	ldr	r3, [r7, #4]
 80018ea:	681b      	ldr	r3, [r3, #0]
 80018ec:	699b      	ldr	r3, [r3, #24]
 80018ee:	f003 0303 	and.w	r3, r3, #3
 80018f2:	2b00      	cmp	r3, #0
 80018f4:	d003      	beq.n	80018fe <HAL_TIM_IRQHandler+0x4a>
        {
#if (USE_HAL_TIM_REGISTER_CALLBACKS == 1)
          htim->IC_CaptureCallback(htim);
#else
          HAL_TIM_IC_CaptureCallback(htim);
 80018f6:	6878      	ldr	r0, [r7, #4]
 80018f8:	f000 f9b4 	bl	8001c64 <HAL_TIM_IC_CaptureCallback>
 80018fc:	e005      	b.n	800190a <HAL_TIM_IRQHandler+0x56>
        {
#if (USE_HAL_TIM_REGISTER_CALLBACKS == 1)
          htim->OC_DelayElapsedCallback(htim);
          htim->PWM_PulseFinishedCallback(htim);
#else
          HAL_TIM_OC_DelayElapsedCallback(htim);
 80018fe:	6878      	ldr	r0, [r7, #4]
 8001900:	f000 f9a7 	bl	8001c52 <HAL_TIM_OC_DelayElapsedCallback>
          HAL_TIM_PWM_PulseFinishedCallback(htim);
 8001904:	6878      	ldr	r0, [r7, #4]
 8001906:	f000 f9b6 	bl	8001c76 <HAL_TIM_PWM_PulseFinishedCallback>
#endif /* USE_HAL_TIM_REGISTER_CALLBACKS */
        }
        htim->Channel = HAL_TIM_ACTIVE_CHANNEL_CLEARED;
 800190a:	687b      	ldr	r3, [r7, #4]
 800190c:	2200      	movs	r2, #0
 800190e:	771a      	strb	r2, [r3, #28]
      }
    }
  }
  /* Capture compare 2 event */
  if (__HAL_TIM_GET_FLAG(htim, TIM_FLAG_CC2) != RESET)
 8001910:	687b      	ldr	r3, [r7, #4]
 8001912:	681b      	ldr	r3, [r3, #0]
 8001914:	691b      	ldr	r3, [r3, #16]
 8001916:	f003 0304 	and.w	r3, r3, #4
 800191a:	2b04      	cmp	r3, #4
 800191c:	d122      	bne.n	8001964 <HAL_TIM_IRQHandler+0xb0>
  {
    if (__HAL_TIM_GET_IT_SOURCE(htim, TIM_IT_CC2) != RESET)
 800191e:	687b      	ldr	r3, [r7, #4]
 8001920:	681b      	ldr	r3, [r3, #0]
 8001922:	68db      	ldr	r3, [r3, #12]
 8001924:	f003 0304 	and.w	r3, r3, #4
 8001928:	2b04      	cmp	r3, #4
 800192a:	d11b      	bne.n	8001964 <HAL_TIM_IRQHandler+0xb0>
    {
      __HAL_TIM_CLEAR_IT(htim, TIM_IT_CC2);
 800192c:	687b      	ldr	r3, [r7, #4]
 800192e:	681b      	ldr	r3, [r3, #0]
 8001930:	f06f 0204 	mvn.w	r2, #4
 8001934:	611a      	str	r2, [r3, #16]
      htim->Channel = HAL_TIM_ACTIVE_CHANNEL_2;
 8001936:	687b      	ldr	r3, [r7, #4]
 8001938:	2202      	movs	r2, #2
 800193a:	771a      	strb	r2, [r3, #28]
      /* Input capture event */
      if ((htim->Instance->CCMR1 & TIM_CCMR1_CC2S) != 0x00U)
 800193c:	687b      	ldr	r3, [r7, #4]
 800193e:	681b      	ldr	r3, [r3, #0]
 8001940:	699b      	ldr	r3, [r3, #24]
 8001942:	f403 7340 	and.w	r3, r3, #768	; 0x300
 8001946:	2b00      	cmp	r3, #0
 8001948:	d003      	beq.n	8001952 <HAL_TIM_IRQHandler+0x9e>
      {
#if (USE_HAL_TIM_REGISTER_CALLBACKS == 1)
        htim->IC_CaptureCallback(htim);
#else
        HAL_TIM_IC_CaptureCallback(htim);
 800194a:	6878      	ldr	r0, [r7, #4]
 800194c:	f000 f98a 	bl	8001c64 <HAL_TIM_IC_CaptureCallback>
 8001950:	e005      	b.n	800195e <HAL_TIM_IRQHandler+0xaa>
      {
#if (USE_HAL_TIM_REGISTER_CALLBACKS == 1)
        htim->OC_DelayElapsedCallback(htim);
        htim->PWM_PulseFinishedCallback(htim);
#else
        HAL_TIM_OC_DelayElapsedCallback(htim);
 8001952:	6878      	ldr	r0, [r7, #4]
 8001954:	f000 f97d 	bl	8001c52 <HAL_TIM_OC_DelayElapsedCallback>
        HAL_TIM_PWM_PulseFinishedCallback(htim);
 8001958:	6878      	ldr	r0, [r7, #4]
 800195a:	f000 f98c 	bl	8001c76 <HAL_TIM_PWM_PulseFinishedCallback>
#endif /* USE_HAL_TIM_REGISTER_CALLBACKS */
      }
      htim->Channel = HAL_TIM_ACTIVE_CHANNEL_CLEARED;
 800195e:	687b      	ldr	r3, [r7, #4]
 8001960:	2200      	movs	r2, #0
 8001962:	771a      	strb	r2, [r3, #28]
    }
  }
  /* Capture compare 3 event */
  if (__HAL_TIM_GET_FLAG(htim, TIM_FLAG_CC3) != RESET)
 8001964:	687b      	ldr	r3, [r7, #4]
 8001966:	681b      	ldr	r3, [r3, #0]
 8001968:	691b      	ldr	r3, [r3, #16]
 800196a:	f003 0308 	and.w	r3, r3, #8
 800196e:	2b08      	cmp	r3, #8
 8001970:	d122      	bne.n	80019b8 <HAL_TIM_IRQHandler+0x104>
  {
    if (__HAL_TIM_GET_IT_SOURCE(htim, TIM_IT_CC3) != RESET)
 8001972:	687b      	ldr	r3, [r7, #4]
 8001974:	681b      	ldr	r3, [r3, #0]
 8001976:	68db      	ldr	r3, [r3, #12]
 8001978:	f003 0308 	and.w	r3, r3, #8
 800197c:	2b08      	cmp	r3, #8
 800197e:	d11b      	bne.n	80019b8 <HAL_TIM_IRQHandler+0x104>
    {
      __HAL_TIM_CLEAR_IT(htim, TIM_IT_CC3);
 8001980:	687b      	ldr	r3, [r7, #4]
 8001982:	681b      	ldr	r3, [r3, #0]
 8001984:	f06f 0208 	mvn.w	r2, #8
 8001988:	611a      	str	r2, [r3, #16]
      htim->Channel = HAL_TIM_ACTIVE_CHANNEL_3;
 800198a:	687b      	ldr	r3, [r7, #4]
 800198c:	2204      	movs	r2, #4
 800198e:	771a      	strb	r2, [r3, #28]
      /* Input capture event */
      if ((htim->Instance->CCMR2 & TIM_CCMR2_CC3S) != 0x00U)
 8001990:	687b      	ldr	r3, [r7, #4]
 8001992:	681b      	ldr	r3, [r3, #0]
 8001994:	69db      	ldr	r3, [r3, #28]
 8001996:	f003 0303 	and.w	r3, r3, #3
 800199a:	2b00      	cmp	r3, #0
 800199c:	d003      	beq.n	80019a6 <HAL_TIM_IRQHandler+0xf2>
      {
#if (USE_HAL_TIM_REGISTER_CALLBACKS == 1)
        htim->IC_CaptureCallback(htim);
#else
        HAL_TIM_IC_CaptureCallback(htim);
 800199e:	6878      	ldr	r0, [r7, #4]
 80019a0:	f000 f960 	bl	8001c64 <HAL_TIM_IC_CaptureCallback>
 80019a4:	e005      	b.n	80019b2 <HAL_TIM_IRQHandler+0xfe>
      {
#if (USE_HAL_TIM_REGISTER_CALLBACKS == 1)
        htim->OC_DelayElapsedCallback(htim);
        htim->PWM_PulseFinishedCallback(htim);
#else
        HAL_TIM_OC_DelayElapsedCallback(htim);
 80019a6:	6878      	ldr	r0, [r7, #4]
 80019a8:	f000 f953 	bl	8001c52 <HAL_TIM_OC_DelayElapsedCallback>
        HAL_TIM_PWM_PulseFinishedCallback(htim);
 80019ac:	6878      	ldr	r0, [r7, #4]
 80019ae:	f000 f962 	bl	8001c76 <HAL_TIM_PWM_PulseFinishedCallback>
#endif /* USE_HAL_TIM_REGISTER_CALLBACKS */
      }
      htim->Channel = HAL_TIM_ACTIVE_CHANNEL_CLEARED;
 80019b2:	687b      	ldr	r3, [r7, #4]
 80019b4:	2200      	movs	r2, #0
 80019b6:	771a      	strb	r2, [r3, #28]
    }
  }
  /* Capture compare 4 event */
  if (__HAL_TIM_GET_FLAG(htim, TIM_FLAG_CC4) != RESET)
 80019b8:	687b      	ldr	r3, [r7, #4]
 80019ba:	681b      	ldr	r3, [r3, #0]
 80019bc:	691b      	ldr	r3, [r3, #16]
 80019be:	f003 0310 	and.w	r3, r3, #16
 80019c2:	2b10      	cmp	r3, #16
 80019c4:	d122      	bne.n	8001a0c <HAL_TIM_IRQHandler+0x158>
  {
    if (__HAL_TIM_GET_IT_SOURCE(htim, TIM_IT_CC4) != RESET)
 80019c6:	687b      	ldr	r3, [r7, #4]
 80019c8:	681b      	ldr	r3, [r3, #0]
 80019ca:	68db      	ldr	r3, [r3, #12]
 80019cc:	f003 0310 	and.w	r3, r3, #16
 80019d0:	2b10      	cmp	r3, #16
 80019d2:	d11b      	bne.n	8001a0c <HAL_TIM_IRQHandler+0x158>
    {
      __HAL_TIM_CLEAR_IT(htim, TIM_IT_CC4);
 80019d4:	687b      	ldr	r3, [r7, #4]
 80019d6:	681b      	ldr	r3, [r3, #0]
 80019d8:	f06f 0210 	mvn.w	r2, #16
 80019dc:	611a      	str	r2, [r3, #16]
      htim->Channel = HAL_TIM_ACTIVE_CHANNEL_4;
 80019de:	687b      	ldr	r3, [r7, #4]
 80019e0:	2208      	movs	r2, #8
 80019e2:	771a      	strb	r2, [r3, #28]
      /* Input capture event */
      if ((htim->Instance->CCMR2 & TIM_CCMR2_CC4S) != 0x00U)
 80019e4:	687b      	ldr	r3, [r7, #4]
 80019e6:	681b      	ldr	r3, [r3, #0]
 80019e8:	69db      	ldr	r3, [r3, #28]
 80019ea:	f403 7340 	and.w	r3, r3, #768	; 0x300
 80019ee:	2b00      	cmp	r3, #0
 80019f0:	d003      	beq.n	80019fa <HAL_TIM_IRQHandler+0x146>
      {
#if (USE_HAL_TIM_REGISTER_CALLBACKS == 1)
        htim->IC_CaptureCallback(htim);
#else
        HAL_TIM_IC_CaptureCallback(htim);
 80019f2:	6878      	ldr	r0, [r7, #4]
 80019f4:	f000 f936 	bl	8001c64 <HAL_TIM_IC_CaptureCallback>
 80019f8:	e005      	b.n	8001a06 <HAL_TIM_IRQHandler+0x152>
      {
#if (USE_HAL_TIM_REGISTER_CALLBACKS == 1)
        htim->OC_DelayElapsedCallback(htim);
        htim->PWM_PulseFinishedCallback(htim);
#else
        HAL_TIM_OC_DelayElapsedCallback(htim);
 80019fa:	6878      	ldr	r0, [r7, #4]
 80019fc:	f000 f929 	bl	8001c52 <HAL_TIM_OC_DelayElapsedCallback>
        HAL_TIM_PWM_PulseFinishedCallback(htim);
 8001a00:	6878      	ldr	r0, [r7, #4]
 8001a02:	f000 f938 	bl	8001c76 <HAL_TIM_PWM_PulseFinishedCallback>
#endif /* USE_HAL_TIM_REGISTER_CALLBACKS */
      }
      htim->Channel = HAL_TIM_ACTIVE_CHANNEL_CLEARED;
 8001a06:	687b      	ldr	r3, [r7, #4]
 8001a08:	2200      	movs	r2, #0
 8001a0a:	771a      	strb	r2, [r3, #28]
    }
  }
  /* TIM Update event */
  if (__HAL_TIM_GET_FLAG(htim, TIM_FLAG_UPDATE) != RESET)
 8001a0c:	687b      	ldr	r3, [r7, #4]
 8001a0e:	681b      	ldr	r3, [r3, #0]
 8001a10:	691b      	ldr	r3, [r3, #16]
 8001a12:	f003 0301 	and.w	r3, r3, #1
 8001a16:	2b01      	cmp	r3, #1
 8001a18:	d10e      	bne.n	8001a38 <HAL_TIM_IRQHandler+0x184>
  {
    if (__HAL_TIM_GET_IT_SOURCE(htim, TIM_IT_UPDATE) != RESET)
 8001a1a:	687b      	ldr	r3, [r7, #4]
 8001a1c:	681b      	ldr	r3, [r3, #0]
 8001a1e:	68db      	ldr	r3, [r3, #12]
 8001a20:	f003 0301 	and.w	r3, r3, #1
 8001a24:	2b01      	cmp	r3, #1
 8001a26:	d107      	bne.n	8001a38 <HAL_TIM_IRQHandler+0x184>
    {
      __HAL_TIM_CLEAR_IT(htim, TIM_IT_UPDATE);
 8001a28:	687b      	ldr	r3, [r7, #4]
 8001a2a:	681b      	ldr	r3, [r3, #0]
 8001a2c:	f06f 0201 	mvn.w	r2, #1
 8001a30:	611a      	str	r2, [r3, #16]
#if (USE_HAL_TIM_REGISTER_CALLBACKS == 1)
      htim->PeriodElapsedCallback(htim);
#else
      HAL_TIM_PeriodElapsedCallback(htim);
 8001a32:	6878      	ldr	r0, [r7, #4]
 8001a34:	f7fe fea6 	bl	8000784 <HAL_TIM_PeriodElapsedCallback>
#endif /* USE_HAL_TIM_REGISTER_CALLBACKS */
    }
  }
  /* TIM Break input event */
  if (__HAL_TIM_GET_FLAG(htim, TIM_FLAG_BREAK) != RESET)
 8001a38:	687b      	ldr	r3, [r7, #4]
 8001a3a:	681b      	ldr	r3, [r3, #0]
 8001a3c:	691b      	ldr	r3, [r3, #16]
 8001a3e:	f003 0380 	and.w	r3, r3, #128	; 0x80
 8001a42:	2b80      	cmp	r3, #128	; 0x80
 8001a44:	d10e      	bne.n	8001a64 <HAL_TIM_IRQHandler+0x1b0>
  {
    if (__HAL_TIM_GET_IT_SOURCE(htim, TIM_IT_BREAK) != RESET)
 8001a46:	687b      	ldr	r3, [r7, #4]
 8001a48:	681b      	ldr	r3, [r3, #0]
 8001a4a:	68db      	ldr	r3, [r3, #12]
 8001a4c:	f003 0380 	and.w	r3, r3, #128	; 0x80
 8001a50:	2b80      	cmp	r3, #128	; 0x80
 8001a52:	d107      	bne.n	8001a64 <HAL_TIM_IRQHandler+0x1b0>
    {
      __HAL_TIM_CLEAR_IT(htim, TIM_IT_BREAK);
 8001a54:	687b      	ldr	r3, [r7, #4]
 8001a56:	681b      	ldr	r3, [r3, #0]
 8001a58:	f06f 0280 	mvn.w	r2, #128	; 0x80
 8001a5c:	611a      	str	r2, [r3, #16]
#if (USE_HAL_TIM_REGISTER_CALLBACKS == 1)
      htim->BreakCallback(htim);
#else
      HAL_TIMEx_BreakCallback(htim);
 8001a5e:	6878      	ldr	r0, [r7, #4]
 8001a60:	f000 fa6b 	bl	8001f3a <HAL_TIMEx_BreakCallback>
#endif /* USE_HAL_TIM_REGISTER_CALLBACKS */
    }
  }
  /* TIM Trigger detection event */
  if (__HAL_TIM_GET_FLAG(htim, TIM_FLAG_TRIGGER) != RESET)
 8001a64:	687b      	ldr	r3, [r7, #4]
 8001a66:	681b      	ldr	r3, [r3, #0]
 8001a68:	691b      	ldr	r3, [r3, #16]
 8001a6a:	f003 0340 	and.w	r3, r3, #64	; 0x40
 8001a6e:	2b40      	cmp	r3, #64	; 0x40
 8001a70:	d10e      	bne.n	8001a90 <HAL_TIM_IRQHandler+0x1dc>
  {
    if (__HAL_TIM_GET_IT_SOURCE(htim, TIM_IT_TRIGGER) != RESET)
 8001a72:	687b      	ldr	r3, [r7, #4]
 8001a74:	681b      	ldr	r3, [r3, #0]
 8001a76:	68db      	ldr	r3, [r3, #12]
 8001a78:	f003 0340 	and.w	r3, r3, #64	; 0x40
 8001a7c:	2b40      	cmp	r3, #64	; 0x40
 8001a7e:	d107      	bne.n	8001a90 <HAL_TIM_IRQHandler+0x1dc>
    {
      __HAL_TIM_CLEAR_IT(htim, TIM_IT_TRIGGER);
 8001a80:	687b      	ldr	r3, [r7, #4]
 8001a82:	681b      	ldr	r3, [r3, #0]
 8001a84:	f06f 0240 	mvn.w	r2, #64	; 0x40
 8001a88:	611a      	str	r2, [r3, #16]
#if (USE_HAL_TIM_REGISTER_CALLBACKS == 1)
      htim->TriggerCallback(htim);
#else
      HAL_TIM_TriggerCallback(htim);
 8001a8a:	6878      	ldr	r0, [r7, #4]
 8001a8c:	f000 f8fc 	bl	8001c88 <HAL_TIM_TriggerCallback>
#endif /* USE_HAL_TIM_REGISTER_CALLBACKS */
    }
  }
  /* TIM commutation event */
  if (__HAL_TIM_GET_FLAG(htim, TIM_FLAG_COM) != RESET)
 8001a90:	687b      	ldr	r3, [r7, #4]
 8001a92:	681b      	ldr	r3, [r3, #0]
 8001a94:	691b      	ldr	r3, [r3, #16]
 8001a96:	f003 0320 	and.w	r3, r3, #32
 8001a9a:	2b20      	cmp	r3, #32
 8001a9c:	d10e      	bne.n	8001abc <HAL_TIM_IRQHandler+0x208>
  {
    if (__HAL_TIM_GET_IT_SOURCE(htim, TIM_IT_COM) != RESET)
 8001a9e:	687b      	ldr	r3, [r7, #4]
 8001aa0:	681b      	ldr	r3, [r3, #0]
 8001aa2:	68db      	ldr	r3, [r3, #12]
 8001aa4:	f003 0320 	and.w	r3, r3, #32
 8001aa8:	2b20      	cmp	r3, #32
 8001aaa:	d107      	bne.n	8001abc <HAL_TIM_IRQHandler+0x208>
    {
      __HAL_TIM_CLEAR_IT(htim, TIM_FLAG_COM);
 8001aac:	687b      	ldr	r3, [r7, #4]
 8001aae:	681b      	ldr	r3, [r3, #0]
 8001ab0:	f06f 0220 	mvn.w	r2, #32
 8001ab4:	611a      	str	r2, [r3, #16]
#if (USE_HAL_TIM_REGISTER_CALLBACKS == 1)
      htim->CommutationCallback(htim);
#else
      HAL_TIMEx_CommutCallback(htim);
 8001ab6:	6878      	ldr	r0, [r7, #4]
 8001ab8:	f000 fa36 	bl	8001f28 <HAL_TIMEx_CommutCallback>
#endif /* USE_HAL_TIM_REGISTER_CALLBACKS */
    }
  }
}
 8001abc:	bf00      	nop
 8001abe:	3708      	adds	r7, #8
 8001ac0:	46bd      	mov	sp, r7
 8001ac2:	bd80      	pop	{r7, pc}

08001ac4 <HAL_TIM_ConfigClockSource>:
  * @param  sClockSourceConfig pointer to a TIM_ClockConfigTypeDef structure that
  *         contains the clock source information for the TIM peripheral.
  * @retval HAL status
  */
HAL_StatusTypeDef HAL_TIM_ConfigClockSource(TIM_HandleTypeDef *htim, const TIM_ClockConfigTypeDef *sClockSourceConfig)
{
 8001ac4:	b580      	push	{r7, lr}
 8001ac6:	b084      	sub	sp, #16
 8001ac8:	af00      	add	r7, sp, #0
 8001aca:	6078      	str	r0, [r7, #4]
 8001acc:	6039      	str	r1, [r7, #0]
  HAL_StatusTypeDef status = HAL_OK;
 8001ace:	2300      	movs	r3, #0
 8001ad0:	73fb      	strb	r3, [r7, #15]
  uint32_t tmpsmcr;

  /* Process Locked */
  __HAL_LOCK(htim);
 8001ad2:	687b      	ldr	r3, [r7, #4]
 8001ad4:	f893 303c 	ldrb.w	r3, [r3, #60]	; 0x3c
 8001ad8:	2b01      	cmp	r3, #1
 8001ada:	d101      	bne.n	8001ae0 <HAL_TIM_ConfigClockSource+0x1c>
 8001adc:	2302      	movs	r3, #2
 8001ade:	e0b4      	b.n	8001c4a <HAL_TIM_ConfigClockSource+0x186>
 8001ae0:	687b      	ldr	r3, [r7, #4]
 8001ae2:	2201      	movs	r2, #1
 8001ae4:	f883 203c 	strb.w	r2, [r3, #60]	; 0x3c

  htim->State = HAL_TIM_STATE_BUSY;
 8001ae8:	687b      	ldr	r3, [r7, #4]
 8001aea:	2202      	movs	r2, #2
 8001aec:	f883 203d 	strb.w	r2, [r3, #61]	; 0x3d

  /* Check the parameters */
  assert_param(IS_TIM_CLOCKSOURCE(sClockSourceConfig->ClockSource));

  /* Reset the SMS, TS, ECE, ETPS and ETRF bits */
  tmpsmcr = htim->Instance->SMCR;
 8001af0:	687b      	ldr	r3, [r7, #4]
 8001af2:	681b      	ldr	r3, [r3, #0]
 8001af4:	689b      	ldr	r3, [r3, #8]
 8001af6:	60bb      	str	r3, [r7, #8]
  tmpsmcr &= ~(TIM_SMCR_SMS | TIM_SMCR_TS);
 8001af8:	68bb      	ldr	r3, [r7, #8]
 8001afa:	f023 0377 	bic.w	r3, r3, #119	; 0x77
 8001afe:	60bb      	str	r3, [r7, #8]
  tmpsmcr &= ~(TIM_SMCR_ETF | TIM_SMCR_ETPS | TIM_SMCR_ECE | TIM_SMCR_ETP);
 8001b00:	68bb      	ldr	r3, [r7, #8]
 8001b02:	f423 437f 	bic.w	r3, r3, #65280	; 0xff00
 8001b06:	60bb      	str	r3, [r7, #8]
  htim->Instance->SMCR = tmpsmcr;
 8001b08:	687b      	ldr	r3, [r7, #4]
 8001b0a:	681b      	ldr	r3, [r3, #0]
 8001b0c:	68ba      	ldr	r2, [r7, #8]
 8001b0e:	609a      	str	r2, [r3, #8]

  switch (sClockSourceConfig->ClockSource)
 8001b10:	683b      	ldr	r3, [r7, #0]
 8001b12:	681b      	ldr	r3, [r3, #0]
 8001b14:	f5b3 5f00 	cmp.w	r3, #8192	; 0x2000
 8001b18:	d03e      	beq.n	8001b98 <HAL_TIM_ConfigClockSource+0xd4>
 8001b1a:	f5b3 5f00 	cmp.w	r3, #8192	; 0x2000
 8001b1e:	f200 8087 	bhi.w	8001c30 <HAL_TIM_ConfigClockSource+0x16c>
 8001b22:	f5b3 5f80 	cmp.w	r3, #4096	; 0x1000
 8001b26:	f000 8086 	beq.w	8001c36 <HAL_TIM_ConfigClockSource+0x172>
 8001b2a:	f5b3 5f80 	cmp.w	r3, #4096	; 0x1000
 8001b2e:	d87f      	bhi.n	8001c30 <HAL_TIM_ConfigClockSource+0x16c>
 8001b30:	2b70      	cmp	r3, #112	; 0x70
 8001b32:	d01a      	beq.n	8001b6a <HAL_TIM_ConfigClockSource+0xa6>
 8001b34:	2b70      	cmp	r3, #112	; 0x70
 8001b36:	d87b      	bhi.n	8001c30 <HAL_TIM_ConfigClockSource+0x16c>
 8001b38:	2b60      	cmp	r3, #96	; 0x60
 8001b3a:	d050      	beq.n	8001bde <HAL_TIM_ConfigClockSource+0x11a>
 8001b3c:	2b60      	cmp	r3, #96	; 0x60
 8001b3e:	d877      	bhi.n	8001c30 <HAL_TIM_ConfigClockSource+0x16c>
 8001b40:	2b50      	cmp	r3, #80	; 0x50
 8001b42:	d03c      	beq.n	8001bbe <HAL_TIM_ConfigClockSource+0xfa>
 8001b44:	2b50      	cmp	r3, #80	; 0x50
 8001b46:	d873      	bhi.n	8001c30 <HAL_TIM_ConfigClockSource+0x16c>
 8001b48:	2b40      	cmp	r3, #64	; 0x40
 8001b4a:	d058      	beq.n	8001bfe <HAL_TIM_ConfigClockSource+0x13a>
 8001b4c:	2b40      	cmp	r3, #64	; 0x40
 8001b4e:	d86f      	bhi.n	8001c30 <HAL_TIM_ConfigClockSource+0x16c>
 8001b50:	2b30      	cmp	r3, #48	; 0x30
 8001b52:	d064      	beq.n	8001c1e <HAL_TIM_ConfigClockSource+0x15a>
 8001b54:	2b30      	cmp	r3, #48	; 0x30
 8001b56:	d86b      	bhi.n	8001c30 <HAL_TIM_ConfigClockSource+0x16c>
 8001b58:	2b20      	cmp	r3, #32
 8001b5a:	d060      	beq.n	8001c1e <HAL_TIM_ConfigClockSource+0x15a>
 8001b5c:	2b20      	cmp	r3, #32
 8001b5e:	d867      	bhi.n	8001c30 <HAL_TIM_ConfigClockSource+0x16c>
 8001b60:	2b00      	cmp	r3, #0
 8001b62:	d05c      	beq.n	8001c1e <HAL_TIM_ConfigClockSource+0x15a>
 8001b64:	2b10      	cmp	r3, #16
 8001b66:	d05a      	beq.n	8001c1e <HAL_TIM_ConfigClockSource+0x15a>
 8001b68:	e062      	b.n	8001c30 <HAL_TIM_ConfigClockSource+0x16c>
      assert_param(IS_TIM_CLOCKPRESCALER(sClockSourceConfig->ClockPrescaler));
      assert_param(IS_TIM_CLOCKPOLARITY(sClockSourceConfig->ClockPolarity));
      assert_param(IS_TIM_CLOCKFILTER(sClockSourceConfig->ClockFilter));

      /* Configure the ETR Clock source */
      TIM_ETR_SetConfig(htim->Instance,
 8001b6a:	687b      	ldr	r3, [r7, #4]
 8001b6c:	6818      	ldr	r0, [r3, #0]
 8001b6e:	683b      	ldr	r3, [r7, #0]
 8001b70:	6899      	ldr	r1, [r3, #8]
 8001b72:	683b      	ldr	r3, [r7, #0]
 8001b74:	685a      	ldr	r2, [r3, #4]
 8001b76:	683b      	ldr	r3, [r7, #0]
 8001b78:	68db      	ldr	r3, [r3, #12]
 8001b7a:	f000 f95e 	bl	8001e3a <TIM_ETR_SetConfig>
                        sClockSourceConfig->ClockPrescaler,
                        sClockSourceConfig->ClockPolarity,
                        sClockSourceConfig->ClockFilter);

      /* Select the External clock mode1 and the ETRF trigger */
      tmpsmcr = htim->Instance->SMCR;
 8001b7e:	687b      	ldr	r3, [r7, #4]
 8001b80:	681b      	ldr	r3, [r3, #0]
 8001b82:	689b      	ldr	r3, [r3, #8]
 8001b84:	60bb      	str	r3, [r7, #8]
      tmpsmcr |= (TIM_SLAVEMODE_EXTERNAL1 | TIM_CLOCKSOURCE_ETRMODE1);
 8001b86:	68bb      	ldr	r3, [r7, #8]
 8001b88:	f043 0377 	orr.w	r3, r3, #119	; 0x77
 8001b8c:	60bb      	str	r3, [r7, #8]
      /* Write to TIMx SMCR */
      htim->Instance->SMCR = tmpsmcr;
 8001b8e:	687b      	ldr	r3, [r7, #4]
 8001b90:	681b      	ldr	r3, [r3, #0]
 8001b92:	68ba      	ldr	r2, [r7, #8]
 8001b94:	609a      	str	r2, [r3, #8]
      break;
 8001b96:	e04f      	b.n	8001c38 <HAL_TIM_ConfigClockSource+0x174>
      assert_param(IS_TIM_CLOCKPRESCALER(sClockSourceConfig->ClockPrescaler));
      assert_param(IS_TIM_CLOCKPOLARITY(sClockSourceConfig->ClockPolarity));
      assert_param(IS_TIM_CLOCKFILTER(sClockSourceConfig->ClockFilter));

      /* Configure the ETR Clock source */
      TIM_ETR_SetConfig(htim->Instance,
 8001b98:	687b      	ldr	r3, [r7, #4]
 8001b9a:	6818      	ldr	r0, [r3, #0]
 8001b9c:	683b      	ldr	r3, [r7, #0]
 8001b9e:	6899      	ldr	r1, [r3, #8]
 8001ba0:	683b      	ldr	r3, [r7, #0]
 8001ba2:	685a      	ldr	r2, [r3, #4]
 8001ba4:	683b      	ldr	r3, [r7, #0]
 8001ba6:	68db      	ldr	r3, [r3, #12]
 8001ba8:	f000 f947 	bl	8001e3a <TIM_ETR_SetConfig>
                        sClockSourceConfig->ClockPrescaler,
                        sClockSourceConfig->ClockPolarity,
                        sClockSourceConfig->ClockFilter);
      /* Enable the External clock mode2 */
      htim->Instance->SMCR |= TIM_SMCR_ECE;
 8001bac:	687b      	ldr	r3, [r7, #4]
 8001bae:	681b      	ldr	r3, [r3, #0]
 8001bb0:	689a      	ldr	r2, [r3, #8]
 8001bb2:	687b      	ldr	r3, [r7, #4]
 8001bb4:	681b      	ldr	r3, [r3, #0]
 8001bb6:	f442 4280 	orr.w	r2, r2, #16384	; 0x4000
 8001bba:	609a      	str	r2, [r3, #8]
      break;
 8001bbc:	e03c      	b.n	8001c38 <HAL_TIM_ConfigClockSource+0x174>

      /* Check TI1 input conditioning related parameters */
      assert_param(IS_TIM_CLOCKPOLARITY(sClockSourceConfig->ClockPolarity));
      assert_param(IS_TIM_CLOCKFILTER(sClockSourceConfig->ClockFilter));

      TIM_TI1_ConfigInputStage(htim->Instance,
 8001bbe:	687b      	ldr	r3, [r7, #4]
 8001bc0:	6818      	ldr	r0, [r3, #0]
 8001bc2:	683b      	ldr	r3, [r7, #0]
 8001bc4:	6859      	ldr	r1, [r3, #4]
 8001bc6:	683b      	ldr	r3, [r7, #0]
 8001bc8:	68db      	ldr	r3, [r3, #12]
 8001bca:	461a      	mov	r2, r3
 8001bcc:	f000 f8be 	bl	8001d4c <TIM_TI1_ConfigInputStage>
                               sClockSourceConfig->ClockPolarity,
                               sClockSourceConfig->ClockFilter);
      TIM_ITRx_SetConfig(htim->Instance, TIM_CLOCKSOURCE_TI1);
 8001bd0:	687b      	ldr	r3, [r7, #4]
 8001bd2:	681b      	ldr	r3, [r3, #0]
 8001bd4:	2150      	movs	r1, #80	; 0x50
 8001bd6:	4618      	mov	r0, r3
 8001bd8:	f000 f915 	bl	8001e06 <TIM_ITRx_SetConfig>
      break;
 8001bdc:	e02c      	b.n	8001c38 <HAL_TIM_ConfigClockSource+0x174>

      /* Check TI2 input conditioning related parameters */
      assert_param(IS_TIM_CLOCKPOLARITY(sClockSourceConfig->ClockPolarity));
      assert_param(IS_TIM_CLOCKFILTER(sClockSourceConfig->ClockFilter));

      TIM_TI2_ConfigInputStage(htim->Instance,
 8001bde:	687b      	ldr	r3, [r7, #4]
 8001be0:	6818      	ldr	r0, [r3, #0]
 8001be2:	683b      	ldr	r3, [r7, #0]
 8001be4:	6859      	ldr	r1, [r3, #4]
 8001be6:	683b      	ldr	r3, [r7, #0]
 8001be8:	68db      	ldr	r3, [r3, #12]
 8001bea:	461a      	mov	r2, r3
 8001bec:	f000 f8dc 	bl	8001da8 <TIM_TI2_ConfigInputStage>
                               sClockSourceConfig->ClockPolarity,
                               sClockSourceConfig->ClockFilter);
      TIM_ITRx_SetConfig(htim->Instance, TIM_CLOCKSOURCE_TI2);
 8001bf0:	687b      	ldr	r3, [r7, #4]
 8001bf2:	681b      	ldr	r3, [r3, #0]
 8001bf4:	2160      	movs	r1, #96	; 0x60
 8001bf6:	4618      	mov	r0, r3
 8001bf8:	f000 f905 	bl	8001e06 <TIM_ITRx_SetConfig>
      break;
 8001bfc:	e01c      	b.n	8001c38 <HAL_TIM_ConfigClockSource+0x174>

      /* Check TI1 input conditioning related parameters */
      assert_param(IS_TIM_CLOCKPOLARITY(sClockSourceConfig->ClockPolarity));
      assert_param(IS_TIM_CLOCKFILTER(sClockSourceConfig->ClockFilter));

      TIM_TI1_ConfigInputStage(htim->Instance,
 8001bfe:	687b      	ldr	r3, [r7, #4]
 8001c00:	6818      	ldr	r0, [r3, #0]
 8001c02:	683b      	ldr	r3, [r7, #0]
 8001c04:	6859      	ldr	r1, [r3, #4]
 8001c06:	683b      	ldr	r3, [r7, #0]
 8001c08:	68db      	ldr	r3, [r3, #12]
 8001c0a:	461a      	mov	r2, r3
 8001c0c:	f000 f89e 	bl	8001d4c <TIM_TI1_ConfigInputStage>
                               sClockSourceConfig->ClockPolarity,
                               sClockSourceConfig->ClockFilter);
      TIM_ITRx_SetConfig(htim->Instance, TIM_CLOCKSOURCE_TI1ED);
 8001c10:	687b      	ldr	r3, [r7, #4]
 8001c12:	681b      	ldr	r3, [r3, #0]
 8001c14:	2140      	movs	r1, #64	; 0x40
 8001c16:	4618      	mov	r0, r3
 8001c18:	f000 f8f5 	bl	8001e06 <TIM_ITRx_SetConfig>
      break;
 8001c1c:	e00c      	b.n	8001c38 <HAL_TIM_ConfigClockSource+0x174>
    case TIM_CLOCKSOURCE_ITR3:
    {
      /* Check whether or not the timer instance supports internal trigger input */
      assert_param(IS_TIM_CLOCKSOURCE_ITRX_INSTANCE(htim->Instance));

      TIM_ITRx_SetConfig(htim->Instance, sClockSourceConfig->ClockSource);
 8001c1e:	687b      	ldr	r3, [r7, #4]
 8001c20:	681a      	ldr	r2, [r3, #0]
 8001c22:	683b      	ldr	r3, [r7, #0]
 8001c24:	681b      	ldr	r3, [r3, #0]
 8001c26:	4619      	mov	r1, r3
 8001c28:	4610      	mov	r0, r2
 8001c2a:	f000 f8ec 	bl	8001e06 <TIM_ITRx_SetConfig>
      break;
 8001c2e:	e003      	b.n	8001c38 <HAL_TIM_ConfigClockSource+0x174>
    }

    default:
      status = HAL_ERROR;
 8001c30:	2301      	movs	r3, #1
 8001c32:	73fb      	strb	r3, [r7, #15]
      break;
 8001c34:	e000      	b.n	8001c38 <HAL_TIM_ConfigClockSource+0x174>
      break;
 8001c36:	bf00      	nop
  }
  htim->State = HAL_TIM_STATE_READY;
 8001c38:	687b      	ldr	r3, [r7, #4]
 8001c3a:	2201      	movs	r2, #1
 8001c3c:	f883 203d 	strb.w	r2, [r3, #61]	; 0x3d

  __HAL_UNLOCK(htim);
 8001c40:	687b      	ldr	r3, [r7, #4]
 8001c42:	2200      	movs	r2, #0
 8001c44:	f883 203c 	strb.w	r2, [r3, #60]	; 0x3c

  return status;
 8001c48:	7bfb      	ldrb	r3, [r7, #15]
}
 8001c4a:	4618      	mov	r0, r3
 8001c4c:	3710      	adds	r7, #16
 8001c4e:	46bd      	mov	sp, r7
 8001c50:	bd80      	pop	{r7, pc}

08001c52 <HAL_TIM_OC_DelayElapsedCallback>:
  * @brief  Output Compare callback in non-blocking mode
  * @param  htim TIM OC handle
  * @retval None
  */
__weak void HAL_TIM_OC_DelayElapsedCallback(TIM_HandleTypeDef *htim)
{
 8001c52:	b480      	push	{r7}
 8001c54:	b083      	sub	sp, #12
 8001c56:	af00      	add	r7, sp, #0
 8001c58:	6078      	str	r0, [r7, #4]
  UNUSED(htim);

  /* NOTE : This function should not be modified, when the callback is needed,
            the HAL_TIM_OC_DelayElapsedCallback could be implemented in the user file
   */
}
 8001c5a:	bf00      	nop
 8001c5c:	370c      	adds	r7, #12
 8001c5e:	46bd      	mov	sp, r7
 8001c60:	bc80      	pop	{r7}
 8001c62:	4770      	bx	lr

08001c64 <HAL_TIM_IC_CaptureCallback>:
  * @brief  Input Capture callback in non-blocking mode
  * @param  htim TIM IC handle
  * @retval None
  */
__weak void HAL_TIM_IC_CaptureCallback(TIM_HandleTypeDef *htim)
{
 8001c64:	b480      	push	{r7}
 8001c66:	b083      	sub	sp, #12
 8001c68:	af00      	add	r7, sp, #0
 8001c6a:	6078      	str	r0, [r7, #4]
  UNUSED(htim);

  /* NOTE : This function should not be modified, when the callback is needed,
            the HAL_TIM_IC_CaptureCallback could be implemented in the user file
   */
}
 8001c6c:	bf00      	nop
 8001c6e:	370c      	adds	r7, #12
 8001c70:	46bd      	mov	sp, r7
 8001c72:	bc80      	pop	{r7}
 8001c74:	4770      	bx	lr

08001c76 <HAL_TIM_PWM_PulseFinishedCallback>:
  * @brief  PWM Pulse finished callback in non-blocking mode
  * @param  htim TIM handle
  * @retval None
  */
__weak void HAL_TIM_PWM_PulseFinishedCallback(TIM_HandleTypeDef *htim)
{
 8001c76:	b480      	push	{r7}
 8001c78:	b083      	sub	sp, #12
 8001c7a:	af00      	add	r7, sp, #0
 8001c7c:	6078      	str	r0, [r7, #4]
  UNUSED(htim);

  /* NOTE : This function should not be modified, when the callback is needed,
            the HAL_TIM_PWM_PulseFinishedCallback could be implemented in the user file
   */
}
 8001c7e:	bf00      	nop
 8001c80:	370c      	adds	r7, #12
 8001c82:	46bd      	mov	sp, r7
 8001c84:	bc80      	pop	{r7}
 8001c86:	4770      	bx	lr

08001c88 <HAL_TIM_TriggerCallback>:
  * @brief  Hall Trigger detection callback in non-blocking mode
  * @param  htim TIM handle
  * @retval None
  */
__weak void HAL_TIM_TriggerCallback(TIM_HandleTypeDef *htim)
{
 8001c88:	b480      	push	{r7}
 8001c8a:	b083      	sub	sp, #12
 8001c8c:	af00      	add	r7, sp, #0
 8001c8e:	6078      	str	r0, [r7, #4]
  UNUSED(htim);

  /* NOTE : This function should not be modified, when the callback is needed,
            the HAL_TIM_TriggerCallback could be implemented in the user file
   */
}
 8001c90:	bf00      	nop
 8001c92:	370c      	adds	r7, #12
 8001c94:	46bd      	mov	sp, r7
 8001c96:	bc80      	pop	{r7}
 8001c98:	4770      	bx	lr
	...

08001c9c <TIM_Base_SetConfig>:
  * @param  TIMx TIM peripheral
  * @param  Structure TIM Base configuration structure
  * @retval None
  */
void TIM_Base_SetConfig(TIM_TypeDef *TIMx, const TIM_Base_InitTypeDef *Structure)
{
 8001c9c:	b480      	push	{r7}
 8001c9e:	b085      	sub	sp, #20
 8001ca0:	af00      	add	r7, sp, #0
 8001ca2:	6078      	str	r0, [r7, #4]
 8001ca4:	6039      	str	r1, [r7, #0]
  uint32_t tmpcr1;
  tmpcr1 = TIMx->CR1;
 8001ca6:	687b      	ldr	r3, [r7, #4]
 8001ca8:	681b      	ldr	r3, [r3, #0]
 8001caa:	60fb      	str	r3, [r7, #12]

  /* Set TIM Time Base Unit parameters ---------------------------------------*/
  if (IS_TIM_COUNTER_MODE_SELECT_INSTANCE(TIMx))
 8001cac:	687b      	ldr	r3, [r7, #4]
 8001cae:	4a25      	ldr	r2, [pc, #148]	; (8001d44 <TIM_Base_SetConfig+0xa8>)
 8001cb0:	4293      	cmp	r3, r2
 8001cb2:	d007      	beq.n	8001cc4 <TIM_Base_SetConfig+0x28>
 8001cb4:	687b      	ldr	r3, [r7, #4]
 8001cb6:	f1b3 4f80 	cmp.w	r3, #1073741824	; 0x40000000
 8001cba:	d003      	beq.n	8001cc4 <TIM_Base_SetConfig+0x28>
 8001cbc:	687b      	ldr	r3, [r7, #4]
 8001cbe:	4a22      	ldr	r2, [pc, #136]	; (8001d48 <TIM_Base_SetConfig+0xac>)
 8001cc0:	4293      	cmp	r3, r2
 8001cc2:	d108      	bne.n	8001cd6 <TIM_Base_SetConfig+0x3a>
  {
    /* Select the Counter Mode */
    tmpcr1 &= ~(TIM_CR1_DIR | TIM_CR1_CMS);
 8001cc4:	68fb      	ldr	r3, [r7, #12]
 8001cc6:	f023 0370 	bic.w	r3, r3, #112	; 0x70
 8001cca:	60fb      	str	r3, [r7, #12]
    tmpcr1 |= Structure->CounterMode;
 8001ccc:	683b      	ldr	r3, [r7, #0]
 8001cce:	685b      	ldr	r3, [r3, #4]
 8001cd0:	68fa      	ldr	r2, [r7, #12]
 8001cd2:	4313      	orrs	r3, r2
 8001cd4:	60fb      	str	r3, [r7, #12]
  }

  if (IS_TIM_CLOCK_DIVISION_INSTANCE(TIMx))
 8001cd6:	687b      	ldr	r3, [r7, #4]
 8001cd8:	4a1a      	ldr	r2, [pc, #104]	; (8001d44 <TIM_Base_SetConfig+0xa8>)
 8001cda:	4293      	cmp	r3, r2
 8001cdc:	d007      	beq.n	8001cee <TIM_Base_SetConfig+0x52>
 8001cde:	687b      	ldr	r3, [r7, #4]
 8001ce0:	f1b3 4f80 	cmp.w	r3, #1073741824	; 0x40000000
 8001ce4:	d003      	beq.n	8001cee <TIM_Base_SetConfig+0x52>
 8001ce6:	687b      	ldr	r3, [r7, #4]
 8001ce8:	4a17      	ldr	r2, [pc, #92]	; (8001d48 <TIM_Base_SetConfig+0xac>)
 8001cea:	4293      	cmp	r3, r2
 8001cec:	d108      	bne.n	8001d00 <TIM_Base_SetConfig+0x64>
  {
    /* Set the clock division */
    tmpcr1 &= ~TIM_CR1_CKD;
 8001cee:	68fb      	ldr	r3, [r7, #12]
 8001cf0:	f423 7340 	bic.w	r3, r3, #768	; 0x300
 8001cf4:	60fb      	str	r3, [r7, #12]
    tmpcr1 |= (uint32_t)Structure->ClockDivision;
 8001cf6:	683b      	ldr	r3, [r7, #0]
 8001cf8:	68db      	ldr	r3, [r3, #12]
 8001cfa:	68fa      	ldr	r2, [r7, #12]
 8001cfc:	4313      	orrs	r3, r2
 8001cfe:	60fb      	str	r3, [r7, #12]
  }

  /* Set the auto-reload preload */
  MODIFY_REG(tmpcr1, TIM_CR1_ARPE, Structure->AutoReloadPreload);
 8001d00:	68fb      	ldr	r3, [r7, #12]
 8001d02:	f023 0280 	bic.w	r2, r3, #128	; 0x80
 8001d06:	683b      	ldr	r3, [r7, #0]
 8001d08:	695b      	ldr	r3, [r3, #20]
 8001d0a:	4313      	orrs	r3, r2
 8001d0c:	60fb      	str	r3, [r7, #12]

  TIMx->CR1 = tmpcr1;
 8001d0e:	687b      	ldr	r3, [r7, #4]
 8001d10:	68fa      	ldr	r2, [r7, #12]
 8001d12:	601a      	str	r2, [r3, #0]

  /* Set the Autoreload value */
  TIMx->ARR = (uint32_t)Structure->Period ;
 8001d14:	683b      	ldr	r3, [r7, #0]
 8001d16:	689a      	ldr	r2, [r3, #8]
 8001d18:	687b      	ldr	r3, [r7, #4]
 8001d1a:	62da      	str	r2, [r3, #44]	; 0x2c

  /* Set the Prescaler value */
  TIMx->PSC = Structure->Prescaler;
 8001d1c:	683b      	ldr	r3, [r7, #0]
 8001d1e:	681a      	ldr	r2, [r3, #0]
 8001d20:	687b      	ldr	r3, [r7, #4]
 8001d22:	629a      	str	r2, [r3, #40]	; 0x28

  if (IS_TIM_REPETITION_COUNTER_INSTANCE(TIMx))
 8001d24:	687b      	ldr	r3, [r7, #4]
 8001d26:	4a07      	ldr	r2, [pc, #28]	; (8001d44 <TIM_Base_SetConfig+0xa8>)
 8001d28:	4293      	cmp	r3, r2
 8001d2a:	d103      	bne.n	8001d34 <TIM_Base_SetConfig+0x98>
  {
    /* Set the Repetition Counter value */
    TIMx->RCR = Structure->RepetitionCounter;
 8001d2c:	683b      	ldr	r3, [r7, #0]
 8001d2e:	691a      	ldr	r2, [r3, #16]
 8001d30:	687b      	ldr	r3, [r7, #4]
 8001d32:	631a      	str	r2, [r3, #48]	; 0x30
  }

  /* Generate an update event to reload the Prescaler
     and the repetition counter (only for advanced timer) value immediately */
  TIMx->EGR = TIM_EGR_UG;
 8001d34:	687b      	ldr	r3, [r7, #4]
 8001d36:	2201      	movs	r2, #1
 8001d38:	615a      	str	r2, [r3, #20]
}
 8001d3a:	bf00      	nop
 8001d3c:	3714      	adds	r7, #20
 8001d3e:	46bd      	mov	sp, r7
 8001d40:	bc80      	pop	{r7}
 8001d42:	4770      	bx	lr
 8001d44:	40012c00 	.word	0x40012c00
 8001d48:	40000400 	.word	0x40000400

08001d4c <TIM_TI1_ConfigInputStage>:
  * @param  TIM_ICFilter Specifies the Input Capture Filter.
  *          This parameter must be a value between 0x00 and 0x0F.
  * @retval None
  */
static void TIM_TI1_ConfigInputStage(TIM_TypeDef *TIMx, uint32_t TIM_ICPolarity, uint32_t TIM_ICFilter)
{
 8001d4c:	b480      	push	{r7}
 8001d4e:	b087      	sub	sp, #28
 8001d50:	af00      	add	r7, sp, #0
 8001d52:	60f8      	str	r0, [r7, #12]
 8001d54:	60b9      	str	r1, [r7, #8]
 8001d56:	607a      	str	r2, [r7, #4]
  uint32_t tmpccmr1;
  uint32_t tmpccer;

  /* Disable the Channel 1: Reset the CC1E Bit */
  tmpccer = TIMx->CCER;
 8001d58:	68fb      	ldr	r3, [r7, #12]
 8001d5a:	6a1b      	ldr	r3, [r3, #32]
 8001d5c:	617b      	str	r3, [r7, #20]
  TIMx->CCER &= ~TIM_CCER_CC1E;
 8001d5e:	68fb      	ldr	r3, [r7, #12]
 8001d60:	6a1b      	ldr	r3, [r3, #32]
 8001d62:	f023 0201 	bic.w	r2, r3, #1
 8001d66:	68fb      	ldr	r3, [r7, #12]
 8001d68:	621a      	str	r2, [r3, #32]
  tmpccmr1 = TIMx->CCMR1;
 8001d6a:	68fb      	ldr	r3, [r7, #12]
 8001d6c:	699b      	ldr	r3, [r3, #24]
 8001d6e:	613b      	str	r3, [r7, #16]

  /* Set the filter */
  tmpccmr1 &= ~TIM_CCMR1_IC1F;
 8001d70:	693b      	ldr	r3, [r7, #16]
 8001d72:	f023 03f0 	bic.w	r3, r3, #240	; 0xf0
 8001d76:	613b      	str	r3, [r7, #16]
  tmpccmr1 |= (TIM_ICFilter << 4U);
 8001d78:	687b      	ldr	r3, [r7, #4]
 8001d7a:	011b      	lsls	r3, r3, #4
 8001d7c:	693a      	ldr	r2, [r7, #16]
 8001d7e:	4313      	orrs	r3, r2
 8001d80:	613b      	str	r3, [r7, #16]

  /* Select the Polarity and set the CC1E Bit */
  tmpccer &= ~(TIM_CCER_CC1P | TIM_CCER_CC1NP);
 8001d82:	697b      	ldr	r3, [r7, #20]
 8001d84:	f023 030a 	bic.w	r3, r3, #10
 8001d88:	617b      	str	r3, [r7, #20]
  tmpccer |= TIM_ICPolarity;
 8001d8a:	697a      	ldr	r2, [r7, #20]
 8001d8c:	68bb      	ldr	r3, [r7, #8]
 8001d8e:	4313      	orrs	r3, r2
 8001d90:	617b      	str	r3, [r7, #20]

  /* Write to TIMx CCMR1 and CCER registers */
  TIMx->CCMR1 = tmpccmr1;
 8001d92:	68fb      	ldr	r3, [r7, #12]
 8001d94:	693a      	ldr	r2, [r7, #16]
 8001d96:	619a      	str	r2, [r3, #24]
  TIMx->CCER = tmpccer;
 8001d98:	68fb      	ldr	r3, [r7, #12]
 8001d9a:	697a      	ldr	r2, [r7, #20]
 8001d9c:	621a      	str	r2, [r3, #32]
}
 8001d9e:	bf00      	nop
 8001da0:	371c      	adds	r7, #28
 8001da2:	46bd      	mov	sp, r7
 8001da4:	bc80      	pop	{r7}
 8001da6:	4770      	bx	lr

08001da8 <TIM_TI2_ConfigInputStage>:
  * @param  TIM_ICFilter Specifies the Input Capture Filter.
  *          This parameter must be a value between 0x00 and 0x0F.
  * @retval None
  */
static void TIM_TI2_ConfigInputStage(TIM_TypeDef *TIMx, uint32_t TIM_ICPolarity, uint32_t TIM_ICFilter)
{
 8001da8:	b480      	push	{r7}
 8001daa:	b087      	sub	sp, #28
 8001dac:	af00      	add	r7, sp, #0
 8001dae:	60f8      	str	r0, [r7, #12]
 8001db0:	60b9      	str	r1, [r7, #8]
 8001db2:	607a      	str	r2, [r7, #4]
  uint32_t tmpccmr1;
  uint32_t tmpccer;

  /* Disable the Channel 2: Reset the CC2E Bit */
  tmpccer = TIMx->CCER;
 8001db4:	68fb      	ldr	r3, [r7, #12]
 8001db6:	6a1b      	ldr	r3, [r3, #32]
 8001db8:	617b      	str	r3, [r7, #20]
  TIMx->CCER &= ~TIM_CCER_CC2E;
 8001dba:	68fb      	ldr	r3, [r7, #12]
 8001dbc:	6a1b      	ldr	r3, [r3, #32]
 8001dbe:	f023 0210 	bic.w	r2, r3, #16
 8001dc2:	68fb      	ldr	r3, [r7, #12]
 8001dc4:	621a      	str	r2, [r3, #32]
  tmpccmr1 = TIMx->CCMR1;
 8001dc6:	68fb      	ldr	r3, [r7, #12]
 8001dc8:	699b      	ldr	r3, [r3, #24]
 8001dca:	613b      	str	r3, [r7, #16]

  /* Set the filter */
  tmpccmr1 &= ~TIM_CCMR1_IC2F;
 8001dcc:	693b      	ldr	r3, [r7, #16]
 8001dce:	f423 4370 	bic.w	r3, r3, #61440	; 0xf000
 8001dd2:	613b      	str	r3, [r7, #16]
  tmpccmr1 |= (TIM_ICFilter << 12U);
 8001dd4:	687b      	ldr	r3, [r7, #4]
 8001dd6:	031b      	lsls	r3, r3, #12
 8001dd8:	693a      	ldr	r2, [r7, #16]
 8001dda:	4313      	orrs	r3, r2
 8001ddc:	613b      	str	r3, [r7, #16]

  /* Select the Polarity and set the CC2E Bit */
  tmpccer &= ~(TIM_CCER_CC2P | TIM_CCER_CC2NP);
 8001dde:	697b      	ldr	r3, [r7, #20]
 8001de0:	f023 03a0 	bic.w	r3, r3, #160	; 0xa0
 8001de4:	617b      	str	r3, [r7, #20]
  tmpccer |= (TIM_ICPolarity << 4U);
 8001de6:	68bb      	ldr	r3, [r7, #8]
 8001de8:	011b      	lsls	r3, r3, #4
 8001dea:	697a      	ldr	r2, [r7, #20]
 8001dec:	4313      	orrs	r3, r2
 8001dee:	617b      	str	r3, [r7, #20]

  /* Write to TIMx CCMR1 and CCER registers */
  TIMx->CCMR1 = tmpccmr1 ;
 8001df0:	68fb      	ldr	r3, [r7, #12]
 8001df2:	693a      	ldr	r2, [r7, #16]
 8001df4:	619a      	str	r2, [r3, #24]
  TIMx->CCER = tmpccer;
 8001df6:	68fb      	ldr	r3, [r7, #12]
 8001df8:	697a      	ldr	r2, [r7, #20]
 8001dfa:	621a      	str	r2, [r3, #32]
}
 8001dfc:	bf00      	nop
 8001dfe:	371c      	adds	r7, #28
 8001e00:	46bd      	mov	sp, r7
 8001e02:	bc80      	pop	{r7}
 8001e04:	4770      	bx	lr

08001e06 <TIM_ITRx_SetConfig>:
  *            @arg TIM_TS_TI2FP2: Filtered Timer Input 2
  *            @arg TIM_TS_ETRF: External Trigger input
  * @retval None
  */
static void TIM_ITRx_SetConfig(TIM_TypeDef *TIMx, uint32_t InputTriggerSource)
{
 8001e06:	b480      	push	{r7}
 8001e08:	b085      	sub	sp, #20
 8001e0a:	af00      	add	r7, sp, #0
 8001e0c:	6078      	str	r0, [r7, #4]
 8001e0e:	6039      	str	r1, [r7, #0]
  uint32_t tmpsmcr;

  /* Get the TIMx SMCR register value */
  tmpsmcr = TIMx->SMCR;
 8001e10:	687b      	ldr	r3, [r7, #4]
 8001e12:	689b      	ldr	r3, [r3, #8]
 8001e14:	60fb      	str	r3, [r7, #12]
  /* Reset the TS Bits */
  tmpsmcr &= ~TIM_SMCR_TS;
 8001e16:	68fb      	ldr	r3, [r7, #12]
 8001e18:	f023 0370 	bic.w	r3, r3, #112	; 0x70
 8001e1c:	60fb      	str	r3, [r7, #12]
  /* Set the Input Trigger source and the slave mode*/
  tmpsmcr |= (InputTriggerSource | TIM_SLAVEMODE_EXTERNAL1);
 8001e1e:	683a      	ldr	r2, [r7, #0]
 8001e20:	68fb      	ldr	r3, [r7, #12]
 8001e22:	4313      	orrs	r3, r2
 8001e24:	f043 0307 	orr.w	r3, r3, #7
 8001e28:	60fb      	str	r3, [r7, #12]
  /* Write to TIMx SMCR */
  TIMx->SMCR = tmpsmcr;
 8001e2a:	687b      	ldr	r3, [r7, #4]
 8001e2c:	68fa      	ldr	r2, [r7, #12]
 8001e2e:	609a      	str	r2, [r3, #8]
}
 8001e30:	bf00      	nop
 8001e32:	3714      	adds	r7, #20
 8001e34:	46bd      	mov	sp, r7
 8001e36:	bc80      	pop	{r7}
 8001e38:	4770      	bx	lr

08001e3a <TIM_ETR_SetConfig>:
  *          This parameter must be a value between 0x00 and 0x0F
  * @retval None
  */
void TIM_ETR_SetConfig(TIM_TypeDef *TIMx, uint32_t TIM_ExtTRGPrescaler,
                       uint32_t TIM_ExtTRGPolarity, uint32_t ExtTRGFilter)
{
 8001e3a:	b480      	push	{r7}
 8001e3c:	b087      	sub	sp, #28
 8001e3e:	af00      	add	r7, sp, #0
 8001e40:	60f8      	str	r0, [r7, #12]
 8001e42:	60b9      	str	r1, [r7, #8]
 8001e44:	607a      	str	r2, [r7, #4]
 8001e46:	603b      	str	r3, [r7, #0]
  uint32_t tmpsmcr;

  tmpsmcr = TIMx->SMCR;
 8001e48:	68fb      	ldr	r3, [r7, #12]
 8001e4a:	689b      	ldr	r3, [r3, #8]
 8001e4c:	617b      	str	r3, [r7, #20]

  /* Reset the ETR Bits */
  tmpsmcr &= ~(TIM_SMCR_ETF | TIM_SMCR_ETPS | TIM_SMCR_ECE | TIM_SMCR_ETP);
 8001e4e:	697b      	ldr	r3, [r7, #20]
 8001e50:	f423 437f 	bic.w	r3, r3, #65280	; 0xff00
 8001e54:	617b      	str	r3, [r7, #20]

  /* Set the Prescaler, the Filter value and the Polarity */
  tmpsmcr |= (uint32_t)(TIM_ExtTRGPrescaler | (TIM_ExtTRGPolarity | (ExtTRGFilter << 8U)));
 8001e56:	683b      	ldr	r3, [r7, #0]
 8001e58:	021a      	lsls	r2, r3, #8
 8001e5a:	687b      	ldr	r3, [r7, #4]
 8001e5c:	431a      	orrs	r2, r3
 8001e5e:	68bb      	ldr	r3, [r7, #8]
 8001e60:	4313      	orrs	r3, r2
 8001e62:	697a      	ldr	r2, [r7, #20]
 8001e64:	4313      	orrs	r3, r2
 8001e66:	617b      	str	r3, [r7, #20]

  /* Write to TIMx SMCR */
  TIMx->SMCR = tmpsmcr;
 8001e68:	68fb      	ldr	r3, [r7, #12]
 8001e6a:	697a      	ldr	r2, [r7, #20]
 8001e6c:	609a      	str	r2, [r3, #8]
}
 8001e6e:	bf00      	nop
 8001e70:	371c      	adds	r7, #28
 8001e72:	46bd      	mov	sp, r7
 8001e74:	bc80      	pop	{r7}
 8001e76:	4770      	bx	lr

08001e78 <HAL_TIMEx_MasterConfigSynchronization>:
  *         mode.
  * @retval HAL status
  */
HAL_StatusTypeDef HAL_TIMEx_MasterConfigSynchronization(TIM_HandleTypeDef *htim,
                                                        const TIM_MasterConfigTypeDef *sMasterConfig)
{
 8001e78:	b480      	push	{r7}
 8001e7a:	b085      	sub	sp, #20
 8001e7c:	af00      	add	r7, sp, #0
 8001e7e:	6078      	str	r0, [r7, #4]
 8001e80:	6039      	str	r1, [r7, #0]
  assert_param(IS_TIM_MASTER_INSTANCE(htim->Instance));
  assert_param(IS_TIM_TRGO_SOURCE(sMasterConfig->MasterOutputTrigger));
  assert_param(IS_TIM_MSM_STATE(sMasterConfig->MasterSlaveMode));

  /* Check input state */
  __HAL_LOCK(htim);
 8001e82:	687b      	ldr	r3, [r7, #4]
 8001e84:	f893 303c 	ldrb.w	r3, [r3, #60]	; 0x3c
 8001e88:	2b01      	cmp	r3, #1
 8001e8a:	d101      	bne.n	8001e90 <HAL_TIMEx_MasterConfigSynchronization+0x18>
 8001e8c:	2302      	movs	r3, #2
 8001e8e:	e041      	b.n	8001f14 <HAL_TIMEx_MasterConfigSynchronization+0x9c>
 8001e90:	687b      	ldr	r3, [r7, #4]
 8001e92:	2201      	movs	r2, #1
 8001e94:	f883 203c 	strb.w	r2, [r3, #60]	; 0x3c

  /* Change the handler state */
  htim->State = HAL_TIM_STATE_BUSY;
 8001e98:	687b      	ldr	r3, [r7, #4]
 8001e9a:	2202      	movs	r2, #2
 8001e9c:	f883 203d 	strb.w	r2, [r3, #61]	; 0x3d

  /* Get the TIMx CR2 register value */
  tmpcr2 = htim->Instance->CR2;
 8001ea0:	687b      	ldr	r3, [r7, #4]
 8001ea2:	681b      	ldr	r3, [r3, #0]
 8001ea4:	685b      	ldr	r3, [r3, #4]
 8001ea6:	60fb      	str	r3, [r7, #12]

  /* Get the TIMx SMCR register value */
  tmpsmcr = htim->Instance->SMCR;
 8001ea8:	687b      	ldr	r3, [r7, #4]
 8001eaa:	681b      	ldr	r3, [r3, #0]
 8001eac:	689b      	ldr	r3, [r3, #8]
 8001eae:	60bb      	str	r3, [r7, #8]

  /* Reset the MMS Bits */
  tmpcr2 &= ~TIM_CR2_MMS;
 8001eb0:	68fb      	ldr	r3, [r7, #12]
 8001eb2:	f023 0370 	bic.w	r3, r3, #112	; 0x70
 8001eb6:	60fb      	str	r3, [r7, #12]
  /* Select the TRGO source */
  tmpcr2 |=  sMasterConfig->MasterOutputTrigger;
 8001eb8:	683b      	ldr	r3, [r7, #0]
 8001eba:	681b      	ldr	r3, [r3, #0]
 8001ebc:	68fa      	ldr	r2, [r7, #12]
 8001ebe:	4313      	orrs	r3, r2
 8001ec0:	60fb      	str	r3, [r7, #12]

  /* Update TIMx CR2 */
  htim->Instance->CR2 = tmpcr2;
 8001ec2:	687b      	ldr	r3, [r7, #4]
 8001ec4:	681b      	ldr	r3, [r3, #0]
 8001ec6:	68fa      	ldr	r2, [r7, #12]
 8001ec8:	605a      	str	r2, [r3, #4]

  if (IS_TIM_SLAVE_INSTANCE(htim->Instance))
 8001eca:	687b      	ldr	r3, [r7, #4]
 8001ecc:	681b      	ldr	r3, [r3, #0]
 8001ece:	4a14      	ldr	r2, [pc, #80]	; (8001f20 <HAL_TIMEx_MasterConfigSynchronization+0xa8>)
 8001ed0:	4293      	cmp	r3, r2
 8001ed2:	d009      	beq.n	8001ee8 <HAL_TIMEx_MasterConfigSynchronization+0x70>
 8001ed4:	687b      	ldr	r3, [r7, #4]
 8001ed6:	681b      	ldr	r3, [r3, #0]
 8001ed8:	f1b3 4f80 	cmp.w	r3, #1073741824	; 0x40000000
 8001edc:	d004      	beq.n	8001ee8 <HAL_TIMEx_MasterConfigSynchronization+0x70>
 8001ede:	687b      	ldr	r3, [r7, #4]
 8001ee0:	681b      	ldr	r3, [r3, #0]
 8001ee2:	4a10      	ldr	r2, [pc, #64]	; (8001f24 <HAL_TIMEx_MasterConfigSynchronization+0xac>)
 8001ee4:	4293      	cmp	r3, r2
 8001ee6:	d10c      	bne.n	8001f02 <HAL_TIMEx_MasterConfigSynchronization+0x8a>
  {
    /* Reset the MSM Bit */
    tmpsmcr &= ~TIM_SMCR_MSM;
 8001ee8:	68bb      	ldr	r3, [r7, #8]
 8001eea:	f023 0380 	bic.w	r3, r3, #128	; 0x80
 8001eee:	60bb      	str	r3, [r7, #8]
    /* Set master mode */
    tmpsmcr |= sMasterConfig->MasterSlaveMode;
 8001ef0:	683b      	ldr	r3, [r7, #0]
 8001ef2:	685b      	ldr	r3, [r3, #4]
 8001ef4:	68ba      	ldr	r2, [r7, #8]
 8001ef6:	4313      	orrs	r3, r2
 8001ef8:	60bb      	str	r3, [r7, #8]

    /* Update TIMx SMCR */
    htim->Instance->SMCR = tmpsmcr;
 8001efa:	687b      	ldr	r3, [r7, #4]
 8001efc:	681b      	ldr	r3, [r3, #0]
 8001efe:	68ba      	ldr	r2, [r7, #8]
 8001f00:	609a      	str	r2, [r3, #8]
  }

  /* Change the htim state */
  htim->State = HAL_TIM_STATE_READY;
 8001f02:	687b      	ldr	r3, [r7, #4]
 8001f04:	2201      	movs	r2, #1
 8001f06:	f883 203d 	strb.w	r2, [r3, #61]	; 0x3d

  __HAL_UNLOCK(htim);
 8001f0a:	687b      	ldr	r3, [r7, #4]
 8001f0c:	2200      	movs	r2, #0
 8001f0e:	f883 203c 	strb.w	r2, [r3, #60]	; 0x3c

  return HAL_OK;
 8001f12:	2300      	movs	r3, #0
}
 8001f14:	4618      	mov	r0, r3
 8001f16:	3714      	adds	r7, #20
 8001f18:	46bd      	mov	sp, r7
 8001f1a:	bc80      	pop	{r7}
 8001f1c:	4770      	bx	lr
 8001f1e:	bf00      	nop
 8001f20:	40012c00 	.word	0x40012c00
 8001f24:	40000400 	.word	0x40000400

08001f28 <HAL_TIMEx_CommutCallback>:
  * @brief  Hall commutation changed callback in non-blocking mode
  * @param  htim TIM handle
  * @retval None
  */
__weak void HAL_TIMEx_CommutCallback(TIM_HandleTypeDef *htim)
{
 8001f28:	b480      	push	{r7}
 8001f2a:	b083      	sub	sp, #12
 8001f2c:	af00      	add	r7, sp, #0
 8001f2e:	6078      	str	r0, [r7, #4]
  UNUSED(htim);

  /* NOTE : This function should not be modified, when the callback is needed,
            the HAL_TIMEx_CommutCallback could be implemented in the user file
   */
}
 8001f30:	bf00      	nop
 8001f32:	370c      	adds	r7, #12
 8001f34:	46bd      	mov	sp, r7
 8001f36:	bc80      	pop	{r7}
 8001f38:	4770      	bx	lr

08001f3a <HAL_TIMEx_BreakCallback>:
  * @brief  Hall Break detection callback in non-blocking mode
  * @param  htim TIM handle
  * @retval None
  */
__weak void HAL_TIMEx_BreakCallback(TIM_HandleTypeDef *htim)
{
 8001f3a:	b480      	push	{r7}
 8001f3c:	b083      	sub	sp, #12
 8001f3e:	af00      	add	r7, sp, #0
 8001f40:	6078      	str	r0, [r7, #4]
  UNUSED(htim);

  /* NOTE : This function should not be modified, when the callback is needed,
            the HAL_TIMEx_BreakCallback could be implemented in the user file
   */
}
 8001f42:	bf00      	nop
 8001f44:	370c      	adds	r7, #12
 8001f46:	46bd      	mov	sp, r7
 8001f48:	bc80      	pop	{r7}
 8001f4a:	4770      	bx	lr

08001f4c <__libc_init_array>:
 8001f4c:	b570      	push	{r4, r5, r6, lr}
 8001f4e:	2600      	movs	r6, #0
 8001f50:	4d0c      	ldr	r5, [pc, #48]	; (8001f84 <__libc_init_array+0x38>)
 8001f52:	4c0d      	ldr	r4, [pc, #52]	; (8001f88 <__libc_init_array+0x3c>)
 8001f54:	1b64      	subs	r4, r4, r5
 8001f56:	10a4      	asrs	r4, r4, #2
 8001f58:	42a6      	cmp	r6, r4
 8001f5a:	d109      	bne.n	8001f70 <__libc_init_array+0x24>
 8001f5c:	f000 f822 	bl	8001fa4 <_init>
 8001f60:	2600      	movs	r6, #0
 8001f62:	4d0a      	ldr	r5, [pc, #40]	; (8001f8c <__libc_init_array+0x40>)
 8001f64:	4c0a      	ldr	r4, [pc, #40]	; (8001f90 <__libc_init_array+0x44>)
 8001f66:	1b64      	subs	r4, r4, r5
 8001f68:	10a4      	asrs	r4, r4, #2
 8001f6a:	42a6      	cmp	r6, r4
 8001f6c:	d105      	bne.n	8001f7a <__libc_init_array+0x2e>
 8001f6e:	bd70      	pop	{r4, r5, r6, pc}
 8001f70:	f855 3b04 	ldr.w	r3, [r5], #4
 8001f74:	4798      	blx	r3
 8001f76:	3601      	adds	r6, #1
 8001f78:	e7ee      	b.n	8001f58 <__libc_init_array+0xc>
 8001f7a:	f855 3b04 	ldr.w	r3, [r5], #4
 8001f7e:	4798      	blx	r3
 8001f80:	3601      	adds	r6, #1
 8001f82:	e7f2      	b.n	8001f6a <__libc_init_array+0x1e>
 8001f84:	08001fe0 	.word	0x08001fe0
 8001f88:	08001fe0 	.word	0x08001fe0
 8001f8c:	08001fe0 	.word	0x08001fe0
 8001f90:	08001fe4 	.word	0x08001fe4

08001f94 <memset>:
 8001f94:	4603      	mov	r3, r0
 8001f96:	4402      	add	r2, r0
 8001f98:	4293      	cmp	r3, r2
 8001f9a:	d100      	bne.n	8001f9e <memset+0xa>
 8001f9c:	4770      	bx	lr
 8001f9e:	f803 1b01 	strb.w	r1, [r3], #1
 8001fa2:	e7f9      	b.n	8001f98 <memset+0x4>

08001fa4 <_init>:
 8001fa4:	b5f8      	push	{r3, r4, r5, r6, r7, lr}
 8001fa6:	bf00      	nop
 8001fa8:	bcf8      	pop	{r3, r4, r5, r6, r7}
 8001faa:	bc08      	pop	{r3}
 8001fac:	469e      	mov	lr, r3
 8001fae:	4770      	bx	lr

08001fb0 <_fini>:
 8001fb0:	b5f8      	push	{r3, r4, r5, r6, r7, lr}
 8001fb2:	bf00      	nop
 8001fb4:	bcf8      	pop	{r3, r4, r5, r6, r7}
 8001fb6:	bc08      	pop	{r3}
 8001fb8:	469e      	mov	lr, r3
 8001fba:	4770      	bx	lr
