
STM32ProjectForLab2.elf:     file format elf32-littlearm

Sections:
Idx Name          Size      VMA       LMA       File off  Algn
  0 .isr_vector   0000010c  08000000  08000000  00010000  2**0
                  CONTENTS, ALLOC, LOAD, READONLY, DATA
  1 .text         00002108  0800010c  0800010c  0001010c  2**2
                  CONTENTS, ALLOC, LOAD, READONLY, CODE
  2 .rodata       00000024  08002214  08002214  00012214  2**2
                  CONTENTS, ALLOC, LOAD, READONLY, DATA
  3 .ARM.extab    00000000  08002238  08002238  0002001c  2**0
                  CONTENTS
  4 .ARM          00000000  08002238  08002238  0002001c  2**0
                  CONTENTS
  5 .preinit_array 00000000  08002238  08002238  0002001c  2**0
                  CONTENTS, ALLOC, LOAD, DATA
  6 .init_array   00000004  08002238  08002238  00012238  2**2
                  CONTENTS, ALLOC, LOAD, DATA
  7 .fini_array   00000004  0800223c  0800223c  0001223c  2**2
                  CONTENTS, ALLOC, LOAD, DATA
  8 .data         0000001c  20000000  08002240  00020000  2**2
                  CONTENTS, ALLOC, LOAD, DATA
  9 .bss          00000084  2000001c  0800225c  0002001c  2**2
                  ALLOC
 10 ._user_heap_stack 00000600  200000a0  0800225c  000200a0  2**0
                  ALLOC
 11 .ARM.attributes 00000029  00000000  00000000  0002001c  2**0
                  CONTENTS, READONLY
 12 .debug_info   00008871  00000000  00000000  00020045  2**0
                  CONTENTS, READONLY, DEBUGGING, OCTETS
 13 .debug_abbrev 00001922  00000000  00000000  000288b6  2**0
                  CONTENTS, READONLY, DEBUGGING, OCTETS
 14 .debug_aranges 000009f0  00000000  00000000  0002a1d8  2**3
                  CONTENTS, READONLY, DEBUGGING, OCTETS
 15 .debug_ranges 00000900  00000000  00000000  0002abc8  2**3
                  CONTENTS, READONLY, DEBUGGING, OCTETS
 16 .debug_macro  00017316  00000000  00000000  0002b4c8  2**0
                  CONTENTS, READONLY, DEBUGGING, OCTETS
 17 .debug_line   0000af3e  00000000  00000000  000427de  2**0
                  CONTENTS, READONLY, DEBUGGING, OCTETS
 18 .debug_str    00084f87  00000000  00000000  0004d71c  2**0
                  CONTENTS, READONLY, DEBUGGING, OCTETS
 19 .comment      00000050  00000000  00000000  000d26a3  2**0
                  CONTENTS, READONLY
 20 .debug_frame  00002794  00000000  00000000  000d26f4  2**2
                  CONTENTS, READONLY, DEBUGGING, OCTETS

Disassembly of section .text:

0800010c <__do_global_dtors_aux>:
 800010c:	b510      	push	{r4, lr}
 800010e:	4c05      	ldr	r4, [pc, #20]	; (8000124 <__do_global_dtors_aux+0x18>)
 8000110:	7823      	ldrb	r3, [r4, #0]
 8000112:	b933      	cbnz	r3, 8000122 <__do_global_dtors_aux+0x16>
 8000114:	4b04      	ldr	r3, [pc, #16]	; (8000128 <__do_global_dtors_aux+0x1c>)
 8000116:	b113      	cbz	r3, 800011e <__do_global_dtors_aux+0x12>
 8000118:	4804      	ldr	r0, [pc, #16]	; (800012c <__do_global_dtors_aux+0x20>)
 800011a:	f3af 8000 	nop.w
 800011e:	2301      	movs	r3, #1
 8000120:	7023      	strb	r3, [r4, #0]
 8000122:	bd10      	pop	{r4, pc}
 8000124:	2000001c 	.word	0x2000001c
 8000128:	00000000 	.word	0x00000000
 800012c:	080021fc 	.word	0x080021fc

08000130 <frame_dummy>:
 8000130:	b508      	push	{r3, lr}
 8000132:	4b03      	ldr	r3, [pc, #12]	; (8000140 <frame_dummy+0x10>)
 8000134:	b11b      	cbz	r3, 800013e <frame_dummy+0xe>
 8000136:	4903      	ldr	r1, [pc, #12]	; (8000144 <frame_dummy+0x14>)
 8000138:	4803      	ldr	r0, [pc, #12]	; (8000148 <frame_dummy+0x18>)
 800013a:	f3af 8000 	nop.w
 800013e:	bd08      	pop	{r3, pc}
 8000140:	00000000 	.word	0x00000000
 8000144:	20000020 	.word	0x20000020
 8000148:	080021fc 	.word	0x080021fc

0800014c <display7SEG>:
const int MAX_LED = 4;
int index_led = 0;
int led_buffer [4] = {1 , 2 , 3 , 4};

/* Function to Display a Number on turned on 7-segment led*/
void display7SEG(int num){
 800014c:	b580      	push	{r7, lr}
 800014e:	b082      	sub	sp, #8
 8000150:	af00      	add	r7, sp, #0
 8000152:	6078      	str	r0, [r7, #4]
	if( num == 0)
 8000154:	687b      	ldr	r3, [r7, #4]
 8000156:	2b00      	cmp	r3, #0
 8000158:	d122      	bne.n	80001a0 <display7SEG+0x54>
	{
		HAL_GPIO_WritePin(SEG0_GPIO_Port, SEG0_Pin, GPIO_PIN_RESET);
 800015a:	2200      	movs	r2, #0
 800015c:	2101      	movs	r1, #1
 800015e:	48bd      	ldr	r0, [pc, #756]	; (8000454 <display7SEG+0x308>)
 8000160:	f001 f842 	bl	80011e8 <HAL_GPIO_WritePin>
		HAL_GPIO_WritePin(SEG1_GPIO_Port, SEG1_Pin, GPIO_PIN_RESET);
 8000164:	2200      	movs	r2, #0
 8000166:	2102      	movs	r1, #2
 8000168:	48ba      	ldr	r0, [pc, #744]	; (8000454 <display7SEG+0x308>)
 800016a:	f001 f83d 	bl	80011e8 <HAL_GPIO_WritePin>
		HAL_GPIO_WritePin(SEG2_GPIO_Port, SEG2_Pin, GPIO_PIN_RESET);
 800016e:	2200      	movs	r2, #0
 8000170:	2104      	movs	r1, #4
 8000172:	48b8      	ldr	r0, [pc, #736]	; (8000454 <display7SEG+0x308>)
 8000174:	f001 f838 	bl	80011e8 <HAL_GPIO_WritePin>
		HAL_GPIO_WritePin(SEG3_GPIO_Port, SEG3_Pin, GPIO_PIN_RESET);
 8000178:	2200      	movs	r2, #0
 800017a:	2108      	movs	r1, #8
 800017c:	48b5      	ldr	r0, [pc, #724]	; (8000454 <display7SEG+0x308>)
 800017e:	f001 f833 	bl	80011e8 <HAL_GPIO_WritePin>
		HAL_GPIO_WritePin(SEG4_GPIO_Port, SEG4_Pin, GPIO_PIN_RESET);
 8000182:	2200      	movs	r2, #0
 8000184:	2110      	movs	r1, #16
 8000186:	48b3      	ldr	r0, [pc, #716]	; (8000454 <display7SEG+0x308>)
 8000188:	f001 f82e 	bl	80011e8 <HAL_GPIO_WritePin>
		HAL_GPIO_WritePin(SEG5_GPIO_Port, SEG5_Pin, GPIO_PIN_RESET);
 800018c:	2200      	movs	r2, #0
 800018e:	2120      	movs	r1, #32
 8000190:	48b0      	ldr	r0, [pc, #704]	; (8000454 <display7SEG+0x308>)
 8000192:	f001 f829 	bl	80011e8 <HAL_GPIO_WritePin>
		HAL_GPIO_WritePin(SEG6_GPIO_Port, SEG6_Pin, GPIO_PIN_SET);
 8000196:	2201      	movs	r2, #1
 8000198:	2140      	movs	r1, #64	; 0x40
 800019a:	48ae      	ldr	r0, [pc, #696]	; (8000454 <display7SEG+0x308>)
 800019c:	f001 f824 	bl	80011e8 <HAL_GPIO_WritePin>
	}

	if(num == 1){
 80001a0:	687b      	ldr	r3, [r7, #4]
 80001a2:	2b01      	cmp	r3, #1
 80001a4:	d122      	bne.n	80001ec <display7SEG+0xa0>
		HAL_GPIO_WritePin(SEG0_GPIO_Port, SEG0_Pin, GPIO_PIN_SET);
 80001a6:	2201      	movs	r2, #1
 80001a8:	2101      	movs	r1, #1
 80001aa:	48aa      	ldr	r0, [pc, #680]	; (8000454 <display7SEG+0x308>)
 80001ac:	f001 f81c 	bl	80011e8 <HAL_GPIO_WritePin>
		HAL_GPIO_WritePin(SEG1_GPIO_Port, SEG1_Pin, GPIO_PIN_RESET);
 80001b0:	2200      	movs	r2, #0
 80001b2:	2102      	movs	r1, #2
 80001b4:	48a7      	ldr	r0, [pc, #668]	; (8000454 <display7SEG+0x308>)
 80001b6:	f001 f817 	bl	80011e8 <HAL_GPIO_WritePin>
		HAL_GPIO_WritePin(SEG2_GPIO_Port, SEG2_Pin, GPIO_PIN_RESET);
 80001ba:	2200      	movs	r2, #0
 80001bc:	2104      	movs	r1, #4
 80001be:	48a5      	ldr	r0, [pc, #660]	; (8000454 <display7SEG+0x308>)
 80001c0:	f001 f812 	bl	80011e8 <HAL_GPIO_WritePin>
		HAL_GPIO_WritePin(SEG3_GPIO_Port, SEG3_Pin, GPIO_PIN_SET );
 80001c4:	2201      	movs	r2, #1
 80001c6:	2108      	movs	r1, #8
 80001c8:	48a2      	ldr	r0, [pc, #648]	; (8000454 <display7SEG+0x308>)
 80001ca:	f001 f80d 	bl	80011e8 <HAL_GPIO_WritePin>
		HAL_GPIO_WritePin(SEG4_GPIO_Port, SEG4_Pin, GPIO_PIN_SET);
 80001ce:	2201      	movs	r2, #1
 80001d0:	2110      	movs	r1, #16
 80001d2:	48a0      	ldr	r0, [pc, #640]	; (8000454 <display7SEG+0x308>)
 80001d4:	f001 f808 	bl	80011e8 <HAL_GPIO_WritePin>
		HAL_GPIO_WritePin(SEG5_GPIO_Port, SEG5_Pin, GPIO_PIN_SET);
 80001d8:	2201      	movs	r2, #1
 80001da:	2120      	movs	r1, #32
 80001dc:	489d      	ldr	r0, [pc, #628]	; (8000454 <display7SEG+0x308>)
 80001de:	f001 f803 	bl	80011e8 <HAL_GPIO_WritePin>
		HAL_GPIO_WritePin(SEG6_GPIO_Port, SEG6_Pin, GPIO_PIN_SET);
 80001e2:	2201      	movs	r2, #1
 80001e4:	2140      	movs	r1, #64	; 0x40
 80001e6:	489b      	ldr	r0, [pc, #620]	; (8000454 <display7SEG+0x308>)
 80001e8:	f000 fffe 	bl	80011e8 <HAL_GPIO_WritePin>
	}

	if(num == 2){
 80001ec:	687b      	ldr	r3, [r7, #4]
 80001ee:	2b02      	cmp	r3, #2
 80001f0:	d122      	bne.n	8000238 <display7SEG+0xec>
		HAL_GPIO_WritePin(SEG0_GPIO_Port, SEG0_Pin, GPIO_PIN_RESET);
 80001f2:	2200      	movs	r2, #0
 80001f4:	2101      	movs	r1, #1
 80001f6:	4897      	ldr	r0, [pc, #604]	; (8000454 <display7SEG+0x308>)
 80001f8:	f000 fff6 	bl	80011e8 <HAL_GPIO_WritePin>
		HAL_GPIO_WritePin(SEG1_GPIO_Port, SEG1_Pin, GPIO_PIN_RESET);
 80001fc:	2200      	movs	r2, #0
 80001fe:	2102      	movs	r1, #2
 8000200:	4894      	ldr	r0, [pc, #592]	; (8000454 <display7SEG+0x308>)
 8000202:	f000 fff1 	bl	80011e8 <HAL_GPIO_WritePin>
		HAL_GPIO_WritePin(SEG2_GPIO_Port, SEG2_Pin, GPIO_PIN_SET);
 8000206:	2201      	movs	r2, #1
 8000208:	2104      	movs	r1, #4
 800020a:	4892      	ldr	r0, [pc, #584]	; (8000454 <display7SEG+0x308>)
 800020c:	f000 ffec 	bl	80011e8 <HAL_GPIO_WritePin>
		HAL_GPIO_WritePin(SEG3_GPIO_Port, SEG3_Pin, GPIO_PIN_RESET);
 8000210:	2200      	movs	r2, #0
 8000212:	2108      	movs	r1, #8
 8000214:	488f      	ldr	r0, [pc, #572]	; (8000454 <display7SEG+0x308>)
 8000216:	f000 ffe7 	bl	80011e8 <HAL_GPIO_WritePin>
		HAL_GPIO_WritePin(SEG4_GPIO_Port, SEG4_Pin, GPIO_PIN_RESET);
 800021a:	2200      	movs	r2, #0
 800021c:	2110      	movs	r1, #16
 800021e:	488d      	ldr	r0, [pc, #564]	; (8000454 <display7SEG+0x308>)
 8000220:	f000 ffe2 	bl	80011e8 <HAL_GPIO_WritePin>
		HAL_GPIO_WritePin(SEG5_GPIO_Port, SEG5_Pin, GPIO_PIN_SET);
 8000224:	2201      	movs	r2, #1
 8000226:	2120      	movs	r1, #32
 8000228:	488a      	ldr	r0, [pc, #552]	; (8000454 <display7SEG+0x308>)
 800022a:	f000 ffdd 	bl	80011e8 <HAL_GPIO_WritePin>
		HAL_GPIO_WritePin(SEG6_GPIO_Port, SEG6_Pin, GPIO_PIN_RESET);
 800022e:	2200      	movs	r2, #0
 8000230:	2140      	movs	r1, #64	; 0x40
 8000232:	4888      	ldr	r0, [pc, #544]	; (8000454 <display7SEG+0x308>)
 8000234:	f000 ffd8 	bl	80011e8 <HAL_GPIO_WritePin>
	}

	if(num == 3){
 8000238:	687b      	ldr	r3, [r7, #4]
 800023a:	2b03      	cmp	r3, #3
 800023c:	d122      	bne.n	8000284 <display7SEG+0x138>
		HAL_GPIO_WritePin(SEG0_GPIO_Port, SEG0_Pin, GPIO_PIN_RESET);
 800023e:	2200      	movs	r2, #0
 8000240:	2101      	movs	r1, #1
 8000242:	4884      	ldr	r0, [pc, #528]	; (8000454 <display7SEG+0x308>)
 8000244:	f000 ffd0 	bl	80011e8 <HAL_GPIO_WritePin>
		HAL_GPIO_WritePin(SEG1_GPIO_Port, SEG1_Pin, GPIO_PIN_RESET);
 8000248:	2200      	movs	r2, #0
 800024a:	2102      	movs	r1, #2
 800024c:	4881      	ldr	r0, [pc, #516]	; (8000454 <display7SEG+0x308>)
 800024e:	f000 ffcb 	bl	80011e8 <HAL_GPIO_WritePin>
		HAL_GPIO_WritePin(SEG2_GPIO_Port, SEG2_Pin, GPIO_PIN_RESET);
 8000252:	2200      	movs	r2, #0
 8000254:	2104      	movs	r1, #4
 8000256:	487f      	ldr	r0, [pc, #508]	; (8000454 <display7SEG+0x308>)
 8000258:	f000 ffc6 	bl	80011e8 <HAL_GPIO_WritePin>
		HAL_GPIO_WritePin(SEG3_GPIO_Port, SEG3_Pin, GPIO_PIN_RESET);
 800025c:	2200      	movs	r2, #0
 800025e:	2108      	movs	r1, #8
 8000260:	487c      	ldr	r0, [pc, #496]	; (8000454 <display7SEG+0x308>)
 8000262:	f000 ffc1 	bl	80011e8 <HAL_GPIO_WritePin>
		HAL_GPIO_WritePin(SEG4_GPIO_Port, SEG4_Pin, GPIO_PIN_SET);
 8000266:	2201      	movs	r2, #1
 8000268:	2110      	movs	r1, #16
 800026a:	487a      	ldr	r0, [pc, #488]	; (8000454 <display7SEG+0x308>)
 800026c:	f000 ffbc 	bl	80011e8 <HAL_GPIO_WritePin>
		HAL_GPIO_WritePin(SEG5_GPIO_Port, SEG5_Pin, GPIO_PIN_SET);
 8000270:	2201      	movs	r2, #1
 8000272:	2120      	movs	r1, #32
 8000274:	4877      	ldr	r0, [pc, #476]	; (8000454 <display7SEG+0x308>)
 8000276:	f000 ffb7 	bl	80011e8 <HAL_GPIO_WritePin>
		HAL_GPIO_WritePin(SEG6_GPIO_Port, SEG6_Pin, GPIO_PIN_RESET);
 800027a:	2200      	movs	r2, #0
 800027c:	2140      	movs	r1, #64	; 0x40
 800027e:	4875      	ldr	r0, [pc, #468]	; (8000454 <display7SEG+0x308>)
 8000280:	f000 ffb2 	bl	80011e8 <HAL_GPIO_WritePin>
	}

	if(num == 4){
 8000284:	687b      	ldr	r3, [r7, #4]
 8000286:	2b04      	cmp	r3, #4
 8000288:	d122      	bne.n	80002d0 <display7SEG+0x184>
		HAL_GPIO_WritePin(SEG0_GPIO_Port, SEG0_Pin, GPIO_PIN_SET);
 800028a:	2201      	movs	r2, #1
 800028c:	2101      	movs	r1, #1
 800028e:	4871      	ldr	r0, [pc, #452]	; (8000454 <display7SEG+0x308>)
 8000290:	f000 ffaa 	bl	80011e8 <HAL_GPIO_WritePin>
		HAL_GPIO_WritePin(SEG1_GPIO_Port, SEG1_Pin, GPIO_PIN_RESET);
 8000294:	2200      	movs	r2, #0
 8000296:	2102      	movs	r1, #2
 8000298:	486e      	ldr	r0, [pc, #440]	; (8000454 <display7SEG+0x308>)
 800029a:	f000 ffa5 	bl	80011e8 <HAL_GPIO_WritePin>
		HAL_GPIO_WritePin(SEG2_GPIO_Port, SEG2_Pin, GPIO_PIN_RESET);
 800029e:	2200      	movs	r2, #0
 80002a0:	2104      	movs	r1, #4
 80002a2:	486c      	ldr	r0, [pc, #432]	; (8000454 <display7SEG+0x308>)
 80002a4:	f000 ffa0 	bl	80011e8 <HAL_GPIO_WritePin>
		HAL_GPIO_WritePin(SEG3_GPIO_Port, SEG3_Pin, GPIO_PIN_SET);
 80002a8:	2201      	movs	r2, #1
 80002aa:	2108      	movs	r1, #8
 80002ac:	4869      	ldr	r0, [pc, #420]	; (8000454 <display7SEG+0x308>)
 80002ae:	f000 ff9b 	bl	80011e8 <HAL_GPIO_WritePin>
		HAL_GPIO_WritePin(SEG4_GPIO_Port, SEG4_Pin, GPIO_PIN_SET);
 80002b2:	2201      	movs	r2, #1
 80002b4:	2110      	movs	r1, #16
 80002b6:	4867      	ldr	r0, [pc, #412]	; (8000454 <display7SEG+0x308>)
 80002b8:	f000 ff96 	bl	80011e8 <HAL_GPIO_WritePin>
		HAL_GPIO_WritePin(SEG5_GPIO_Port, SEG5_Pin, GPIO_PIN_RESET);
 80002bc:	2200      	movs	r2, #0
 80002be:	2120      	movs	r1, #32
 80002c0:	4864      	ldr	r0, [pc, #400]	; (8000454 <display7SEG+0x308>)
 80002c2:	f000 ff91 	bl	80011e8 <HAL_GPIO_WritePin>
		HAL_GPIO_WritePin(SEG6_GPIO_Port, SEG6_Pin, GPIO_PIN_RESET);
 80002c6:	2200      	movs	r2, #0
 80002c8:	2140      	movs	r1, #64	; 0x40
 80002ca:	4862      	ldr	r0, [pc, #392]	; (8000454 <display7SEG+0x308>)
 80002cc:	f000 ff8c 	bl	80011e8 <HAL_GPIO_WritePin>
	}

	if(num == 5){
 80002d0:	687b      	ldr	r3, [r7, #4]
 80002d2:	2b05      	cmp	r3, #5
 80002d4:	d122      	bne.n	800031c <display7SEG+0x1d0>
		HAL_GPIO_WritePin(SEG0_GPIO_Port, SEG0_Pin, GPIO_PIN_RESET);
 80002d6:	2200      	movs	r2, #0
 80002d8:	2101      	movs	r1, #1
 80002da:	485e      	ldr	r0, [pc, #376]	; (8000454 <display7SEG+0x308>)
 80002dc:	f000 ff84 	bl	80011e8 <HAL_GPIO_WritePin>
		HAL_GPIO_WritePin(SEG1_GPIO_Port, SEG1_Pin, GPIO_PIN_SET);
 80002e0:	2201      	movs	r2, #1
 80002e2:	2102      	movs	r1, #2
 80002e4:	485b      	ldr	r0, [pc, #364]	; (8000454 <display7SEG+0x308>)
 80002e6:	f000 ff7f 	bl	80011e8 <HAL_GPIO_WritePin>
		HAL_GPIO_WritePin(SEG2_GPIO_Port, SEG2_Pin, GPIO_PIN_RESET);
 80002ea:	2200      	movs	r2, #0
 80002ec:	2104      	movs	r1, #4
 80002ee:	4859      	ldr	r0, [pc, #356]	; (8000454 <display7SEG+0x308>)
 80002f0:	f000 ff7a 	bl	80011e8 <HAL_GPIO_WritePin>
		HAL_GPIO_WritePin(SEG3_GPIO_Port, SEG3_Pin, GPIO_PIN_RESET);
 80002f4:	2200      	movs	r2, #0
 80002f6:	2108      	movs	r1, #8
 80002f8:	4856      	ldr	r0, [pc, #344]	; (8000454 <display7SEG+0x308>)
 80002fa:	f000 ff75 	bl	80011e8 <HAL_GPIO_WritePin>
		HAL_GPIO_WritePin(SEG4_GPIO_Port, SEG4_Pin, GPIO_PIN_SET);
 80002fe:	2201      	movs	r2, #1
 8000300:	2110      	movs	r1, #16
 8000302:	4854      	ldr	r0, [pc, #336]	; (8000454 <display7SEG+0x308>)
 8000304:	f000 ff70 	bl	80011e8 <HAL_GPIO_WritePin>
		HAL_GPIO_WritePin(SEG5_GPIO_Port, SEG5_Pin, GPIO_PIN_RESET);
 8000308:	2200      	movs	r2, #0
 800030a:	2120      	movs	r1, #32
 800030c:	4851      	ldr	r0, [pc, #324]	; (8000454 <display7SEG+0x308>)
 800030e:	f000 ff6b 	bl	80011e8 <HAL_GPIO_WritePin>
		HAL_GPIO_WritePin(SEG6_GPIO_Port, SEG6_Pin, GPIO_PIN_RESET);
 8000312:	2200      	movs	r2, #0
 8000314:	2140      	movs	r1, #64	; 0x40
 8000316:	484f      	ldr	r0, [pc, #316]	; (8000454 <display7SEG+0x308>)
 8000318:	f000 ff66 	bl	80011e8 <HAL_GPIO_WritePin>
	}

	if(num == 6){
 800031c:	687b      	ldr	r3, [r7, #4]
 800031e:	2b06      	cmp	r3, #6
 8000320:	d122      	bne.n	8000368 <display7SEG+0x21c>
		HAL_GPIO_WritePin(SEG0_GPIO_Port, SEG0_Pin, GPIO_PIN_RESET);
 8000322:	2200      	movs	r2, #0
 8000324:	2101      	movs	r1, #1
 8000326:	484b      	ldr	r0, [pc, #300]	; (8000454 <display7SEG+0x308>)
 8000328:	f000 ff5e 	bl	80011e8 <HAL_GPIO_WritePin>
		HAL_GPIO_WritePin(SEG1_GPIO_Port, SEG1_Pin, GPIO_PIN_SET);
 800032c:	2201      	movs	r2, #1
 800032e:	2102      	movs	r1, #2
 8000330:	4848      	ldr	r0, [pc, #288]	; (8000454 <display7SEG+0x308>)
 8000332:	f000 ff59 	bl	80011e8 <HAL_GPIO_WritePin>
		HAL_GPIO_WritePin(SEG2_GPIO_Port, SEG2_Pin, GPIO_PIN_RESET);
 8000336:	2200      	movs	r2, #0
 8000338:	2104      	movs	r1, #4
 800033a:	4846      	ldr	r0, [pc, #280]	; (8000454 <display7SEG+0x308>)
 800033c:	f000 ff54 	bl	80011e8 <HAL_GPIO_WritePin>
		HAL_GPIO_WritePin(SEG3_GPIO_Port, SEG3_Pin, GPIO_PIN_RESET);
 8000340:	2200      	movs	r2, #0
 8000342:	2108      	movs	r1, #8
 8000344:	4843      	ldr	r0, [pc, #268]	; (8000454 <display7SEG+0x308>)
 8000346:	f000 ff4f 	bl	80011e8 <HAL_GPIO_WritePin>
		HAL_GPIO_WritePin(SEG4_GPIO_Port, SEG4_Pin, GPIO_PIN_RESET);
 800034a:	2200      	movs	r2, #0
 800034c:	2110      	movs	r1, #16
 800034e:	4841      	ldr	r0, [pc, #260]	; (8000454 <display7SEG+0x308>)
 8000350:	f000 ff4a 	bl	80011e8 <HAL_GPIO_WritePin>
		HAL_GPIO_WritePin(SEG5_GPIO_Port, SEG5_Pin, GPIO_PIN_RESET);
 8000354:	2200      	movs	r2, #0
 8000356:	2120      	movs	r1, #32
 8000358:	483e      	ldr	r0, [pc, #248]	; (8000454 <display7SEG+0x308>)
 800035a:	f000 ff45 	bl	80011e8 <HAL_GPIO_WritePin>
		HAL_GPIO_WritePin(SEG6_GPIO_Port, SEG6_Pin, GPIO_PIN_RESET);
 800035e:	2200      	movs	r2, #0
 8000360:	2140      	movs	r1, #64	; 0x40
 8000362:	483c      	ldr	r0, [pc, #240]	; (8000454 <display7SEG+0x308>)
 8000364:	f000 ff40 	bl	80011e8 <HAL_GPIO_WritePin>
	}

	if(num == 7){
 8000368:	687b      	ldr	r3, [r7, #4]
 800036a:	2b07      	cmp	r3, #7
 800036c:	d122      	bne.n	80003b4 <display7SEG+0x268>
		HAL_GPIO_WritePin(SEG0_GPIO_Port, SEG0_Pin, GPIO_PIN_RESET);
 800036e:	2200      	movs	r2, #0
 8000370:	2101      	movs	r1, #1
 8000372:	4838      	ldr	r0, [pc, #224]	; (8000454 <display7SEG+0x308>)
 8000374:	f000 ff38 	bl	80011e8 <HAL_GPIO_WritePin>
		HAL_GPIO_WritePin(SEG1_GPIO_Port, SEG1_Pin, GPIO_PIN_RESET);
 8000378:	2200      	movs	r2, #0
 800037a:	2102      	movs	r1, #2
 800037c:	4835      	ldr	r0, [pc, #212]	; (8000454 <display7SEG+0x308>)
 800037e:	f000 ff33 	bl	80011e8 <HAL_GPIO_WritePin>
		HAL_GPIO_WritePin(SEG2_GPIO_Port, SEG2_Pin, GPIO_PIN_RESET);
 8000382:	2200      	movs	r2, #0
 8000384:	2104      	movs	r1, #4
 8000386:	4833      	ldr	r0, [pc, #204]	; (8000454 <display7SEG+0x308>)
 8000388:	f000 ff2e 	bl	80011e8 <HAL_GPIO_WritePin>
		HAL_GPIO_WritePin(SEG3_GPIO_Port, SEG3_Pin, GPIO_PIN_SET);
 800038c:	2201      	movs	r2, #1
 800038e:	2108      	movs	r1, #8
 8000390:	4830      	ldr	r0, [pc, #192]	; (8000454 <display7SEG+0x308>)
 8000392:	f000 ff29 	bl	80011e8 <HAL_GPIO_WritePin>
		HAL_GPIO_WritePin(SEG4_GPIO_Port, SEG4_Pin, GPIO_PIN_SET);
 8000396:	2201      	movs	r2, #1
 8000398:	2110      	movs	r1, #16
 800039a:	482e      	ldr	r0, [pc, #184]	; (8000454 <display7SEG+0x308>)
 800039c:	f000 ff24 	bl	80011e8 <HAL_GPIO_WritePin>
		HAL_GPIO_WritePin(SEG5_GPIO_Port, SEG5_Pin, GPIO_PIN_SET);
 80003a0:	2201      	movs	r2, #1
 80003a2:	2120      	movs	r1, #32
 80003a4:	482b      	ldr	r0, [pc, #172]	; (8000454 <display7SEG+0x308>)
 80003a6:	f000 ff1f 	bl	80011e8 <HAL_GPIO_WritePin>
		HAL_GPIO_WritePin(SEG6_GPIO_Port, SEG6_Pin, GPIO_PIN_SET);
 80003aa:	2201      	movs	r2, #1
 80003ac:	2140      	movs	r1, #64	; 0x40
 80003ae:	4829      	ldr	r0, [pc, #164]	; (8000454 <display7SEG+0x308>)
 80003b0:	f000 ff1a 	bl	80011e8 <HAL_GPIO_WritePin>
	}

	if(num == 8){
 80003b4:	687b      	ldr	r3, [r7, #4]
 80003b6:	2b08      	cmp	r3, #8
 80003b8:	d122      	bne.n	8000400 <display7SEG+0x2b4>
		HAL_GPIO_WritePin(SEG0_GPIO_Port, SEG0_Pin, GPIO_PIN_RESET);
 80003ba:	2200      	movs	r2, #0
 80003bc:	2101      	movs	r1, #1
 80003be:	4825      	ldr	r0, [pc, #148]	; (8000454 <display7SEG+0x308>)
 80003c0:	f000 ff12 	bl	80011e8 <HAL_GPIO_WritePin>
		HAL_GPIO_WritePin(SEG1_GPIO_Port, SEG1_Pin, GPIO_PIN_RESET);
 80003c4:	2200      	movs	r2, #0
 80003c6:	2102      	movs	r1, #2
 80003c8:	4822      	ldr	r0, [pc, #136]	; (8000454 <display7SEG+0x308>)
 80003ca:	f000 ff0d 	bl	80011e8 <HAL_GPIO_WritePin>
		HAL_GPIO_WritePin(SEG2_GPIO_Port, SEG2_Pin, GPIO_PIN_RESET);
 80003ce:	2200      	movs	r2, #0
 80003d0:	2104      	movs	r1, #4
 80003d2:	4820      	ldr	r0, [pc, #128]	; (8000454 <display7SEG+0x308>)
 80003d4:	f000 ff08 	bl	80011e8 <HAL_GPIO_WritePin>
		HAL_GPIO_WritePin(SEG3_GPIO_Port, SEG3_Pin, GPIO_PIN_RESET);
 80003d8:	2200      	movs	r2, #0
 80003da:	2108      	movs	r1, #8
 80003dc:	481d      	ldr	r0, [pc, #116]	; (8000454 <display7SEG+0x308>)
 80003de:	f000 ff03 	bl	80011e8 <HAL_GPIO_WritePin>
		HAL_GPIO_WritePin(SEG4_GPIO_Port, SEG4_Pin, GPIO_PIN_RESET);
 80003e2:	2200      	movs	r2, #0
 80003e4:	2110      	movs	r1, #16
 80003e6:	481b      	ldr	r0, [pc, #108]	; (8000454 <display7SEG+0x308>)
 80003e8:	f000 fefe 	bl	80011e8 <HAL_GPIO_WritePin>
		HAL_GPIO_WritePin(SEG5_GPIO_Port, SEG5_Pin, GPIO_PIN_RESET);
 80003ec:	2200      	movs	r2, #0
 80003ee:	2120      	movs	r1, #32
 80003f0:	4818      	ldr	r0, [pc, #96]	; (8000454 <display7SEG+0x308>)
 80003f2:	f000 fef9 	bl	80011e8 <HAL_GPIO_WritePin>
		HAL_GPIO_WritePin(SEG6_GPIO_Port, SEG6_Pin, GPIO_PIN_RESET);
 80003f6:	2200      	movs	r2, #0
 80003f8:	2140      	movs	r1, #64	; 0x40
 80003fa:	4816      	ldr	r0, [pc, #88]	; (8000454 <display7SEG+0x308>)
 80003fc:	f000 fef4 	bl	80011e8 <HAL_GPIO_WritePin>
	}

	if(num == 9){
 8000400:	687b      	ldr	r3, [r7, #4]
 8000402:	2b09      	cmp	r3, #9
 8000404:	d122      	bne.n	800044c <display7SEG+0x300>
		HAL_GPIO_WritePin(SEG0_GPIO_Port, SEG0_Pin, GPIO_PIN_RESET);
 8000406:	2200      	movs	r2, #0
 8000408:	2101      	movs	r1, #1
 800040a:	4812      	ldr	r0, [pc, #72]	; (8000454 <display7SEG+0x308>)
 800040c:	f000 feec 	bl	80011e8 <HAL_GPIO_WritePin>
		HAL_GPIO_WritePin(SEG1_GPIO_Port, SEG1_Pin, GPIO_PIN_RESET);
 8000410:	2200      	movs	r2, #0
 8000412:	2102      	movs	r1, #2
 8000414:	480f      	ldr	r0, [pc, #60]	; (8000454 <display7SEG+0x308>)
 8000416:	f000 fee7 	bl	80011e8 <HAL_GPIO_WritePin>
		HAL_GPIO_WritePin(SEG2_GPIO_Port, SEG2_Pin, GPIO_PIN_RESET);
 800041a:	2200      	movs	r2, #0
 800041c:	2104      	movs	r1, #4
 800041e:	480d      	ldr	r0, [pc, #52]	; (8000454 <display7SEG+0x308>)
 8000420:	f000 fee2 	bl	80011e8 <HAL_GPIO_WritePin>
		HAL_GPIO_WritePin(SEG3_GPIO_Port, SEG3_Pin, GPIO_PIN_RESET);
 8000424:	2200      	movs	r2, #0
 8000426:	2108      	movs	r1, #8
 8000428:	480a      	ldr	r0, [pc, #40]	; (8000454 <display7SEG+0x308>)
 800042a:	f000 fedd 	bl	80011e8 <HAL_GPIO_WritePin>
		HAL_GPIO_WritePin(SEG4_GPIO_Port, SEG4_Pin, GPIO_PIN_SET);
 800042e:	2201      	movs	r2, #1
 8000430:	2110      	movs	r1, #16
 8000432:	4808      	ldr	r0, [pc, #32]	; (8000454 <display7SEG+0x308>)
 8000434:	f000 fed8 	bl	80011e8 <HAL_GPIO_WritePin>
		HAL_GPIO_WritePin(SEG5_GPIO_Port, SEG5_Pin, GPIO_PIN_RESET);
 8000438:	2200      	movs	r2, #0
 800043a:	2120      	movs	r1, #32
 800043c:	4805      	ldr	r0, [pc, #20]	; (8000454 <display7SEG+0x308>)
 800043e:	f000 fed3 	bl	80011e8 <HAL_GPIO_WritePin>
		HAL_GPIO_WritePin(SEG6_GPIO_Port, SEG6_Pin, GPIO_PIN_RESET);
 8000442:	2200      	movs	r2, #0
 8000444:	2140      	movs	r1, #64	; 0x40
 8000446:	4803      	ldr	r0, [pc, #12]	; (8000454 <display7SEG+0x308>)
 8000448:	f000 fece 	bl	80011e8 <HAL_GPIO_WritePin>
	}
}
 800044c:	bf00      	nop
 800044e:	3708      	adds	r7, #8
 8000450:	46bd      	mov	sp, r7
 8000452:	bd80      	pop	{r7, pc}
 8000454:	40010c00 	.word	0x40010c00

08000458 <update7SEG>:

/* Function to update 7-segment led*/
void update7SEG(int index)
{
 8000458:	b580      	push	{r7, lr}
 800045a:	b082      	sub	sp, #8
 800045c:	af00      	add	r7, sp, #0
 800045e:	6078      	str	r0, [r7, #4]
	switch(index)
 8000460:	687b      	ldr	r3, [r7, #4]
 8000462:	2b03      	cmp	r3, #3
 8000464:	d87a      	bhi.n	800055c <update7SEG+0x104>
 8000466:	a201      	add	r2, pc, #4	; (adr r2, 800046c <update7SEG+0x14>)
 8000468:	f852 f023 	ldr.w	pc, [r2, r3, lsl #2]
 800046c:	0800047d 	.word	0x0800047d
 8000470:	080004b5 	.word	0x080004b5
 8000474:	080004ed 	.word	0x080004ed
 8000478:	08000525 	.word	0x08000525
	{
	case 0:
		HAL_GPIO_WritePin(EN0_GPIO_Port, EN0_Pin, GPIO_PIN_RESET);
 800047c:	2200      	movs	r2, #0
 800047e:	2140      	movs	r1, #64	; 0x40
 8000480:	4844      	ldr	r0, [pc, #272]	; (8000594 <update7SEG+0x13c>)
 8000482:	f000 feb1 	bl	80011e8 <HAL_GPIO_WritePin>
		HAL_GPIO_WritePin(EN1_GPIO_Port, EN1_Pin, GPIO_PIN_SET);
 8000486:	2201      	movs	r2, #1
 8000488:	2180      	movs	r1, #128	; 0x80
 800048a:	4842      	ldr	r0, [pc, #264]	; (8000594 <update7SEG+0x13c>)
 800048c:	f000 feac 	bl	80011e8 <HAL_GPIO_WritePin>
		HAL_GPIO_WritePin(EN2_GPIO_Port, EN2_Pin, GPIO_PIN_SET);
 8000490:	2201      	movs	r2, #1
 8000492:	f44f 7180 	mov.w	r1, #256	; 0x100
 8000496:	483f      	ldr	r0, [pc, #252]	; (8000594 <update7SEG+0x13c>)
 8000498:	f000 fea6 	bl	80011e8 <HAL_GPIO_WritePin>
		HAL_GPIO_WritePin(EN3_GPIO_Port, EN3_Pin, GPIO_PIN_SET);
 800049c:	2201      	movs	r2, #1
 800049e:	f44f 7100 	mov.w	r1, #512	; 0x200
 80004a2:	483c      	ldr	r0, [pc, #240]	; (8000594 <update7SEG+0x13c>)
 80004a4:	f000 fea0 	bl	80011e8 <HAL_GPIO_WritePin>
		display7SEG(led_buffer[0]);
 80004a8:	4b3b      	ldr	r3, [pc, #236]	; (8000598 <update7SEG+0x140>)
 80004aa:	681b      	ldr	r3, [r3, #0]
 80004ac:	4618      	mov	r0, r3
 80004ae:	f7ff fe4d 	bl	800014c <display7SEG>
		break;
 80004b2:	e06a      	b.n	800058a <update7SEG+0x132>
	case 1:
		HAL_GPIO_WritePin(EN0_GPIO_Port, EN0_Pin, GPIO_PIN_SET);
 80004b4:	2201      	movs	r2, #1
 80004b6:	2140      	movs	r1, #64	; 0x40
 80004b8:	4836      	ldr	r0, [pc, #216]	; (8000594 <update7SEG+0x13c>)
 80004ba:	f000 fe95 	bl	80011e8 <HAL_GPIO_WritePin>
		HAL_GPIO_WritePin(EN1_GPIO_Port, EN1_Pin, GPIO_PIN_RESET);
 80004be:	2200      	movs	r2, #0
 80004c0:	2180      	movs	r1, #128	; 0x80
 80004c2:	4834      	ldr	r0, [pc, #208]	; (8000594 <update7SEG+0x13c>)
 80004c4:	f000 fe90 	bl	80011e8 <HAL_GPIO_WritePin>
		HAL_GPIO_WritePin(EN2_GPIO_Port, EN2_Pin, GPIO_PIN_SET);
 80004c8:	2201      	movs	r2, #1
 80004ca:	f44f 7180 	mov.w	r1, #256	; 0x100
 80004ce:	4831      	ldr	r0, [pc, #196]	; (8000594 <update7SEG+0x13c>)
 80004d0:	f000 fe8a 	bl	80011e8 <HAL_GPIO_WritePin>
		HAL_GPIO_WritePin(EN3_GPIO_Port, EN3_Pin, GPIO_PIN_SET);
 80004d4:	2201      	movs	r2, #1
 80004d6:	f44f 7100 	mov.w	r1, #512	; 0x200
 80004da:	482e      	ldr	r0, [pc, #184]	; (8000594 <update7SEG+0x13c>)
 80004dc:	f000 fe84 	bl	80011e8 <HAL_GPIO_WritePin>
		display7SEG(led_buffer[1]);
 80004e0:	4b2d      	ldr	r3, [pc, #180]	; (8000598 <update7SEG+0x140>)
 80004e2:	685b      	ldr	r3, [r3, #4]
 80004e4:	4618      	mov	r0, r3
 80004e6:	f7ff fe31 	bl	800014c <display7SEG>
		break;
 80004ea:	e04e      	b.n	800058a <update7SEG+0x132>
	case 2:
		HAL_GPIO_WritePin(EN0_GPIO_Port, EN0_Pin, GPIO_PIN_SET);
 80004ec:	2201      	movs	r2, #1
 80004ee:	2140      	movs	r1, #64	; 0x40
 80004f0:	4828      	ldr	r0, [pc, #160]	; (8000594 <update7SEG+0x13c>)
 80004f2:	f000 fe79 	bl	80011e8 <HAL_GPIO_WritePin>
		HAL_GPIO_WritePin(EN1_GPIO_Port, EN1_Pin, GPIO_PIN_SET);
 80004f6:	2201      	movs	r2, #1
 80004f8:	2180      	movs	r1, #128	; 0x80
 80004fa:	4826      	ldr	r0, [pc, #152]	; (8000594 <update7SEG+0x13c>)
 80004fc:	f000 fe74 	bl	80011e8 <HAL_GPIO_WritePin>
		HAL_GPIO_WritePin(EN2_GPIO_Port, EN2_Pin, GPIO_PIN_RESET);
 8000500:	2200      	movs	r2, #0
 8000502:	f44f 7180 	mov.w	r1, #256	; 0x100
 8000506:	4823      	ldr	r0, [pc, #140]	; (8000594 <update7SEG+0x13c>)
 8000508:	f000 fe6e 	bl	80011e8 <HAL_GPIO_WritePin>
		HAL_GPIO_WritePin(EN3_GPIO_Port, EN3_Pin, GPIO_PIN_SET);
 800050c:	2201      	movs	r2, #1
 800050e:	f44f 7100 	mov.w	r1, #512	; 0x200
 8000512:	4820      	ldr	r0, [pc, #128]	; (8000594 <update7SEG+0x13c>)
 8000514:	f000 fe68 	bl	80011e8 <HAL_GPIO_WritePin>
		display7SEG(led_buffer[2]);
 8000518:	4b1f      	ldr	r3, [pc, #124]	; (8000598 <update7SEG+0x140>)
 800051a:	689b      	ldr	r3, [r3, #8]
 800051c:	4618      	mov	r0, r3
 800051e:	f7ff fe15 	bl	800014c <display7SEG>
		break;
 8000522:	e032      	b.n	800058a <update7SEG+0x132>
	case 3:
		HAL_GPIO_WritePin(EN0_GPIO_Port, EN0_Pin, GPIO_PIN_SET);
 8000524:	2201      	movs	r2, #1
 8000526:	2140      	movs	r1, #64	; 0x40
 8000528:	481a      	ldr	r0, [pc, #104]	; (8000594 <update7SEG+0x13c>)
 800052a:	f000 fe5d 	bl	80011e8 <HAL_GPIO_WritePin>
		HAL_GPIO_WritePin(EN1_GPIO_Port, EN1_Pin, GPIO_PIN_SET);
 800052e:	2201      	movs	r2, #1
 8000530:	2180      	movs	r1, #128	; 0x80
 8000532:	4818      	ldr	r0, [pc, #96]	; (8000594 <update7SEG+0x13c>)
 8000534:	f000 fe58 	bl	80011e8 <HAL_GPIO_WritePin>
		HAL_GPIO_WritePin(EN2_GPIO_Port, EN2_Pin, GPIO_PIN_SET);
 8000538:	2201      	movs	r2, #1
 800053a:	f44f 7180 	mov.w	r1, #256	; 0x100
 800053e:	4815      	ldr	r0, [pc, #84]	; (8000594 <update7SEG+0x13c>)
 8000540:	f000 fe52 	bl	80011e8 <HAL_GPIO_WritePin>
		HAL_GPIO_WritePin(EN3_GPIO_Port, EN3_Pin, GPIO_PIN_RESET);
 8000544:	2200      	movs	r2, #0
 8000546:	f44f 7100 	mov.w	r1, #512	; 0x200
 800054a:	4812      	ldr	r0, [pc, #72]	; (8000594 <update7SEG+0x13c>)
 800054c:	f000 fe4c 	bl	80011e8 <HAL_GPIO_WritePin>
		display7SEG(led_buffer[3]);
 8000550:	4b11      	ldr	r3, [pc, #68]	; (8000598 <update7SEG+0x140>)
 8000552:	68db      	ldr	r3, [r3, #12]
 8000554:	4618      	mov	r0, r3
 8000556:	f7ff fdf9 	bl	800014c <display7SEG>
		break;
 800055a:	e016      	b.n	800058a <update7SEG+0x132>
	default:
		HAL_GPIO_WritePin(EN0_GPIO_Port, EN0_Pin, GPIO_PIN_SET);
 800055c:	2201      	movs	r2, #1
 800055e:	2140      	movs	r1, #64	; 0x40
 8000560:	480c      	ldr	r0, [pc, #48]	; (8000594 <update7SEG+0x13c>)
 8000562:	f000 fe41 	bl	80011e8 <HAL_GPIO_WritePin>
		HAL_GPIO_WritePin(EN1_GPIO_Port, EN1_Pin, GPIO_PIN_SET);
 8000566:	2201      	movs	r2, #1
 8000568:	2180      	movs	r1, #128	; 0x80
 800056a:	480a      	ldr	r0, [pc, #40]	; (8000594 <update7SEG+0x13c>)
 800056c:	f000 fe3c 	bl	80011e8 <HAL_GPIO_WritePin>
		HAL_GPIO_WritePin(EN2_GPIO_Port, EN2_Pin, GPIO_PIN_SET);
 8000570:	2201      	movs	r2, #1
 8000572:	f44f 7180 	mov.w	r1, #256	; 0x100
 8000576:	4807      	ldr	r0, [pc, #28]	; (8000594 <update7SEG+0x13c>)
 8000578:	f000 fe36 	bl	80011e8 <HAL_GPIO_WritePin>
		HAL_GPIO_WritePin(EN3_GPIO_Port, EN3_Pin, GPIO_PIN_SET);
 800057c:	2201      	movs	r2, #1
 800057e:	f44f 7100 	mov.w	r1, #512	; 0x200
 8000582:	4804      	ldr	r0, [pc, #16]	; (8000594 <update7SEG+0x13c>)
 8000584:	f000 fe30 	bl	80011e8 <HAL_GPIO_WritePin>
		break;
 8000588:	bf00      	nop
	}
}
 800058a:	bf00      	nop
 800058c:	3708      	adds	r7, #8
 800058e:	46bd      	mov	sp, r7
 8000590:	bd80      	pop	{r7, pc}
 8000592:	bf00      	nop
 8000594:	40010800 	.word	0x40010800
 8000598:	20000000 	.word	0x20000000

0800059c <blink_led>:
	}
}

/* Function to blink led red*/
void blink_led(void)
{
 800059c:	b580      	push	{r7, lr}
 800059e:	af00      	add	r7, sp, #0
	switch(blink_status)
 80005a0:	4b20      	ldr	r3, [pc, #128]	; (8000624 <blink_led+0x88>)
 80005a2:	781b      	ldrb	r3, [r3, #0]
 80005a4:	2b02      	cmp	r3, #2
 80005a6:	d024      	beq.n	80005f2 <blink_led+0x56>
 80005a8:	2b02      	cmp	r3, #2
 80005aa:	dc33      	bgt.n	8000614 <blink_led+0x78>
 80005ac:	2b00      	cmp	r3, #0
 80005ae:	d002      	beq.n	80005b6 <blink_led+0x1a>
 80005b0:	2b01      	cmp	r3, #1
 80005b2:	d00d      	beq.n	80005d0 <blink_led+0x34>
			setTimer1(BLINK_ON_TIME);
			blink_status = BLINK_ON;
		}
		break;
	default:
		break;
 80005b4:	e02e      	b.n	8000614 <blink_led+0x78>
		HAL_GPIO_WritePin(LED_RED_GPIO_Port, LED_RED_Pin, GPIO_PIN_SET); /* Turn off led red*/
 80005b6:	2201      	movs	r2, #1
 80005b8:	2120      	movs	r1, #32
 80005ba:	481b      	ldr	r0, [pc, #108]	; (8000628 <blink_led+0x8c>)
 80005bc:	f000 fe14 	bl	80011e8 <HAL_GPIO_WritePin>
		blink_status = BLINK_ON;
 80005c0:	4b18      	ldr	r3, [pc, #96]	; (8000624 <blink_led+0x88>)
 80005c2:	2201      	movs	r2, #1
 80005c4:	701a      	strb	r2, [r3, #0]
		setTimer1(BLINK_ON_TIME);
 80005c6:	f44f 70fa 	mov.w	r0, #500	; 0x1f4
 80005ca:	f000 f9e7 	bl	800099c <setTimer1>
		break;
 80005ce:	e026      	b.n	800061e <blink_led+0x82>
		HAL_GPIO_WritePin(LED_RED_GPIO_Port, LED_RED_Pin, GPIO_PIN_RESET);
 80005d0:	2200      	movs	r2, #0
 80005d2:	2120      	movs	r1, #32
 80005d4:	4814      	ldr	r0, [pc, #80]	; (8000628 <blink_led+0x8c>)
 80005d6:	f000 fe07 	bl	80011e8 <HAL_GPIO_WritePin>
		if(timer1_flag == 1)
 80005da:	4b14      	ldr	r3, [pc, #80]	; (800062c <blink_led+0x90>)
 80005dc:	681b      	ldr	r3, [r3, #0]
 80005de:	2b01      	cmp	r3, #1
 80005e0:	d11a      	bne.n	8000618 <blink_led+0x7c>
			setTimer1(BLINK_OFF_TIME);
 80005e2:	f44f 70fa 	mov.w	r0, #500	; 0x1f4
 80005e6:	f000 f9d9 	bl	800099c <setTimer1>
			blink_status = BLINK_OFF;
 80005ea:	4b0e      	ldr	r3, [pc, #56]	; (8000624 <blink_led+0x88>)
 80005ec:	2202      	movs	r2, #2
 80005ee:	701a      	strb	r2, [r3, #0]
		break;
 80005f0:	e012      	b.n	8000618 <blink_led+0x7c>
		HAL_GPIO_WritePin(LED_RED_GPIO_Port, LED_RED_Pin, GPIO_PIN_SET);
 80005f2:	2201      	movs	r2, #1
 80005f4:	2120      	movs	r1, #32
 80005f6:	480c      	ldr	r0, [pc, #48]	; (8000628 <blink_led+0x8c>)
 80005f8:	f000 fdf6 	bl	80011e8 <HAL_GPIO_WritePin>
		if(timer1_flag == 1)
 80005fc:	4b0b      	ldr	r3, [pc, #44]	; (800062c <blink_led+0x90>)
 80005fe:	681b      	ldr	r3, [r3, #0]
 8000600:	2b01      	cmp	r3, #1
 8000602:	d10b      	bne.n	800061c <blink_led+0x80>
			setTimer1(BLINK_ON_TIME);
 8000604:	f44f 70fa 	mov.w	r0, #500	; 0x1f4
 8000608:	f000 f9c8 	bl	800099c <setTimer1>
			blink_status = BLINK_ON;
 800060c:	4b05      	ldr	r3, [pc, #20]	; (8000624 <blink_led+0x88>)
 800060e:	2201      	movs	r2, #1
 8000610:	701a      	strb	r2, [r3, #0]
		break;
 8000612:	e003      	b.n	800061c <blink_led+0x80>
		break;
 8000614:	bf00      	nop
 8000616:	e002      	b.n	800061e <blink_led+0x82>
		break;
 8000618:	bf00      	nop
 800061a:	e000      	b.n	800061e <blink_led+0x82>
		break;
 800061c:	bf00      	nop
	}
}
 800061e:	bf00      	nop
 8000620:	bd80      	pop	{r7, pc}
 8000622:	bf00      	nop
 8000624:	20000039 	.word	0x20000039
 8000628:	40010800 	.word	0x40010800
 800062c:	20000088 	.word	0x20000088

08000630 <blink_dot>:

/* Function to blink dot*/
void blink_dot(void)
{
 8000630:	b580      	push	{r7, lr}
 8000632:	af00      	add	r7, sp, #0
	switch(blink_dot_status)
 8000634:	4b20      	ldr	r3, [pc, #128]	; (80006b8 <blink_dot+0x88>)
 8000636:	781b      	ldrb	r3, [r3, #0]
 8000638:	2b02      	cmp	r3, #2
 800063a:	d024      	beq.n	8000686 <blink_dot+0x56>
 800063c:	2b02      	cmp	r3, #2
 800063e:	dc33      	bgt.n	80006a8 <blink_dot+0x78>
 8000640:	2b00      	cmp	r3, #0
 8000642:	d002      	beq.n	800064a <blink_dot+0x1a>
 8000644:	2b01      	cmp	r3, #1
 8000646:	d00d      	beq.n	8000664 <blink_dot+0x34>
			setTimer3(DOT_ON_TIME);
			blink_dot_status = DOT_ON;
		}
		break;
	default:
		break;
 8000648:	e02e      	b.n	80006a8 <blink_dot+0x78>
		HAL_GPIO_WritePin(DOT_GPIO_Port, DOT_Pin, GPIO_PIN_SET);
 800064a:	2201      	movs	r2, #1
 800064c:	2110      	movs	r1, #16
 800064e:	481b      	ldr	r0, [pc, #108]	; (80006bc <blink_dot+0x8c>)
 8000650:	f000 fdca 	bl	80011e8 <HAL_GPIO_WritePin>
		blink_dot_status = DOT_ON;
 8000654:	4b18      	ldr	r3, [pc, #96]	; (80006b8 <blink_dot+0x88>)
 8000656:	2201      	movs	r2, #1
 8000658:	701a      	strb	r2, [r3, #0]
		setTimer3(DOT_ON_TIME);
 800065a:	f44f 707a 	mov.w	r0, #1000	; 0x3e8
 800065e:	f000 f9d5 	bl	8000a0c <setTimer3>
		break;
 8000662:	e026      	b.n	80006b2 <blink_dot+0x82>
		HAL_GPIO_WritePin(DOT_GPIO_Port, DOT_Pin, GPIO_PIN_RESET);
 8000664:	2200      	movs	r2, #0
 8000666:	2110      	movs	r1, #16
 8000668:	4814      	ldr	r0, [pc, #80]	; (80006bc <blink_dot+0x8c>)
 800066a:	f000 fdbd 	bl	80011e8 <HAL_GPIO_WritePin>
		if(timer3_flag == 1)
 800066e:	4b14      	ldr	r3, [pc, #80]	; (80006c0 <blink_dot+0x90>)
 8000670:	681b      	ldr	r3, [r3, #0]
 8000672:	2b01      	cmp	r3, #1
 8000674:	d11a      	bne.n	80006ac <blink_dot+0x7c>
			setTimer3(DOT_OFF_TIME);
 8000676:	f44f 707a 	mov.w	r0, #1000	; 0x3e8
 800067a:	f000 f9c7 	bl	8000a0c <setTimer3>
			blink_dot_status = DOT_OFF;
 800067e:	4b0e      	ldr	r3, [pc, #56]	; (80006b8 <blink_dot+0x88>)
 8000680:	2202      	movs	r2, #2
 8000682:	701a      	strb	r2, [r3, #0]
		break;
 8000684:	e012      	b.n	80006ac <blink_dot+0x7c>
		HAL_GPIO_WritePin(DOT_GPIO_Port, DOT_Pin, GPIO_PIN_SET);
 8000686:	2201      	movs	r2, #1
 8000688:	2110      	movs	r1, #16
 800068a:	480c      	ldr	r0, [pc, #48]	; (80006bc <blink_dot+0x8c>)
 800068c:	f000 fdac 	bl	80011e8 <HAL_GPIO_WritePin>
		if(timer3_flag == 1)
 8000690:	4b0b      	ldr	r3, [pc, #44]	; (80006c0 <blink_dot+0x90>)
 8000692:	681b      	ldr	r3, [r3, #0]
 8000694:	2b01      	cmp	r3, #1
 8000696:	d10b      	bne.n	80006b0 <blink_dot+0x80>
			setTimer3(DOT_ON_TIME);
 8000698:	f44f 707a 	mov.w	r0, #1000	; 0x3e8
 800069c:	f000 f9b6 	bl	8000a0c <setTimer3>
			blink_dot_status = DOT_ON;
 80006a0:	4b05      	ldr	r3, [pc, #20]	; (80006b8 <blink_dot+0x88>)
 80006a2:	2201      	movs	r2, #1
 80006a4:	701a      	strb	r2, [r3, #0]
		break;
 80006a6:	e003      	b.n	80006b0 <blink_dot+0x80>
		break;
 80006a8:	bf00      	nop
 80006aa:	e002      	b.n	80006b2 <blink_dot+0x82>
		break;
 80006ac:	bf00      	nop
 80006ae:	e000      	b.n	80006b2 <blink_dot+0x82>
		break;
 80006b0:	bf00      	nop

	}
}
 80006b2:	bf00      	nop
 80006b4:	bd80      	pop	{r7, pc}
 80006b6:	bf00      	nop
 80006b8:	2000003a 	.word	0x2000003a
 80006bc:	40010800 	.word	0x40010800
 80006c0:	20000098 	.word	0x20000098

080006c4 <scan_led>:

/* Function to scan led using update7SEG() function*/
void scan_led(void)
{
 80006c4:	b580      	push	{r7, lr}
 80006c6:	af00      	add	r7, sp, #0
	switch(scan_led_status)
 80006c8:	4b31      	ldr	r3, [pc, #196]	; (8000790 <scan_led+0xcc>)
 80006ca:	781b      	ldrb	r3, [r3, #0]
 80006cc:	2b04      	cmp	r3, #4
 80006ce:	d854      	bhi.n	800077a <scan_led+0xb6>
 80006d0:	a201      	add	r2, pc, #4	; (adr r2, 80006d8 <scan_led+0x14>)
 80006d2:	f852 f023 	ldr.w	pc, [r2, r3, lsl #2]
 80006d6:	bf00      	nop
 80006d8:	080006ed 	.word	0x080006ed
 80006dc:	08000703 	.word	0x08000703
 80006e0:	08000721 	.word	0x08000721
 80006e4:	0800073f 	.word	0x0800073f
 80006e8:	0800075d 	.word	0x0800075d
	{
	case INIT:
		update7SEG(4); /* Turn of all 7-segment led*/
 80006ec:	2004      	movs	r0, #4
 80006ee:	f7ff feb3 	bl	8000458 <update7SEG>
		scan_led_status = LED0;
 80006f2:	4b27      	ldr	r3, [pc, #156]	; (8000790 <scan_led+0xcc>)
 80006f4:	2201      	movs	r2, #1
 80006f6:	701a      	strb	r2, [r3, #0]
		setTimer2(ON_TIME);
 80006f8:	f44f 70fa 	mov.w	r0, #500	; 0x1f4
 80006fc:	f000 f96a 	bl	80009d4 <setTimer2>
		break;
 8000700:	e044      	b.n	800078c <scan_led+0xc8>
	case LED0:
		update7SEG(0); /* Turn on only led 0*/
 8000702:	2000      	movs	r0, #0
 8000704:	f7ff fea8 	bl	8000458 <update7SEG>
		if(timer2_flag == 1)
 8000708:	4b22      	ldr	r3, [pc, #136]	; (8000794 <scan_led+0xd0>)
 800070a:	681b      	ldr	r3, [r3, #0]
 800070c:	2b01      	cmp	r3, #1
 800070e:	d136      	bne.n	800077e <scan_led+0xba>
		{
			setTimer2(ON_TIME);
 8000710:	f44f 70fa 	mov.w	r0, #500	; 0x1f4
 8000714:	f000 f95e 	bl	80009d4 <setTimer2>
			scan_led_status = LED1;
 8000718:	4b1d      	ldr	r3, [pc, #116]	; (8000790 <scan_led+0xcc>)
 800071a:	2202      	movs	r2, #2
 800071c:	701a      	strb	r2, [r3, #0]
		}
		break;
 800071e:	e02e      	b.n	800077e <scan_led+0xba>
	case LED1:
		update7SEG(1); /* Turn on only led 0*/
 8000720:	2001      	movs	r0, #1
 8000722:	f7ff fe99 	bl	8000458 <update7SEG>
		if(timer2_flag == 1)
 8000726:	4b1b      	ldr	r3, [pc, #108]	; (8000794 <scan_led+0xd0>)
 8000728:	681b      	ldr	r3, [r3, #0]
 800072a:	2b01      	cmp	r3, #1
 800072c:	d129      	bne.n	8000782 <scan_led+0xbe>
		{
			setTimer2(ON_TIME);
 800072e:	f44f 70fa 	mov.w	r0, #500	; 0x1f4
 8000732:	f000 f94f 	bl	80009d4 <setTimer2>
			scan_led_status = LED2;
 8000736:	4b16      	ldr	r3, [pc, #88]	; (8000790 <scan_led+0xcc>)
 8000738:	2203      	movs	r2, #3
 800073a:	701a      	strb	r2, [r3, #0]
		}
		break;
 800073c:	e021      	b.n	8000782 <scan_led+0xbe>
	case LED2:
		update7SEG(2); /* Turn on only led 0*/
 800073e:	2002      	movs	r0, #2
 8000740:	f7ff fe8a 	bl	8000458 <update7SEG>
		if(timer2_flag == 1)
 8000744:	4b13      	ldr	r3, [pc, #76]	; (8000794 <scan_led+0xd0>)
 8000746:	681b      	ldr	r3, [r3, #0]
 8000748:	2b01      	cmp	r3, #1
 800074a:	d11c      	bne.n	8000786 <scan_led+0xc2>
		{
			setTimer2(ON_TIME);
 800074c:	f44f 70fa 	mov.w	r0, #500	; 0x1f4
 8000750:	f000 f940 	bl	80009d4 <setTimer2>
			scan_led_status = LED3;
 8000754:	4b0e      	ldr	r3, [pc, #56]	; (8000790 <scan_led+0xcc>)
 8000756:	2204      	movs	r2, #4
 8000758:	701a      	strb	r2, [r3, #0]
		}
		break;
 800075a:	e014      	b.n	8000786 <scan_led+0xc2>
	case LED3:
		update7SEG(3); /* Turn on only led 0*/
 800075c:	2003      	movs	r0, #3
 800075e:	f7ff fe7b 	bl	8000458 <update7SEG>
		if(timer2_flag == 1)
 8000762:	4b0c      	ldr	r3, [pc, #48]	; (8000794 <scan_led+0xd0>)
 8000764:	681b      	ldr	r3, [r3, #0]
 8000766:	2b01      	cmp	r3, #1
 8000768:	d10f      	bne.n	800078a <scan_led+0xc6>
		{
			setTimer2(ON_TIME);
 800076a:	f44f 70fa 	mov.w	r0, #500	; 0x1f4
 800076e:	f000 f931 	bl	80009d4 <setTimer2>
			scan_led_status = LED0;
 8000772:	4b07      	ldr	r3, [pc, #28]	; (8000790 <scan_led+0xcc>)
 8000774:	2201      	movs	r2, #1
 8000776:	701a      	strb	r2, [r3, #0]
		}
		break;
 8000778:	e007      	b.n	800078a <scan_led+0xc6>
	default:
		break;
 800077a:	bf00      	nop
 800077c:	e006      	b.n	800078c <scan_led+0xc8>
		break;
 800077e:	bf00      	nop
 8000780:	e004      	b.n	800078c <scan_led+0xc8>
		break;
 8000782:	bf00      	nop
 8000784:	e002      	b.n	800078c <scan_led+0xc8>
		break;
 8000786:	bf00      	nop
 8000788:	e000      	b.n	800078c <scan_led+0xc8>
		break;
 800078a:	bf00      	nop
	}
}
 800078c:	bf00      	nop
 800078e:	bd80      	pop	{r7, pc}
 8000790:	20000038 	.word	0x20000038
 8000794:	20000090 	.word	0x20000090

08000798 <main>:
/**
  * @brief  The application entry point.
  * @retval int
  */
int main(void)
{
 8000798:	b580      	push	{r7, lr}
 800079a:	af00      	add	r7, sp, #0
  /* USER CODE END 1 */

  /* MCU Configuration--------------------------------------------------------*/

  /* Reset of all peripherals, Initializes the Flash interface and the Systick. */
  HAL_Init();
 800079c:	f000 fa38 	bl	8000c10 <HAL_Init>
  /* USER CODE BEGIN Init */

  /* USER CODE END Init */

  /* Configure the system clock */
  SystemClock_Config();
 80007a0:	f000 f810 	bl	80007c4 <SystemClock_Config>
  /* USER CODE BEGIN SysInit */

  /* USER CODE END SysInit */

  /* Initialize all configured peripherals */
  MX_GPIO_Init();
 80007a4:	f000 f896 	bl	80008d4 <MX_GPIO_Init>
  MX_TIM2_Init();
 80007a8:	f000 f848 	bl	800083c <MX_TIM2_Init>
  /* USER CODE BEGIN 2 */
  HAL_TIM_Base_Start_IT(& htim2); /*function to initialize the timer*/
 80007ac:	4804      	ldr	r0, [pc, #16]	; (80007c0 <main+0x28>)
 80007ae:	f001 f961 	bl	8001a74 <HAL_TIM_Base_Start_IT>
  /* Infinite loop */
  /* USER CODE BEGIN WHILE */

  while (1)
  {
	  blink_led();
 80007b2:	f7ff fef3 	bl	800059c <blink_led>
//	  fsm_automatic_run();
	  blink_dot();
 80007b6:	f7ff ff3b 	bl	8000630 <blink_dot>
	  scan_led();
 80007ba:	f7ff ff83 	bl	80006c4 <scan_led>
	  blink_led();
 80007be:	e7f8      	b.n	80007b2 <main+0x1a>
 80007c0:	2000003c 	.word	0x2000003c

080007c4 <SystemClock_Config>:
/**
  * @brief System Clock Configuration
  * @retval None
  */
void SystemClock_Config(void)
{
 80007c4:	b580      	push	{r7, lr}
 80007c6:	b090      	sub	sp, #64	; 0x40
 80007c8:	af00      	add	r7, sp, #0
  RCC_OscInitTypeDef RCC_OscInitStruct = {0};
 80007ca:	f107 0318 	add.w	r3, r7, #24
 80007ce:	2228      	movs	r2, #40	; 0x28
 80007d0:	2100      	movs	r1, #0
 80007d2:	4618      	mov	r0, r3
 80007d4:	f001 fd0a 	bl	80021ec <memset>
  RCC_ClkInitTypeDef RCC_ClkInitStruct = {0};
 80007d8:	1d3b      	adds	r3, r7, #4
 80007da:	2200      	movs	r2, #0
 80007dc:	601a      	str	r2, [r3, #0]
 80007de:	605a      	str	r2, [r3, #4]
 80007e0:	609a      	str	r2, [r3, #8]
 80007e2:	60da      	str	r2, [r3, #12]
 80007e4:	611a      	str	r2, [r3, #16]

  /** Initializes the RCC Oscillators according to the specified parameters
  * in the RCC_OscInitTypeDef structure.
  */
  RCC_OscInitStruct.OscillatorType = RCC_OSCILLATORTYPE_HSI;
 80007e6:	2302      	movs	r3, #2
 80007e8:	61bb      	str	r3, [r7, #24]
  RCC_OscInitStruct.HSIState = RCC_HSI_ON;
 80007ea:	2301      	movs	r3, #1
 80007ec:	62bb      	str	r3, [r7, #40]	; 0x28
  RCC_OscInitStruct.HSICalibrationValue = RCC_HSICALIBRATION_DEFAULT;
 80007ee:	2310      	movs	r3, #16
 80007f0:	62fb      	str	r3, [r7, #44]	; 0x2c
  RCC_OscInitStruct.PLL.PLLState = RCC_PLL_NONE;
 80007f2:	2300      	movs	r3, #0
 80007f4:	637b      	str	r3, [r7, #52]	; 0x34
  if (HAL_RCC_OscConfig(&RCC_OscInitStruct) != HAL_OK)
 80007f6:	f107 0318 	add.w	r3, r7, #24
 80007fa:	4618      	mov	r0, r3
 80007fc:	f000 fd0c 	bl	8001218 <HAL_RCC_OscConfig>
 8000800:	4603      	mov	r3, r0
 8000802:	2b00      	cmp	r3, #0
 8000804:	d001      	beq.n	800080a <SystemClock_Config+0x46>
  {
    Error_Handler();
 8000806:	f000 f8c3 	bl	8000990 <Error_Handler>
  }

  /** Initializes the CPU, AHB and APB buses clocks
  */
  RCC_ClkInitStruct.ClockType = RCC_CLOCKTYPE_HCLK|RCC_CLOCKTYPE_SYSCLK
 800080a:	230f      	movs	r3, #15
 800080c:	607b      	str	r3, [r7, #4]
                              |RCC_CLOCKTYPE_PCLK1|RCC_CLOCKTYPE_PCLK2;
  RCC_ClkInitStruct.SYSCLKSource = RCC_SYSCLKSOURCE_HSI;
 800080e:	2300      	movs	r3, #0
 8000810:	60bb      	str	r3, [r7, #8]
  RCC_ClkInitStruct.AHBCLKDivider = RCC_SYSCLK_DIV1;
 8000812:	2300      	movs	r3, #0
 8000814:	60fb      	str	r3, [r7, #12]
  RCC_ClkInitStruct.APB1CLKDivider = RCC_HCLK_DIV1;
 8000816:	2300      	movs	r3, #0
 8000818:	613b      	str	r3, [r7, #16]
  RCC_ClkInitStruct.APB2CLKDivider = RCC_HCLK_DIV1;
 800081a:	2300      	movs	r3, #0
 800081c:	617b      	str	r3, [r7, #20]

  if (HAL_RCC_ClockConfig(&RCC_ClkInitStruct, FLASH_LATENCY_0) != HAL_OK)
 800081e:	1d3b      	adds	r3, r7, #4
 8000820:	2100      	movs	r1, #0
 8000822:	4618      	mov	r0, r3
 8000824:	f000 ff7a 	bl	800171c <HAL_RCC_ClockConfig>
 8000828:	4603      	mov	r3, r0
 800082a:	2b00      	cmp	r3, #0
 800082c:	d001      	beq.n	8000832 <SystemClock_Config+0x6e>
  {
    Error_Handler();
 800082e:	f000 f8af 	bl	8000990 <Error_Handler>
  }
}
 8000832:	bf00      	nop
 8000834:	3740      	adds	r7, #64	; 0x40
 8000836:	46bd      	mov	sp, r7
 8000838:	bd80      	pop	{r7, pc}
	...

0800083c <MX_TIM2_Init>:
  * @brief TIM2 Initialization Function
  * @param None
  * @retval None
  */
static void MX_TIM2_Init(void)
{
 800083c:	b580      	push	{r7, lr}
 800083e:	b086      	sub	sp, #24
 8000840:	af00      	add	r7, sp, #0

  /* USER CODE BEGIN TIM2_Init 0 */

  /* USER CODE END TIM2_Init 0 */

  TIM_ClockConfigTypeDef sClockSourceConfig = {0};
 8000842:	f107 0308 	add.w	r3, r7, #8
 8000846:	2200      	movs	r2, #0
 8000848:	601a      	str	r2, [r3, #0]
 800084a:	605a      	str	r2, [r3, #4]
 800084c:	609a      	str	r2, [r3, #8]
 800084e:	60da      	str	r2, [r3, #12]
  TIM_MasterConfigTypeDef sMasterConfig = {0};
 8000850:	463b      	mov	r3, r7
 8000852:	2200      	movs	r2, #0
 8000854:	601a      	str	r2, [r3, #0]
 8000856:	605a      	str	r2, [r3, #4]

  /* USER CODE BEGIN TIM2_Init 1 */

  /* USER CODE END TIM2_Init 1 */
  htim2.Instance = TIM2;
 8000858:	4b1d      	ldr	r3, [pc, #116]	; (80008d0 <MX_TIM2_Init+0x94>)
 800085a:	f04f 4280 	mov.w	r2, #1073741824	; 0x40000000
 800085e:	601a      	str	r2, [r3, #0]
  htim2.Init.Prescaler = 7999;
 8000860:	4b1b      	ldr	r3, [pc, #108]	; (80008d0 <MX_TIM2_Init+0x94>)
 8000862:	f641 723f 	movw	r2, #7999	; 0x1f3f
 8000866:	605a      	str	r2, [r3, #4]
  htim2.Init.CounterMode = TIM_COUNTERMODE_UP;
 8000868:	4b19      	ldr	r3, [pc, #100]	; (80008d0 <MX_TIM2_Init+0x94>)
 800086a:	2200      	movs	r2, #0
 800086c:	609a      	str	r2, [r3, #8]
  htim2.Init.Period = 9;
 800086e:	4b18      	ldr	r3, [pc, #96]	; (80008d0 <MX_TIM2_Init+0x94>)
 8000870:	2209      	movs	r2, #9
 8000872:	60da      	str	r2, [r3, #12]
  htim2.Init.ClockDivision = TIM_CLOCKDIVISION_DIV1;
 8000874:	4b16      	ldr	r3, [pc, #88]	; (80008d0 <MX_TIM2_Init+0x94>)
 8000876:	2200      	movs	r2, #0
 8000878:	611a      	str	r2, [r3, #16]
  htim2.Init.AutoReloadPreload = TIM_AUTORELOAD_PRELOAD_DISABLE;
 800087a:	4b15      	ldr	r3, [pc, #84]	; (80008d0 <MX_TIM2_Init+0x94>)
 800087c:	2200      	movs	r2, #0
 800087e:	619a      	str	r2, [r3, #24]
  if (HAL_TIM_Base_Init(&htim2) != HAL_OK)
 8000880:	4813      	ldr	r0, [pc, #76]	; (80008d0 <MX_TIM2_Init+0x94>)
 8000882:	f001 f8a7 	bl	80019d4 <HAL_TIM_Base_Init>
 8000886:	4603      	mov	r3, r0
 8000888:	2b00      	cmp	r3, #0
 800088a:	d001      	beq.n	8000890 <MX_TIM2_Init+0x54>
  {
    Error_Handler();
 800088c:	f000 f880 	bl	8000990 <Error_Handler>
  }
  sClockSourceConfig.ClockSource = TIM_CLOCKSOURCE_INTERNAL;
 8000890:	f44f 5380 	mov.w	r3, #4096	; 0x1000
 8000894:	60bb      	str	r3, [r7, #8]
  if (HAL_TIM_ConfigClockSource(&htim2, &sClockSourceConfig) != HAL_OK)
 8000896:	f107 0308 	add.w	r3, r7, #8
 800089a:	4619      	mov	r1, r3
 800089c:	480c      	ldr	r0, [pc, #48]	; (80008d0 <MX_TIM2_Init+0x94>)
 800089e:	f001 fa3d 	bl	8001d1c <HAL_TIM_ConfigClockSource>
 80008a2:	4603      	mov	r3, r0
 80008a4:	2b00      	cmp	r3, #0
 80008a6:	d001      	beq.n	80008ac <MX_TIM2_Init+0x70>
  {
    Error_Handler();
 80008a8:	f000 f872 	bl	8000990 <Error_Handler>
  }
  sMasterConfig.MasterOutputTrigger = TIM_TRGO_RESET;
 80008ac:	2300      	movs	r3, #0
 80008ae:	603b      	str	r3, [r7, #0]
  sMasterConfig.MasterSlaveMode = TIM_MASTERSLAVEMODE_DISABLE;
 80008b0:	2300      	movs	r3, #0
 80008b2:	607b      	str	r3, [r7, #4]
  if (HAL_TIMEx_MasterConfigSynchronization(&htim2, &sMasterConfig) != HAL_OK)
 80008b4:	463b      	mov	r3, r7
 80008b6:	4619      	mov	r1, r3
 80008b8:	4805      	ldr	r0, [pc, #20]	; (80008d0 <MX_TIM2_Init+0x94>)
 80008ba:	f001 fc09 	bl	80020d0 <HAL_TIMEx_MasterConfigSynchronization>
 80008be:	4603      	mov	r3, r0
 80008c0:	2b00      	cmp	r3, #0
 80008c2:	d001      	beq.n	80008c8 <MX_TIM2_Init+0x8c>
  {
    Error_Handler();
 80008c4:	f000 f864 	bl	8000990 <Error_Handler>
  }
  /* USER CODE BEGIN TIM2_Init 2 */

  /* USER CODE END TIM2_Init 2 */

}
 80008c8:	bf00      	nop
 80008ca:	3718      	adds	r7, #24
 80008cc:	46bd      	mov	sp, r7
 80008ce:	bd80      	pop	{r7, pc}
 80008d0:	2000003c 	.word	0x2000003c

080008d4 <MX_GPIO_Init>:
  * @brief GPIO Initialization Function
  * @param None
  * @retval None
  */
static void MX_GPIO_Init(void)
{
 80008d4:	b580      	push	{r7, lr}
 80008d6:	b086      	sub	sp, #24
 80008d8:	af00      	add	r7, sp, #0
  GPIO_InitTypeDef GPIO_InitStruct = {0};
 80008da:	f107 0308 	add.w	r3, r7, #8
 80008de:	2200      	movs	r2, #0
 80008e0:	601a      	str	r2, [r3, #0]
 80008e2:	605a      	str	r2, [r3, #4]
 80008e4:	609a      	str	r2, [r3, #8]
 80008e6:	60da      	str	r2, [r3, #12]
/* USER CODE BEGIN MX_GPIO_Init_1 */
/* USER CODE END MX_GPIO_Init_1 */

  /* GPIO Ports Clock Enable */
  __HAL_RCC_GPIOA_CLK_ENABLE();
 80008e8:	4b21      	ldr	r3, [pc, #132]	; (8000970 <MX_GPIO_Init+0x9c>)
 80008ea:	699b      	ldr	r3, [r3, #24]
 80008ec:	4a20      	ldr	r2, [pc, #128]	; (8000970 <MX_GPIO_Init+0x9c>)
 80008ee:	f043 0304 	orr.w	r3, r3, #4
 80008f2:	6193      	str	r3, [r2, #24]
 80008f4:	4b1e      	ldr	r3, [pc, #120]	; (8000970 <MX_GPIO_Init+0x9c>)
 80008f6:	699b      	ldr	r3, [r3, #24]
 80008f8:	f003 0304 	and.w	r3, r3, #4
 80008fc:	607b      	str	r3, [r7, #4]
 80008fe:	687b      	ldr	r3, [r7, #4]
  __HAL_RCC_GPIOB_CLK_ENABLE();
 8000900:	4b1b      	ldr	r3, [pc, #108]	; (8000970 <MX_GPIO_Init+0x9c>)
 8000902:	699b      	ldr	r3, [r3, #24]
 8000904:	4a1a      	ldr	r2, [pc, #104]	; (8000970 <MX_GPIO_Init+0x9c>)
 8000906:	f043 0308 	orr.w	r3, r3, #8
 800090a:	6193      	str	r3, [r2, #24]
 800090c:	4b18      	ldr	r3, [pc, #96]	; (8000970 <MX_GPIO_Init+0x9c>)
 800090e:	699b      	ldr	r3, [r3, #24]
 8000910:	f003 0308 	and.w	r3, r3, #8
 8000914:	603b      	str	r3, [r7, #0]
 8000916:	683b      	ldr	r3, [r7, #0]

  /*Configure GPIO pin Output Level */
  HAL_GPIO_WritePin(GPIOA, DOT_Pin|LED_RED_Pin|EN0_Pin|EN1_Pin
 8000918:	2200      	movs	r2, #0
 800091a:	f44f 717c 	mov.w	r1, #1008	; 0x3f0
 800091e:	4815      	ldr	r0, [pc, #84]	; (8000974 <MX_GPIO_Init+0xa0>)
 8000920:	f000 fc62 	bl	80011e8 <HAL_GPIO_WritePin>
                          |EN2_Pin|EN3_Pin, GPIO_PIN_RESET);

  /*Configure GPIO pin Output Level */
  HAL_GPIO_WritePin(GPIOB, SEG0_Pin|SEG1_Pin|SEG2_Pin|SEG3_Pin
 8000924:	2200      	movs	r2, #0
 8000926:	217f      	movs	r1, #127	; 0x7f
 8000928:	4813      	ldr	r0, [pc, #76]	; (8000978 <MX_GPIO_Init+0xa4>)
 800092a:	f000 fc5d 	bl	80011e8 <HAL_GPIO_WritePin>
                          |SEG4_Pin|SEG5_Pin|SEG6_Pin, GPIO_PIN_RESET);

  /*Configure GPIO pins : DOT_Pin LED_RED_Pin EN0_Pin EN1_Pin
                           EN2_Pin EN3_Pin */
  GPIO_InitStruct.Pin = DOT_Pin|LED_RED_Pin|EN0_Pin|EN1_Pin
 800092e:	f44f 737c 	mov.w	r3, #1008	; 0x3f0
 8000932:	60bb      	str	r3, [r7, #8]
                          |EN2_Pin|EN3_Pin;
  GPIO_InitStruct.Mode = GPIO_MODE_OUTPUT_PP;
 8000934:	2301      	movs	r3, #1
 8000936:	60fb      	str	r3, [r7, #12]
  GPIO_InitStruct.Pull = GPIO_NOPULL;
 8000938:	2300      	movs	r3, #0
 800093a:	613b      	str	r3, [r7, #16]
  GPIO_InitStruct.Speed = GPIO_SPEED_FREQ_LOW;
 800093c:	2302      	movs	r3, #2
 800093e:	617b      	str	r3, [r7, #20]
  HAL_GPIO_Init(GPIOA, &GPIO_InitStruct);
 8000940:	f107 0308 	add.w	r3, r7, #8
 8000944:	4619      	mov	r1, r3
 8000946:	480b      	ldr	r0, [pc, #44]	; (8000974 <MX_GPIO_Init+0xa0>)
 8000948:	f000 fad2 	bl	8000ef0 <HAL_GPIO_Init>

  /*Configure GPIO pins : SEG0_Pin SEG1_Pin SEG2_Pin SEG3_Pin
                           SEG4_Pin SEG5_Pin SEG6_Pin */
  GPIO_InitStruct.Pin = SEG0_Pin|SEG1_Pin|SEG2_Pin|SEG3_Pin
 800094c:	237f      	movs	r3, #127	; 0x7f
 800094e:	60bb      	str	r3, [r7, #8]
                          |SEG4_Pin|SEG5_Pin|SEG6_Pin;
  GPIO_InitStruct.Mode = GPIO_MODE_OUTPUT_PP;
 8000950:	2301      	movs	r3, #1
 8000952:	60fb      	str	r3, [r7, #12]
  GPIO_InitStruct.Pull = GPIO_NOPULL;
 8000954:	2300      	movs	r3, #0
 8000956:	613b      	str	r3, [r7, #16]
  GPIO_InitStruct.Speed = GPIO_SPEED_FREQ_LOW;
 8000958:	2302      	movs	r3, #2
 800095a:	617b      	str	r3, [r7, #20]
  HAL_GPIO_Init(GPIOB, &GPIO_InitStruct);
 800095c:	f107 0308 	add.w	r3, r7, #8
 8000960:	4619      	mov	r1, r3
 8000962:	4805      	ldr	r0, [pc, #20]	; (8000978 <MX_GPIO_Init+0xa4>)
 8000964:	f000 fac4 	bl	8000ef0 <HAL_GPIO_Init>

/* USER CODE BEGIN MX_GPIO_Init_2 */
/* USER CODE END MX_GPIO_Init_2 */
}
 8000968:	bf00      	nop
 800096a:	3718      	adds	r7, #24
 800096c:	46bd      	mov	sp, r7
 800096e:	bd80      	pop	{r7, pc}
 8000970:	40021000 	.word	0x40021000
 8000974:	40010800 	.word	0x40010800
 8000978:	40010c00 	.word	0x40010c00

0800097c <HAL_TIM_PeriodElapsedCallback>:

/* USER CODE BEGIN 4 */
/*******************************************************
 Interrupt function is called every 10 ms
*******************************************************/
void HAL_TIM_PeriodElapsedCallback(TIM_HandleTypeDef *htim){
 800097c:	b580      	push	{r7, lr}
 800097e:	b082      	sub	sp, #8
 8000980:	af00      	add	r7, sp, #0
 8000982:	6078      	str	r0, [r7, #4]
	timerRun();
 8000984:	f000 f85e 	bl	8000a44 <timerRun>
}
 8000988:	bf00      	nop
 800098a:	3708      	adds	r7, #8
 800098c:	46bd      	mov	sp, r7
 800098e:	bd80      	pop	{r7, pc}

08000990 <Error_Handler>:
/**
  * @brief  This function is executed in case of error occurrence.
  * @retval None
  */
void Error_Handler(void)
{
 8000990:	b480      	push	{r7}
 8000992:	af00      	add	r7, sp, #0
  \details Disables IRQ interrupts by setting the I-bit in the CPSR.
           Can only be executed in Privileged modes.
 */
__STATIC_FORCEINLINE void __disable_irq(void)
{
  __ASM volatile ("cpsid i" : : : "memory");
 8000994:	b672      	cpsid	i
}
 8000996:	bf00      	nop
  /* USER CODE BEGIN Error_Handler_Debug */
  /* User can add his own implementation to report the HAL error return state */
  __disable_irq();
  while (1)
 8000998:	e7fe      	b.n	8000998 <Error_Handler+0x8>
	...

0800099c <setTimer1>:
 */
#include "software_timer.h"
int timer1_counter = 0;
int timer1_flag = 0;

void setTimer1(int duration){
 800099c:	b480      	push	{r7}
 800099e:	b083      	sub	sp, #12
 80009a0:	af00      	add	r7, sp, #0
 80009a2:	6078      	str	r0, [r7, #4]
	timer1_counter = duration/TICK;
 80009a4:	687b      	ldr	r3, [r7, #4]
 80009a6:	4a08      	ldr	r2, [pc, #32]	; (80009c8 <setTimer1+0x2c>)
 80009a8:	fb82 1203 	smull	r1, r2, r2, r3
 80009ac:	1092      	asrs	r2, r2, #2
 80009ae:	17db      	asrs	r3, r3, #31
 80009b0:	1ad3      	subs	r3, r2, r3
 80009b2:	4a06      	ldr	r2, [pc, #24]	; (80009cc <setTimer1+0x30>)
 80009b4:	6013      	str	r3, [r2, #0]
	timer1_flag = 0;
 80009b6:	4b06      	ldr	r3, [pc, #24]	; (80009d0 <setTimer1+0x34>)
 80009b8:	2200      	movs	r2, #0
 80009ba:	601a      	str	r2, [r3, #0]
}
 80009bc:	bf00      	nop
 80009be:	370c      	adds	r7, #12
 80009c0:	46bd      	mov	sp, r7
 80009c2:	bc80      	pop	{r7}
 80009c4:	4770      	bx	lr
 80009c6:	bf00      	nop
 80009c8:	66666667 	.word	0x66666667
 80009cc:	20000084 	.word	0x20000084
 80009d0:	20000088 	.word	0x20000088

080009d4 <setTimer2>:

int timer2_counter = 0;
int timer2_flag = 0;
void setTimer2(int duration)
{
 80009d4:	b480      	push	{r7}
 80009d6:	b083      	sub	sp, #12
 80009d8:	af00      	add	r7, sp, #0
 80009da:	6078      	str	r0, [r7, #4]
	timer2_counter = duration/TICK;
 80009dc:	687b      	ldr	r3, [r7, #4]
 80009de:	4a08      	ldr	r2, [pc, #32]	; (8000a00 <setTimer2+0x2c>)
 80009e0:	fb82 1203 	smull	r1, r2, r2, r3
 80009e4:	1092      	asrs	r2, r2, #2
 80009e6:	17db      	asrs	r3, r3, #31
 80009e8:	1ad3      	subs	r3, r2, r3
 80009ea:	4a06      	ldr	r2, [pc, #24]	; (8000a04 <setTimer2+0x30>)
 80009ec:	6013      	str	r3, [r2, #0]
	timer2_flag = 0;
 80009ee:	4b06      	ldr	r3, [pc, #24]	; (8000a08 <setTimer2+0x34>)
 80009f0:	2200      	movs	r2, #0
 80009f2:	601a      	str	r2, [r3, #0]
}
 80009f4:	bf00      	nop
 80009f6:	370c      	adds	r7, #12
 80009f8:	46bd      	mov	sp, r7
 80009fa:	bc80      	pop	{r7}
 80009fc:	4770      	bx	lr
 80009fe:	bf00      	nop
 8000a00:	66666667 	.word	0x66666667
 8000a04:	2000008c 	.word	0x2000008c
 8000a08:	20000090 	.word	0x20000090

08000a0c <setTimer3>:

int timer3_counter = 0;
int timer3_flag = 0;
void setTimer3(int duration)
{
 8000a0c:	b480      	push	{r7}
 8000a0e:	b083      	sub	sp, #12
 8000a10:	af00      	add	r7, sp, #0
 8000a12:	6078      	str	r0, [r7, #4]
	timer3_counter = duration/TICK;
 8000a14:	687b      	ldr	r3, [r7, #4]
 8000a16:	4a08      	ldr	r2, [pc, #32]	; (8000a38 <setTimer3+0x2c>)
 8000a18:	fb82 1203 	smull	r1, r2, r2, r3
 8000a1c:	1092      	asrs	r2, r2, #2
 8000a1e:	17db      	asrs	r3, r3, #31
 8000a20:	1ad3      	subs	r3, r2, r3
 8000a22:	4a06      	ldr	r2, [pc, #24]	; (8000a3c <setTimer3+0x30>)
 8000a24:	6013      	str	r3, [r2, #0]
	timer3_flag = 0;
 8000a26:	4b06      	ldr	r3, [pc, #24]	; (8000a40 <setTimer3+0x34>)
 8000a28:	2200      	movs	r2, #0
 8000a2a:	601a      	str	r2, [r3, #0]
}
 8000a2c:	bf00      	nop
 8000a2e:	370c      	adds	r7, #12
 8000a30:	46bd      	mov	sp, r7
 8000a32:	bc80      	pop	{r7}
 8000a34:	4770      	bx	lr
 8000a36:	bf00      	nop
 8000a38:	66666667 	.word	0x66666667
 8000a3c:	20000094 	.word	0x20000094
 8000a40:	20000098 	.word	0x20000098

08000a44 <timerRun>:

void timerRun(){
 8000a44:	b480      	push	{r7}
 8000a46:	af00      	add	r7, sp, #0
	if(timer1_counter > 0){
 8000a48:	4b19      	ldr	r3, [pc, #100]	; (8000ab0 <timerRun+0x6c>)
 8000a4a:	681b      	ldr	r3, [r3, #0]
 8000a4c:	2b00      	cmp	r3, #0
 8000a4e:	dd0b      	ble.n	8000a68 <timerRun+0x24>
		timer1_counter--;
 8000a50:	4b17      	ldr	r3, [pc, #92]	; (8000ab0 <timerRun+0x6c>)
 8000a52:	681b      	ldr	r3, [r3, #0]
 8000a54:	3b01      	subs	r3, #1
 8000a56:	4a16      	ldr	r2, [pc, #88]	; (8000ab0 <timerRun+0x6c>)
 8000a58:	6013      	str	r3, [r2, #0]
		if(timer1_counter <= 0){
 8000a5a:	4b15      	ldr	r3, [pc, #84]	; (8000ab0 <timerRun+0x6c>)
 8000a5c:	681b      	ldr	r3, [r3, #0]
 8000a5e:	2b00      	cmp	r3, #0
 8000a60:	dc02      	bgt.n	8000a68 <timerRun+0x24>
			timer1_flag = 1;
 8000a62:	4b14      	ldr	r3, [pc, #80]	; (8000ab4 <timerRun+0x70>)
 8000a64:	2201      	movs	r2, #1
 8000a66:	601a      	str	r2, [r3, #0]
		}
	}
	if(timer2_counter > 0)
 8000a68:	4b13      	ldr	r3, [pc, #76]	; (8000ab8 <timerRun+0x74>)
 8000a6a:	681b      	ldr	r3, [r3, #0]
 8000a6c:	2b00      	cmp	r3, #0
 8000a6e:	dd0b      	ble.n	8000a88 <timerRun+0x44>
	{
		timer2_counter--;
 8000a70:	4b11      	ldr	r3, [pc, #68]	; (8000ab8 <timerRun+0x74>)
 8000a72:	681b      	ldr	r3, [r3, #0]
 8000a74:	3b01      	subs	r3, #1
 8000a76:	4a10      	ldr	r2, [pc, #64]	; (8000ab8 <timerRun+0x74>)
 8000a78:	6013      	str	r3, [r2, #0]
		if(timer2_counter <= 0)
 8000a7a:	4b0f      	ldr	r3, [pc, #60]	; (8000ab8 <timerRun+0x74>)
 8000a7c:	681b      	ldr	r3, [r3, #0]
 8000a7e:	2b00      	cmp	r3, #0
 8000a80:	dc02      	bgt.n	8000a88 <timerRun+0x44>
		{
			timer2_flag = 1;
 8000a82:	4b0e      	ldr	r3, [pc, #56]	; (8000abc <timerRun+0x78>)
 8000a84:	2201      	movs	r2, #1
 8000a86:	601a      	str	r2, [r3, #0]
		}
	}
	if(timer3_counter > 0)
 8000a88:	4b0d      	ldr	r3, [pc, #52]	; (8000ac0 <timerRun+0x7c>)
 8000a8a:	681b      	ldr	r3, [r3, #0]
 8000a8c:	2b00      	cmp	r3, #0
 8000a8e:	dd0b      	ble.n	8000aa8 <timerRun+0x64>
	{
		timer3_counter--;
 8000a90:	4b0b      	ldr	r3, [pc, #44]	; (8000ac0 <timerRun+0x7c>)
 8000a92:	681b      	ldr	r3, [r3, #0]
 8000a94:	3b01      	subs	r3, #1
 8000a96:	4a0a      	ldr	r2, [pc, #40]	; (8000ac0 <timerRun+0x7c>)
 8000a98:	6013      	str	r3, [r2, #0]
		if(timer3_counter <= 0)
 8000a9a:	4b09      	ldr	r3, [pc, #36]	; (8000ac0 <timerRun+0x7c>)
 8000a9c:	681b      	ldr	r3, [r3, #0]
 8000a9e:	2b00      	cmp	r3, #0
 8000aa0:	dc02      	bgt.n	8000aa8 <timerRun+0x64>
		{
			timer3_flag = 1;
 8000aa2:	4b08      	ldr	r3, [pc, #32]	; (8000ac4 <timerRun+0x80>)
 8000aa4:	2201      	movs	r2, #1
 8000aa6:	601a      	str	r2, [r3, #0]
		}
	}
}
 8000aa8:	bf00      	nop
 8000aaa:	46bd      	mov	sp, r7
 8000aac:	bc80      	pop	{r7}
 8000aae:	4770      	bx	lr
 8000ab0:	20000084 	.word	0x20000084
 8000ab4:	20000088 	.word	0x20000088
 8000ab8:	2000008c 	.word	0x2000008c
 8000abc:	20000090 	.word	0x20000090
 8000ac0:	20000094 	.word	0x20000094
 8000ac4:	20000098 	.word	0x20000098

08000ac8 <HAL_MspInit>:
/* USER CODE END 0 */
/**
  * Initializes the Global MSP.
  */
void HAL_MspInit(void)
{
 8000ac8:	b480      	push	{r7}
 8000aca:	b083      	sub	sp, #12
 8000acc:	af00      	add	r7, sp, #0
  /* USER CODE BEGIN MspInit 0 */

  /* USER CODE END MspInit 0 */

  __HAL_RCC_AFIO_CLK_ENABLE();
 8000ace:	4b0e      	ldr	r3, [pc, #56]	; (8000b08 <HAL_MspInit+0x40>)
 8000ad0:	699b      	ldr	r3, [r3, #24]
 8000ad2:	4a0d      	ldr	r2, [pc, #52]	; (8000b08 <HAL_MspInit+0x40>)
 8000ad4:	f043 0301 	orr.w	r3, r3, #1
 8000ad8:	6193      	str	r3, [r2, #24]
 8000ada:	4b0b      	ldr	r3, [pc, #44]	; (8000b08 <HAL_MspInit+0x40>)
 8000adc:	699b      	ldr	r3, [r3, #24]
 8000ade:	f003 0301 	and.w	r3, r3, #1
 8000ae2:	607b      	str	r3, [r7, #4]
 8000ae4:	687b      	ldr	r3, [r7, #4]
  __HAL_RCC_PWR_CLK_ENABLE();
 8000ae6:	4b08      	ldr	r3, [pc, #32]	; (8000b08 <HAL_MspInit+0x40>)
 8000ae8:	69db      	ldr	r3, [r3, #28]
 8000aea:	4a07      	ldr	r2, [pc, #28]	; (8000b08 <HAL_MspInit+0x40>)
 8000aec:	f043 5380 	orr.w	r3, r3, #268435456	; 0x10000000
 8000af0:	61d3      	str	r3, [r2, #28]
 8000af2:	4b05      	ldr	r3, [pc, #20]	; (8000b08 <HAL_MspInit+0x40>)
 8000af4:	69db      	ldr	r3, [r3, #28]
 8000af6:	f003 5380 	and.w	r3, r3, #268435456	; 0x10000000
 8000afa:	603b      	str	r3, [r7, #0]
 8000afc:	683b      	ldr	r3, [r7, #0]
  /* System interrupt init*/

  /* USER CODE BEGIN MspInit 1 */

  /* USER CODE END MspInit 1 */
}
 8000afe:	bf00      	nop
 8000b00:	370c      	adds	r7, #12
 8000b02:	46bd      	mov	sp, r7
 8000b04:	bc80      	pop	{r7}
 8000b06:	4770      	bx	lr
 8000b08:	40021000 	.word	0x40021000

08000b0c <HAL_TIM_Base_MspInit>:
* This function configures the hardware resources used in this example
* @param htim_base: TIM_Base handle pointer
* @retval None
*/
void HAL_TIM_Base_MspInit(TIM_HandleTypeDef* htim_base)
{
 8000b0c:	b580      	push	{r7, lr}
 8000b0e:	b084      	sub	sp, #16
 8000b10:	af00      	add	r7, sp, #0
 8000b12:	6078      	str	r0, [r7, #4]
  if(htim_base->Instance==TIM2)
 8000b14:	687b      	ldr	r3, [r7, #4]
 8000b16:	681b      	ldr	r3, [r3, #0]
 8000b18:	f1b3 4f80 	cmp.w	r3, #1073741824	; 0x40000000
 8000b1c:	d113      	bne.n	8000b46 <HAL_TIM_Base_MspInit+0x3a>
  {
  /* USER CODE BEGIN TIM2_MspInit 0 */

  /* USER CODE END TIM2_MspInit 0 */
    /* Peripheral clock enable */
    __HAL_RCC_TIM2_CLK_ENABLE();
 8000b1e:	4b0c      	ldr	r3, [pc, #48]	; (8000b50 <HAL_TIM_Base_MspInit+0x44>)
 8000b20:	69db      	ldr	r3, [r3, #28]
 8000b22:	4a0b      	ldr	r2, [pc, #44]	; (8000b50 <HAL_TIM_Base_MspInit+0x44>)
 8000b24:	f043 0301 	orr.w	r3, r3, #1
 8000b28:	61d3      	str	r3, [r2, #28]
 8000b2a:	4b09      	ldr	r3, [pc, #36]	; (8000b50 <HAL_TIM_Base_MspInit+0x44>)
 8000b2c:	69db      	ldr	r3, [r3, #28]
 8000b2e:	f003 0301 	and.w	r3, r3, #1
 8000b32:	60fb      	str	r3, [r7, #12]
 8000b34:	68fb      	ldr	r3, [r7, #12]
    /* TIM2 interrupt Init */
    HAL_NVIC_SetPriority(TIM2_IRQn, 0, 0);
 8000b36:	2200      	movs	r2, #0
 8000b38:	2100      	movs	r1, #0
 8000b3a:	201c      	movs	r0, #28
 8000b3c:	f000 f9a1 	bl	8000e82 <HAL_NVIC_SetPriority>
    HAL_NVIC_EnableIRQ(TIM2_IRQn);
 8000b40:	201c      	movs	r0, #28
 8000b42:	f000 f9ba 	bl	8000eba <HAL_NVIC_EnableIRQ>
  /* USER CODE BEGIN TIM2_MspInit 1 */

  /* USER CODE END TIM2_MspInit 1 */
  }

}
 8000b46:	bf00      	nop
 8000b48:	3710      	adds	r7, #16
 8000b4a:	46bd      	mov	sp, r7
 8000b4c:	bd80      	pop	{r7, pc}
 8000b4e:	bf00      	nop
 8000b50:	40021000 	.word	0x40021000

08000b54 <NMI_Handler>:
/******************************************************************************/
/**
  * @brief This function handles Non maskable interrupt.
  */
void NMI_Handler(void)
{
 8000b54:	b480      	push	{r7}
 8000b56:	af00      	add	r7, sp, #0
  /* USER CODE BEGIN NonMaskableInt_IRQn 0 */

  /* USER CODE END NonMaskableInt_IRQn 0 */
  /* USER CODE BEGIN NonMaskableInt_IRQn 1 */
  while (1)
 8000b58:	e7fe      	b.n	8000b58 <NMI_Handler+0x4>

08000b5a <HardFault_Handler>:

/**
  * @brief This function handles Hard fault interrupt.
  */
void HardFault_Handler(void)
{
 8000b5a:	b480      	push	{r7}
 8000b5c:	af00      	add	r7, sp, #0
  /* USER CODE BEGIN HardFault_IRQn 0 */

  /* USER CODE END HardFault_IRQn 0 */
  while (1)
 8000b5e:	e7fe      	b.n	8000b5e <HardFault_Handler+0x4>

08000b60 <MemManage_Handler>:

/**
  * @brief This function handles Memory management fault.
  */
void MemManage_Handler(void)
{
 8000b60:	b480      	push	{r7}
 8000b62:	af00      	add	r7, sp, #0
  /* USER CODE BEGIN MemoryManagement_IRQn 0 */

  /* USER CODE END MemoryManagement_IRQn 0 */
  while (1)
 8000b64:	e7fe      	b.n	8000b64 <MemManage_Handler+0x4>

08000b66 <BusFault_Handler>:

/**
  * @brief This function handles Prefetch fault, memory access fault.
  */
void BusFault_Handler(void)
{
 8000b66:	b480      	push	{r7}
 8000b68:	af00      	add	r7, sp, #0
  /* USER CODE BEGIN BusFault_IRQn 0 */

  /* USER CODE END BusFault_IRQn 0 */
  while (1)
 8000b6a:	e7fe      	b.n	8000b6a <BusFault_Handler+0x4>

08000b6c <UsageFault_Handler>:

/**
  * @brief This function handles Undefined instruction or illegal state.
  */
void UsageFault_Handler(void)
{
 8000b6c:	b480      	push	{r7}
 8000b6e:	af00      	add	r7, sp, #0
  /* USER CODE BEGIN UsageFault_IRQn 0 */

  /* USER CODE END UsageFault_IRQn 0 */
  while (1)
 8000b70:	e7fe      	b.n	8000b70 <UsageFault_Handler+0x4>

08000b72 <SVC_Handler>:

/**
  * @brief This function handles System service call via SWI instruction.
  */
void SVC_Handler(void)
{
 8000b72:	b480      	push	{r7}
 8000b74:	af00      	add	r7, sp, #0

  /* USER CODE END SVCall_IRQn 0 */
  /* USER CODE BEGIN SVCall_IRQn 1 */

  /* USER CODE END SVCall_IRQn 1 */
}
 8000b76:	bf00      	nop
 8000b78:	46bd      	mov	sp, r7
 8000b7a:	bc80      	pop	{r7}
 8000b7c:	4770      	bx	lr

08000b7e <DebugMon_Handler>:

/**
  * @brief This function handles Debug monitor.
  */
void DebugMon_Handler(void)
{
 8000b7e:	b480      	push	{r7}
 8000b80:	af00      	add	r7, sp, #0

  /* USER CODE END DebugMonitor_IRQn 0 */
  /* USER CODE BEGIN DebugMonitor_IRQn 1 */

  /* USER CODE END DebugMonitor_IRQn 1 */
}
 8000b82:	bf00      	nop
 8000b84:	46bd      	mov	sp, r7
 8000b86:	bc80      	pop	{r7}
 8000b88:	4770      	bx	lr

08000b8a <PendSV_Handler>:

/**
  * @brief This function handles Pendable request for system service.
  */
void PendSV_Handler(void)
{
 8000b8a:	b480      	push	{r7}
 8000b8c:	af00      	add	r7, sp, #0

  /* USER CODE END PendSV_IRQn 0 */
  /* USER CODE BEGIN PendSV_IRQn 1 */

  /* USER CODE END PendSV_IRQn 1 */
}
 8000b8e:	bf00      	nop
 8000b90:	46bd      	mov	sp, r7
 8000b92:	bc80      	pop	{r7}
 8000b94:	4770      	bx	lr

08000b96 <SysTick_Handler>:

/**
  * @brief This function handles System tick timer.
  */
void SysTick_Handler(void)
{
 8000b96:	b580      	push	{r7, lr}
 8000b98:	af00      	add	r7, sp, #0
  /* USER CODE BEGIN SysTick_IRQn 0 */

  /* USER CODE END SysTick_IRQn 0 */
  HAL_IncTick();
 8000b9a:	f000 f87f 	bl	8000c9c <HAL_IncTick>
  /* USER CODE BEGIN SysTick_IRQn 1 */

  /* USER CODE END SysTick_IRQn 1 */
}
 8000b9e:	bf00      	nop
 8000ba0:	bd80      	pop	{r7, pc}
	...

08000ba4 <TIM2_IRQHandler>:

/**
  * @brief This function handles TIM2 global interrupt.
  */
void TIM2_IRQHandler(void)
{
 8000ba4:	b580      	push	{r7, lr}
 8000ba6:	af00      	add	r7, sp, #0
  /* USER CODE BEGIN TIM2_IRQn 0 */

  /* USER CODE END TIM2_IRQn 0 */
  HAL_TIM_IRQHandler(&htim2);
 8000ba8:	4802      	ldr	r0, [pc, #8]	; (8000bb4 <TIM2_IRQHandler+0x10>)
 8000baa:	f000 ffaf 	bl	8001b0c <HAL_TIM_IRQHandler>
  /* USER CODE BEGIN TIM2_IRQn 1 */

  /* USER CODE END TIM2_IRQn 1 */
}
 8000bae:	bf00      	nop
 8000bb0:	bd80      	pop	{r7, pc}
 8000bb2:	bf00      	nop
 8000bb4:	2000003c 	.word	0x2000003c

08000bb8 <SystemInit>:
  * @note   This function should be used only after reset.
  * @param  None
  * @retval None
  */
void SystemInit (void)
{
 8000bb8:	b480      	push	{r7}
 8000bba:	af00      	add	r7, sp, #0

  /* Configure the Vector Table location -------------------------------------*/
#if defined(USER_VECT_TAB_ADDRESS)
  SCB->VTOR = VECT_TAB_BASE_ADDRESS | VECT_TAB_OFFSET; /* Vector Table Relocation in Internal SRAM. */
#endif /* USER_VECT_TAB_ADDRESS */
}
 8000bbc:	bf00      	nop
 8000bbe:	46bd      	mov	sp, r7
 8000bc0:	bc80      	pop	{r7}
 8000bc2:	4770      	bx	lr

08000bc4 <Reset_Handler>:
  .weak Reset_Handler
  .type Reset_Handler, %function
Reset_Handler:

/* Call the clock system initialization function.*/
    bl  SystemInit
 8000bc4:	f7ff fff8 	bl	8000bb8 <SystemInit>

/* Copy the data segment initializers from flash to SRAM */
  ldr r0, =_sdata
 8000bc8:	480b      	ldr	r0, [pc, #44]	; (8000bf8 <LoopFillZerobss+0xe>)
  ldr r1, =_edata
 8000bca:	490c      	ldr	r1, [pc, #48]	; (8000bfc <LoopFillZerobss+0x12>)
  ldr r2, =_sidata
 8000bcc:	4a0c      	ldr	r2, [pc, #48]	; (8000c00 <LoopFillZerobss+0x16>)
  movs r3, #0
 8000bce:	2300      	movs	r3, #0
  b LoopCopyDataInit
 8000bd0:	e002      	b.n	8000bd8 <LoopCopyDataInit>

08000bd2 <CopyDataInit>:

CopyDataInit:
  ldr r4, [r2, r3]
 8000bd2:	58d4      	ldr	r4, [r2, r3]
  str r4, [r0, r3]
 8000bd4:	50c4      	str	r4, [r0, r3]
  adds r3, r3, #4
 8000bd6:	3304      	adds	r3, #4

08000bd8 <LoopCopyDataInit>:

LoopCopyDataInit:
  adds r4, r0, r3
 8000bd8:	18c4      	adds	r4, r0, r3
  cmp r4, r1
 8000bda:	428c      	cmp	r4, r1
  bcc CopyDataInit
 8000bdc:	d3f9      	bcc.n	8000bd2 <CopyDataInit>
  
/* Zero fill the bss segment. */
  ldr r2, =_sbss
 8000bde:	4a09      	ldr	r2, [pc, #36]	; (8000c04 <LoopFillZerobss+0x1a>)
  ldr r4, =_ebss
 8000be0:	4c09      	ldr	r4, [pc, #36]	; (8000c08 <LoopFillZerobss+0x1e>)
  movs r3, #0
 8000be2:	2300      	movs	r3, #0
  b LoopFillZerobss
 8000be4:	e001      	b.n	8000bea <LoopFillZerobss>

08000be6 <FillZerobss>:

FillZerobss:
  str  r3, [r2]
 8000be6:	6013      	str	r3, [r2, #0]
  adds r2, r2, #4
 8000be8:	3204      	adds	r2, #4

08000bea <LoopFillZerobss>:

LoopFillZerobss:
  cmp r2, r4
 8000bea:	42a2      	cmp	r2, r4
  bcc FillZerobss
 8000bec:	d3fb      	bcc.n	8000be6 <FillZerobss>

/* Call static constructors */
    bl __libc_init_array
 8000bee:	f001 fad9 	bl	80021a4 <__libc_init_array>
/* Call the application's entry point.*/
  bl main
 8000bf2:	f7ff fdd1 	bl	8000798 <main>
  bx lr
 8000bf6:	4770      	bx	lr
  ldr r0, =_sdata
 8000bf8:	20000000 	.word	0x20000000
  ldr r1, =_edata
 8000bfc:	2000001c 	.word	0x2000001c
  ldr r2, =_sidata
 8000c00:	08002240 	.word	0x08002240
  ldr r2, =_sbss
 8000c04:	2000001c 	.word	0x2000001c
  ldr r4, =_ebss
 8000c08:	200000a0 	.word	0x200000a0

08000c0c <ADC1_2_IRQHandler>:
 * @retval : None
*/
    .section .text.Default_Handler,"ax",%progbits
Default_Handler:
Infinite_Loop:
  b Infinite_Loop
 8000c0c:	e7fe      	b.n	8000c0c <ADC1_2_IRQHandler>
	...

08000c10 <HAL_Init>:
  *         need to ensure that the SysTick time base is always set to 1 millisecond
  *         to have correct HAL operation.
  * @retval HAL status
  */
HAL_StatusTypeDef HAL_Init(void)
{
 8000c10:	b580      	push	{r7, lr}
 8000c12:	af00      	add	r7, sp, #0
    defined(STM32F102x6) || defined(STM32F102xB) || \
    defined(STM32F103x6) || defined(STM32F103xB) || defined(STM32F103xE) || defined(STM32F103xG) || \
    defined(STM32F105xC) || defined(STM32F107xC)

  /* Prefetch buffer is not available on value line devices */
  __HAL_FLASH_PREFETCH_BUFFER_ENABLE();
 8000c14:	4b08      	ldr	r3, [pc, #32]	; (8000c38 <HAL_Init+0x28>)
 8000c16:	681b      	ldr	r3, [r3, #0]
 8000c18:	4a07      	ldr	r2, [pc, #28]	; (8000c38 <HAL_Init+0x28>)
 8000c1a:	f043 0310 	orr.w	r3, r3, #16
 8000c1e:	6013      	str	r3, [r2, #0]
#endif
#endif /* PREFETCH_ENABLE */

  /* Set Interrupt Group Priority */
  HAL_NVIC_SetPriorityGrouping(NVIC_PRIORITYGROUP_4);
 8000c20:	2003      	movs	r0, #3
 8000c22:	f000 f923 	bl	8000e6c <HAL_NVIC_SetPriorityGrouping>

  /* Use systick as time base source and configure 1ms tick (default clock after Reset is HSI) */
  HAL_InitTick(TICK_INT_PRIORITY);
 8000c26:	200f      	movs	r0, #15
 8000c28:	f000 f808 	bl	8000c3c <HAL_InitTick>

  /* Init the low level hardware */
  HAL_MspInit();
 8000c2c:	f7ff ff4c 	bl	8000ac8 <HAL_MspInit>

  /* Return function status */
  return HAL_OK;
 8000c30:	2300      	movs	r3, #0
}
 8000c32:	4618      	mov	r0, r3
 8000c34:	bd80      	pop	{r7, pc}
 8000c36:	bf00      	nop
 8000c38:	40022000 	.word	0x40022000

08000c3c <HAL_InitTick>:
  *       implementation  in user file.
  * @param TickPriority Tick interrupt priority.
  * @retval HAL status
  */
__weak HAL_StatusTypeDef HAL_InitTick(uint32_t TickPriority)
{
 8000c3c:	b580      	push	{r7, lr}
 8000c3e:	b082      	sub	sp, #8
 8000c40:	af00      	add	r7, sp, #0
 8000c42:	6078      	str	r0, [r7, #4]
  /* Configure the SysTick to have interrupt in 1ms time basis*/
  if (HAL_SYSTICK_Config(SystemCoreClock / (1000U / uwTickFreq)) > 0U)
 8000c44:	4b12      	ldr	r3, [pc, #72]	; (8000c90 <HAL_InitTick+0x54>)
 8000c46:	681a      	ldr	r2, [r3, #0]
 8000c48:	4b12      	ldr	r3, [pc, #72]	; (8000c94 <HAL_InitTick+0x58>)
 8000c4a:	781b      	ldrb	r3, [r3, #0]
 8000c4c:	4619      	mov	r1, r3
 8000c4e:	f44f 737a 	mov.w	r3, #1000	; 0x3e8
 8000c52:	fbb3 f3f1 	udiv	r3, r3, r1
 8000c56:	fbb2 f3f3 	udiv	r3, r2, r3
 8000c5a:	4618      	mov	r0, r3
 8000c5c:	f000 f93b 	bl	8000ed6 <HAL_SYSTICK_Config>
 8000c60:	4603      	mov	r3, r0
 8000c62:	2b00      	cmp	r3, #0
 8000c64:	d001      	beq.n	8000c6a <HAL_InitTick+0x2e>
  {
    return HAL_ERROR;
 8000c66:	2301      	movs	r3, #1
 8000c68:	e00e      	b.n	8000c88 <HAL_InitTick+0x4c>
  }

  /* Configure the SysTick IRQ priority */
  if (TickPriority < (1UL << __NVIC_PRIO_BITS))
 8000c6a:	687b      	ldr	r3, [r7, #4]
 8000c6c:	2b0f      	cmp	r3, #15
 8000c6e:	d80a      	bhi.n	8000c86 <HAL_InitTick+0x4a>
  {
    HAL_NVIC_SetPriority(SysTick_IRQn, TickPriority, 0U);
 8000c70:	2200      	movs	r2, #0
 8000c72:	6879      	ldr	r1, [r7, #4]
 8000c74:	f04f 30ff 	mov.w	r0, #4294967295
 8000c78:	f000 f903 	bl	8000e82 <HAL_NVIC_SetPriority>
    uwTickPrio = TickPriority;
 8000c7c:	4a06      	ldr	r2, [pc, #24]	; (8000c98 <HAL_InitTick+0x5c>)
 8000c7e:	687b      	ldr	r3, [r7, #4]
 8000c80:	6013      	str	r3, [r2, #0]
  {
    return HAL_ERROR;
  }

  /* Return function status */
  return HAL_OK;
 8000c82:	2300      	movs	r3, #0
 8000c84:	e000      	b.n	8000c88 <HAL_InitTick+0x4c>
    return HAL_ERROR;
 8000c86:	2301      	movs	r3, #1
}
 8000c88:	4618      	mov	r0, r3
 8000c8a:	3708      	adds	r7, #8
 8000c8c:	46bd      	mov	sp, r7
 8000c8e:	bd80      	pop	{r7, pc}
 8000c90:	20000010 	.word	0x20000010
 8000c94:	20000018 	.word	0x20000018
 8000c98:	20000014 	.word	0x20000014

08000c9c <HAL_IncTick>:
  * @note This function is declared as __weak to be overwritten in case of other
  *      implementations in user file.
  * @retval None
  */
__weak void HAL_IncTick(void)
{
 8000c9c:	b480      	push	{r7}
 8000c9e:	af00      	add	r7, sp, #0
  uwTick += uwTickFreq;
 8000ca0:	4b05      	ldr	r3, [pc, #20]	; (8000cb8 <HAL_IncTick+0x1c>)
 8000ca2:	781b      	ldrb	r3, [r3, #0]
 8000ca4:	461a      	mov	r2, r3
 8000ca6:	4b05      	ldr	r3, [pc, #20]	; (8000cbc <HAL_IncTick+0x20>)
 8000ca8:	681b      	ldr	r3, [r3, #0]
 8000caa:	4413      	add	r3, r2
 8000cac:	4a03      	ldr	r2, [pc, #12]	; (8000cbc <HAL_IncTick+0x20>)
 8000cae:	6013      	str	r3, [r2, #0]
}
 8000cb0:	bf00      	nop
 8000cb2:	46bd      	mov	sp, r7
 8000cb4:	bc80      	pop	{r7}
 8000cb6:	4770      	bx	lr
 8000cb8:	20000018 	.word	0x20000018
 8000cbc:	2000009c 	.word	0x2000009c

08000cc0 <HAL_GetTick>:
  * @note  This function is declared as __weak to be overwritten in case of other
  *       implementations in user file.
  * @retval tick value
  */
__weak uint32_t HAL_GetTick(void)
{
 8000cc0:	b480      	push	{r7}
 8000cc2:	af00      	add	r7, sp, #0
  return uwTick;
 8000cc4:	4b02      	ldr	r3, [pc, #8]	; (8000cd0 <HAL_GetTick+0x10>)
 8000cc6:	681b      	ldr	r3, [r3, #0]
}
 8000cc8:	4618      	mov	r0, r3
 8000cca:	46bd      	mov	sp, r7
 8000ccc:	bc80      	pop	{r7}
 8000cce:	4770      	bx	lr
 8000cd0:	2000009c 	.word	0x2000009c

08000cd4 <__NVIC_SetPriorityGrouping>:
           In case of a conflict between priority grouping and available
           priority bits (__NVIC_PRIO_BITS), the smallest possible priority group is set.
  \param [in]      PriorityGroup  Priority grouping field.
 */
__STATIC_INLINE void __NVIC_SetPriorityGrouping(uint32_t PriorityGroup)
{
 8000cd4:	b480      	push	{r7}
 8000cd6:	b085      	sub	sp, #20
 8000cd8:	af00      	add	r7, sp, #0
 8000cda:	6078      	str	r0, [r7, #4]
  uint32_t reg_value;
  uint32_t PriorityGroupTmp = (PriorityGroup & (uint32_t)0x07UL);             /* only values 0..7 are used          */
 8000cdc:	687b      	ldr	r3, [r7, #4]
 8000cde:	f003 0307 	and.w	r3, r3, #7
 8000ce2:	60fb      	str	r3, [r7, #12]

  reg_value  =  SCB->AIRCR;                                                   /* read old register configuration    */
 8000ce4:	4b0c      	ldr	r3, [pc, #48]	; (8000d18 <__NVIC_SetPriorityGrouping+0x44>)
 8000ce6:	68db      	ldr	r3, [r3, #12]
 8000ce8:	60bb      	str	r3, [r7, #8]
  reg_value &= ~((uint32_t)(SCB_AIRCR_VECTKEY_Msk | SCB_AIRCR_PRIGROUP_Msk)); /* clear bits to change               */
 8000cea:	68ba      	ldr	r2, [r7, #8]
 8000cec:	f64f 03ff 	movw	r3, #63743	; 0xf8ff
 8000cf0:	4013      	ands	r3, r2
 8000cf2:	60bb      	str	r3, [r7, #8]
  reg_value  =  (reg_value                                   |
                ((uint32_t)0x5FAUL << SCB_AIRCR_VECTKEY_Pos) |
                (PriorityGroupTmp << SCB_AIRCR_PRIGROUP_Pos) );               /* Insert write key and priority group */
 8000cf4:	68fb      	ldr	r3, [r7, #12]
 8000cf6:	021a      	lsls	r2, r3, #8
                ((uint32_t)0x5FAUL << SCB_AIRCR_VECTKEY_Pos) |
 8000cf8:	68bb      	ldr	r3, [r7, #8]
 8000cfa:	4313      	orrs	r3, r2
  reg_value  =  (reg_value                                   |
 8000cfc:	f043 63bf 	orr.w	r3, r3, #100139008	; 0x5f80000
 8000d00:	f443 3300 	orr.w	r3, r3, #131072	; 0x20000
 8000d04:	60bb      	str	r3, [r7, #8]
  SCB->AIRCR =  reg_value;
 8000d06:	4a04      	ldr	r2, [pc, #16]	; (8000d18 <__NVIC_SetPriorityGrouping+0x44>)
 8000d08:	68bb      	ldr	r3, [r7, #8]
 8000d0a:	60d3      	str	r3, [r2, #12]
}
 8000d0c:	bf00      	nop
 8000d0e:	3714      	adds	r7, #20
 8000d10:	46bd      	mov	sp, r7
 8000d12:	bc80      	pop	{r7}
 8000d14:	4770      	bx	lr
 8000d16:	bf00      	nop
 8000d18:	e000ed00 	.word	0xe000ed00

08000d1c <__NVIC_GetPriorityGrouping>:
  \brief   Get Priority Grouping
  \details Reads the priority grouping field from the NVIC Interrupt Controller.
  \return                Priority grouping field (SCB->AIRCR [10:8] PRIGROUP field).
 */
__STATIC_INLINE uint32_t __NVIC_GetPriorityGrouping(void)
{
 8000d1c:	b480      	push	{r7}
 8000d1e:	af00      	add	r7, sp, #0
  return ((uint32_t)((SCB->AIRCR & SCB_AIRCR_PRIGROUP_Msk) >> SCB_AIRCR_PRIGROUP_Pos));
 8000d20:	4b04      	ldr	r3, [pc, #16]	; (8000d34 <__NVIC_GetPriorityGrouping+0x18>)
 8000d22:	68db      	ldr	r3, [r3, #12]
 8000d24:	0a1b      	lsrs	r3, r3, #8
 8000d26:	f003 0307 	and.w	r3, r3, #7
}
 8000d2a:	4618      	mov	r0, r3
 8000d2c:	46bd      	mov	sp, r7
 8000d2e:	bc80      	pop	{r7}
 8000d30:	4770      	bx	lr
 8000d32:	bf00      	nop
 8000d34:	e000ed00 	.word	0xe000ed00

08000d38 <__NVIC_EnableIRQ>:
  \details Enables a device specific interrupt in the NVIC interrupt controller.
  \param [in]      IRQn  Device specific interrupt number.
  \note    IRQn must not be negative.
 */
__STATIC_INLINE void __NVIC_EnableIRQ(IRQn_Type IRQn)
{
 8000d38:	b480      	push	{r7}
 8000d3a:	b083      	sub	sp, #12
 8000d3c:	af00      	add	r7, sp, #0
 8000d3e:	4603      	mov	r3, r0
 8000d40:	71fb      	strb	r3, [r7, #7]
  if ((int32_t)(IRQn) >= 0)
 8000d42:	f997 3007 	ldrsb.w	r3, [r7, #7]
 8000d46:	2b00      	cmp	r3, #0
 8000d48:	db0b      	blt.n	8000d62 <__NVIC_EnableIRQ+0x2a>
  {
    NVIC->ISER[(((uint32_t)IRQn) >> 5UL)] = (uint32_t)(1UL << (((uint32_t)IRQn) & 0x1FUL));
 8000d4a:	79fb      	ldrb	r3, [r7, #7]
 8000d4c:	f003 021f 	and.w	r2, r3, #31
 8000d50:	4906      	ldr	r1, [pc, #24]	; (8000d6c <__NVIC_EnableIRQ+0x34>)
 8000d52:	f997 3007 	ldrsb.w	r3, [r7, #7]
 8000d56:	095b      	lsrs	r3, r3, #5
 8000d58:	2001      	movs	r0, #1
 8000d5a:	fa00 f202 	lsl.w	r2, r0, r2
 8000d5e:	f841 2023 	str.w	r2, [r1, r3, lsl #2]
  }
}
 8000d62:	bf00      	nop
 8000d64:	370c      	adds	r7, #12
 8000d66:	46bd      	mov	sp, r7
 8000d68:	bc80      	pop	{r7}
 8000d6a:	4770      	bx	lr
 8000d6c:	e000e100 	.word	0xe000e100

08000d70 <__NVIC_SetPriority>:
  \param [in]      IRQn  Interrupt number.
  \param [in]  priority  Priority to set.
  \note    The priority cannot be set for every processor exception.
 */
__STATIC_INLINE void __NVIC_SetPriority(IRQn_Type IRQn, uint32_t priority)
{
 8000d70:	b480      	push	{r7}
 8000d72:	b083      	sub	sp, #12
 8000d74:	af00      	add	r7, sp, #0
 8000d76:	4603      	mov	r3, r0
 8000d78:	6039      	str	r1, [r7, #0]
 8000d7a:	71fb      	strb	r3, [r7, #7]
  if ((int32_t)(IRQn) >= 0)
 8000d7c:	f997 3007 	ldrsb.w	r3, [r7, #7]
 8000d80:	2b00      	cmp	r3, #0
 8000d82:	db0a      	blt.n	8000d9a <__NVIC_SetPriority+0x2a>
  {
    NVIC->IP[((uint32_t)IRQn)]               = (uint8_t)((priority << (8U - __NVIC_PRIO_BITS)) & (uint32_t)0xFFUL);
 8000d84:	683b      	ldr	r3, [r7, #0]
 8000d86:	b2da      	uxtb	r2, r3
 8000d88:	490c      	ldr	r1, [pc, #48]	; (8000dbc <__NVIC_SetPriority+0x4c>)
 8000d8a:	f997 3007 	ldrsb.w	r3, [r7, #7]
 8000d8e:	0112      	lsls	r2, r2, #4
 8000d90:	b2d2      	uxtb	r2, r2
 8000d92:	440b      	add	r3, r1
 8000d94:	f883 2300 	strb.w	r2, [r3, #768]	; 0x300
  }
  else
  {
    SCB->SHP[(((uint32_t)IRQn) & 0xFUL)-4UL] = (uint8_t)((priority << (8U - __NVIC_PRIO_BITS)) & (uint32_t)0xFFUL);
  }
}
 8000d98:	e00a      	b.n	8000db0 <__NVIC_SetPriority+0x40>
    SCB->SHP[(((uint32_t)IRQn) & 0xFUL)-4UL] = (uint8_t)((priority << (8U - __NVIC_PRIO_BITS)) & (uint32_t)0xFFUL);
 8000d9a:	683b      	ldr	r3, [r7, #0]
 8000d9c:	b2da      	uxtb	r2, r3
 8000d9e:	4908      	ldr	r1, [pc, #32]	; (8000dc0 <__NVIC_SetPriority+0x50>)
 8000da0:	79fb      	ldrb	r3, [r7, #7]
 8000da2:	f003 030f 	and.w	r3, r3, #15
 8000da6:	3b04      	subs	r3, #4
 8000da8:	0112      	lsls	r2, r2, #4
 8000daa:	b2d2      	uxtb	r2, r2
 8000dac:	440b      	add	r3, r1
 8000dae:	761a      	strb	r2, [r3, #24]
}
 8000db0:	bf00      	nop
 8000db2:	370c      	adds	r7, #12
 8000db4:	46bd      	mov	sp, r7
 8000db6:	bc80      	pop	{r7}
 8000db8:	4770      	bx	lr
 8000dba:	bf00      	nop
 8000dbc:	e000e100 	.word	0xe000e100
 8000dc0:	e000ed00 	.word	0xe000ed00

08000dc4 <NVIC_EncodePriority>:
  \param [in]   PreemptPriority  Preemptive priority value (starting from 0).
  \param [in]       SubPriority  Subpriority value (starting from 0).
  \return                        Encoded priority. Value can be used in the function \ref NVIC_SetPriority().
 */
__STATIC_INLINE uint32_t NVIC_EncodePriority (uint32_t PriorityGroup, uint32_t PreemptPriority, uint32_t SubPriority)
{
 8000dc4:	b480      	push	{r7}
 8000dc6:	b089      	sub	sp, #36	; 0x24
 8000dc8:	af00      	add	r7, sp, #0
 8000dca:	60f8      	str	r0, [r7, #12]
 8000dcc:	60b9      	str	r1, [r7, #8]
 8000dce:	607a      	str	r2, [r7, #4]
  uint32_t PriorityGroupTmp = (PriorityGroup & (uint32_t)0x07UL);   /* only values 0..7 are used          */
 8000dd0:	68fb      	ldr	r3, [r7, #12]
 8000dd2:	f003 0307 	and.w	r3, r3, #7
 8000dd6:	61fb      	str	r3, [r7, #28]
  uint32_t PreemptPriorityBits;
  uint32_t SubPriorityBits;

  PreemptPriorityBits = ((7UL - PriorityGroupTmp) > (uint32_t)(__NVIC_PRIO_BITS)) ? (uint32_t)(__NVIC_PRIO_BITS) : (uint32_t)(7UL - PriorityGroupTmp);
 8000dd8:	69fb      	ldr	r3, [r7, #28]
 8000dda:	f1c3 0307 	rsb	r3, r3, #7
 8000dde:	2b04      	cmp	r3, #4
 8000de0:	bf28      	it	cs
 8000de2:	2304      	movcs	r3, #4
 8000de4:	61bb      	str	r3, [r7, #24]
  SubPriorityBits     = ((PriorityGroupTmp + (uint32_t)(__NVIC_PRIO_BITS)) < (uint32_t)7UL) ? (uint32_t)0UL : (uint32_t)((PriorityGroupTmp - 7UL) + (uint32_t)(__NVIC_PRIO_BITS));
 8000de6:	69fb      	ldr	r3, [r7, #28]
 8000de8:	3304      	adds	r3, #4
 8000dea:	2b06      	cmp	r3, #6
 8000dec:	d902      	bls.n	8000df4 <NVIC_EncodePriority+0x30>
 8000dee:	69fb      	ldr	r3, [r7, #28]
 8000df0:	3b03      	subs	r3, #3
 8000df2:	e000      	b.n	8000df6 <NVIC_EncodePriority+0x32>
 8000df4:	2300      	movs	r3, #0
 8000df6:	617b      	str	r3, [r7, #20]

  return (
           ((PreemptPriority & (uint32_t)((1UL << (PreemptPriorityBits)) - 1UL)) << SubPriorityBits) |
 8000df8:	f04f 32ff 	mov.w	r2, #4294967295
 8000dfc:	69bb      	ldr	r3, [r7, #24]
 8000dfe:	fa02 f303 	lsl.w	r3, r2, r3
 8000e02:	43da      	mvns	r2, r3
 8000e04:	68bb      	ldr	r3, [r7, #8]
 8000e06:	401a      	ands	r2, r3
 8000e08:	697b      	ldr	r3, [r7, #20]
 8000e0a:	409a      	lsls	r2, r3
           ((SubPriority     & (uint32_t)((1UL << (SubPriorityBits    )) - 1UL)))
 8000e0c:	f04f 31ff 	mov.w	r1, #4294967295
 8000e10:	697b      	ldr	r3, [r7, #20]
 8000e12:	fa01 f303 	lsl.w	r3, r1, r3
 8000e16:	43d9      	mvns	r1, r3
 8000e18:	687b      	ldr	r3, [r7, #4]
 8000e1a:	400b      	ands	r3, r1
           ((PreemptPriority & (uint32_t)((1UL << (PreemptPriorityBits)) - 1UL)) << SubPriorityBits) |
 8000e1c:	4313      	orrs	r3, r2
         );
}
 8000e1e:	4618      	mov	r0, r3
 8000e20:	3724      	adds	r7, #36	; 0x24
 8000e22:	46bd      	mov	sp, r7
 8000e24:	bc80      	pop	{r7}
 8000e26:	4770      	bx	lr

08000e28 <SysTick_Config>:
  \note    When the variable <b>__Vendor_SysTickConfig</b> is set to 1, then the
           function <b>SysTick_Config</b> is not included. In this case, the file <b><i>device</i>.h</b>
           must contain a vendor-specific implementation of this function.
 */
__STATIC_INLINE uint32_t SysTick_Config(uint32_t ticks)
{
 8000e28:	b580      	push	{r7, lr}
 8000e2a:	b082      	sub	sp, #8
 8000e2c:	af00      	add	r7, sp, #0
 8000e2e:	6078      	str	r0, [r7, #4]
  if ((ticks - 1UL) > SysTick_LOAD_RELOAD_Msk)
 8000e30:	687b      	ldr	r3, [r7, #4]
 8000e32:	3b01      	subs	r3, #1
 8000e34:	f1b3 7f80 	cmp.w	r3, #16777216	; 0x1000000
 8000e38:	d301      	bcc.n	8000e3e <SysTick_Config+0x16>
  {
    return (1UL);                                                   /* Reload value impossible */
 8000e3a:	2301      	movs	r3, #1
 8000e3c:	e00f      	b.n	8000e5e <SysTick_Config+0x36>
  }

  SysTick->LOAD  = (uint32_t)(ticks - 1UL);                         /* set reload register */
 8000e3e:	4a0a      	ldr	r2, [pc, #40]	; (8000e68 <SysTick_Config+0x40>)
 8000e40:	687b      	ldr	r3, [r7, #4]
 8000e42:	3b01      	subs	r3, #1
 8000e44:	6053      	str	r3, [r2, #4]
  NVIC_SetPriority (SysTick_IRQn, (1UL << __NVIC_PRIO_BITS) - 1UL); /* set Priority for Systick Interrupt */
 8000e46:	210f      	movs	r1, #15
 8000e48:	f04f 30ff 	mov.w	r0, #4294967295
 8000e4c:	f7ff ff90 	bl	8000d70 <__NVIC_SetPriority>
  SysTick->VAL   = 0UL;                                             /* Load the SysTick Counter Value */
 8000e50:	4b05      	ldr	r3, [pc, #20]	; (8000e68 <SysTick_Config+0x40>)
 8000e52:	2200      	movs	r2, #0
 8000e54:	609a      	str	r2, [r3, #8]
  SysTick->CTRL  = SysTick_CTRL_CLKSOURCE_Msk |
 8000e56:	4b04      	ldr	r3, [pc, #16]	; (8000e68 <SysTick_Config+0x40>)
 8000e58:	2207      	movs	r2, #7
 8000e5a:	601a      	str	r2, [r3, #0]
                   SysTick_CTRL_TICKINT_Msk   |
                   SysTick_CTRL_ENABLE_Msk;                         /* Enable SysTick IRQ and SysTick Timer */
  return (0UL);                                                     /* Function successful */
 8000e5c:	2300      	movs	r3, #0
}
 8000e5e:	4618      	mov	r0, r3
 8000e60:	3708      	adds	r7, #8
 8000e62:	46bd      	mov	sp, r7
 8000e64:	bd80      	pop	{r7, pc}
 8000e66:	bf00      	nop
 8000e68:	e000e010 	.word	0xe000e010

08000e6c <HAL_NVIC_SetPriorityGrouping>:
  * @note   When the NVIC_PriorityGroup_0 is selected, IRQ preemption is no more possible. 
  *         The pending IRQ priority will be managed only by the subpriority. 
  * @retval None
  */
void HAL_NVIC_SetPriorityGrouping(uint32_t PriorityGroup)
{
 8000e6c:	b580      	push	{r7, lr}
 8000e6e:	b082      	sub	sp, #8
 8000e70:	af00      	add	r7, sp, #0
 8000e72:	6078      	str	r0, [r7, #4]
  /* Check the parameters */
  assert_param(IS_NVIC_PRIORITY_GROUP(PriorityGroup));
  
  /* Set the PRIGROUP[10:8] bits according to the PriorityGroup parameter value */
  NVIC_SetPriorityGrouping(PriorityGroup);
 8000e74:	6878      	ldr	r0, [r7, #4]
 8000e76:	f7ff ff2d 	bl	8000cd4 <__NVIC_SetPriorityGrouping>
}
 8000e7a:	bf00      	nop
 8000e7c:	3708      	adds	r7, #8
 8000e7e:	46bd      	mov	sp, r7
 8000e80:	bd80      	pop	{r7, pc}

08000e82 <HAL_NVIC_SetPriority>:
  *         This parameter can be a value between 0 and 15
  *         A lower priority value indicates a higher priority.          
  * @retval None
  */
void HAL_NVIC_SetPriority(IRQn_Type IRQn, uint32_t PreemptPriority, uint32_t SubPriority)
{ 
 8000e82:	b580      	push	{r7, lr}
 8000e84:	b086      	sub	sp, #24
 8000e86:	af00      	add	r7, sp, #0
 8000e88:	4603      	mov	r3, r0
 8000e8a:	60b9      	str	r1, [r7, #8]
 8000e8c:	607a      	str	r2, [r7, #4]
 8000e8e:	73fb      	strb	r3, [r7, #15]
  uint32_t prioritygroup = 0x00U;
 8000e90:	2300      	movs	r3, #0
 8000e92:	617b      	str	r3, [r7, #20]
  
  /* Check the parameters */
  assert_param(IS_NVIC_SUB_PRIORITY(SubPriority));
  assert_param(IS_NVIC_PREEMPTION_PRIORITY(PreemptPriority));
  
  prioritygroup = NVIC_GetPriorityGrouping();
 8000e94:	f7ff ff42 	bl	8000d1c <__NVIC_GetPriorityGrouping>
 8000e98:	6178      	str	r0, [r7, #20]
  
  NVIC_SetPriority(IRQn, NVIC_EncodePriority(prioritygroup, PreemptPriority, SubPriority));
 8000e9a:	687a      	ldr	r2, [r7, #4]
 8000e9c:	68b9      	ldr	r1, [r7, #8]
 8000e9e:	6978      	ldr	r0, [r7, #20]
 8000ea0:	f7ff ff90 	bl	8000dc4 <NVIC_EncodePriority>
 8000ea4:	4602      	mov	r2, r0
 8000ea6:	f997 300f 	ldrsb.w	r3, [r7, #15]
 8000eaa:	4611      	mov	r1, r2
 8000eac:	4618      	mov	r0, r3
 8000eae:	f7ff ff5f 	bl	8000d70 <__NVIC_SetPriority>
}
 8000eb2:	bf00      	nop
 8000eb4:	3718      	adds	r7, #24
 8000eb6:	46bd      	mov	sp, r7
 8000eb8:	bd80      	pop	{r7, pc}

08000eba <HAL_NVIC_EnableIRQ>:
  *         This parameter can be an enumerator of IRQn_Type enumeration
  *         (For the complete STM32 Devices IRQ Channels list, please refer to the appropriate CMSIS device file (stm32f10xxx.h))
  * @retval None
  */
void HAL_NVIC_EnableIRQ(IRQn_Type IRQn)
{
 8000eba:	b580      	push	{r7, lr}
 8000ebc:	b082      	sub	sp, #8
 8000ebe:	af00      	add	r7, sp, #0
 8000ec0:	4603      	mov	r3, r0
 8000ec2:	71fb      	strb	r3, [r7, #7]
  /* Check the parameters */
  assert_param(IS_NVIC_DEVICE_IRQ(IRQn));

  /* Enable interrupt */
  NVIC_EnableIRQ(IRQn);
 8000ec4:	f997 3007 	ldrsb.w	r3, [r7, #7]
 8000ec8:	4618      	mov	r0, r3
 8000eca:	f7ff ff35 	bl	8000d38 <__NVIC_EnableIRQ>
}
 8000ece:	bf00      	nop
 8000ed0:	3708      	adds	r7, #8
 8000ed2:	46bd      	mov	sp, r7
 8000ed4:	bd80      	pop	{r7, pc}

08000ed6 <HAL_SYSTICK_Config>:
  * @param  TicksNumb: Specifies the ticks Number of ticks between two interrupts.
  * @retval status:  - 0  Function succeeded.
  *                  - 1  Function failed.
  */
uint32_t HAL_SYSTICK_Config(uint32_t TicksNumb)
{
 8000ed6:	b580      	push	{r7, lr}
 8000ed8:	b082      	sub	sp, #8
 8000eda:	af00      	add	r7, sp, #0
 8000edc:	6078      	str	r0, [r7, #4]
   return SysTick_Config(TicksNumb);
 8000ede:	6878      	ldr	r0, [r7, #4]
 8000ee0:	f7ff ffa2 	bl	8000e28 <SysTick_Config>
 8000ee4:	4603      	mov	r3, r0
}
 8000ee6:	4618      	mov	r0, r3
 8000ee8:	3708      	adds	r7, #8
 8000eea:	46bd      	mov	sp, r7
 8000eec:	bd80      	pop	{r7, pc}
	...

08000ef0 <HAL_GPIO_Init>:
  * @param  GPIO_Init: pointer to a GPIO_InitTypeDef structure that contains
  *         the configuration information for the specified GPIO peripheral.
  * @retval None
  */
void HAL_GPIO_Init(GPIO_TypeDef  *GPIOx, GPIO_InitTypeDef *GPIO_Init)
{
 8000ef0:	b480      	push	{r7}
 8000ef2:	b08b      	sub	sp, #44	; 0x2c
 8000ef4:	af00      	add	r7, sp, #0
 8000ef6:	6078      	str	r0, [r7, #4]
 8000ef8:	6039      	str	r1, [r7, #0]
  uint32_t position = 0x00u;
 8000efa:	2300      	movs	r3, #0
 8000efc:	627b      	str	r3, [r7, #36]	; 0x24
  uint32_t ioposition;
  uint32_t iocurrent;
  uint32_t temp;
  uint32_t config = 0x00u;
 8000efe:	2300      	movs	r3, #0
 8000f00:	623b      	str	r3, [r7, #32]
  assert_param(IS_GPIO_ALL_INSTANCE(GPIOx));
  assert_param(IS_GPIO_PIN(GPIO_Init->Pin));
  assert_param(IS_GPIO_MODE(GPIO_Init->Mode));

  /* Configure the port pins */
  while (((GPIO_Init->Pin) >> position) != 0x00u)
 8000f02:	e161      	b.n	80011c8 <HAL_GPIO_Init+0x2d8>
  {
    /* Get the IO position */
    ioposition = (0x01uL << position);
 8000f04:	2201      	movs	r2, #1
 8000f06:	6a7b      	ldr	r3, [r7, #36]	; 0x24
 8000f08:	fa02 f303 	lsl.w	r3, r2, r3
 8000f0c:	61fb      	str	r3, [r7, #28]

    /* Get the current IO position */
    iocurrent = (uint32_t)(GPIO_Init->Pin) & ioposition;
 8000f0e:	683b      	ldr	r3, [r7, #0]
 8000f10:	681b      	ldr	r3, [r3, #0]
 8000f12:	69fa      	ldr	r2, [r7, #28]
 8000f14:	4013      	ands	r3, r2
 8000f16:	61bb      	str	r3, [r7, #24]

    if (iocurrent == ioposition)
 8000f18:	69ba      	ldr	r2, [r7, #24]
 8000f1a:	69fb      	ldr	r3, [r7, #28]
 8000f1c:	429a      	cmp	r2, r3
 8000f1e:	f040 8150 	bne.w	80011c2 <HAL_GPIO_Init+0x2d2>
    {
      /* Check the Alternate function parameters */
      assert_param(IS_GPIO_AF_INSTANCE(GPIOx));

      /* Based on the required mode, filling config variable with MODEy[1:0] and CNFy[3:2] corresponding bits */
      switch (GPIO_Init->Mode)
 8000f22:	683b      	ldr	r3, [r7, #0]
 8000f24:	685b      	ldr	r3, [r3, #4]
 8000f26:	4a97      	ldr	r2, [pc, #604]	; (8001184 <HAL_GPIO_Init+0x294>)
 8000f28:	4293      	cmp	r3, r2
 8000f2a:	d05e      	beq.n	8000fea <HAL_GPIO_Init+0xfa>
 8000f2c:	4a95      	ldr	r2, [pc, #596]	; (8001184 <HAL_GPIO_Init+0x294>)
 8000f2e:	4293      	cmp	r3, r2
 8000f30:	d875      	bhi.n	800101e <HAL_GPIO_Init+0x12e>
 8000f32:	4a95      	ldr	r2, [pc, #596]	; (8001188 <HAL_GPIO_Init+0x298>)
 8000f34:	4293      	cmp	r3, r2
 8000f36:	d058      	beq.n	8000fea <HAL_GPIO_Init+0xfa>
 8000f38:	4a93      	ldr	r2, [pc, #588]	; (8001188 <HAL_GPIO_Init+0x298>)
 8000f3a:	4293      	cmp	r3, r2
 8000f3c:	d86f      	bhi.n	800101e <HAL_GPIO_Init+0x12e>
 8000f3e:	4a93      	ldr	r2, [pc, #588]	; (800118c <HAL_GPIO_Init+0x29c>)
 8000f40:	4293      	cmp	r3, r2
 8000f42:	d052      	beq.n	8000fea <HAL_GPIO_Init+0xfa>
 8000f44:	4a91      	ldr	r2, [pc, #580]	; (800118c <HAL_GPIO_Init+0x29c>)
 8000f46:	4293      	cmp	r3, r2
 8000f48:	d869      	bhi.n	800101e <HAL_GPIO_Init+0x12e>
 8000f4a:	4a91      	ldr	r2, [pc, #580]	; (8001190 <HAL_GPIO_Init+0x2a0>)
 8000f4c:	4293      	cmp	r3, r2
 8000f4e:	d04c      	beq.n	8000fea <HAL_GPIO_Init+0xfa>
 8000f50:	4a8f      	ldr	r2, [pc, #572]	; (8001190 <HAL_GPIO_Init+0x2a0>)
 8000f52:	4293      	cmp	r3, r2
 8000f54:	d863      	bhi.n	800101e <HAL_GPIO_Init+0x12e>
 8000f56:	4a8f      	ldr	r2, [pc, #572]	; (8001194 <HAL_GPIO_Init+0x2a4>)
 8000f58:	4293      	cmp	r3, r2
 8000f5a:	d046      	beq.n	8000fea <HAL_GPIO_Init+0xfa>
 8000f5c:	4a8d      	ldr	r2, [pc, #564]	; (8001194 <HAL_GPIO_Init+0x2a4>)
 8000f5e:	4293      	cmp	r3, r2
 8000f60:	d85d      	bhi.n	800101e <HAL_GPIO_Init+0x12e>
 8000f62:	2b12      	cmp	r3, #18
 8000f64:	d82a      	bhi.n	8000fbc <HAL_GPIO_Init+0xcc>
 8000f66:	2b12      	cmp	r3, #18
 8000f68:	d859      	bhi.n	800101e <HAL_GPIO_Init+0x12e>
 8000f6a:	a201      	add	r2, pc, #4	; (adr r2, 8000f70 <HAL_GPIO_Init+0x80>)
 8000f6c:	f852 f023 	ldr.w	pc, [r2, r3, lsl #2]
 8000f70:	08000feb 	.word	0x08000feb
 8000f74:	08000fc5 	.word	0x08000fc5
 8000f78:	08000fd7 	.word	0x08000fd7
 8000f7c:	08001019 	.word	0x08001019
 8000f80:	0800101f 	.word	0x0800101f
 8000f84:	0800101f 	.word	0x0800101f
 8000f88:	0800101f 	.word	0x0800101f
 8000f8c:	0800101f 	.word	0x0800101f
 8000f90:	0800101f 	.word	0x0800101f
 8000f94:	0800101f 	.word	0x0800101f
 8000f98:	0800101f 	.word	0x0800101f
 8000f9c:	0800101f 	.word	0x0800101f
 8000fa0:	0800101f 	.word	0x0800101f
 8000fa4:	0800101f 	.word	0x0800101f
 8000fa8:	0800101f 	.word	0x0800101f
 8000fac:	0800101f 	.word	0x0800101f
 8000fb0:	0800101f 	.word	0x0800101f
 8000fb4:	08000fcd 	.word	0x08000fcd
 8000fb8:	08000fe1 	.word	0x08000fe1
 8000fbc:	4a76      	ldr	r2, [pc, #472]	; (8001198 <HAL_GPIO_Init+0x2a8>)
 8000fbe:	4293      	cmp	r3, r2
 8000fc0:	d013      	beq.n	8000fea <HAL_GPIO_Init+0xfa>
          config = GPIO_CR_MODE_INPUT + GPIO_CR_CNF_ANALOG;
          break;

        /* Parameters are checked with assert_param */
        default:
          break;
 8000fc2:	e02c      	b.n	800101e <HAL_GPIO_Init+0x12e>
          config = GPIO_Init->Speed + GPIO_CR_CNF_GP_OUTPUT_PP;
 8000fc4:	683b      	ldr	r3, [r7, #0]
 8000fc6:	68db      	ldr	r3, [r3, #12]
 8000fc8:	623b      	str	r3, [r7, #32]
          break;
 8000fca:	e029      	b.n	8001020 <HAL_GPIO_Init+0x130>
          config = GPIO_Init->Speed + GPIO_CR_CNF_GP_OUTPUT_OD;
 8000fcc:	683b      	ldr	r3, [r7, #0]
 8000fce:	68db      	ldr	r3, [r3, #12]
 8000fd0:	3304      	adds	r3, #4
 8000fd2:	623b      	str	r3, [r7, #32]
          break;
 8000fd4:	e024      	b.n	8001020 <HAL_GPIO_Init+0x130>
          config = GPIO_Init->Speed + GPIO_CR_CNF_AF_OUTPUT_PP;
 8000fd6:	683b      	ldr	r3, [r7, #0]
 8000fd8:	68db      	ldr	r3, [r3, #12]
 8000fda:	3308      	adds	r3, #8
 8000fdc:	623b      	str	r3, [r7, #32]
          break;
 8000fde:	e01f      	b.n	8001020 <HAL_GPIO_Init+0x130>
          config = GPIO_Init->Speed + GPIO_CR_CNF_AF_OUTPUT_OD;
 8000fe0:	683b      	ldr	r3, [r7, #0]
 8000fe2:	68db      	ldr	r3, [r3, #12]
 8000fe4:	330c      	adds	r3, #12
 8000fe6:	623b      	str	r3, [r7, #32]
          break;
 8000fe8:	e01a      	b.n	8001020 <HAL_GPIO_Init+0x130>
          if (GPIO_Init->Pull == GPIO_NOPULL)
 8000fea:	683b      	ldr	r3, [r7, #0]
 8000fec:	689b      	ldr	r3, [r3, #8]
 8000fee:	2b00      	cmp	r3, #0
 8000ff0:	d102      	bne.n	8000ff8 <HAL_GPIO_Init+0x108>
            config = GPIO_CR_MODE_INPUT + GPIO_CR_CNF_INPUT_FLOATING;
 8000ff2:	2304      	movs	r3, #4
 8000ff4:	623b      	str	r3, [r7, #32]
          break;
 8000ff6:	e013      	b.n	8001020 <HAL_GPIO_Init+0x130>
          else if (GPIO_Init->Pull == GPIO_PULLUP)
 8000ff8:	683b      	ldr	r3, [r7, #0]
 8000ffa:	689b      	ldr	r3, [r3, #8]
 8000ffc:	2b01      	cmp	r3, #1
 8000ffe:	d105      	bne.n	800100c <HAL_GPIO_Init+0x11c>
            config = GPIO_CR_MODE_INPUT + GPIO_CR_CNF_INPUT_PU_PD;
 8001000:	2308      	movs	r3, #8
 8001002:	623b      	str	r3, [r7, #32]
            GPIOx->BSRR = ioposition;
 8001004:	687b      	ldr	r3, [r7, #4]
 8001006:	69fa      	ldr	r2, [r7, #28]
 8001008:	611a      	str	r2, [r3, #16]
          break;
 800100a:	e009      	b.n	8001020 <HAL_GPIO_Init+0x130>
            config = GPIO_CR_MODE_INPUT + GPIO_CR_CNF_INPUT_PU_PD;
 800100c:	2308      	movs	r3, #8
 800100e:	623b      	str	r3, [r7, #32]
            GPIOx->BRR = ioposition;
 8001010:	687b      	ldr	r3, [r7, #4]
 8001012:	69fa      	ldr	r2, [r7, #28]
 8001014:	615a      	str	r2, [r3, #20]
          break;
 8001016:	e003      	b.n	8001020 <HAL_GPIO_Init+0x130>
          config = GPIO_CR_MODE_INPUT + GPIO_CR_CNF_ANALOG;
 8001018:	2300      	movs	r3, #0
 800101a:	623b      	str	r3, [r7, #32]
          break;
 800101c:	e000      	b.n	8001020 <HAL_GPIO_Init+0x130>
          break;
 800101e:	bf00      	nop
      }

      /* Check if the current bit belongs to first half or last half of the pin count number
       in order to address CRH or CRL register*/
      configregister = (iocurrent < GPIO_PIN_8) ? &GPIOx->CRL     : &GPIOx->CRH;
 8001020:	69bb      	ldr	r3, [r7, #24]
 8001022:	2bff      	cmp	r3, #255	; 0xff
 8001024:	d801      	bhi.n	800102a <HAL_GPIO_Init+0x13a>
 8001026:	687b      	ldr	r3, [r7, #4]
 8001028:	e001      	b.n	800102e <HAL_GPIO_Init+0x13e>
 800102a:	687b      	ldr	r3, [r7, #4]
 800102c:	3304      	adds	r3, #4
 800102e:	617b      	str	r3, [r7, #20]
      registeroffset = (iocurrent < GPIO_PIN_8) ? (position << 2u) : ((position - 8u) << 2u);
 8001030:	69bb      	ldr	r3, [r7, #24]
 8001032:	2bff      	cmp	r3, #255	; 0xff
 8001034:	d802      	bhi.n	800103c <HAL_GPIO_Init+0x14c>
 8001036:	6a7b      	ldr	r3, [r7, #36]	; 0x24
 8001038:	009b      	lsls	r3, r3, #2
 800103a:	e002      	b.n	8001042 <HAL_GPIO_Init+0x152>
 800103c:	6a7b      	ldr	r3, [r7, #36]	; 0x24
 800103e:	3b08      	subs	r3, #8
 8001040:	009b      	lsls	r3, r3, #2
 8001042:	613b      	str	r3, [r7, #16]

      /* Apply the new configuration of the pin to the register */
      MODIFY_REG((*configregister), ((GPIO_CRL_MODE0 | GPIO_CRL_CNF0) << registeroffset), (config << registeroffset));
 8001044:	697b      	ldr	r3, [r7, #20]
 8001046:	681a      	ldr	r2, [r3, #0]
 8001048:	210f      	movs	r1, #15
 800104a:	693b      	ldr	r3, [r7, #16]
 800104c:	fa01 f303 	lsl.w	r3, r1, r3
 8001050:	43db      	mvns	r3, r3
 8001052:	401a      	ands	r2, r3
 8001054:	6a39      	ldr	r1, [r7, #32]
 8001056:	693b      	ldr	r3, [r7, #16]
 8001058:	fa01 f303 	lsl.w	r3, r1, r3
 800105c:	431a      	orrs	r2, r3
 800105e:	697b      	ldr	r3, [r7, #20]
 8001060:	601a      	str	r2, [r3, #0]

      /*--------------------- EXTI Mode Configuration ------------------------*/
      /* Configure the External Interrupt or event for the current IO */
      if ((GPIO_Init->Mode & EXTI_MODE) == EXTI_MODE)
 8001062:	683b      	ldr	r3, [r7, #0]
 8001064:	685b      	ldr	r3, [r3, #4]
 8001066:	f003 5380 	and.w	r3, r3, #268435456	; 0x10000000
 800106a:	2b00      	cmp	r3, #0
 800106c:	f000 80a9 	beq.w	80011c2 <HAL_GPIO_Init+0x2d2>
      {
        /* Enable AFIO Clock */
        __HAL_RCC_AFIO_CLK_ENABLE();
 8001070:	4b4a      	ldr	r3, [pc, #296]	; (800119c <HAL_GPIO_Init+0x2ac>)
 8001072:	699b      	ldr	r3, [r3, #24]
 8001074:	4a49      	ldr	r2, [pc, #292]	; (800119c <HAL_GPIO_Init+0x2ac>)
 8001076:	f043 0301 	orr.w	r3, r3, #1
 800107a:	6193      	str	r3, [r2, #24]
 800107c:	4b47      	ldr	r3, [pc, #284]	; (800119c <HAL_GPIO_Init+0x2ac>)
 800107e:	699b      	ldr	r3, [r3, #24]
 8001080:	f003 0301 	and.w	r3, r3, #1
 8001084:	60bb      	str	r3, [r7, #8]
 8001086:	68bb      	ldr	r3, [r7, #8]
        temp = AFIO->EXTICR[position >> 2u];
 8001088:	4a45      	ldr	r2, [pc, #276]	; (80011a0 <HAL_GPIO_Init+0x2b0>)
 800108a:	6a7b      	ldr	r3, [r7, #36]	; 0x24
 800108c:	089b      	lsrs	r3, r3, #2
 800108e:	3302      	adds	r3, #2
 8001090:	f852 3023 	ldr.w	r3, [r2, r3, lsl #2]
 8001094:	60fb      	str	r3, [r7, #12]
        CLEAR_BIT(temp, (0x0Fu) << (4u * (position & 0x03u)));
 8001096:	6a7b      	ldr	r3, [r7, #36]	; 0x24
 8001098:	f003 0303 	and.w	r3, r3, #3
 800109c:	009b      	lsls	r3, r3, #2
 800109e:	220f      	movs	r2, #15
 80010a0:	fa02 f303 	lsl.w	r3, r2, r3
 80010a4:	43db      	mvns	r3, r3
 80010a6:	68fa      	ldr	r2, [r7, #12]
 80010a8:	4013      	ands	r3, r2
 80010aa:	60fb      	str	r3, [r7, #12]
        SET_BIT(temp, (GPIO_GET_INDEX(GPIOx)) << (4u * (position & 0x03u)));
 80010ac:	687b      	ldr	r3, [r7, #4]
 80010ae:	4a3d      	ldr	r2, [pc, #244]	; (80011a4 <HAL_GPIO_Init+0x2b4>)
 80010b0:	4293      	cmp	r3, r2
 80010b2:	d00d      	beq.n	80010d0 <HAL_GPIO_Init+0x1e0>
 80010b4:	687b      	ldr	r3, [r7, #4]
 80010b6:	4a3c      	ldr	r2, [pc, #240]	; (80011a8 <HAL_GPIO_Init+0x2b8>)
 80010b8:	4293      	cmp	r3, r2
 80010ba:	d007      	beq.n	80010cc <HAL_GPIO_Init+0x1dc>
 80010bc:	687b      	ldr	r3, [r7, #4]
 80010be:	4a3b      	ldr	r2, [pc, #236]	; (80011ac <HAL_GPIO_Init+0x2bc>)
 80010c0:	4293      	cmp	r3, r2
 80010c2:	d101      	bne.n	80010c8 <HAL_GPIO_Init+0x1d8>
 80010c4:	2302      	movs	r3, #2
 80010c6:	e004      	b.n	80010d2 <HAL_GPIO_Init+0x1e2>
 80010c8:	2303      	movs	r3, #3
 80010ca:	e002      	b.n	80010d2 <HAL_GPIO_Init+0x1e2>
 80010cc:	2301      	movs	r3, #1
 80010ce:	e000      	b.n	80010d2 <HAL_GPIO_Init+0x1e2>
 80010d0:	2300      	movs	r3, #0
 80010d2:	6a7a      	ldr	r2, [r7, #36]	; 0x24
 80010d4:	f002 0203 	and.w	r2, r2, #3
 80010d8:	0092      	lsls	r2, r2, #2
 80010da:	4093      	lsls	r3, r2
 80010dc:	68fa      	ldr	r2, [r7, #12]
 80010de:	4313      	orrs	r3, r2
 80010e0:	60fb      	str	r3, [r7, #12]
        AFIO->EXTICR[position >> 2u] = temp;
 80010e2:	492f      	ldr	r1, [pc, #188]	; (80011a0 <HAL_GPIO_Init+0x2b0>)
 80010e4:	6a7b      	ldr	r3, [r7, #36]	; 0x24
 80010e6:	089b      	lsrs	r3, r3, #2
 80010e8:	3302      	adds	r3, #2
 80010ea:	68fa      	ldr	r2, [r7, #12]
 80010ec:	f841 2023 	str.w	r2, [r1, r3, lsl #2]


        /* Enable or disable the rising trigger */
        if ((GPIO_Init->Mode & RISING_EDGE) == RISING_EDGE)
 80010f0:	683b      	ldr	r3, [r7, #0]
 80010f2:	685b      	ldr	r3, [r3, #4]
 80010f4:	f403 1380 	and.w	r3, r3, #1048576	; 0x100000
 80010f8:	2b00      	cmp	r3, #0
 80010fa:	d006      	beq.n	800110a <HAL_GPIO_Init+0x21a>
        {
          SET_BIT(EXTI->RTSR, iocurrent);
 80010fc:	4b2c      	ldr	r3, [pc, #176]	; (80011b0 <HAL_GPIO_Init+0x2c0>)
 80010fe:	689a      	ldr	r2, [r3, #8]
 8001100:	492b      	ldr	r1, [pc, #172]	; (80011b0 <HAL_GPIO_Init+0x2c0>)
 8001102:	69bb      	ldr	r3, [r7, #24]
 8001104:	4313      	orrs	r3, r2
 8001106:	608b      	str	r3, [r1, #8]
 8001108:	e006      	b.n	8001118 <HAL_GPIO_Init+0x228>
        }
        else
        {
          CLEAR_BIT(EXTI->RTSR, iocurrent);
 800110a:	4b29      	ldr	r3, [pc, #164]	; (80011b0 <HAL_GPIO_Init+0x2c0>)
 800110c:	689a      	ldr	r2, [r3, #8]
 800110e:	69bb      	ldr	r3, [r7, #24]
 8001110:	43db      	mvns	r3, r3
 8001112:	4927      	ldr	r1, [pc, #156]	; (80011b0 <HAL_GPIO_Init+0x2c0>)
 8001114:	4013      	ands	r3, r2
 8001116:	608b      	str	r3, [r1, #8]
        }

        /* Enable or disable the falling trigger */
        if ((GPIO_Init->Mode & FALLING_EDGE) == FALLING_EDGE)
 8001118:	683b      	ldr	r3, [r7, #0]
 800111a:	685b      	ldr	r3, [r3, #4]
 800111c:	f403 1300 	and.w	r3, r3, #2097152	; 0x200000
 8001120:	2b00      	cmp	r3, #0
 8001122:	d006      	beq.n	8001132 <HAL_GPIO_Init+0x242>
        {
          SET_BIT(EXTI->FTSR, iocurrent);
 8001124:	4b22      	ldr	r3, [pc, #136]	; (80011b0 <HAL_GPIO_Init+0x2c0>)
 8001126:	68da      	ldr	r2, [r3, #12]
 8001128:	4921      	ldr	r1, [pc, #132]	; (80011b0 <HAL_GPIO_Init+0x2c0>)
 800112a:	69bb      	ldr	r3, [r7, #24]
 800112c:	4313      	orrs	r3, r2
 800112e:	60cb      	str	r3, [r1, #12]
 8001130:	e006      	b.n	8001140 <HAL_GPIO_Init+0x250>
        }
        else
        {
          CLEAR_BIT(EXTI->FTSR, iocurrent);
 8001132:	4b1f      	ldr	r3, [pc, #124]	; (80011b0 <HAL_GPIO_Init+0x2c0>)
 8001134:	68da      	ldr	r2, [r3, #12]
 8001136:	69bb      	ldr	r3, [r7, #24]
 8001138:	43db      	mvns	r3, r3
 800113a:	491d      	ldr	r1, [pc, #116]	; (80011b0 <HAL_GPIO_Init+0x2c0>)
 800113c:	4013      	ands	r3, r2
 800113e:	60cb      	str	r3, [r1, #12]
        }

        /* Configure the event mask */
        if ((GPIO_Init->Mode & GPIO_MODE_EVT) == GPIO_MODE_EVT)
 8001140:	683b      	ldr	r3, [r7, #0]
 8001142:	685b      	ldr	r3, [r3, #4]
 8001144:	f403 3300 	and.w	r3, r3, #131072	; 0x20000
 8001148:	2b00      	cmp	r3, #0
 800114a:	d006      	beq.n	800115a <HAL_GPIO_Init+0x26a>
        {
          SET_BIT(EXTI->EMR, iocurrent);
 800114c:	4b18      	ldr	r3, [pc, #96]	; (80011b0 <HAL_GPIO_Init+0x2c0>)
 800114e:	685a      	ldr	r2, [r3, #4]
 8001150:	4917      	ldr	r1, [pc, #92]	; (80011b0 <HAL_GPIO_Init+0x2c0>)
 8001152:	69bb      	ldr	r3, [r7, #24]
 8001154:	4313      	orrs	r3, r2
 8001156:	604b      	str	r3, [r1, #4]
 8001158:	e006      	b.n	8001168 <HAL_GPIO_Init+0x278>
        }
        else
        {
          CLEAR_BIT(EXTI->EMR, iocurrent);
 800115a:	4b15      	ldr	r3, [pc, #84]	; (80011b0 <HAL_GPIO_Init+0x2c0>)
 800115c:	685a      	ldr	r2, [r3, #4]
 800115e:	69bb      	ldr	r3, [r7, #24]
 8001160:	43db      	mvns	r3, r3
 8001162:	4913      	ldr	r1, [pc, #76]	; (80011b0 <HAL_GPIO_Init+0x2c0>)
 8001164:	4013      	ands	r3, r2
 8001166:	604b      	str	r3, [r1, #4]
        }

        /* Configure the interrupt mask */
        if ((GPIO_Init->Mode & GPIO_MODE_IT) == GPIO_MODE_IT)
 8001168:	683b      	ldr	r3, [r7, #0]
 800116a:	685b      	ldr	r3, [r3, #4]
 800116c:	f403 3380 	and.w	r3, r3, #65536	; 0x10000
 8001170:	2b00      	cmp	r3, #0
 8001172:	d01f      	beq.n	80011b4 <HAL_GPIO_Init+0x2c4>
        {
          SET_BIT(EXTI->IMR, iocurrent);
 8001174:	4b0e      	ldr	r3, [pc, #56]	; (80011b0 <HAL_GPIO_Init+0x2c0>)
 8001176:	681a      	ldr	r2, [r3, #0]
 8001178:	490d      	ldr	r1, [pc, #52]	; (80011b0 <HAL_GPIO_Init+0x2c0>)
 800117a:	69bb      	ldr	r3, [r7, #24]
 800117c:	4313      	orrs	r3, r2
 800117e:	600b      	str	r3, [r1, #0]
 8001180:	e01f      	b.n	80011c2 <HAL_GPIO_Init+0x2d2>
 8001182:	bf00      	nop
 8001184:	10320000 	.word	0x10320000
 8001188:	10310000 	.word	0x10310000
 800118c:	10220000 	.word	0x10220000
 8001190:	10210000 	.word	0x10210000
 8001194:	10120000 	.word	0x10120000
 8001198:	10110000 	.word	0x10110000
 800119c:	40021000 	.word	0x40021000
 80011a0:	40010000 	.word	0x40010000
 80011a4:	40010800 	.word	0x40010800
 80011a8:	40010c00 	.word	0x40010c00
 80011ac:	40011000 	.word	0x40011000
 80011b0:	40010400 	.word	0x40010400
        }
        else
        {
          CLEAR_BIT(EXTI->IMR, iocurrent);
 80011b4:	4b0b      	ldr	r3, [pc, #44]	; (80011e4 <HAL_GPIO_Init+0x2f4>)
 80011b6:	681a      	ldr	r2, [r3, #0]
 80011b8:	69bb      	ldr	r3, [r7, #24]
 80011ba:	43db      	mvns	r3, r3
 80011bc:	4909      	ldr	r1, [pc, #36]	; (80011e4 <HAL_GPIO_Init+0x2f4>)
 80011be:	4013      	ands	r3, r2
 80011c0:	600b      	str	r3, [r1, #0]
        }
      }
    }

	position++;
 80011c2:	6a7b      	ldr	r3, [r7, #36]	; 0x24
 80011c4:	3301      	adds	r3, #1
 80011c6:	627b      	str	r3, [r7, #36]	; 0x24
  while (((GPIO_Init->Pin) >> position) != 0x00u)
 80011c8:	683b      	ldr	r3, [r7, #0]
 80011ca:	681a      	ldr	r2, [r3, #0]
 80011cc:	6a7b      	ldr	r3, [r7, #36]	; 0x24
 80011ce:	fa22 f303 	lsr.w	r3, r2, r3
 80011d2:	2b00      	cmp	r3, #0
 80011d4:	f47f ae96 	bne.w	8000f04 <HAL_GPIO_Init+0x14>
  }
}
 80011d8:	bf00      	nop
 80011da:	bf00      	nop
 80011dc:	372c      	adds	r7, #44	; 0x2c
 80011de:	46bd      	mov	sp, r7
 80011e0:	bc80      	pop	{r7}
 80011e2:	4770      	bx	lr
 80011e4:	40010400 	.word	0x40010400

080011e8 <HAL_GPIO_WritePin>:
  *            @arg GPIO_PIN_RESET: to clear the port pin
  *            @arg GPIO_PIN_SET: to set the port pin
  * @retval None
  */
void HAL_GPIO_WritePin(GPIO_TypeDef *GPIOx, uint16_t GPIO_Pin, GPIO_PinState PinState)
{
 80011e8:	b480      	push	{r7}
 80011ea:	b083      	sub	sp, #12
 80011ec:	af00      	add	r7, sp, #0
 80011ee:	6078      	str	r0, [r7, #4]
 80011f0:	460b      	mov	r3, r1
 80011f2:	807b      	strh	r3, [r7, #2]
 80011f4:	4613      	mov	r3, r2
 80011f6:	707b      	strb	r3, [r7, #1]
  /* Check the parameters */
  assert_param(IS_GPIO_PIN(GPIO_Pin));
  assert_param(IS_GPIO_PIN_ACTION(PinState));

  if (PinState != GPIO_PIN_RESET)
 80011f8:	787b      	ldrb	r3, [r7, #1]
 80011fa:	2b00      	cmp	r3, #0
 80011fc:	d003      	beq.n	8001206 <HAL_GPIO_WritePin+0x1e>
  {
    GPIOx->BSRR = GPIO_Pin;
 80011fe:	887a      	ldrh	r2, [r7, #2]
 8001200:	687b      	ldr	r3, [r7, #4]
 8001202:	611a      	str	r2, [r3, #16]
  }
  else
  {
    GPIOx->BSRR = (uint32_t)GPIO_Pin << 16u;
  }
}
 8001204:	e003      	b.n	800120e <HAL_GPIO_WritePin+0x26>
    GPIOx->BSRR = (uint32_t)GPIO_Pin << 16u;
 8001206:	887b      	ldrh	r3, [r7, #2]
 8001208:	041a      	lsls	r2, r3, #16
 800120a:	687b      	ldr	r3, [r7, #4]
 800120c:	611a      	str	r2, [r3, #16]
}
 800120e:	bf00      	nop
 8001210:	370c      	adds	r7, #12
 8001212:	46bd      	mov	sp, r7
 8001214:	bc80      	pop	{r7}
 8001216:	4770      	bx	lr

08001218 <HAL_RCC_OscConfig>:
  *         supported by this macro. User should request a transition to HSE Off
  *         first and then HSE On or HSE Bypass.
  * @retval HAL status
  */
HAL_StatusTypeDef HAL_RCC_OscConfig(RCC_OscInitTypeDef  *RCC_OscInitStruct)
{
 8001218:	b580      	push	{r7, lr}
 800121a:	b086      	sub	sp, #24
 800121c:	af00      	add	r7, sp, #0
 800121e:	6078      	str	r0, [r7, #4]
  uint32_t tickstart;
  uint32_t pll_config;

  /* Check Null pointer */
  if (RCC_OscInitStruct == NULL)
 8001220:	687b      	ldr	r3, [r7, #4]
 8001222:	2b00      	cmp	r3, #0
 8001224:	d101      	bne.n	800122a <HAL_RCC_OscConfig+0x12>
  {
    return HAL_ERROR;
 8001226:	2301      	movs	r3, #1
 8001228:	e272      	b.n	8001710 <HAL_RCC_OscConfig+0x4f8>

  /* Check the parameters */
  assert_param(IS_RCC_OSCILLATORTYPE(RCC_OscInitStruct->OscillatorType));

  /*------------------------------- HSE Configuration ------------------------*/
  if (((RCC_OscInitStruct->OscillatorType) & RCC_OSCILLATORTYPE_HSE) == RCC_OSCILLATORTYPE_HSE)
 800122a:	687b      	ldr	r3, [r7, #4]
 800122c:	681b      	ldr	r3, [r3, #0]
 800122e:	f003 0301 	and.w	r3, r3, #1
 8001232:	2b00      	cmp	r3, #0
 8001234:	f000 8087 	beq.w	8001346 <HAL_RCC_OscConfig+0x12e>
  {
    /* Check the parameters */
    assert_param(IS_RCC_HSE(RCC_OscInitStruct->HSEState));

    /* When the HSE is used as system clock or clock source for PLL in these cases it is not allowed to be disabled */
    if ((__HAL_RCC_GET_SYSCLK_SOURCE() == RCC_SYSCLKSOURCE_STATUS_HSE)
 8001238:	4b92      	ldr	r3, [pc, #584]	; (8001484 <HAL_RCC_OscConfig+0x26c>)
 800123a:	685b      	ldr	r3, [r3, #4]
 800123c:	f003 030c 	and.w	r3, r3, #12
 8001240:	2b04      	cmp	r3, #4
 8001242:	d00c      	beq.n	800125e <HAL_RCC_OscConfig+0x46>
        || ((__HAL_RCC_GET_SYSCLK_SOURCE() == RCC_SYSCLKSOURCE_STATUS_PLLCLK) && (__HAL_RCC_GET_PLL_OSCSOURCE() == RCC_PLLSOURCE_HSE)))
 8001244:	4b8f      	ldr	r3, [pc, #572]	; (8001484 <HAL_RCC_OscConfig+0x26c>)
 8001246:	685b      	ldr	r3, [r3, #4]
 8001248:	f003 030c 	and.w	r3, r3, #12
 800124c:	2b08      	cmp	r3, #8
 800124e:	d112      	bne.n	8001276 <HAL_RCC_OscConfig+0x5e>
 8001250:	4b8c      	ldr	r3, [pc, #560]	; (8001484 <HAL_RCC_OscConfig+0x26c>)
 8001252:	685b      	ldr	r3, [r3, #4]
 8001254:	f403 3380 	and.w	r3, r3, #65536	; 0x10000
 8001258:	f5b3 3f80 	cmp.w	r3, #65536	; 0x10000
 800125c:	d10b      	bne.n	8001276 <HAL_RCC_OscConfig+0x5e>
    {
      if ((__HAL_RCC_GET_FLAG(RCC_FLAG_HSERDY) != RESET) && (RCC_OscInitStruct->HSEState == RCC_HSE_OFF))
 800125e:	4b89      	ldr	r3, [pc, #548]	; (8001484 <HAL_RCC_OscConfig+0x26c>)
 8001260:	681b      	ldr	r3, [r3, #0]
 8001262:	f403 3300 	and.w	r3, r3, #131072	; 0x20000
 8001266:	2b00      	cmp	r3, #0
 8001268:	d06c      	beq.n	8001344 <HAL_RCC_OscConfig+0x12c>
 800126a:	687b      	ldr	r3, [r7, #4]
 800126c:	685b      	ldr	r3, [r3, #4]
 800126e:	2b00      	cmp	r3, #0
 8001270:	d168      	bne.n	8001344 <HAL_RCC_OscConfig+0x12c>
      {
        return HAL_ERROR;
 8001272:	2301      	movs	r3, #1
 8001274:	e24c      	b.n	8001710 <HAL_RCC_OscConfig+0x4f8>
      }
    }
    else
    {
      /* Set the new HSE configuration ---------------------------------------*/
      __HAL_RCC_HSE_CONFIG(RCC_OscInitStruct->HSEState);
 8001276:	687b      	ldr	r3, [r7, #4]
 8001278:	685b      	ldr	r3, [r3, #4]
 800127a:	f5b3 3f80 	cmp.w	r3, #65536	; 0x10000
 800127e:	d106      	bne.n	800128e <HAL_RCC_OscConfig+0x76>
 8001280:	4b80      	ldr	r3, [pc, #512]	; (8001484 <HAL_RCC_OscConfig+0x26c>)
 8001282:	681b      	ldr	r3, [r3, #0]
 8001284:	4a7f      	ldr	r2, [pc, #508]	; (8001484 <HAL_RCC_OscConfig+0x26c>)
 8001286:	f443 3380 	orr.w	r3, r3, #65536	; 0x10000
 800128a:	6013      	str	r3, [r2, #0]
 800128c:	e02e      	b.n	80012ec <HAL_RCC_OscConfig+0xd4>
 800128e:	687b      	ldr	r3, [r7, #4]
 8001290:	685b      	ldr	r3, [r3, #4]
 8001292:	2b00      	cmp	r3, #0
 8001294:	d10c      	bne.n	80012b0 <HAL_RCC_OscConfig+0x98>
 8001296:	4b7b      	ldr	r3, [pc, #492]	; (8001484 <HAL_RCC_OscConfig+0x26c>)
 8001298:	681b      	ldr	r3, [r3, #0]
 800129a:	4a7a      	ldr	r2, [pc, #488]	; (8001484 <HAL_RCC_OscConfig+0x26c>)
 800129c:	f423 3380 	bic.w	r3, r3, #65536	; 0x10000
 80012a0:	6013      	str	r3, [r2, #0]
 80012a2:	4b78      	ldr	r3, [pc, #480]	; (8001484 <HAL_RCC_OscConfig+0x26c>)
 80012a4:	681b      	ldr	r3, [r3, #0]
 80012a6:	4a77      	ldr	r2, [pc, #476]	; (8001484 <HAL_RCC_OscConfig+0x26c>)
 80012a8:	f423 2380 	bic.w	r3, r3, #262144	; 0x40000
 80012ac:	6013      	str	r3, [r2, #0]
 80012ae:	e01d      	b.n	80012ec <HAL_RCC_OscConfig+0xd4>
 80012b0:	687b      	ldr	r3, [r7, #4]
 80012b2:	685b      	ldr	r3, [r3, #4]
 80012b4:	f5b3 2fa0 	cmp.w	r3, #327680	; 0x50000
 80012b8:	d10c      	bne.n	80012d4 <HAL_RCC_OscConfig+0xbc>
 80012ba:	4b72      	ldr	r3, [pc, #456]	; (8001484 <HAL_RCC_OscConfig+0x26c>)
 80012bc:	681b      	ldr	r3, [r3, #0]
 80012be:	4a71      	ldr	r2, [pc, #452]	; (8001484 <HAL_RCC_OscConfig+0x26c>)
 80012c0:	f443 2380 	orr.w	r3, r3, #262144	; 0x40000
 80012c4:	6013      	str	r3, [r2, #0]
 80012c6:	4b6f      	ldr	r3, [pc, #444]	; (8001484 <HAL_RCC_OscConfig+0x26c>)
 80012c8:	681b      	ldr	r3, [r3, #0]
 80012ca:	4a6e      	ldr	r2, [pc, #440]	; (8001484 <HAL_RCC_OscConfig+0x26c>)
 80012cc:	f443 3380 	orr.w	r3, r3, #65536	; 0x10000
 80012d0:	6013      	str	r3, [r2, #0]
 80012d2:	e00b      	b.n	80012ec <HAL_RCC_OscConfig+0xd4>
 80012d4:	4b6b      	ldr	r3, [pc, #428]	; (8001484 <HAL_RCC_OscConfig+0x26c>)
 80012d6:	681b      	ldr	r3, [r3, #0]
 80012d8:	4a6a      	ldr	r2, [pc, #424]	; (8001484 <HAL_RCC_OscConfig+0x26c>)
 80012da:	f423 3380 	bic.w	r3, r3, #65536	; 0x10000
 80012de:	6013      	str	r3, [r2, #0]
 80012e0:	4b68      	ldr	r3, [pc, #416]	; (8001484 <HAL_RCC_OscConfig+0x26c>)
 80012e2:	681b      	ldr	r3, [r3, #0]
 80012e4:	4a67      	ldr	r2, [pc, #412]	; (8001484 <HAL_RCC_OscConfig+0x26c>)
 80012e6:	f423 2380 	bic.w	r3, r3, #262144	; 0x40000
 80012ea:	6013      	str	r3, [r2, #0]


      /* Check the HSE State */
      if (RCC_OscInitStruct->HSEState != RCC_HSE_OFF)
 80012ec:	687b      	ldr	r3, [r7, #4]
 80012ee:	685b      	ldr	r3, [r3, #4]
 80012f0:	2b00      	cmp	r3, #0
 80012f2:	d013      	beq.n	800131c <HAL_RCC_OscConfig+0x104>
      {
        /* Get Start Tick */
        tickstart = HAL_GetTick();
 80012f4:	f7ff fce4 	bl	8000cc0 <HAL_GetTick>
 80012f8:	6138      	str	r0, [r7, #16]

        /* Wait till HSE is ready */
        while (__HAL_RCC_GET_FLAG(RCC_FLAG_HSERDY) == RESET)
 80012fa:	e008      	b.n	800130e <HAL_RCC_OscConfig+0xf6>
        {
          if ((HAL_GetTick() - tickstart) > HSE_TIMEOUT_VALUE)
 80012fc:	f7ff fce0 	bl	8000cc0 <HAL_GetTick>
 8001300:	4602      	mov	r2, r0
 8001302:	693b      	ldr	r3, [r7, #16]
 8001304:	1ad3      	subs	r3, r2, r3
 8001306:	2b64      	cmp	r3, #100	; 0x64
 8001308:	d901      	bls.n	800130e <HAL_RCC_OscConfig+0xf6>
          {
            return HAL_TIMEOUT;
 800130a:	2303      	movs	r3, #3
 800130c:	e200      	b.n	8001710 <HAL_RCC_OscConfig+0x4f8>
        while (__HAL_RCC_GET_FLAG(RCC_FLAG_HSERDY) == RESET)
 800130e:	4b5d      	ldr	r3, [pc, #372]	; (8001484 <HAL_RCC_OscConfig+0x26c>)
 8001310:	681b      	ldr	r3, [r3, #0]
 8001312:	f403 3300 	and.w	r3, r3, #131072	; 0x20000
 8001316:	2b00      	cmp	r3, #0
 8001318:	d0f0      	beq.n	80012fc <HAL_RCC_OscConfig+0xe4>
 800131a:	e014      	b.n	8001346 <HAL_RCC_OscConfig+0x12e>
        }
      }
      else
      {
        /* Get Start Tick */
        tickstart = HAL_GetTick();
 800131c:	f7ff fcd0 	bl	8000cc0 <HAL_GetTick>
 8001320:	6138      	str	r0, [r7, #16]

        /* Wait till HSE is disabled */
        while (__HAL_RCC_GET_FLAG(RCC_FLAG_HSERDY) != RESET)
 8001322:	e008      	b.n	8001336 <HAL_RCC_OscConfig+0x11e>
        {
          if ((HAL_GetTick() - tickstart) > HSE_TIMEOUT_VALUE)
 8001324:	f7ff fccc 	bl	8000cc0 <HAL_GetTick>
 8001328:	4602      	mov	r2, r0
 800132a:	693b      	ldr	r3, [r7, #16]
 800132c:	1ad3      	subs	r3, r2, r3
 800132e:	2b64      	cmp	r3, #100	; 0x64
 8001330:	d901      	bls.n	8001336 <HAL_RCC_OscConfig+0x11e>
          {
            return HAL_TIMEOUT;
 8001332:	2303      	movs	r3, #3
 8001334:	e1ec      	b.n	8001710 <HAL_RCC_OscConfig+0x4f8>
        while (__HAL_RCC_GET_FLAG(RCC_FLAG_HSERDY) != RESET)
 8001336:	4b53      	ldr	r3, [pc, #332]	; (8001484 <HAL_RCC_OscConfig+0x26c>)
 8001338:	681b      	ldr	r3, [r3, #0]
 800133a:	f403 3300 	and.w	r3, r3, #131072	; 0x20000
 800133e:	2b00      	cmp	r3, #0
 8001340:	d1f0      	bne.n	8001324 <HAL_RCC_OscConfig+0x10c>
 8001342:	e000      	b.n	8001346 <HAL_RCC_OscConfig+0x12e>
      if ((__HAL_RCC_GET_FLAG(RCC_FLAG_HSERDY) != RESET) && (RCC_OscInitStruct->HSEState == RCC_HSE_OFF))
 8001344:	bf00      	nop
        }
      }
    }
  }
  /*----------------------------- HSI Configuration --------------------------*/
  if (((RCC_OscInitStruct->OscillatorType) & RCC_OSCILLATORTYPE_HSI) == RCC_OSCILLATORTYPE_HSI)
 8001346:	687b      	ldr	r3, [r7, #4]
 8001348:	681b      	ldr	r3, [r3, #0]
 800134a:	f003 0302 	and.w	r3, r3, #2
 800134e:	2b00      	cmp	r3, #0
 8001350:	d063      	beq.n	800141a <HAL_RCC_OscConfig+0x202>
    /* Check the parameters */
    assert_param(IS_RCC_HSI(RCC_OscInitStruct->HSIState));
    assert_param(IS_RCC_CALIBRATION_VALUE(RCC_OscInitStruct->HSICalibrationValue));

    /* Check if HSI is used as system clock or as PLL source when PLL is selected as system clock */
    if ((__HAL_RCC_GET_SYSCLK_SOURCE() == RCC_SYSCLKSOURCE_STATUS_HSI)
 8001352:	4b4c      	ldr	r3, [pc, #304]	; (8001484 <HAL_RCC_OscConfig+0x26c>)
 8001354:	685b      	ldr	r3, [r3, #4]
 8001356:	f003 030c 	and.w	r3, r3, #12
 800135a:	2b00      	cmp	r3, #0
 800135c:	d00b      	beq.n	8001376 <HAL_RCC_OscConfig+0x15e>
        || ((__HAL_RCC_GET_SYSCLK_SOURCE() == RCC_SYSCLKSOURCE_STATUS_PLLCLK) && (__HAL_RCC_GET_PLL_OSCSOURCE() == RCC_PLLSOURCE_HSI_DIV2)))
 800135e:	4b49      	ldr	r3, [pc, #292]	; (8001484 <HAL_RCC_OscConfig+0x26c>)
 8001360:	685b      	ldr	r3, [r3, #4]
 8001362:	f003 030c 	and.w	r3, r3, #12
 8001366:	2b08      	cmp	r3, #8
 8001368:	d11c      	bne.n	80013a4 <HAL_RCC_OscConfig+0x18c>
 800136a:	4b46      	ldr	r3, [pc, #280]	; (8001484 <HAL_RCC_OscConfig+0x26c>)
 800136c:	685b      	ldr	r3, [r3, #4]
 800136e:	f403 3380 	and.w	r3, r3, #65536	; 0x10000
 8001372:	2b00      	cmp	r3, #0
 8001374:	d116      	bne.n	80013a4 <HAL_RCC_OscConfig+0x18c>
    {
      /* When HSI is used as system clock it will not disabled */
      if ((__HAL_RCC_GET_FLAG(RCC_FLAG_HSIRDY) != RESET) && (RCC_OscInitStruct->HSIState != RCC_HSI_ON))
 8001376:	4b43      	ldr	r3, [pc, #268]	; (8001484 <HAL_RCC_OscConfig+0x26c>)
 8001378:	681b      	ldr	r3, [r3, #0]
 800137a:	f003 0302 	and.w	r3, r3, #2
 800137e:	2b00      	cmp	r3, #0
 8001380:	d005      	beq.n	800138e <HAL_RCC_OscConfig+0x176>
 8001382:	687b      	ldr	r3, [r7, #4]
 8001384:	691b      	ldr	r3, [r3, #16]
 8001386:	2b01      	cmp	r3, #1
 8001388:	d001      	beq.n	800138e <HAL_RCC_OscConfig+0x176>
      {
        return HAL_ERROR;
 800138a:	2301      	movs	r3, #1
 800138c:	e1c0      	b.n	8001710 <HAL_RCC_OscConfig+0x4f8>
      }
      /* Otherwise, just the calibration is allowed */
      else
      {
        /* Adjusts the Internal High Speed oscillator (HSI) calibration value.*/
        __HAL_RCC_HSI_CALIBRATIONVALUE_ADJUST(RCC_OscInitStruct->HSICalibrationValue);
 800138e:	4b3d      	ldr	r3, [pc, #244]	; (8001484 <HAL_RCC_OscConfig+0x26c>)
 8001390:	681b      	ldr	r3, [r3, #0]
 8001392:	f023 02f8 	bic.w	r2, r3, #248	; 0xf8
 8001396:	687b      	ldr	r3, [r7, #4]
 8001398:	695b      	ldr	r3, [r3, #20]
 800139a:	00db      	lsls	r3, r3, #3
 800139c:	4939      	ldr	r1, [pc, #228]	; (8001484 <HAL_RCC_OscConfig+0x26c>)
 800139e:	4313      	orrs	r3, r2
 80013a0:	600b      	str	r3, [r1, #0]
      if ((__HAL_RCC_GET_FLAG(RCC_FLAG_HSIRDY) != RESET) && (RCC_OscInitStruct->HSIState != RCC_HSI_ON))
 80013a2:	e03a      	b.n	800141a <HAL_RCC_OscConfig+0x202>
      }
    }
    else
    {
      /* Check the HSI State */
      if (RCC_OscInitStruct->HSIState != RCC_HSI_OFF)
 80013a4:	687b      	ldr	r3, [r7, #4]
 80013a6:	691b      	ldr	r3, [r3, #16]
 80013a8:	2b00      	cmp	r3, #0
 80013aa:	d020      	beq.n	80013ee <HAL_RCC_OscConfig+0x1d6>
      {
        /* Enable the Internal High Speed oscillator (HSI). */
        __HAL_RCC_HSI_ENABLE();
 80013ac:	4b36      	ldr	r3, [pc, #216]	; (8001488 <HAL_RCC_OscConfig+0x270>)
 80013ae:	2201      	movs	r2, #1
 80013b0:	601a      	str	r2, [r3, #0]

        /* Get Start Tick */
        tickstart = HAL_GetTick();
 80013b2:	f7ff fc85 	bl	8000cc0 <HAL_GetTick>
 80013b6:	6138      	str	r0, [r7, #16]

        /* Wait till HSI is ready */
        while (__HAL_RCC_GET_FLAG(RCC_FLAG_HSIRDY) == RESET)
 80013b8:	e008      	b.n	80013cc <HAL_RCC_OscConfig+0x1b4>
        {
          if ((HAL_GetTick() - tickstart) > HSI_TIMEOUT_VALUE)
 80013ba:	f7ff fc81 	bl	8000cc0 <HAL_GetTick>
 80013be:	4602      	mov	r2, r0
 80013c0:	693b      	ldr	r3, [r7, #16]
 80013c2:	1ad3      	subs	r3, r2, r3
 80013c4:	2b02      	cmp	r3, #2
 80013c6:	d901      	bls.n	80013cc <HAL_RCC_OscConfig+0x1b4>
          {
            return HAL_TIMEOUT;
 80013c8:	2303      	movs	r3, #3
 80013ca:	e1a1      	b.n	8001710 <HAL_RCC_OscConfig+0x4f8>
        while (__HAL_RCC_GET_FLAG(RCC_FLAG_HSIRDY) == RESET)
 80013cc:	4b2d      	ldr	r3, [pc, #180]	; (8001484 <HAL_RCC_OscConfig+0x26c>)
 80013ce:	681b      	ldr	r3, [r3, #0]
 80013d0:	f003 0302 	and.w	r3, r3, #2
 80013d4:	2b00      	cmp	r3, #0
 80013d6:	d0f0      	beq.n	80013ba <HAL_RCC_OscConfig+0x1a2>
          }
        }

        /* Adjusts the Internal High Speed oscillator (HSI) calibration value.*/
        __HAL_RCC_HSI_CALIBRATIONVALUE_ADJUST(RCC_OscInitStruct->HSICalibrationValue);
 80013d8:	4b2a      	ldr	r3, [pc, #168]	; (8001484 <HAL_RCC_OscConfig+0x26c>)
 80013da:	681b      	ldr	r3, [r3, #0]
 80013dc:	f023 02f8 	bic.w	r2, r3, #248	; 0xf8
 80013e0:	687b      	ldr	r3, [r7, #4]
 80013e2:	695b      	ldr	r3, [r3, #20]
 80013e4:	00db      	lsls	r3, r3, #3
 80013e6:	4927      	ldr	r1, [pc, #156]	; (8001484 <HAL_RCC_OscConfig+0x26c>)
 80013e8:	4313      	orrs	r3, r2
 80013ea:	600b      	str	r3, [r1, #0]
 80013ec:	e015      	b.n	800141a <HAL_RCC_OscConfig+0x202>
      }
      else
      {
        /* Disable the Internal High Speed oscillator (HSI). */
        __HAL_RCC_HSI_DISABLE();
 80013ee:	4b26      	ldr	r3, [pc, #152]	; (8001488 <HAL_RCC_OscConfig+0x270>)
 80013f0:	2200      	movs	r2, #0
 80013f2:	601a      	str	r2, [r3, #0]

        /* Get Start Tick */
        tickstart = HAL_GetTick();
 80013f4:	f7ff fc64 	bl	8000cc0 <HAL_GetTick>
 80013f8:	6138      	str	r0, [r7, #16]

        /* Wait till HSI is disabled */
        while (__HAL_RCC_GET_FLAG(RCC_FLAG_HSIRDY) != RESET)
 80013fa:	e008      	b.n	800140e <HAL_RCC_OscConfig+0x1f6>
        {
          if ((HAL_GetTick() - tickstart) > HSI_TIMEOUT_VALUE)
 80013fc:	f7ff fc60 	bl	8000cc0 <HAL_GetTick>
 8001400:	4602      	mov	r2, r0
 8001402:	693b      	ldr	r3, [r7, #16]
 8001404:	1ad3      	subs	r3, r2, r3
 8001406:	2b02      	cmp	r3, #2
 8001408:	d901      	bls.n	800140e <HAL_RCC_OscConfig+0x1f6>
          {
            return HAL_TIMEOUT;
 800140a:	2303      	movs	r3, #3
 800140c:	e180      	b.n	8001710 <HAL_RCC_OscConfig+0x4f8>
        while (__HAL_RCC_GET_FLAG(RCC_FLAG_HSIRDY) != RESET)
 800140e:	4b1d      	ldr	r3, [pc, #116]	; (8001484 <HAL_RCC_OscConfig+0x26c>)
 8001410:	681b      	ldr	r3, [r3, #0]
 8001412:	f003 0302 	and.w	r3, r3, #2
 8001416:	2b00      	cmp	r3, #0
 8001418:	d1f0      	bne.n	80013fc <HAL_RCC_OscConfig+0x1e4>
        }
      }
    }
  }
  /*------------------------------ LSI Configuration -------------------------*/
  if (((RCC_OscInitStruct->OscillatorType) & RCC_OSCILLATORTYPE_LSI) == RCC_OSCILLATORTYPE_LSI)
 800141a:	687b      	ldr	r3, [r7, #4]
 800141c:	681b      	ldr	r3, [r3, #0]
 800141e:	f003 0308 	and.w	r3, r3, #8
 8001422:	2b00      	cmp	r3, #0
 8001424:	d03a      	beq.n	800149c <HAL_RCC_OscConfig+0x284>
  {
    /* Check the parameters */
    assert_param(IS_RCC_LSI(RCC_OscInitStruct->LSIState));

    /* Check the LSI State */
    if (RCC_OscInitStruct->LSIState != RCC_LSI_OFF)
 8001426:	687b      	ldr	r3, [r7, #4]
 8001428:	699b      	ldr	r3, [r3, #24]
 800142a:	2b00      	cmp	r3, #0
 800142c:	d019      	beq.n	8001462 <HAL_RCC_OscConfig+0x24a>
    {
      /* Enable the Internal Low Speed oscillator (LSI). */
      __HAL_RCC_LSI_ENABLE();
 800142e:	4b17      	ldr	r3, [pc, #92]	; (800148c <HAL_RCC_OscConfig+0x274>)
 8001430:	2201      	movs	r2, #1
 8001432:	601a      	str	r2, [r3, #0]

      /* Get Start Tick */
      tickstart = HAL_GetTick();
 8001434:	f7ff fc44 	bl	8000cc0 <HAL_GetTick>
 8001438:	6138      	str	r0, [r7, #16]

      /* Wait till LSI is ready */
      while (__HAL_RCC_GET_FLAG(RCC_FLAG_LSIRDY) == RESET)
 800143a:	e008      	b.n	800144e <HAL_RCC_OscConfig+0x236>
      {
        if ((HAL_GetTick() - tickstart) > LSI_TIMEOUT_VALUE)
 800143c:	f7ff fc40 	bl	8000cc0 <HAL_GetTick>
 8001440:	4602      	mov	r2, r0
 8001442:	693b      	ldr	r3, [r7, #16]
 8001444:	1ad3      	subs	r3, r2, r3
 8001446:	2b02      	cmp	r3, #2
 8001448:	d901      	bls.n	800144e <HAL_RCC_OscConfig+0x236>
        {
          return HAL_TIMEOUT;
 800144a:	2303      	movs	r3, #3
 800144c:	e160      	b.n	8001710 <HAL_RCC_OscConfig+0x4f8>
      while (__HAL_RCC_GET_FLAG(RCC_FLAG_LSIRDY) == RESET)
 800144e:	4b0d      	ldr	r3, [pc, #52]	; (8001484 <HAL_RCC_OscConfig+0x26c>)
 8001450:	6a5b      	ldr	r3, [r3, #36]	; 0x24
 8001452:	f003 0302 	and.w	r3, r3, #2
 8001456:	2b00      	cmp	r3, #0
 8001458:	d0f0      	beq.n	800143c <HAL_RCC_OscConfig+0x224>
        }
      }
      /*  To have a fully stabilized clock in the specified range, a software delay of 1ms
          should be added.*/
      RCC_Delay(1);
 800145a:	2001      	movs	r0, #1
 800145c:	f000 fa9c 	bl	8001998 <RCC_Delay>
 8001460:	e01c      	b.n	800149c <HAL_RCC_OscConfig+0x284>
    }
    else
    {
      /* Disable the Internal Low Speed oscillator (LSI). */
      __HAL_RCC_LSI_DISABLE();
 8001462:	4b0a      	ldr	r3, [pc, #40]	; (800148c <HAL_RCC_OscConfig+0x274>)
 8001464:	2200      	movs	r2, #0
 8001466:	601a      	str	r2, [r3, #0]

      /* Get Start Tick */
      tickstart = HAL_GetTick();
 8001468:	f7ff fc2a 	bl	8000cc0 <HAL_GetTick>
 800146c:	6138      	str	r0, [r7, #16]

      /* Wait till LSI is disabled */
      while (__HAL_RCC_GET_FLAG(RCC_FLAG_LSIRDY) != RESET)
 800146e:	e00f      	b.n	8001490 <HAL_RCC_OscConfig+0x278>
      {
        if ((HAL_GetTick() - tickstart) > LSI_TIMEOUT_VALUE)
 8001470:	f7ff fc26 	bl	8000cc0 <HAL_GetTick>
 8001474:	4602      	mov	r2, r0
 8001476:	693b      	ldr	r3, [r7, #16]
 8001478:	1ad3      	subs	r3, r2, r3
 800147a:	2b02      	cmp	r3, #2
 800147c:	d908      	bls.n	8001490 <HAL_RCC_OscConfig+0x278>
        {
          return HAL_TIMEOUT;
 800147e:	2303      	movs	r3, #3
 8001480:	e146      	b.n	8001710 <HAL_RCC_OscConfig+0x4f8>
 8001482:	bf00      	nop
 8001484:	40021000 	.word	0x40021000
 8001488:	42420000 	.word	0x42420000
 800148c:	42420480 	.word	0x42420480
      while (__HAL_RCC_GET_FLAG(RCC_FLAG_LSIRDY) != RESET)
 8001490:	4b92      	ldr	r3, [pc, #584]	; (80016dc <HAL_RCC_OscConfig+0x4c4>)
 8001492:	6a5b      	ldr	r3, [r3, #36]	; 0x24
 8001494:	f003 0302 	and.w	r3, r3, #2
 8001498:	2b00      	cmp	r3, #0
 800149a:	d1e9      	bne.n	8001470 <HAL_RCC_OscConfig+0x258>
        }
      }
    }
  }
  /*------------------------------ LSE Configuration -------------------------*/
  if (((RCC_OscInitStruct->OscillatorType) & RCC_OSCILLATORTYPE_LSE) == RCC_OSCILLATORTYPE_LSE)
 800149c:	687b      	ldr	r3, [r7, #4]
 800149e:	681b      	ldr	r3, [r3, #0]
 80014a0:	f003 0304 	and.w	r3, r3, #4
 80014a4:	2b00      	cmp	r3, #0
 80014a6:	f000 80a6 	beq.w	80015f6 <HAL_RCC_OscConfig+0x3de>
  {
    FlagStatus       pwrclkchanged = RESET;
 80014aa:	2300      	movs	r3, #0
 80014ac:	75fb      	strb	r3, [r7, #23]
    /* Check the parameters */
    assert_param(IS_RCC_LSE(RCC_OscInitStruct->LSEState));

    /* Update LSE configuration in Backup Domain control register    */
    /* Requires to enable write access to Backup Domain of necessary */
    if (__HAL_RCC_PWR_IS_CLK_DISABLED())
 80014ae:	4b8b      	ldr	r3, [pc, #556]	; (80016dc <HAL_RCC_OscConfig+0x4c4>)
 80014b0:	69db      	ldr	r3, [r3, #28]
 80014b2:	f003 5380 	and.w	r3, r3, #268435456	; 0x10000000
 80014b6:	2b00      	cmp	r3, #0
 80014b8:	d10d      	bne.n	80014d6 <HAL_RCC_OscConfig+0x2be>
    {
      __HAL_RCC_PWR_CLK_ENABLE();
 80014ba:	4b88      	ldr	r3, [pc, #544]	; (80016dc <HAL_RCC_OscConfig+0x4c4>)
 80014bc:	69db      	ldr	r3, [r3, #28]
 80014be:	4a87      	ldr	r2, [pc, #540]	; (80016dc <HAL_RCC_OscConfig+0x4c4>)
 80014c0:	f043 5380 	orr.w	r3, r3, #268435456	; 0x10000000
 80014c4:	61d3      	str	r3, [r2, #28]
 80014c6:	4b85      	ldr	r3, [pc, #532]	; (80016dc <HAL_RCC_OscConfig+0x4c4>)
 80014c8:	69db      	ldr	r3, [r3, #28]
 80014ca:	f003 5380 	and.w	r3, r3, #268435456	; 0x10000000
 80014ce:	60bb      	str	r3, [r7, #8]
 80014d0:	68bb      	ldr	r3, [r7, #8]
      pwrclkchanged = SET;
 80014d2:	2301      	movs	r3, #1
 80014d4:	75fb      	strb	r3, [r7, #23]
    }

    if (HAL_IS_BIT_CLR(PWR->CR, PWR_CR_DBP))
 80014d6:	4b82      	ldr	r3, [pc, #520]	; (80016e0 <HAL_RCC_OscConfig+0x4c8>)
 80014d8:	681b      	ldr	r3, [r3, #0]
 80014da:	f403 7380 	and.w	r3, r3, #256	; 0x100
 80014de:	2b00      	cmp	r3, #0
 80014e0:	d118      	bne.n	8001514 <HAL_RCC_OscConfig+0x2fc>
    {
      /* Enable write access to Backup domain */
      SET_BIT(PWR->CR, PWR_CR_DBP);
 80014e2:	4b7f      	ldr	r3, [pc, #508]	; (80016e0 <HAL_RCC_OscConfig+0x4c8>)
 80014e4:	681b      	ldr	r3, [r3, #0]
 80014e6:	4a7e      	ldr	r2, [pc, #504]	; (80016e0 <HAL_RCC_OscConfig+0x4c8>)
 80014e8:	f443 7380 	orr.w	r3, r3, #256	; 0x100
 80014ec:	6013      	str	r3, [r2, #0]

      /* Wait for Backup domain Write protection disable */
      tickstart = HAL_GetTick();
 80014ee:	f7ff fbe7 	bl	8000cc0 <HAL_GetTick>
 80014f2:	6138      	str	r0, [r7, #16]

      while (HAL_IS_BIT_CLR(PWR->CR, PWR_CR_DBP))
 80014f4:	e008      	b.n	8001508 <HAL_RCC_OscConfig+0x2f0>
      {
        if ((HAL_GetTick() - tickstart) > RCC_DBP_TIMEOUT_VALUE)
 80014f6:	f7ff fbe3 	bl	8000cc0 <HAL_GetTick>
 80014fa:	4602      	mov	r2, r0
 80014fc:	693b      	ldr	r3, [r7, #16]
 80014fe:	1ad3      	subs	r3, r2, r3
 8001500:	2b64      	cmp	r3, #100	; 0x64
 8001502:	d901      	bls.n	8001508 <HAL_RCC_OscConfig+0x2f0>
        {
          return HAL_TIMEOUT;
 8001504:	2303      	movs	r3, #3
 8001506:	e103      	b.n	8001710 <HAL_RCC_OscConfig+0x4f8>
      while (HAL_IS_BIT_CLR(PWR->CR, PWR_CR_DBP))
 8001508:	4b75      	ldr	r3, [pc, #468]	; (80016e0 <HAL_RCC_OscConfig+0x4c8>)
 800150a:	681b      	ldr	r3, [r3, #0]
 800150c:	f403 7380 	and.w	r3, r3, #256	; 0x100
 8001510:	2b00      	cmp	r3, #0
 8001512:	d0f0      	beq.n	80014f6 <HAL_RCC_OscConfig+0x2de>
        }
      }
    }

    /* Set the new LSE configuration -----------------------------------------*/
    __HAL_RCC_LSE_CONFIG(RCC_OscInitStruct->LSEState);
 8001514:	687b      	ldr	r3, [r7, #4]
 8001516:	68db      	ldr	r3, [r3, #12]
 8001518:	2b01      	cmp	r3, #1
 800151a:	d106      	bne.n	800152a <HAL_RCC_OscConfig+0x312>
 800151c:	4b6f      	ldr	r3, [pc, #444]	; (80016dc <HAL_RCC_OscConfig+0x4c4>)
 800151e:	6a1b      	ldr	r3, [r3, #32]
 8001520:	4a6e      	ldr	r2, [pc, #440]	; (80016dc <HAL_RCC_OscConfig+0x4c4>)
 8001522:	f043 0301 	orr.w	r3, r3, #1
 8001526:	6213      	str	r3, [r2, #32]
 8001528:	e02d      	b.n	8001586 <HAL_RCC_OscConfig+0x36e>
 800152a:	687b      	ldr	r3, [r7, #4]
 800152c:	68db      	ldr	r3, [r3, #12]
 800152e:	2b00      	cmp	r3, #0
 8001530:	d10c      	bne.n	800154c <HAL_RCC_OscConfig+0x334>
 8001532:	4b6a      	ldr	r3, [pc, #424]	; (80016dc <HAL_RCC_OscConfig+0x4c4>)
 8001534:	6a1b      	ldr	r3, [r3, #32]
 8001536:	4a69      	ldr	r2, [pc, #420]	; (80016dc <HAL_RCC_OscConfig+0x4c4>)
 8001538:	f023 0301 	bic.w	r3, r3, #1
 800153c:	6213      	str	r3, [r2, #32]
 800153e:	4b67      	ldr	r3, [pc, #412]	; (80016dc <HAL_RCC_OscConfig+0x4c4>)
 8001540:	6a1b      	ldr	r3, [r3, #32]
 8001542:	4a66      	ldr	r2, [pc, #408]	; (80016dc <HAL_RCC_OscConfig+0x4c4>)
 8001544:	f023 0304 	bic.w	r3, r3, #4
 8001548:	6213      	str	r3, [r2, #32]
 800154a:	e01c      	b.n	8001586 <HAL_RCC_OscConfig+0x36e>
 800154c:	687b      	ldr	r3, [r7, #4]
 800154e:	68db      	ldr	r3, [r3, #12]
 8001550:	2b05      	cmp	r3, #5
 8001552:	d10c      	bne.n	800156e <HAL_RCC_OscConfig+0x356>
 8001554:	4b61      	ldr	r3, [pc, #388]	; (80016dc <HAL_RCC_OscConfig+0x4c4>)
 8001556:	6a1b      	ldr	r3, [r3, #32]
 8001558:	4a60      	ldr	r2, [pc, #384]	; (80016dc <HAL_RCC_OscConfig+0x4c4>)
 800155a:	f043 0304 	orr.w	r3, r3, #4
 800155e:	6213      	str	r3, [r2, #32]
 8001560:	4b5e      	ldr	r3, [pc, #376]	; (80016dc <HAL_RCC_OscConfig+0x4c4>)
 8001562:	6a1b      	ldr	r3, [r3, #32]
 8001564:	4a5d      	ldr	r2, [pc, #372]	; (80016dc <HAL_RCC_OscConfig+0x4c4>)
 8001566:	f043 0301 	orr.w	r3, r3, #1
 800156a:	6213      	str	r3, [r2, #32]
 800156c:	e00b      	b.n	8001586 <HAL_RCC_OscConfig+0x36e>
 800156e:	4b5b      	ldr	r3, [pc, #364]	; (80016dc <HAL_RCC_OscConfig+0x4c4>)
 8001570:	6a1b      	ldr	r3, [r3, #32]
 8001572:	4a5a      	ldr	r2, [pc, #360]	; (80016dc <HAL_RCC_OscConfig+0x4c4>)
 8001574:	f023 0301 	bic.w	r3, r3, #1
 8001578:	6213      	str	r3, [r2, #32]
 800157a:	4b58      	ldr	r3, [pc, #352]	; (80016dc <HAL_RCC_OscConfig+0x4c4>)
 800157c:	6a1b      	ldr	r3, [r3, #32]
 800157e:	4a57      	ldr	r2, [pc, #348]	; (80016dc <HAL_RCC_OscConfig+0x4c4>)
 8001580:	f023 0304 	bic.w	r3, r3, #4
 8001584:	6213      	str	r3, [r2, #32]
    /* Check the LSE State */
    if (RCC_OscInitStruct->LSEState != RCC_LSE_OFF)
 8001586:	687b      	ldr	r3, [r7, #4]
 8001588:	68db      	ldr	r3, [r3, #12]
 800158a:	2b00      	cmp	r3, #0
 800158c:	d015      	beq.n	80015ba <HAL_RCC_OscConfig+0x3a2>
    {
      /* Get Start Tick */
      tickstart = HAL_GetTick();
 800158e:	f7ff fb97 	bl	8000cc0 <HAL_GetTick>
 8001592:	6138      	str	r0, [r7, #16]

      /* Wait till LSE is ready */
      while (__HAL_RCC_GET_FLAG(RCC_FLAG_LSERDY) == RESET)
 8001594:	e00a      	b.n	80015ac <HAL_RCC_OscConfig+0x394>
      {
        if ((HAL_GetTick() - tickstart) > RCC_LSE_TIMEOUT_VALUE)
 8001596:	f7ff fb93 	bl	8000cc0 <HAL_GetTick>
 800159a:	4602      	mov	r2, r0
 800159c:	693b      	ldr	r3, [r7, #16]
 800159e:	1ad3      	subs	r3, r2, r3
 80015a0:	f241 3288 	movw	r2, #5000	; 0x1388
 80015a4:	4293      	cmp	r3, r2
 80015a6:	d901      	bls.n	80015ac <HAL_RCC_OscConfig+0x394>
        {
          return HAL_TIMEOUT;
 80015a8:	2303      	movs	r3, #3
 80015aa:	e0b1      	b.n	8001710 <HAL_RCC_OscConfig+0x4f8>
      while (__HAL_RCC_GET_FLAG(RCC_FLAG_LSERDY) == RESET)
 80015ac:	4b4b      	ldr	r3, [pc, #300]	; (80016dc <HAL_RCC_OscConfig+0x4c4>)
 80015ae:	6a1b      	ldr	r3, [r3, #32]
 80015b0:	f003 0302 	and.w	r3, r3, #2
 80015b4:	2b00      	cmp	r3, #0
 80015b6:	d0ee      	beq.n	8001596 <HAL_RCC_OscConfig+0x37e>
 80015b8:	e014      	b.n	80015e4 <HAL_RCC_OscConfig+0x3cc>
      }
    }
    else
    {
      /* Get Start Tick */
      tickstart = HAL_GetTick();
 80015ba:	f7ff fb81 	bl	8000cc0 <HAL_GetTick>
 80015be:	6138      	str	r0, [r7, #16]

      /* Wait till LSE is disabled */
      while (__HAL_RCC_GET_FLAG(RCC_FLAG_LSERDY) != RESET)
 80015c0:	e00a      	b.n	80015d8 <HAL_RCC_OscConfig+0x3c0>
      {
        if ((HAL_GetTick() - tickstart) > RCC_LSE_TIMEOUT_VALUE)
 80015c2:	f7ff fb7d 	bl	8000cc0 <HAL_GetTick>
 80015c6:	4602      	mov	r2, r0
 80015c8:	693b      	ldr	r3, [r7, #16]
 80015ca:	1ad3      	subs	r3, r2, r3
 80015cc:	f241 3288 	movw	r2, #5000	; 0x1388
 80015d0:	4293      	cmp	r3, r2
 80015d2:	d901      	bls.n	80015d8 <HAL_RCC_OscConfig+0x3c0>
        {
          return HAL_TIMEOUT;
 80015d4:	2303      	movs	r3, #3
 80015d6:	e09b      	b.n	8001710 <HAL_RCC_OscConfig+0x4f8>
      while (__HAL_RCC_GET_FLAG(RCC_FLAG_LSERDY) != RESET)
 80015d8:	4b40      	ldr	r3, [pc, #256]	; (80016dc <HAL_RCC_OscConfig+0x4c4>)
 80015da:	6a1b      	ldr	r3, [r3, #32]
 80015dc:	f003 0302 	and.w	r3, r3, #2
 80015e0:	2b00      	cmp	r3, #0
 80015e2:	d1ee      	bne.n	80015c2 <HAL_RCC_OscConfig+0x3aa>
        }
      }
    }

    /* Require to disable power clock if necessary */
    if (pwrclkchanged == SET)
 80015e4:	7dfb      	ldrb	r3, [r7, #23]
 80015e6:	2b01      	cmp	r3, #1
 80015e8:	d105      	bne.n	80015f6 <HAL_RCC_OscConfig+0x3de>
    {
      __HAL_RCC_PWR_CLK_DISABLE();
 80015ea:	4b3c      	ldr	r3, [pc, #240]	; (80016dc <HAL_RCC_OscConfig+0x4c4>)
 80015ec:	69db      	ldr	r3, [r3, #28]
 80015ee:	4a3b      	ldr	r2, [pc, #236]	; (80016dc <HAL_RCC_OscConfig+0x4c4>)
 80015f0:	f023 5380 	bic.w	r3, r3, #268435456	; 0x10000000
 80015f4:	61d3      	str	r3, [r2, #28]

#endif /* RCC_CR_PLL2ON */
  /*-------------------------------- PLL Configuration -----------------------*/
  /* Check the parameters */
  assert_param(IS_RCC_PLL(RCC_OscInitStruct->PLL.PLLState));
  if ((RCC_OscInitStruct->PLL.PLLState) != RCC_PLL_NONE)
 80015f6:	687b      	ldr	r3, [r7, #4]
 80015f8:	69db      	ldr	r3, [r3, #28]
 80015fa:	2b00      	cmp	r3, #0
 80015fc:	f000 8087 	beq.w	800170e <HAL_RCC_OscConfig+0x4f6>
  {
    /* Check if the PLL is used as system clock or not */
    if (__HAL_RCC_GET_SYSCLK_SOURCE() != RCC_SYSCLKSOURCE_STATUS_PLLCLK)
 8001600:	4b36      	ldr	r3, [pc, #216]	; (80016dc <HAL_RCC_OscConfig+0x4c4>)
 8001602:	685b      	ldr	r3, [r3, #4]
 8001604:	f003 030c 	and.w	r3, r3, #12
 8001608:	2b08      	cmp	r3, #8
 800160a:	d061      	beq.n	80016d0 <HAL_RCC_OscConfig+0x4b8>
    {
      if ((RCC_OscInitStruct->PLL.PLLState) == RCC_PLL_ON)
 800160c:	687b      	ldr	r3, [r7, #4]
 800160e:	69db      	ldr	r3, [r3, #28]
 8001610:	2b02      	cmp	r3, #2
 8001612:	d146      	bne.n	80016a2 <HAL_RCC_OscConfig+0x48a>
        /* Check the parameters */
        assert_param(IS_RCC_PLLSOURCE(RCC_OscInitStruct->PLL.PLLSource));
        assert_param(IS_RCC_PLL_MUL(RCC_OscInitStruct->PLL.PLLMUL));

        /* Disable the main PLL. */
        __HAL_RCC_PLL_DISABLE();
 8001614:	4b33      	ldr	r3, [pc, #204]	; (80016e4 <HAL_RCC_OscConfig+0x4cc>)
 8001616:	2200      	movs	r2, #0
 8001618:	601a      	str	r2, [r3, #0]

        /* Get Start Tick */
        tickstart = HAL_GetTick();
 800161a:	f7ff fb51 	bl	8000cc0 <HAL_GetTick>
 800161e:	6138      	str	r0, [r7, #16]

        /* Wait till PLL is disabled */
        while (__HAL_RCC_GET_FLAG(RCC_FLAG_PLLRDY)  != RESET)
 8001620:	e008      	b.n	8001634 <HAL_RCC_OscConfig+0x41c>
        {
          if ((HAL_GetTick() - tickstart) > PLL_TIMEOUT_VALUE)
 8001622:	f7ff fb4d 	bl	8000cc0 <HAL_GetTick>
 8001626:	4602      	mov	r2, r0
 8001628:	693b      	ldr	r3, [r7, #16]
 800162a:	1ad3      	subs	r3, r2, r3
 800162c:	2b02      	cmp	r3, #2
 800162e:	d901      	bls.n	8001634 <HAL_RCC_OscConfig+0x41c>
          {
            return HAL_TIMEOUT;
 8001630:	2303      	movs	r3, #3
 8001632:	e06d      	b.n	8001710 <HAL_RCC_OscConfig+0x4f8>
        while (__HAL_RCC_GET_FLAG(RCC_FLAG_PLLRDY)  != RESET)
 8001634:	4b29      	ldr	r3, [pc, #164]	; (80016dc <HAL_RCC_OscConfig+0x4c4>)
 8001636:	681b      	ldr	r3, [r3, #0]
 8001638:	f003 7300 	and.w	r3, r3, #33554432	; 0x2000000
 800163c:	2b00      	cmp	r3, #0
 800163e:	d1f0      	bne.n	8001622 <HAL_RCC_OscConfig+0x40a>
          }
        }

        /* Configure the HSE prediv factor --------------------------------*/
        /* It can be written only when the PLL is disabled. Not used in PLL source is different than HSE */
        if (RCC_OscInitStruct->PLL.PLLSource == RCC_PLLSOURCE_HSE)
 8001640:	687b      	ldr	r3, [r7, #4]
 8001642:	6a1b      	ldr	r3, [r3, #32]
 8001644:	f5b3 3f80 	cmp.w	r3, #65536	; 0x10000
 8001648:	d108      	bne.n	800165c <HAL_RCC_OscConfig+0x444>
          /* Set PREDIV1 source */
          SET_BIT(RCC->CFGR2, RCC_OscInitStruct->Prediv1Source);
#endif /* RCC_CFGR2_PREDIV1SRC */

          /* Set PREDIV1 Value */
          __HAL_RCC_HSE_PREDIV_CONFIG(RCC_OscInitStruct->HSEPredivValue);
 800164a:	4b24      	ldr	r3, [pc, #144]	; (80016dc <HAL_RCC_OscConfig+0x4c4>)
 800164c:	685b      	ldr	r3, [r3, #4]
 800164e:	f423 3200 	bic.w	r2, r3, #131072	; 0x20000
 8001652:	687b      	ldr	r3, [r7, #4]
 8001654:	689b      	ldr	r3, [r3, #8]
 8001656:	4921      	ldr	r1, [pc, #132]	; (80016dc <HAL_RCC_OscConfig+0x4c4>)
 8001658:	4313      	orrs	r3, r2
 800165a:	604b      	str	r3, [r1, #4]
        }

        /* Configure the main PLL clock source and multiplication factors. */
        __HAL_RCC_PLL_CONFIG(RCC_OscInitStruct->PLL.PLLSource,
 800165c:	4b1f      	ldr	r3, [pc, #124]	; (80016dc <HAL_RCC_OscConfig+0x4c4>)
 800165e:	685b      	ldr	r3, [r3, #4]
 8001660:	f423 1274 	bic.w	r2, r3, #3997696	; 0x3d0000
 8001664:	687b      	ldr	r3, [r7, #4]
 8001666:	6a19      	ldr	r1, [r3, #32]
 8001668:	687b      	ldr	r3, [r7, #4]
 800166a:	6a5b      	ldr	r3, [r3, #36]	; 0x24
 800166c:	430b      	orrs	r3, r1
 800166e:	491b      	ldr	r1, [pc, #108]	; (80016dc <HAL_RCC_OscConfig+0x4c4>)
 8001670:	4313      	orrs	r3, r2
 8001672:	604b      	str	r3, [r1, #4]
                             RCC_OscInitStruct->PLL.PLLMUL);
        /* Enable the main PLL. */
        __HAL_RCC_PLL_ENABLE();
 8001674:	4b1b      	ldr	r3, [pc, #108]	; (80016e4 <HAL_RCC_OscConfig+0x4cc>)
 8001676:	2201      	movs	r2, #1
 8001678:	601a      	str	r2, [r3, #0]

        /* Get Start Tick */
        tickstart = HAL_GetTick();
 800167a:	f7ff fb21 	bl	8000cc0 <HAL_GetTick>
 800167e:	6138      	str	r0, [r7, #16]

        /* Wait till PLL is ready */
        while (__HAL_RCC_GET_FLAG(RCC_FLAG_PLLRDY)  == RESET)
 8001680:	e008      	b.n	8001694 <HAL_RCC_OscConfig+0x47c>
        {
          if ((HAL_GetTick() - tickstart) > PLL_TIMEOUT_VALUE)
 8001682:	f7ff fb1d 	bl	8000cc0 <HAL_GetTick>
 8001686:	4602      	mov	r2, r0
 8001688:	693b      	ldr	r3, [r7, #16]
 800168a:	1ad3      	subs	r3, r2, r3
 800168c:	2b02      	cmp	r3, #2
 800168e:	d901      	bls.n	8001694 <HAL_RCC_OscConfig+0x47c>
          {
            return HAL_TIMEOUT;
 8001690:	2303      	movs	r3, #3
 8001692:	e03d      	b.n	8001710 <HAL_RCC_OscConfig+0x4f8>
        while (__HAL_RCC_GET_FLAG(RCC_FLAG_PLLRDY)  == RESET)
 8001694:	4b11      	ldr	r3, [pc, #68]	; (80016dc <HAL_RCC_OscConfig+0x4c4>)
 8001696:	681b      	ldr	r3, [r3, #0]
 8001698:	f003 7300 	and.w	r3, r3, #33554432	; 0x2000000
 800169c:	2b00      	cmp	r3, #0
 800169e:	d0f0      	beq.n	8001682 <HAL_RCC_OscConfig+0x46a>
 80016a0:	e035      	b.n	800170e <HAL_RCC_OscConfig+0x4f6>
        }
      }
      else
      {
        /* Disable the main PLL. */
        __HAL_RCC_PLL_DISABLE();
 80016a2:	4b10      	ldr	r3, [pc, #64]	; (80016e4 <HAL_RCC_OscConfig+0x4cc>)
 80016a4:	2200      	movs	r2, #0
 80016a6:	601a      	str	r2, [r3, #0]

        /* Get Start Tick */
        tickstart = HAL_GetTick();
 80016a8:	f7ff fb0a 	bl	8000cc0 <HAL_GetTick>
 80016ac:	6138      	str	r0, [r7, #16]

        /* Wait till PLL is disabled */
        while (__HAL_RCC_GET_FLAG(RCC_FLAG_PLLRDY)  != RESET)
 80016ae:	e008      	b.n	80016c2 <HAL_RCC_OscConfig+0x4aa>
        {
          if ((HAL_GetTick() - tickstart) > PLL_TIMEOUT_VALUE)
 80016b0:	f7ff fb06 	bl	8000cc0 <HAL_GetTick>
 80016b4:	4602      	mov	r2, r0
 80016b6:	693b      	ldr	r3, [r7, #16]
 80016b8:	1ad3      	subs	r3, r2, r3
 80016ba:	2b02      	cmp	r3, #2
 80016bc:	d901      	bls.n	80016c2 <HAL_RCC_OscConfig+0x4aa>
          {
            return HAL_TIMEOUT;
 80016be:	2303      	movs	r3, #3
 80016c0:	e026      	b.n	8001710 <HAL_RCC_OscConfig+0x4f8>
        while (__HAL_RCC_GET_FLAG(RCC_FLAG_PLLRDY)  != RESET)
 80016c2:	4b06      	ldr	r3, [pc, #24]	; (80016dc <HAL_RCC_OscConfig+0x4c4>)
 80016c4:	681b      	ldr	r3, [r3, #0]
 80016c6:	f003 7300 	and.w	r3, r3, #33554432	; 0x2000000
 80016ca:	2b00      	cmp	r3, #0
 80016cc:	d1f0      	bne.n	80016b0 <HAL_RCC_OscConfig+0x498>
 80016ce:	e01e      	b.n	800170e <HAL_RCC_OscConfig+0x4f6>
      }
    }
    else
    {
      /* Check if there is a request to disable the PLL used as System clock source */
      if ((RCC_OscInitStruct->PLL.PLLState) == RCC_PLL_OFF)
 80016d0:	687b      	ldr	r3, [r7, #4]
 80016d2:	69db      	ldr	r3, [r3, #28]
 80016d4:	2b01      	cmp	r3, #1
 80016d6:	d107      	bne.n	80016e8 <HAL_RCC_OscConfig+0x4d0>
      {
        return HAL_ERROR;
 80016d8:	2301      	movs	r3, #1
 80016da:	e019      	b.n	8001710 <HAL_RCC_OscConfig+0x4f8>
 80016dc:	40021000 	.word	0x40021000
 80016e0:	40007000 	.word	0x40007000
 80016e4:	42420060 	.word	0x42420060
      }
      else
      {
        /* Do not return HAL_ERROR if request repeats the current configuration */
        pll_config = RCC->CFGR;
 80016e8:	4b0b      	ldr	r3, [pc, #44]	; (8001718 <HAL_RCC_OscConfig+0x500>)
 80016ea:	685b      	ldr	r3, [r3, #4]
 80016ec:	60fb      	str	r3, [r7, #12]
        if ((READ_BIT(pll_config, RCC_CFGR_PLLSRC) != RCC_OscInitStruct->PLL.PLLSource) ||
 80016ee:	68fb      	ldr	r3, [r7, #12]
 80016f0:	f403 3280 	and.w	r2, r3, #65536	; 0x10000
 80016f4:	687b      	ldr	r3, [r7, #4]
 80016f6:	6a1b      	ldr	r3, [r3, #32]
 80016f8:	429a      	cmp	r2, r3
 80016fa:	d106      	bne.n	800170a <HAL_RCC_OscConfig+0x4f2>
            (READ_BIT(pll_config, RCC_CFGR_PLLMULL) != RCC_OscInitStruct->PLL.PLLMUL))
 80016fc:	68fb      	ldr	r3, [r7, #12]
 80016fe:	f403 1270 	and.w	r2, r3, #3932160	; 0x3c0000
 8001702:	687b      	ldr	r3, [r7, #4]
 8001704:	6a5b      	ldr	r3, [r3, #36]	; 0x24
        if ((READ_BIT(pll_config, RCC_CFGR_PLLSRC) != RCC_OscInitStruct->PLL.PLLSource) ||
 8001706:	429a      	cmp	r2, r3
 8001708:	d001      	beq.n	800170e <HAL_RCC_OscConfig+0x4f6>
        {
          return HAL_ERROR;
 800170a:	2301      	movs	r3, #1
 800170c:	e000      	b.n	8001710 <HAL_RCC_OscConfig+0x4f8>
        }
      }
    }
  }

  return HAL_OK;
 800170e:	2300      	movs	r3, #0
}
 8001710:	4618      	mov	r0, r3
 8001712:	3718      	adds	r7, #24
 8001714:	46bd      	mov	sp, r7
 8001716:	bd80      	pop	{r7, pc}
 8001718:	40021000 	.word	0x40021000

0800171c <HAL_RCC_ClockConfig>:
  *         You can use @ref HAL_RCC_GetClockConfig() function to know which clock is
  *         currently used as system clock source.
  * @retval HAL status
  */
HAL_StatusTypeDef HAL_RCC_ClockConfig(RCC_ClkInitTypeDef  *RCC_ClkInitStruct, uint32_t FLatency)
{
 800171c:	b580      	push	{r7, lr}
 800171e:	b084      	sub	sp, #16
 8001720:	af00      	add	r7, sp, #0
 8001722:	6078      	str	r0, [r7, #4]
 8001724:	6039      	str	r1, [r7, #0]
  uint32_t tickstart;

  /* Check Null pointer */
  if (RCC_ClkInitStruct == NULL)
 8001726:	687b      	ldr	r3, [r7, #4]
 8001728:	2b00      	cmp	r3, #0
 800172a:	d101      	bne.n	8001730 <HAL_RCC_ClockConfig+0x14>
  {
    return HAL_ERROR;
 800172c:	2301      	movs	r3, #1
 800172e:	e0d0      	b.n	80018d2 <HAL_RCC_ClockConfig+0x1b6>
  must be correctly programmed according to the frequency of the CPU clock
    (HCLK) of the device. */

#if defined(FLASH_ACR_LATENCY)
  /* Increasing the number of wait states because of higher CPU frequency */
  if (FLatency > __HAL_FLASH_GET_LATENCY())
 8001730:	4b6a      	ldr	r3, [pc, #424]	; (80018dc <HAL_RCC_ClockConfig+0x1c0>)
 8001732:	681b      	ldr	r3, [r3, #0]
 8001734:	f003 0307 	and.w	r3, r3, #7
 8001738:	683a      	ldr	r2, [r7, #0]
 800173a:	429a      	cmp	r2, r3
 800173c:	d910      	bls.n	8001760 <HAL_RCC_ClockConfig+0x44>
  {
    /* Program the new number of wait states to the LATENCY bits in the FLASH_ACR register */
    __HAL_FLASH_SET_LATENCY(FLatency);
 800173e:	4b67      	ldr	r3, [pc, #412]	; (80018dc <HAL_RCC_ClockConfig+0x1c0>)
 8001740:	681b      	ldr	r3, [r3, #0]
 8001742:	f023 0207 	bic.w	r2, r3, #7
 8001746:	4965      	ldr	r1, [pc, #404]	; (80018dc <HAL_RCC_ClockConfig+0x1c0>)
 8001748:	683b      	ldr	r3, [r7, #0]
 800174a:	4313      	orrs	r3, r2
 800174c:	600b      	str	r3, [r1, #0]

    /* Check that the new number of wait states is taken into account to access the Flash
    memory by reading the FLASH_ACR register */
    if (__HAL_FLASH_GET_LATENCY() != FLatency)
 800174e:	4b63      	ldr	r3, [pc, #396]	; (80018dc <HAL_RCC_ClockConfig+0x1c0>)
 8001750:	681b      	ldr	r3, [r3, #0]
 8001752:	f003 0307 	and.w	r3, r3, #7
 8001756:	683a      	ldr	r2, [r7, #0]
 8001758:	429a      	cmp	r2, r3
 800175a:	d001      	beq.n	8001760 <HAL_RCC_ClockConfig+0x44>
  {
    return HAL_ERROR;
 800175c:	2301      	movs	r3, #1
 800175e:	e0b8      	b.n	80018d2 <HAL_RCC_ClockConfig+0x1b6>
  }
}

#endif /* FLASH_ACR_LATENCY */
/*-------------------------- HCLK Configuration --------------------------*/
if (((RCC_ClkInitStruct->ClockType) & RCC_CLOCKTYPE_HCLK) == RCC_CLOCKTYPE_HCLK)
 8001760:	687b      	ldr	r3, [r7, #4]
 8001762:	681b      	ldr	r3, [r3, #0]
 8001764:	f003 0302 	and.w	r3, r3, #2
 8001768:	2b00      	cmp	r3, #0
 800176a:	d020      	beq.n	80017ae <HAL_RCC_ClockConfig+0x92>
  {
    /* Set the highest APBx dividers in order to ensure that we do not go through
    a non-spec phase whatever we decrease or increase HCLK. */
    if (((RCC_ClkInitStruct->ClockType) & RCC_CLOCKTYPE_PCLK1) == RCC_CLOCKTYPE_PCLK1)
 800176c:	687b      	ldr	r3, [r7, #4]
 800176e:	681b      	ldr	r3, [r3, #0]
 8001770:	f003 0304 	and.w	r3, r3, #4
 8001774:	2b00      	cmp	r3, #0
 8001776:	d005      	beq.n	8001784 <HAL_RCC_ClockConfig+0x68>
    {
      MODIFY_REG(RCC->CFGR, RCC_CFGR_PPRE1, RCC_HCLK_DIV16);
 8001778:	4b59      	ldr	r3, [pc, #356]	; (80018e0 <HAL_RCC_ClockConfig+0x1c4>)
 800177a:	685b      	ldr	r3, [r3, #4]
 800177c:	4a58      	ldr	r2, [pc, #352]	; (80018e0 <HAL_RCC_ClockConfig+0x1c4>)
 800177e:	f443 63e0 	orr.w	r3, r3, #1792	; 0x700
 8001782:	6053      	str	r3, [r2, #4]
    }

    if (((RCC_ClkInitStruct->ClockType) & RCC_CLOCKTYPE_PCLK2) == RCC_CLOCKTYPE_PCLK2)
 8001784:	687b      	ldr	r3, [r7, #4]
 8001786:	681b      	ldr	r3, [r3, #0]
 8001788:	f003 0308 	and.w	r3, r3, #8
 800178c:	2b00      	cmp	r3, #0
 800178e:	d005      	beq.n	800179c <HAL_RCC_ClockConfig+0x80>
    {
      MODIFY_REG(RCC->CFGR, RCC_CFGR_PPRE2, (RCC_HCLK_DIV16 << 3));
 8001790:	4b53      	ldr	r3, [pc, #332]	; (80018e0 <HAL_RCC_ClockConfig+0x1c4>)
 8001792:	685b      	ldr	r3, [r3, #4]
 8001794:	4a52      	ldr	r2, [pc, #328]	; (80018e0 <HAL_RCC_ClockConfig+0x1c4>)
 8001796:	f443 5360 	orr.w	r3, r3, #14336	; 0x3800
 800179a:	6053      	str	r3, [r2, #4]
    }

    /* Set the new HCLK clock divider */
    assert_param(IS_RCC_HCLK(RCC_ClkInitStruct->AHBCLKDivider));
    MODIFY_REG(RCC->CFGR, RCC_CFGR_HPRE, RCC_ClkInitStruct->AHBCLKDivider);
 800179c:	4b50      	ldr	r3, [pc, #320]	; (80018e0 <HAL_RCC_ClockConfig+0x1c4>)
 800179e:	685b      	ldr	r3, [r3, #4]
 80017a0:	f023 02f0 	bic.w	r2, r3, #240	; 0xf0
 80017a4:	687b      	ldr	r3, [r7, #4]
 80017a6:	689b      	ldr	r3, [r3, #8]
 80017a8:	494d      	ldr	r1, [pc, #308]	; (80018e0 <HAL_RCC_ClockConfig+0x1c4>)
 80017aa:	4313      	orrs	r3, r2
 80017ac:	604b      	str	r3, [r1, #4]
  }

  /*------------------------- SYSCLK Configuration ---------------------------*/
  if (((RCC_ClkInitStruct->ClockType) & RCC_CLOCKTYPE_SYSCLK) == RCC_CLOCKTYPE_SYSCLK)
 80017ae:	687b      	ldr	r3, [r7, #4]
 80017b0:	681b      	ldr	r3, [r3, #0]
 80017b2:	f003 0301 	and.w	r3, r3, #1
 80017b6:	2b00      	cmp	r3, #0
 80017b8:	d040      	beq.n	800183c <HAL_RCC_ClockConfig+0x120>
  {
    assert_param(IS_RCC_SYSCLKSOURCE(RCC_ClkInitStruct->SYSCLKSource));

    /* HSE is selected as System Clock Source */
    if (RCC_ClkInitStruct->SYSCLKSource == RCC_SYSCLKSOURCE_HSE)
 80017ba:	687b      	ldr	r3, [r7, #4]
 80017bc:	685b      	ldr	r3, [r3, #4]
 80017be:	2b01      	cmp	r3, #1
 80017c0:	d107      	bne.n	80017d2 <HAL_RCC_ClockConfig+0xb6>
    {
      /* Check the HSE ready flag */
      if (__HAL_RCC_GET_FLAG(RCC_FLAG_HSERDY) == RESET)
 80017c2:	4b47      	ldr	r3, [pc, #284]	; (80018e0 <HAL_RCC_ClockConfig+0x1c4>)
 80017c4:	681b      	ldr	r3, [r3, #0]
 80017c6:	f403 3300 	and.w	r3, r3, #131072	; 0x20000
 80017ca:	2b00      	cmp	r3, #0
 80017cc:	d115      	bne.n	80017fa <HAL_RCC_ClockConfig+0xde>
      {
        return HAL_ERROR;
 80017ce:	2301      	movs	r3, #1
 80017d0:	e07f      	b.n	80018d2 <HAL_RCC_ClockConfig+0x1b6>
      }
    }
    /* PLL is selected as System Clock Source */
    else if (RCC_ClkInitStruct->SYSCLKSource == RCC_SYSCLKSOURCE_PLLCLK)
 80017d2:	687b      	ldr	r3, [r7, #4]
 80017d4:	685b      	ldr	r3, [r3, #4]
 80017d6:	2b02      	cmp	r3, #2
 80017d8:	d107      	bne.n	80017ea <HAL_RCC_ClockConfig+0xce>
    {
      /* Check the PLL ready flag */
      if (__HAL_RCC_GET_FLAG(RCC_FLAG_PLLRDY) == RESET)
 80017da:	4b41      	ldr	r3, [pc, #260]	; (80018e0 <HAL_RCC_ClockConfig+0x1c4>)
 80017dc:	681b      	ldr	r3, [r3, #0]
 80017de:	f003 7300 	and.w	r3, r3, #33554432	; 0x2000000
 80017e2:	2b00      	cmp	r3, #0
 80017e4:	d109      	bne.n	80017fa <HAL_RCC_ClockConfig+0xde>
      {
        return HAL_ERROR;
 80017e6:	2301      	movs	r3, #1
 80017e8:	e073      	b.n	80018d2 <HAL_RCC_ClockConfig+0x1b6>
    }
    /* HSI is selected as System Clock Source */
    else
    {
      /* Check the HSI ready flag */
      if (__HAL_RCC_GET_FLAG(RCC_FLAG_HSIRDY) == RESET)
 80017ea:	4b3d      	ldr	r3, [pc, #244]	; (80018e0 <HAL_RCC_ClockConfig+0x1c4>)
 80017ec:	681b      	ldr	r3, [r3, #0]
 80017ee:	f003 0302 	and.w	r3, r3, #2
 80017f2:	2b00      	cmp	r3, #0
 80017f4:	d101      	bne.n	80017fa <HAL_RCC_ClockConfig+0xde>
      {
        return HAL_ERROR;
 80017f6:	2301      	movs	r3, #1
 80017f8:	e06b      	b.n	80018d2 <HAL_RCC_ClockConfig+0x1b6>
      }
    }
    __HAL_RCC_SYSCLK_CONFIG(RCC_ClkInitStruct->SYSCLKSource);
 80017fa:	4b39      	ldr	r3, [pc, #228]	; (80018e0 <HAL_RCC_ClockConfig+0x1c4>)
 80017fc:	685b      	ldr	r3, [r3, #4]
 80017fe:	f023 0203 	bic.w	r2, r3, #3
 8001802:	687b      	ldr	r3, [r7, #4]
 8001804:	685b      	ldr	r3, [r3, #4]
 8001806:	4936      	ldr	r1, [pc, #216]	; (80018e0 <HAL_RCC_ClockConfig+0x1c4>)
 8001808:	4313      	orrs	r3, r2
 800180a:	604b      	str	r3, [r1, #4]

    /* Get Start Tick */
    tickstart = HAL_GetTick();
 800180c:	f7ff fa58 	bl	8000cc0 <HAL_GetTick>
 8001810:	60f8      	str	r0, [r7, #12]

    while (__HAL_RCC_GET_SYSCLK_SOURCE() != (RCC_ClkInitStruct->SYSCLKSource << RCC_CFGR_SWS_Pos))
 8001812:	e00a      	b.n	800182a <HAL_RCC_ClockConfig+0x10e>
    {
      if ((HAL_GetTick() - tickstart) > CLOCKSWITCH_TIMEOUT_VALUE)
 8001814:	f7ff fa54 	bl	8000cc0 <HAL_GetTick>
 8001818:	4602      	mov	r2, r0
 800181a:	68fb      	ldr	r3, [r7, #12]
 800181c:	1ad3      	subs	r3, r2, r3
 800181e:	f241 3288 	movw	r2, #5000	; 0x1388
 8001822:	4293      	cmp	r3, r2
 8001824:	d901      	bls.n	800182a <HAL_RCC_ClockConfig+0x10e>
      {
        return HAL_TIMEOUT;
 8001826:	2303      	movs	r3, #3
 8001828:	e053      	b.n	80018d2 <HAL_RCC_ClockConfig+0x1b6>
    while (__HAL_RCC_GET_SYSCLK_SOURCE() != (RCC_ClkInitStruct->SYSCLKSource << RCC_CFGR_SWS_Pos))
 800182a:	4b2d      	ldr	r3, [pc, #180]	; (80018e0 <HAL_RCC_ClockConfig+0x1c4>)
 800182c:	685b      	ldr	r3, [r3, #4]
 800182e:	f003 020c 	and.w	r2, r3, #12
 8001832:	687b      	ldr	r3, [r7, #4]
 8001834:	685b      	ldr	r3, [r3, #4]
 8001836:	009b      	lsls	r3, r3, #2
 8001838:	429a      	cmp	r2, r3
 800183a:	d1eb      	bne.n	8001814 <HAL_RCC_ClockConfig+0xf8>
    }
  }

#if defined(FLASH_ACR_LATENCY)
  /* Decreasing the number of wait states because of lower CPU frequency */
  if (FLatency < __HAL_FLASH_GET_LATENCY())
 800183c:	4b27      	ldr	r3, [pc, #156]	; (80018dc <HAL_RCC_ClockConfig+0x1c0>)
 800183e:	681b      	ldr	r3, [r3, #0]
 8001840:	f003 0307 	and.w	r3, r3, #7
 8001844:	683a      	ldr	r2, [r7, #0]
 8001846:	429a      	cmp	r2, r3
 8001848:	d210      	bcs.n	800186c <HAL_RCC_ClockConfig+0x150>
  {
    /* Program the new number of wait states to the LATENCY bits in the FLASH_ACR register */
    __HAL_FLASH_SET_LATENCY(FLatency);
 800184a:	4b24      	ldr	r3, [pc, #144]	; (80018dc <HAL_RCC_ClockConfig+0x1c0>)
 800184c:	681b      	ldr	r3, [r3, #0]
 800184e:	f023 0207 	bic.w	r2, r3, #7
 8001852:	4922      	ldr	r1, [pc, #136]	; (80018dc <HAL_RCC_ClockConfig+0x1c0>)
 8001854:	683b      	ldr	r3, [r7, #0]
 8001856:	4313      	orrs	r3, r2
 8001858:	600b      	str	r3, [r1, #0]

    /* Check that the new number of wait states is taken into account to access the Flash
    memory by reading the FLASH_ACR register */
    if (__HAL_FLASH_GET_LATENCY() != FLatency)
 800185a:	4b20      	ldr	r3, [pc, #128]	; (80018dc <HAL_RCC_ClockConfig+0x1c0>)
 800185c:	681b      	ldr	r3, [r3, #0]
 800185e:	f003 0307 	and.w	r3, r3, #7
 8001862:	683a      	ldr	r2, [r7, #0]
 8001864:	429a      	cmp	r2, r3
 8001866:	d001      	beq.n	800186c <HAL_RCC_ClockConfig+0x150>
  {
    return HAL_ERROR;
 8001868:	2301      	movs	r3, #1
 800186a:	e032      	b.n	80018d2 <HAL_RCC_ClockConfig+0x1b6>
  }
}
#endif /* FLASH_ACR_LATENCY */

/*-------------------------- PCLK1 Configuration ---------------------------*/
if (((RCC_ClkInitStruct->ClockType) & RCC_CLOCKTYPE_PCLK1) == RCC_CLOCKTYPE_PCLK1)
 800186c:	687b      	ldr	r3, [r7, #4]
 800186e:	681b      	ldr	r3, [r3, #0]
 8001870:	f003 0304 	and.w	r3, r3, #4
 8001874:	2b00      	cmp	r3, #0
 8001876:	d008      	beq.n	800188a <HAL_RCC_ClockConfig+0x16e>
  {
    assert_param(IS_RCC_PCLK(RCC_ClkInitStruct->APB1CLKDivider));
    MODIFY_REG(RCC->CFGR, RCC_CFGR_PPRE1, RCC_ClkInitStruct->APB1CLKDivider);
 8001878:	4b19      	ldr	r3, [pc, #100]	; (80018e0 <HAL_RCC_ClockConfig+0x1c4>)
 800187a:	685b      	ldr	r3, [r3, #4]
 800187c:	f423 62e0 	bic.w	r2, r3, #1792	; 0x700
 8001880:	687b      	ldr	r3, [r7, #4]
 8001882:	68db      	ldr	r3, [r3, #12]
 8001884:	4916      	ldr	r1, [pc, #88]	; (80018e0 <HAL_RCC_ClockConfig+0x1c4>)
 8001886:	4313      	orrs	r3, r2
 8001888:	604b      	str	r3, [r1, #4]
  }

  /*-------------------------- PCLK2 Configuration ---------------------------*/
  if (((RCC_ClkInitStruct->ClockType) & RCC_CLOCKTYPE_PCLK2) == RCC_CLOCKTYPE_PCLK2)
 800188a:	687b      	ldr	r3, [r7, #4]
 800188c:	681b      	ldr	r3, [r3, #0]
 800188e:	f003 0308 	and.w	r3, r3, #8
 8001892:	2b00      	cmp	r3, #0
 8001894:	d009      	beq.n	80018aa <HAL_RCC_ClockConfig+0x18e>
  {
    assert_param(IS_RCC_PCLK(RCC_ClkInitStruct->APB2CLKDivider));
    MODIFY_REG(RCC->CFGR, RCC_CFGR_PPRE2, ((RCC_ClkInitStruct->APB2CLKDivider) << 3));
 8001896:	4b12      	ldr	r3, [pc, #72]	; (80018e0 <HAL_RCC_ClockConfig+0x1c4>)
 8001898:	685b      	ldr	r3, [r3, #4]
 800189a:	f423 5260 	bic.w	r2, r3, #14336	; 0x3800
 800189e:	687b      	ldr	r3, [r7, #4]
 80018a0:	691b      	ldr	r3, [r3, #16]
 80018a2:	00db      	lsls	r3, r3, #3
 80018a4:	490e      	ldr	r1, [pc, #56]	; (80018e0 <HAL_RCC_ClockConfig+0x1c4>)
 80018a6:	4313      	orrs	r3, r2
 80018a8:	604b      	str	r3, [r1, #4]
  }

  /* Update the SystemCoreClock global variable */
  SystemCoreClock = HAL_RCC_GetSysClockFreq() >> AHBPrescTable[(RCC->CFGR & RCC_CFGR_HPRE) >> RCC_CFGR_HPRE_Pos];
 80018aa:	f000 f821 	bl	80018f0 <HAL_RCC_GetSysClockFreq>
 80018ae:	4602      	mov	r2, r0
 80018b0:	4b0b      	ldr	r3, [pc, #44]	; (80018e0 <HAL_RCC_ClockConfig+0x1c4>)
 80018b2:	685b      	ldr	r3, [r3, #4]
 80018b4:	091b      	lsrs	r3, r3, #4
 80018b6:	f003 030f 	and.w	r3, r3, #15
 80018ba:	490a      	ldr	r1, [pc, #40]	; (80018e4 <HAL_RCC_ClockConfig+0x1c8>)
 80018bc:	5ccb      	ldrb	r3, [r1, r3]
 80018be:	fa22 f303 	lsr.w	r3, r2, r3
 80018c2:	4a09      	ldr	r2, [pc, #36]	; (80018e8 <HAL_RCC_ClockConfig+0x1cc>)
 80018c4:	6013      	str	r3, [r2, #0]

  /* Configure the source of time base considering new system clocks settings*/
  HAL_InitTick(uwTickPrio);
 80018c6:	4b09      	ldr	r3, [pc, #36]	; (80018ec <HAL_RCC_ClockConfig+0x1d0>)
 80018c8:	681b      	ldr	r3, [r3, #0]
 80018ca:	4618      	mov	r0, r3
 80018cc:	f7ff f9b6 	bl	8000c3c <HAL_InitTick>

  return HAL_OK;
 80018d0:	2300      	movs	r3, #0
}
 80018d2:	4618      	mov	r0, r3
 80018d4:	3710      	adds	r7, #16
 80018d6:	46bd      	mov	sp, r7
 80018d8:	bd80      	pop	{r7, pc}
 80018da:	bf00      	nop
 80018dc:	40022000 	.word	0x40022000
 80018e0:	40021000 	.word	0x40021000
 80018e4:	08002214 	.word	0x08002214
 80018e8:	20000010 	.word	0x20000010
 80018ec:	20000014 	.word	0x20000014

080018f0 <HAL_RCC_GetSysClockFreq>:
  *         right SYSCLK value. Otherwise, any configuration based on this function will be incorrect.
  *
  * @retval SYSCLK frequency
  */
uint32_t HAL_RCC_GetSysClockFreq(void)
{
 80018f0:	b480      	push	{r7}
 80018f2:	b087      	sub	sp, #28
 80018f4:	af00      	add	r7, sp, #0
#else
  static const uint8_t aPredivFactorTable[2U] = {1, 2};
#endif /*RCC_CFGR2_PREDIV1*/

#endif
  uint32_t tmpreg = 0U, prediv = 0U, pllclk = 0U, pllmul = 0U;
 80018f6:	2300      	movs	r3, #0
 80018f8:	60fb      	str	r3, [r7, #12]
 80018fa:	2300      	movs	r3, #0
 80018fc:	60bb      	str	r3, [r7, #8]
 80018fe:	2300      	movs	r3, #0
 8001900:	617b      	str	r3, [r7, #20]
 8001902:	2300      	movs	r3, #0
 8001904:	607b      	str	r3, [r7, #4]
  uint32_t sysclockfreq = 0U;
 8001906:	2300      	movs	r3, #0
 8001908:	613b      	str	r3, [r7, #16]
#if defined(RCC_CFGR2_PREDIV1SRC)
  uint32_t prediv2 = 0U, pll2mul = 0U;
#endif /*RCC_CFGR2_PREDIV1SRC*/

  tmpreg = RCC->CFGR;
 800190a:	4b1e      	ldr	r3, [pc, #120]	; (8001984 <HAL_RCC_GetSysClockFreq+0x94>)
 800190c:	685b      	ldr	r3, [r3, #4]
 800190e:	60fb      	str	r3, [r7, #12]

  /* Get SYSCLK source -------------------------------------------------------*/
  switch (tmpreg & RCC_CFGR_SWS)
 8001910:	68fb      	ldr	r3, [r7, #12]
 8001912:	f003 030c 	and.w	r3, r3, #12
 8001916:	2b04      	cmp	r3, #4
 8001918:	d002      	beq.n	8001920 <HAL_RCC_GetSysClockFreq+0x30>
 800191a:	2b08      	cmp	r3, #8
 800191c:	d003      	beq.n	8001926 <HAL_RCC_GetSysClockFreq+0x36>
 800191e:	e027      	b.n	8001970 <HAL_RCC_GetSysClockFreq+0x80>
  {
    case RCC_SYSCLKSOURCE_STATUS_HSE:  /* HSE used as system clock */
    {
      sysclockfreq = HSE_VALUE;
 8001920:	4b19      	ldr	r3, [pc, #100]	; (8001988 <HAL_RCC_GetSysClockFreq+0x98>)
 8001922:	613b      	str	r3, [r7, #16]
      break;
 8001924:	e027      	b.n	8001976 <HAL_RCC_GetSysClockFreq+0x86>
    }
    case RCC_SYSCLKSOURCE_STATUS_PLLCLK:  /* PLL used as system clock */
    {
      pllmul = aPLLMULFactorTable[(uint32_t)(tmpreg & RCC_CFGR_PLLMULL) >> RCC_CFGR_PLLMULL_Pos];
 8001926:	68fb      	ldr	r3, [r7, #12]
 8001928:	0c9b      	lsrs	r3, r3, #18
 800192a:	f003 030f 	and.w	r3, r3, #15
 800192e:	4a17      	ldr	r2, [pc, #92]	; (800198c <HAL_RCC_GetSysClockFreq+0x9c>)
 8001930:	5cd3      	ldrb	r3, [r2, r3]
 8001932:	607b      	str	r3, [r7, #4]
      if ((tmpreg & RCC_CFGR_PLLSRC) != RCC_PLLSOURCE_HSI_DIV2)
 8001934:	68fb      	ldr	r3, [r7, #12]
 8001936:	f403 3380 	and.w	r3, r3, #65536	; 0x10000
 800193a:	2b00      	cmp	r3, #0
 800193c:	d010      	beq.n	8001960 <HAL_RCC_GetSysClockFreq+0x70>
      {
#if defined(RCC_CFGR2_PREDIV1)
        prediv = aPredivFactorTable[(uint32_t)(RCC->CFGR2 & RCC_CFGR2_PREDIV1) >> RCC_CFGR2_PREDIV1_Pos];
#else
        prediv = aPredivFactorTable[(uint32_t)(RCC->CFGR & RCC_CFGR_PLLXTPRE) >> RCC_CFGR_PLLXTPRE_Pos];
 800193e:	4b11      	ldr	r3, [pc, #68]	; (8001984 <HAL_RCC_GetSysClockFreq+0x94>)
 8001940:	685b      	ldr	r3, [r3, #4]
 8001942:	0c5b      	lsrs	r3, r3, #17
 8001944:	f003 0301 	and.w	r3, r3, #1
 8001948:	4a11      	ldr	r2, [pc, #68]	; (8001990 <HAL_RCC_GetSysClockFreq+0xa0>)
 800194a:	5cd3      	ldrb	r3, [r2, r3]
 800194c:	60bb      	str	r3, [r7, #8]
        {
          pllclk = pllclk / 2;
        }
#else
        /* HSE used as PLL clock source : PLLCLK = HSE/PREDIV1 * PLLMUL */
        pllclk = (uint32_t)((HSE_VALUE  * pllmul) / prediv);
 800194e:	687b      	ldr	r3, [r7, #4]
 8001950:	4a0d      	ldr	r2, [pc, #52]	; (8001988 <HAL_RCC_GetSysClockFreq+0x98>)
 8001952:	fb03 f202 	mul.w	r2, r3, r2
 8001956:	68bb      	ldr	r3, [r7, #8]
 8001958:	fbb2 f3f3 	udiv	r3, r2, r3
 800195c:	617b      	str	r3, [r7, #20]
 800195e:	e004      	b.n	800196a <HAL_RCC_GetSysClockFreq+0x7a>
#endif /*RCC_CFGR2_PREDIV1SRC*/
      }
      else
      {
        /* HSI used as PLL clock source : PLLCLK = HSI/2 * PLLMUL */
        pllclk = (uint32_t)((HSI_VALUE >> 1) * pllmul);
 8001960:	687b      	ldr	r3, [r7, #4]
 8001962:	4a0c      	ldr	r2, [pc, #48]	; (8001994 <HAL_RCC_GetSysClockFreq+0xa4>)
 8001964:	fb02 f303 	mul.w	r3, r2, r3
 8001968:	617b      	str	r3, [r7, #20]
      }
      sysclockfreq = pllclk;
 800196a:	697b      	ldr	r3, [r7, #20]
 800196c:	613b      	str	r3, [r7, #16]
      break;
 800196e:	e002      	b.n	8001976 <HAL_RCC_GetSysClockFreq+0x86>
    }
    case RCC_SYSCLKSOURCE_STATUS_HSI:  /* HSI used as system clock source */
    default: /* HSI used as system clock */
    {
      sysclockfreq = HSI_VALUE;
 8001970:	4b05      	ldr	r3, [pc, #20]	; (8001988 <HAL_RCC_GetSysClockFreq+0x98>)
 8001972:	613b      	str	r3, [r7, #16]
      break;
 8001974:	bf00      	nop
    }
  }
  return sysclockfreq;
 8001976:	693b      	ldr	r3, [r7, #16]
}
 8001978:	4618      	mov	r0, r3
 800197a:	371c      	adds	r7, #28
 800197c:	46bd      	mov	sp, r7
 800197e:	bc80      	pop	{r7}
 8001980:	4770      	bx	lr
 8001982:	bf00      	nop
 8001984:	40021000 	.word	0x40021000
 8001988:	007a1200 	.word	0x007a1200
 800198c:	08002224 	.word	0x08002224
 8001990:	08002234 	.word	0x08002234
 8001994:	003d0900 	.word	0x003d0900

08001998 <RCC_Delay>:
  * @brief  This function provides delay (in milliseconds) based on CPU cycles method.
  * @param  mdelay: specifies the delay time length, in milliseconds.
  * @retval None
  */
static void RCC_Delay(uint32_t mdelay)
{
 8001998:	b480      	push	{r7}
 800199a:	b085      	sub	sp, #20
 800199c:	af00      	add	r7, sp, #0
 800199e:	6078      	str	r0, [r7, #4]
  __IO uint32_t Delay = mdelay * (SystemCoreClock / 8U / 1000U);
 80019a0:	4b0a      	ldr	r3, [pc, #40]	; (80019cc <RCC_Delay+0x34>)
 80019a2:	681b      	ldr	r3, [r3, #0]
 80019a4:	4a0a      	ldr	r2, [pc, #40]	; (80019d0 <RCC_Delay+0x38>)
 80019a6:	fba2 2303 	umull	r2, r3, r2, r3
 80019aa:	0a5b      	lsrs	r3, r3, #9
 80019ac:	687a      	ldr	r2, [r7, #4]
 80019ae:	fb02 f303 	mul.w	r3, r2, r3
 80019b2:	60fb      	str	r3, [r7, #12]
  do
  {
    __NOP();
 80019b4:	bf00      	nop
  }
  while (Delay --);
 80019b6:	68fb      	ldr	r3, [r7, #12]
 80019b8:	1e5a      	subs	r2, r3, #1
 80019ba:	60fa      	str	r2, [r7, #12]
 80019bc:	2b00      	cmp	r3, #0
 80019be:	d1f9      	bne.n	80019b4 <RCC_Delay+0x1c>
}
 80019c0:	bf00      	nop
 80019c2:	bf00      	nop
 80019c4:	3714      	adds	r7, #20
 80019c6:	46bd      	mov	sp, r7
 80019c8:	bc80      	pop	{r7}
 80019ca:	4770      	bx	lr
 80019cc:	20000010 	.word	0x20000010
 80019d0:	10624dd3 	.word	0x10624dd3

080019d4 <HAL_TIM_Base_Init>:
  *         Ex: call @ref HAL_TIM_Base_DeInit() before HAL_TIM_Base_Init()
  * @param  htim TIM Base handle
  * @retval HAL status
  */
HAL_StatusTypeDef HAL_TIM_Base_Init(TIM_HandleTypeDef *htim)
{
 80019d4:	b580      	push	{r7, lr}
 80019d6:	b082      	sub	sp, #8
 80019d8:	af00      	add	r7, sp, #0
 80019da:	6078      	str	r0, [r7, #4]
  /* Check the TIM handle allocation */
  if (htim == NULL)
 80019dc:	687b      	ldr	r3, [r7, #4]
 80019de:	2b00      	cmp	r3, #0
 80019e0:	d101      	bne.n	80019e6 <HAL_TIM_Base_Init+0x12>
  {
    return HAL_ERROR;
 80019e2:	2301      	movs	r3, #1
 80019e4:	e041      	b.n	8001a6a <HAL_TIM_Base_Init+0x96>
  assert_param(IS_TIM_COUNTER_MODE(htim->Init.CounterMode));
  assert_param(IS_TIM_CLOCKDIVISION_DIV(htim->Init.ClockDivision));
  assert_param(IS_TIM_PERIOD(htim->Init.Period));
  assert_param(IS_TIM_AUTORELOAD_PRELOAD(htim->Init.AutoReloadPreload));

  if (htim->State == HAL_TIM_STATE_RESET)
 80019e6:	687b      	ldr	r3, [r7, #4]
 80019e8:	f893 303d 	ldrb.w	r3, [r3, #61]	; 0x3d
 80019ec:	b2db      	uxtb	r3, r3
 80019ee:	2b00      	cmp	r3, #0
 80019f0:	d106      	bne.n	8001a00 <HAL_TIM_Base_Init+0x2c>
  {
    /* Allocate lock resource and initialize it */
    htim->Lock = HAL_UNLOCKED;
 80019f2:	687b      	ldr	r3, [r7, #4]
 80019f4:	2200      	movs	r2, #0
 80019f6:	f883 203c 	strb.w	r2, [r3, #60]	; 0x3c
    }
    /* Init the low level hardware : GPIO, CLOCK, NVIC */
    htim->Base_MspInitCallback(htim);
#else
    /* Init the low level hardware : GPIO, CLOCK, NVIC */
    HAL_TIM_Base_MspInit(htim);
 80019fa:	6878      	ldr	r0, [r7, #4]
 80019fc:	f7ff f886 	bl	8000b0c <HAL_TIM_Base_MspInit>
#endif /* USE_HAL_TIM_REGISTER_CALLBACKS */
  }

  /* Set the TIM state */
  htim->State = HAL_TIM_STATE_BUSY;
 8001a00:	687b      	ldr	r3, [r7, #4]
 8001a02:	2202      	movs	r2, #2
 8001a04:	f883 203d 	strb.w	r2, [r3, #61]	; 0x3d

  /* Set the Time Base configuration */
  TIM_Base_SetConfig(htim->Instance, &htim->Init);
 8001a08:	687b      	ldr	r3, [r7, #4]
 8001a0a:	681a      	ldr	r2, [r3, #0]
 8001a0c:	687b      	ldr	r3, [r7, #4]
 8001a0e:	3304      	adds	r3, #4
 8001a10:	4619      	mov	r1, r3
 8001a12:	4610      	mov	r0, r2
 8001a14:	f000 fa6e 	bl	8001ef4 <TIM_Base_SetConfig>

  /* Initialize the DMA burst operation state */
  htim->DMABurstState = HAL_DMA_BURST_STATE_READY;
 8001a18:	687b      	ldr	r3, [r7, #4]
 8001a1a:	2201      	movs	r2, #1
 8001a1c:	f883 2046 	strb.w	r2, [r3, #70]	; 0x46

  /* Initialize the TIM channels state */
  TIM_CHANNEL_STATE_SET_ALL(htim, HAL_TIM_CHANNEL_STATE_READY);
 8001a20:	687b      	ldr	r3, [r7, #4]
 8001a22:	2201      	movs	r2, #1
 8001a24:	f883 203e 	strb.w	r2, [r3, #62]	; 0x3e
 8001a28:	687b      	ldr	r3, [r7, #4]
 8001a2a:	2201      	movs	r2, #1
 8001a2c:	f883 203f 	strb.w	r2, [r3, #63]	; 0x3f
 8001a30:	687b      	ldr	r3, [r7, #4]
 8001a32:	2201      	movs	r2, #1
 8001a34:	f883 2040 	strb.w	r2, [r3, #64]	; 0x40
 8001a38:	687b      	ldr	r3, [r7, #4]
 8001a3a:	2201      	movs	r2, #1
 8001a3c:	f883 2041 	strb.w	r2, [r3, #65]	; 0x41
  TIM_CHANNEL_N_STATE_SET_ALL(htim, HAL_TIM_CHANNEL_STATE_READY);
 8001a40:	687b      	ldr	r3, [r7, #4]
 8001a42:	2201      	movs	r2, #1
 8001a44:	f883 2042 	strb.w	r2, [r3, #66]	; 0x42
 8001a48:	687b      	ldr	r3, [r7, #4]
 8001a4a:	2201      	movs	r2, #1
 8001a4c:	f883 2043 	strb.w	r2, [r3, #67]	; 0x43
 8001a50:	687b      	ldr	r3, [r7, #4]
 8001a52:	2201      	movs	r2, #1
 8001a54:	f883 2044 	strb.w	r2, [r3, #68]	; 0x44
 8001a58:	687b      	ldr	r3, [r7, #4]
 8001a5a:	2201      	movs	r2, #1
 8001a5c:	f883 2045 	strb.w	r2, [r3, #69]	; 0x45

  /* Initialize the TIM state*/
  htim->State = HAL_TIM_STATE_READY;
 8001a60:	687b      	ldr	r3, [r7, #4]
 8001a62:	2201      	movs	r2, #1
 8001a64:	f883 203d 	strb.w	r2, [r3, #61]	; 0x3d

  return HAL_OK;
 8001a68:	2300      	movs	r3, #0
}
 8001a6a:	4618      	mov	r0, r3
 8001a6c:	3708      	adds	r7, #8
 8001a6e:	46bd      	mov	sp, r7
 8001a70:	bd80      	pop	{r7, pc}
	...

08001a74 <HAL_TIM_Base_Start_IT>:
  * @brief  Starts the TIM Base generation in interrupt mode.
  * @param  htim TIM Base handle
  * @retval HAL status
  */
HAL_StatusTypeDef HAL_TIM_Base_Start_IT(TIM_HandleTypeDef *htim)
{
 8001a74:	b480      	push	{r7}
 8001a76:	b085      	sub	sp, #20
 8001a78:	af00      	add	r7, sp, #0
 8001a7a:	6078      	str	r0, [r7, #4]

  /* Check the parameters */
  assert_param(IS_TIM_INSTANCE(htim->Instance));

  /* Check the TIM state */
  if (htim->State != HAL_TIM_STATE_READY)
 8001a7c:	687b      	ldr	r3, [r7, #4]
 8001a7e:	f893 303d 	ldrb.w	r3, [r3, #61]	; 0x3d
 8001a82:	b2db      	uxtb	r3, r3
 8001a84:	2b01      	cmp	r3, #1
 8001a86:	d001      	beq.n	8001a8c <HAL_TIM_Base_Start_IT+0x18>
  {
    return HAL_ERROR;
 8001a88:	2301      	movs	r3, #1
 8001a8a:	e035      	b.n	8001af8 <HAL_TIM_Base_Start_IT+0x84>
  }

  /* Set the TIM state */
  htim->State = HAL_TIM_STATE_BUSY;
 8001a8c:	687b      	ldr	r3, [r7, #4]
 8001a8e:	2202      	movs	r2, #2
 8001a90:	f883 203d 	strb.w	r2, [r3, #61]	; 0x3d

  /* Enable the TIM Update interrupt */
  __HAL_TIM_ENABLE_IT(htim, TIM_IT_UPDATE);
 8001a94:	687b      	ldr	r3, [r7, #4]
 8001a96:	681b      	ldr	r3, [r3, #0]
 8001a98:	68da      	ldr	r2, [r3, #12]
 8001a9a:	687b      	ldr	r3, [r7, #4]
 8001a9c:	681b      	ldr	r3, [r3, #0]
 8001a9e:	f042 0201 	orr.w	r2, r2, #1
 8001aa2:	60da      	str	r2, [r3, #12]

  /* Enable the Peripheral, except in trigger mode where enable is automatically done with trigger */
  if (IS_TIM_SLAVE_INSTANCE(htim->Instance))
 8001aa4:	687b      	ldr	r3, [r7, #4]
 8001aa6:	681b      	ldr	r3, [r3, #0]
 8001aa8:	4a16      	ldr	r2, [pc, #88]	; (8001b04 <HAL_TIM_Base_Start_IT+0x90>)
 8001aaa:	4293      	cmp	r3, r2
 8001aac:	d009      	beq.n	8001ac2 <HAL_TIM_Base_Start_IT+0x4e>
 8001aae:	687b      	ldr	r3, [r7, #4]
 8001ab0:	681b      	ldr	r3, [r3, #0]
 8001ab2:	f1b3 4f80 	cmp.w	r3, #1073741824	; 0x40000000
 8001ab6:	d004      	beq.n	8001ac2 <HAL_TIM_Base_Start_IT+0x4e>
 8001ab8:	687b      	ldr	r3, [r7, #4]
 8001aba:	681b      	ldr	r3, [r3, #0]
 8001abc:	4a12      	ldr	r2, [pc, #72]	; (8001b08 <HAL_TIM_Base_Start_IT+0x94>)
 8001abe:	4293      	cmp	r3, r2
 8001ac0:	d111      	bne.n	8001ae6 <HAL_TIM_Base_Start_IT+0x72>
  {
    tmpsmcr = htim->Instance->SMCR & TIM_SMCR_SMS;
 8001ac2:	687b      	ldr	r3, [r7, #4]
 8001ac4:	681b      	ldr	r3, [r3, #0]
 8001ac6:	689b      	ldr	r3, [r3, #8]
 8001ac8:	f003 0307 	and.w	r3, r3, #7
 8001acc:	60fb      	str	r3, [r7, #12]
    if (!IS_TIM_SLAVEMODE_TRIGGER_ENABLED(tmpsmcr))
 8001ace:	68fb      	ldr	r3, [r7, #12]
 8001ad0:	2b06      	cmp	r3, #6
 8001ad2:	d010      	beq.n	8001af6 <HAL_TIM_Base_Start_IT+0x82>
    {
      __HAL_TIM_ENABLE(htim);
 8001ad4:	687b      	ldr	r3, [r7, #4]
 8001ad6:	681b      	ldr	r3, [r3, #0]
 8001ad8:	681a      	ldr	r2, [r3, #0]
 8001ada:	687b      	ldr	r3, [r7, #4]
 8001adc:	681b      	ldr	r3, [r3, #0]
 8001ade:	f042 0201 	orr.w	r2, r2, #1
 8001ae2:	601a      	str	r2, [r3, #0]
    if (!IS_TIM_SLAVEMODE_TRIGGER_ENABLED(tmpsmcr))
 8001ae4:	e007      	b.n	8001af6 <HAL_TIM_Base_Start_IT+0x82>
    }
  }
  else
  {
    __HAL_TIM_ENABLE(htim);
 8001ae6:	687b      	ldr	r3, [r7, #4]
 8001ae8:	681b      	ldr	r3, [r3, #0]
 8001aea:	681a      	ldr	r2, [r3, #0]
 8001aec:	687b      	ldr	r3, [r7, #4]
 8001aee:	681b      	ldr	r3, [r3, #0]
 8001af0:	f042 0201 	orr.w	r2, r2, #1
 8001af4:	601a      	str	r2, [r3, #0]
  }

  /* Return function status */
  return HAL_OK;
 8001af6:	2300      	movs	r3, #0
}
 8001af8:	4618      	mov	r0, r3
 8001afa:	3714      	adds	r7, #20
 8001afc:	46bd      	mov	sp, r7
 8001afe:	bc80      	pop	{r7}
 8001b00:	4770      	bx	lr
 8001b02:	bf00      	nop
 8001b04:	40012c00 	.word	0x40012c00
 8001b08:	40000400 	.word	0x40000400

08001b0c <HAL_TIM_IRQHandler>:
  * @brief  This function handles TIM interrupts requests.
  * @param  htim TIM  handle
  * @retval None
  */
void HAL_TIM_IRQHandler(TIM_HandleTypeDef *htim)
{
 8001b0c:	b580      	push	{r7, lr}
 8001b0e:	b082      	sub	sp, #8
 8001b10:	af00      	add	r7, sp, #0
 8001b12:	6078      	str	r0, [r7, #4]
  /* Capture compare 1 event */
  if (__HAL_TIM_GET_FLAG(htim, TIM_FLAG_CC1) != RESET)
 8001b14:	687b      	ldr	r3, [r7, #4]
 8001b16:	681b      	ldr	r3, [r3, #0]
 8001b18:	691b      	ldr	r3, [r3, #16]
 8001b1a:	f003 0302 	and.w	r3, r3, #2
 8001b1e:	2b02      	cmp	r3, #2
 8001b20:	d122      	bne.n	8001b68 <HAL_TIM_IRQHandler+0x5c>
  {
    if (__HAL_TIM_GET_IT_SOURCE(htim, TIM_IT_CC1) != RESET)
 8001b22:	687b      	ldr	r3, [r7, #4]
 8001b24:	681b      	ldr	r3, [r3, #0]
 8001b26:	68db      	ldr	r3, [r3, #12]
 8001b28:	f003 0302 	and.w	r3, r3, #2
 8001b2c:	2b02      	cmp	r3, #2
 8001b2e:	d11b      	bne.n	8001b68 <HAL_TIM_IRQHandler+0x5c>
    {
      {
        __HAL_TIM_CLEAR_IT(htim, TIM_IT_CC1);
 8001b30:	687b      	ldr	r3, [r7, #4]
 8001b32:	681b      	ldr	r3, [r3, #0]
 8001b34:	f06f 0202 	mvn.w	r2, #2
 8001b38:	611a      	str	r2, [r3, #16]
        htim->Channel = HAL_TIM_ACTIVE_CHANNEL_1;
 8001b3a:	687b      	ldr	r3, [r7, #4]
 8001b3c:	2201      	movs	r2, #1
 8001b3e:	771a      	strb	r2, [r3, #28]

        /* Input capture event */
        if ((htim->Instance->CCMR1 & TIM_CCMR1_CC1S) != 0x00U)
 8001b40:	687b      	ldr	r3, [r7, #4]
 8001b42:	681b      	ldr	r3, [r3, #0]
 8001b44:	699b      	ldr	r3, [r3, #24]
 8001b46:	f003 0303 	and.w	r3, r3, #3
 8001b4a:	2b00      	cmp	r3, #0
 8001b4c:	d003      	beq.n	8001b56 <HAL_TIM_IRQHandler+0x4a>
        {
#if (USE_HAL_TIM_REGISTER_CALLBACKS == 1)
          htim->IC_CaptureCallback(htim);
#else
          HAL_TIM_IC_CaptureCallback(htim);
 8001b4e:	6878      	ldr	r0, [r7, #4]
 8001b50:	f000 f9b4 	bl	8001ebc <HAL_TIM_IC_CaptureCallback>
 8001b54:	e005      	b.n	8001b62 <HAL_TIM_IRQHandler+0x56>
        {
#if (USE_HAL_TIM_REGISTER_CALLBACKS == 1)
          htim->OC_DelayElapsedCallback(htim);
          htim->PWM_PulseFinishedCallback(htim);
#else
          HAL_TIM_OC_DelayElapsedCallback(htim);
 8001b56:	6878      	ldr	r0, [r7, #4]
 8001b58:	f000 f9a7 	bl	8001eaa <HAL_TIM_OC_DelayElapsedCallback>
          HAL_TIM_PWM_PulseFinishedCallback(htim);
 8001b5c:	6878      	ldr	r0, [r7, #4]
 8001b5e:	f000 f9b6 	bl	8001ece <HAL_TIM_PWM_PulseFinishedCallback>
#endif /* USE_HAL_TIM_REGISTER_CALLBACKS */
        }
        htim->Channel = HAL_TIM_ACTIVE_CHANNEL_CLEARED;
 8001b62:	687b      	ldr	r3, [r7, #4]
 8001b64:	2200      	movs	r2, #0
 8001b66:	771a      	strb	r2, [r3, #28]
      }
    }
  }
  /* Capture compare 2 event */
  if (__HAL_TIM_GET_FLAG(htim, TIM_FLAG_CC2) != RESET)
 8001b68:	687b      	ldr	r3, [r7, #4]
 8001b6a:	681b      	ldr	r3, [r3, #0]
 8001b6c:	691b      	ldr	r3, [r3, #16]
 8001b6e:	f003 0304 	and.w	r3, r3, #4
 8001b72:	2b04      	cmp	r3, #4
 8001b74:	d122      	bne.n	8001bbc <HAL_TIM_IRQHandler+0xb0>
  {
    if (__HAL_TIM_GET_IT_SOURCE(htim, TIM_IT_CC2) != RESET)
 8001b76:	687b      	ldr	r3, [r7, #4]
 8001b78:	681b      	ldr	r3, [r3, #0]
 8001b7a:	68db      	ldr	r3, [r3, #12]
 8001b7c:	f003 0304 	and.w	r3, r3, #4
 8001b80:	2b04      	cmp	r3, #4
 8001b82:	d11b      	bne.n	8001bbc <HAL_TIM_IRQHandler+0xb0>
    {
      __HAL_TIM_CLEAR_IT(htim, TIM_IT_CC2);
 8001b84:	687b      	ldr	r3, [r7, #4]
 8001b86:	681b      	ldr	r3, [r3, #0]
 8001b88:	f06f 0204 	mvn.w	r2, #4
 8001b8c:	611a      	str	r2, [r3, #16]
      htim->Channel = HAL_TIM_ACTIVE_CHANNEL_2;
 8001b8e:	687b      	ldr	r3, [r7, #4]
 8001b90:	2202      	movs	r2, #2
 8001b92:	771a      	strb	r2, [r3, #28]
      /* Input capture event */
      if ((htim->Instance->CCMR1 & TIM_CCMR1_CC2S) != 0x00U)
 8001b94:	687b      	ldr	r3, [r7, #4]
 8001b96:	681b      	ldr	r3, [r3, #0]
 8001b98:	699b      	ldr	r3, [r3, #24]
 8001b9a:	f403 7340 	and.w	r3, r3, #768	; 0x300
 8001b9e:	2b00      	cmp	r3, #0
 8001ba0:	d003      	beq.n	8001baa <HAL_TIM_IRQHandler+0x9e>
      {
#if (USE_HAL_TIM_REGISTER_CALLBACKS == 1)
        htim->IC_CaptureCallback(htim);
#else
        HAL_TIM_IC_CaptureCallback(htim);
 8001ba2:	6878      	ldr	r0, [r7, #4]
 8001ba4:	f000 f98a 	bl	8001ebc <HAL_TIM_IC_CaptureCallback>
 8001ba8:	e005      	b.n	8001bb6 <HAL_TIM_IRQHandler+0xaa>
      {
#if (USE_HAL_TIM_REGISTER_CALLBACKS == 1)
        htim->OC_DelayElapsedCallback(htim);
        htim->PWM_PulseFinishedCallback(htim);
#else
        HAL_TIM_OC_DelayElapsedCallback(htim);
 8001baa:	6878      	ldr	r0, [r7, #4]
 8001bac:	f000 f97d 	bl	8001eaa <HAL_TIM_OC_DelayElapsedCallback>
        HAL_TIM_PWM_PulseFinishedCallback(htim);
 8001bb0:	6878      	ldr	r0, [r7, #4]
 8001bb2:	f000 f98c 	bl	8001ece <HAL_TIM_PWM_PulseFinishedCallback>
#endif /* USE_HAL_TIM_REGISTER_CALLBACKS */
      }
      htim->Channel = HAL_TIM_ACTIVE_CHANNEL_CLEARED;
 8001bb6:	687b      	ldr	r3, [r7, #4]
 8001bb8:	2200      	movs	r2, #0
 8001bba:	771a      	strb	r2, [r3, #28]
    }
  }
  /* Capture compare 3 event */
  if (__HAL_TIM_GET_FLAG(htim, TIM_FLAG_CC3) != RESET)
 8001bbc:	687b      	ldr	r3, [r7, #4]
 8001bbe:	681b      	ldr	r3, [r3, #0]
 8001bc0:	691b      	ldr	r3, [r3, #16]
 8001bc2:	f003 0308 	and.w	r3, r3, #8
 8001bc6:	2b08      	cmp	r3, #8
 8001bc8:	d122      	bne.n	8001c10 <HAL_TIM_IRQHandler+0x104>
  {
    if (__HAL_TIM_GET_IT_SOURCE(htim, TIM_IT_CC3) != RESET)
 8001bca:	687b      	ldr	r3, [r7, #4]
 8001bcc:	681b      	ldr	r3, [r3, #0]
 8001bce:	68db      	ldr	r3, [r3, #12]
 8001bd0:	f003 0308 	and.w	r3, r3, #8
 8001bd4:	2b08      	cmp	r3, #8
 8001bd6:	d11b      	bne.n	8001c10 <HAL_TIM_IRQHandler+0x104>
    {
      __HAL_TIM_CLEAR_IT(htim, TIM_IT_CC3);
 8001bd8:	687b      	ldr	r3, [r7, #4]
 8001bda:	681b      	ldr	r3, [r3, #0]
 8001bdc:	f06f 0208 	mvn.w	r2, #8
 8001be0:	611a      	str	r2, [r3, #16]
      htim->Channel = HAL_TIM_ACTIVE_CHANNEL_3;
 8001be2:	687b      	ldr	r3, [r7, #4]
 8001be4:	2204      	movs	r2, #4
 8001be6:	771a      	strb	r2, [r3, #28]
      /* Input capture event */
      if ((htim->Instance->CCMR2 & TIM_CCMR2_CC3S) != 0x00U)
 8001be8:	687b      	ldr	r3, [r7, #4]
 8001bea:	681b      	ldr	r3, [r3, #0]
 8001bec:	69db      	ldr	r3, [r3, #28]
 8001bee:	f003 0303 	and.w	r3, r3, #3
 8001bf2:	2b00      	cmp	r3, #0
 8001bf4:	d003      	beq.n	8001bfe <HAL_TIM_IRQHandler+0xf2>
      {
#if (USE_HAL_TIM_REGISTER_CALLBACKS == 1)
        htim->IC_CaptureCallback(htim);
#else
        HAL_TIM_IC_CaptureCallback(htim);
 8001bf6:	6878      	ldr	r0, [r7, #4]
 8001bf8:	f000 f960 	bl	8001ebc <HAL_TIM_IC_CaptureCallback>
 8001bfc:	e005      	b.n	8001c0a <HAL_TIM_IRQHandler+0xfe>
      {
#if (USE_HAL_TIM_REGISTER_CALLBACKS == 1)
        htim->OC_DelayElapsedCallback(htim);
        htim->PWM_PulseFinishedCallback(htim);
#else
        HAL_TIM_OC_DelayElapsedCallback(htim);
 8001bfe:	6878      	ldr	r0, [r7, #4]
 8001c00:	f000 f953 	bl	8001eaa <HAL_TIM_OC_DelayElapsedCallback>
        HAL_TIM_PWM_PulseFinishedCallback(htim);
 8001c04:	6878      	ldr	r0, [r7, #4]
 8001c06:	f000 f962 	bl	8001ece <HAL_TIM_PWM_PulseFinishedCallback>
#endif /* USE_HAL_TIM_REGISTER_CALLBACKS */
      }
      htim->Channel = HAL_TIM_ACTIVE_CHANNEL_CLEARED;
 8001c0a:	687b      	ldr	r3, [r7, #4]
 8001c0c:	2200      	movs	r2, #0
 8001c0e:	771a      	strb	r2, [r3, #28]
    }
  }
  /* Capture compare 4 event */
  if (__HAL_TIM_GET_FLAG(htim, TIM_FLAG_CC4) != RESET)
 8001c10:	687b      	ldr	r3, [r7, #4]
 8001c12:	681b      	ldr	r3, [r3, #0]
 8001c14:	691b      	ldr	r3, [r3, #16]
 8001c16:	f003 0310 	and.w	r3, r3, #16
 8001c1a:	2b10      	cmp	r3, #16
 8001c1c:	d122      	bne.n	8001c64 <HAL_TIM_IRQHandler+0x158>
  {
    if (__HAL_TIM_GET_IT_SOURCE(htim, TIM_IT_CC4) != RESET)
 8001c1e:	687b      	ldr	r3, [r7, #4]
 8001c20:	681b      	ldr	r3, [r3, #0]
 8001c22:	68db      	ldr	r3, [r3, #12]
 8001c24:	f003 0310 	and.w	r3, r3, #16
 8001c28:	2b10      	cmp	r3, #16
 8001c2a:	d11b      	bne.n	8001c64 <HAL_TIM_IRQHandler+0x158>
    {
      __HAL_TIM_CLEAR_IT(htim, TIM_IT_CC4);
 8001c2c:	687b      	ldr	r3, [r7, #4]
 8001c2e:	681b      	ldr	r3, [r3, #0]
 8001c30:	f06f 0210 	mvn.w	r2, #16
 8001c34:	611a      	str	r2, [r3, #16]
      htim->Channel = HAL_TIM_ACTIVE_CHANNEL_4;
 8001c36:	687b      	ldr	r3, [r7, #4]
 8001c38:	2208      	movs	r2, #8
 8001c3a:	771a      	strb	r2, [r3, #28]
      /* Input capture event */
      if ((htim->Instance->CCMR2 & TIM_CCMR2_CC4S) != 0x00U)
 8001c3c:	687b      	ldr	r3, [r7, #4]
 8001c3e:	681b      	ldr	r3, [r3, #0]
 8001c40:	69db      	ldr	r3, [r3, #28]
 8001c42:	f403 7340 	and.w	r3, r3, #768	; 0x300
 8001c46:	2b00      	cmp	r3, #0
 8001c48:	d003      	beq.n	8001c52 <HAL_TIM_IRQHandler+0x146>
      {
#if (USE_HAL_TIM_REGISTER_CALLBACKS == 1)
        htim->IC_CaptureCallback(htim);
#else
        HAL_TIM_IC_CaptureCallback(htim);
 8001c4a:	6878      	ldr	r0, [r7, #4]
 8001c4c:	f000 f936 	bl	8001ebc <HAL_TIM_IC_CaptureCallback>
 8001c50:	e005      	b.n	8001c5e <HAL_TIM_IRQHandler+0x152>
      {
#if (USE_HAL_TIM_REGISTER_CALLBACKS == 1)
        htim->OC_DelayElapsedCallback(htim);
        htim->PWM_PulseFinishedCallback(htim);
#else
        HAL_TIM_OC_DelayElapsedCallback(htim);
 8001c52:	6878      	ldr	r0, [r7, #4]
 8001c54:	f000 f929 	bl	8001eaa <HAL_TIM_OC_DelayElapsedCallback>
        HAL_TIM_PWM_PulseFinishedCallback(htim);
 8001c58:	6878      	ldr	r0, [r7, #4]
 8001c5a:	f000 f938 	bl	8001ece <HAL_TIM_PWM_PulseFinishedCallback>
#endif /* USE_HAL_TIM_REGISTER_CALLBACKS */
      }
      htim->Channel = HAL_TIM_ACTIVE_CHANNEL_CLEARED;
 8001c5e:	687b      	ldr	r3, [r7, #4]
 8001c60:	2200      	movs	r2, #0
 8001c62:	771a      	strb	r2, [r3, #28]
    }
  }
  /* TIM Update event */
  if (__HAL_TIM_GET_FLAG(htim, TIM_FLAG_UPDATE) != RESET)
 8001c64:	687b      	ldr	r3, [r7, #4]
 8001c66:	681b      	ldr	r3, [r3, #0]
 8001c68:	691b      	ldr	r3, [r3, #16]
 8001c6a:	f003 0301 	and.w	r3, r3, #1
 8001c6e:	2b01      	cmp	r3, #1
 8001c70:	d10e      	bne.n	8001c90 <HAL_TIM_IRQHandler+0x184>
  {
    if (__HAL_TIM_GET_IT_SOURCE(htim, TIM_IT_UPDATE) != RESET)
 8001c72:	687b      	ldr	r3, [r7, #4]
 8001c74:	681b      	ldr	r3, [r3, #0]
 8001c76:	68db      	ldr	r3, [r3, #12]
 8001c78:	f003 0301 	and.w	r3, r3, #1
 8001c7c:	2b01      	cmp	r3, #1
 8001c7e:	d107      	bne.n	8001c90 <HAL_TIM_IRQHandler+0x184>
    {
      __HAL_TIM_CLEAR_IT(htim, TIM_IT_UPDATE);
 8001c80:	687b      	ldr	r3, [r7, #4]
 8001c82:	681b      	ldr	r3, [r3, #0]
 8001c84:	f06f 0201 	mvn.w	r2, #1
 8001c88:	611a      	str	r2, [r3, #16]
#if (USE_HAL_TIM_REGISTER_CALLBACKS == 1)
      htim->PeriodElapsedCallback(htim);
#else
      HAL_TIM_PeriodElapsedCallback(htim);
 8001c8a:	6878      	ldr	r0, [r7, #4]
 8001c8c:	f7fe fe76 	bl	800097c <HAL_TIM_PeriodElapsedCallback>
#endif /* USE_HAL_TIM_REGISTER_CALLBACKS */
    }
  }
  /* TIM Break input event */
  if (__HAL_TIM_GET_FLAG(htim, TIM_FLAG_BREAK) != RESET)
 8001c90:	687b      	ldr	r3, [r7, #4]
 8001c92:	681b      	ldr	r3, [r3, #0]
 8001c94:	691b      	ldr	r3, [r3, #16]
 8001c96:	f003 0380 	and.w	r3, r3, #128	; 0x80
 8001c9a:	2b80      	cmp	r3, #128	; 0x80
 8001c9c:	d10e      	bne.n	8001cbc <HAL_TIM_IRQHandler+0x1b0>
  {
    if (__HAL_TIM_GET_IT_SOURCE(htim, TIM_IT_BREAK) != RESET)
 8001c9e:	687b      	ldr	r3, [r7, #4]
 8001ca0:	681b      	ldr	r3, [r3, #0]
 8001ca2:	68db      	ldr	r3, [r3, #12]
 8001ca4:	f003 0380 	and.w	r3, r3, #128	; 0x80
 8001ca8:	2b80      	cmp	r3, #128	; 0x80
 8001caa:	d107      	bne.n	8001cbc <HAL_TIM_IRQHandler+0x1b0>
    {
      __HAL_TIM_CLEAR_IT(htim, TIM_IT_BREAK);
 8001cac:	687b      	ldr	r3, [r7, #4]
 8001cae:	681b      	ldr	r3, [r3, #0]
 8001cb0:	f06f 0280 	mvn.w	r2, #128	; 0x80
 8001cb4:	611a      	str	r2, [r3, #16]
#if (USE_HAL_TIM_REGISTER_CALLBACKS == 1)
      htim->BreakCallback(htim);
#else
      HAL_TIMEx_BreakCallback(htim);
 8001cb6:	6878      	ldr	r0, [r7, #4]
 8001cb8:	f000 fa6b 	bl	8002192 <HAL_TIMEx_BreakCallback>
#endif /* USE_HAL_TIM_REGISTER_CALLBACKS */
    }
  }
  /* TIM Trigger detection event */
  if (__HAL_TIM_GET_FLAG(htim, TIM_FLAG_TRIGGER) != RESET)
 8001cbc:	687b      	ldr	r3, [r7, #4]
 8001cbe:	681b      	ldr	r3, [r3, #0]
 8001cc0:	691b      	ldr	r3, [r3, #16]
 8001cc2:	f003 0340 	and.w	r3, r3, #64	; 0x40
 8001cc6:	2b40      	cmp	r3, #64	; 0x40
 8001cc8:	d10e      	bne.n	8001ce8 <HAL_TIM_IRQHandler+0x1dc>
  {
    if (__HAL_TIM_GET_IT_SOURCE(htim, TIM_IT_TRIGGER) != RESET)
 8001cca:	687b      	ldr	r3, [r7, #4]
 8001ccc:	681b      	ldr	r3, [r3, #0]
 8001cce:	68db      	ldr	r3, [r3, #12]
 8001cd0:	f003 0340 	and.w	r3, r3, #64	; 0x40
 8001cd4:	2b40      	cmp	r3, #64	; 0x40
 8001cd6:	d107      	bne.n	8001ce8 <HAL_TIM_IRQHandler+0x1dc>
    {
      __HAL_TIM_CLEAR_IT(htim, TIM_IT_TRIGGER);
 8001cd8:	687b      	ldr	r3, [r7, #4]
 8001cda:	681b      	ldr	r3, [r3, #0]
 8001cdc:	f06f 0240 	mvn.w	r2, #64	; 0x40
 8001ce0:	611a      	str	r2, [r3, #16]
#if (USE_HAL_TIM_REGISTER_CALLBACKS == 1)
      htim->TriggerCallback(htim);
#else
      HAL_TIM_TriggerCallback(htim);
 8001ce2:	6878      	ldr	r0, [r7, #4]
 8001ce4:	f000 f8fc 	bl	8001ee0 <HAL_TIM_TriggerCallback>
#endif /* USE_HAL_TIM_REGISTER_CALLBACKS */
    }
  }
  /* TIM commutation event */
  if (__HAL_TIM_GET_FLAG(htim, TIM_FLAG_COM) != RESET)
 8001ce8:	687b      	ldr	r3, [r7, #4]
 8001cea:	681b      	ldr	r3, [r3, #0]
 8001cec:	691b      	ldr	r3, [r3, #16]
 8001cee:	f003 0320 	and.w	r3, r3, #32
 8001cf2:	2b20      	cmp	r3, #32
 8001cf4:	d10e      	bne.n	8001d14 <HAL_TIM_IRQHandler+0x208>
  {
    if (__HAL_TIM_GET_IT_SOURCE(htim, TIM_IT_COM) != RESET)
 8001cf6:	687b      	ldr	r3, [r7, #4]
 8001cf8:	681b      	ldr	r3, [r3, #0]
 8001cfa:	68db      	ldr	r3, [r3, #12]
 8001cfc:	f003 0320 	and.w	r3, r3, #32
 8001d00:	2b20      	cmp	r3, #32
 8001d02:	d107      	bne.n	8001d14 <HAL_TIM_IRQHandler+0x208>
    {
      __HAL_TIM_CLEAR_IT(htim, TIM_FLAG_COM);
 8001d04:	687b      	ldr	r3, [r7, #4]
 8001d06:	681b      	ldr	r3, [r3, #0]
 8001d08:	f06f 0220 	mvn.w	r2, #32
 8001d0c:	611a      	str	r2, [r3, #16]
#if (USE_HAL_TIM_REGISTER_CALLBACKS == 1)
      htim->CommutationCallback(htim);
#else
      HAL_TIMEx_CommutCallback(htim);
 8001d0e:	6878      	ldr	r0, [r7, #4]
 8001d10:	f000 fa36 	bl	8002180 <HAL_TIMEx_CommutCallback>
#endif /* USE_HAL_TIM_REGISTER_CALLBACKS */
    }
  }
}
 8001d14:	bf00      	nop
 8001d16:	3708      	adds	r7, #8
 8001d18:	46bd      	mov	sp, r7
 8001d1a:	bd80      	pop	{r7, pc}

08001d1c <HAL_TIM_ConfigClockSource>:
  * @param  sClockSourceConfig pointer to a TIM_ClockConfigTypeDef structure that
  *         contains the clock source information for the TIM peripheral.
  * @retval HAL status
  */
HAL_StatusTypeDef HAL_TIM_ConfigClockSource(TIM_HandleTypeDef *htim, const TIM_ClockConfigTypeDef *sClockSourceConfig)
{
 8001d1c:	b580      	push	{r7, lr}
 8001d1e:	b084      	sub	sp, #16
 8001d20:	af00      	add	r7, sp, #0
 8001d22:	6078      	str	r0, [r7, #4]
 8001d24:	6039      	str	r1, [r7, #0]
  HAL_StatusTypeDef status = HAL_OK;
 8001d26:	2300      	movs	r3, #0
 8001d28:	73fb      	strb	r3, [r7, #15]
  uint32_t tmpsmcr;

  /* Process Locked */
  __HAL_LOCK(htim);
 8001d2a:	687b      	ldr	r3, [r7, #4]
 8001d2c:	f893 303c 	ldrb.w	r3, [r3, #60]	; 0x3c
 8001d30:	2b01      	cmp	r3, #1
 8001d32:	d101      	bne.n	8001d38 <HAL_TIM_ConfigClockSource+0x1c>
 8001d34:	2302      	movs	r3, #2
 8001d36:	e0b4      	b.n	8001ea2 <HAL_TIM_ConfigClockSource+0x186>
 8001d38:	687b      	ldr	r3, [r7, #4]
 8001d3a:	2201      	movs	r2, #1
 8001d3c:	f883 203c 	strb.w	r2, [r3, #60]	; 0x3c

  htim->State = HAL_TIM_STATE_BUSY;
 8001d40:	687b      	ldr	r3, [r7, #4]
 8001d42:	2202      	movs	r2, #2
 8001d44:	f883 203d 	strb.w	r2, [r3, #61]	; 0x3d

  /* Check the parameters */
  assert_param(IS_TIM_CLOCKSOURCE(sClockSourceConfig->ClockSource));

  /* Reset the SMS, TS, ECE, ETPS and ETRF bits */
  tmpsmcr = htim->Instance->SMCR;
 8001d48:	687b      	ldr	r3, [r7, #4]
 8001d4a:	681b      	ldr	r3, [r3, #0]
 8001d4c:	689b      	ldr	r3, [r3, #8]
 8001d4e:	60bb      	str	r3, [r7, #8]
  tmpsmcr &= ~(TIM_SMCR_SMS | TIM_SMCR_TS);
 8001d50:	68bb      	ldr	r3, [r7, #8]
 8001d52:	f023 0377 	bic.w	r3, r3, #119	; 0x77
 8001d56:	60bb      	str	r3, [r7, #8]
  tmpsmcr &= ~(TIM_SMCR_ETF | TIM_SMCR_ETPS | TIM_SMCR_ECE | TIM_SMCR_ETP);
 8001d58:	68bb      	ldr	r3, [r7, #8]
 8001d5a:	f423 437f 	bic.w	r3, r3, #65280	; 0xff00
 8001d5e:	60bb      	str	r3, [r7, #8]
  htim->Instance->SMCR = tmpsmcr;
 8001d60:	687b      	ldr	r3, [r7, #4]
 8001d62:	681b      	ldr	r3, [r3, #0]
 8001d64:	68ba      	ldr	r2, [r7, #8]
 8001d66:	609a      	str	r2, [r3, #8]

  switch (sClockSourceConfig->ClockSource)
 8001d68:	683b      	ldr	r3, [r7, #0]
 8001d6a:	681b      	ldr	r3, [r3, #0]
 8001d6c:	f5b3 5f00 	cmp.w	r3, #8192	; 0x2000
 8001d70:	d03e      	beq.n	8001df0 <HAL_TIM_ConfigClockSource+0xd4>
 8001d72:	f5b3 5f00 	cmp.w	r3, #8192	; 0x2000
 8001d76:	f200 8087 	bhi.w	8001e88 <HAL_TIM_ConfigClockSource+0x16c>
 8001d7a:	f5b3 5f80 	cmp.w	r3, #4096	; 0x1000
 8001d7e:	f000 8086 	beq.w	8001e8e <HAL_TIM_ConfigClockSource+0x172>
 8001d82:	f5b3 5f80 	cmp.w	r3, #4096	; 0x1000
 8001d86:	d87f      	bhi.n	8001e88 <HAL_TIM_ConfigClockSource+0x16c>
 8001d88:	2b70      	cmp	r3, #112	; 0x70
 8001d8a:	d01a      	beq.n	8001dc2 <HAL_TIM_ConfigClockSource+0xa6>
 8001d8c:	2b70      	cmp	r3, #112	; 0x70
 8001d8e:	d87b      	bhi.n	8001e88 <HAL_TIM_ConfigClockSource+0x16c>
 8001d90:	2b60      	cmp	r3, #96	; 0x60
 8001d92:	d050      	beq.n	8001e36 <HAL_TIM_ConfigClockSource+0x11a>
 8001d94:	2b60      	cmp	r3, #96	; 0x60
 8001d96:	d877      	bhi.n	8001e88 <HAL_TIM_ConfigClockSource+0x16c>
 8001d98:	2b50      	cmp	r3, #80	; 0x50
 8001d9a:	d03c      	beq.n	8001e16 <HAL_TIM_ConfigClockSource+0xfa>
 8001d9c:	2b50      	cmp	r3, #80	; 0x50
 8001d9e:	d873      	bhi.n	8001e88 <HAL_TIM_ConfigClockSource+0x16c>
 8001da0:	2b40      	cmp	r3, #64	; 0x40
 8001da2:	d058      	beq.n	8001e56 <HAL_TIM_ConfigClockSource+0x13a>
 8001da4:	2b40      	cmp	r3, #64	; 0x40
 8001da6:	d86f      	bhi.n	8001e88 <HAL_TIM_ConfigClockSource+0x16c>
 8001da8:	2b30      	cmp	r3, #48	; 0x30
 8001daa:	d064      	beq.n	8001e76 <HAL_TIM_ConfigClockSource+0x15a>
 8001dac:	2b30      	cmp	r3, #48	; 0x30
 8001dae:	d86b      	bhi.n	8001e88 <HAL_TIM_ConfigClockSource+0x16c>
 8001db0:	2b20      	cmp	r3, #32
 8001db2:	d060      	beq.n	8001e76 <HAL_TIM_ConfigClockSource+0x15a>
 8001db4:	2b20      	cmp	r3, #32
 8001db6:	d867      	bhi.n	8001e88 <HAL_TIM_ConfigClockSource+0x16c>
 8001db8:	2b00      	cmp	r3, #0
 8001dba:	d05c      	beq.n	8001e76 <HAL_TIM_ConfigClockSource+0x15a>
 8001dbc:	2b10      	cmp	r3, #16
 8001dbe:	d05a      	beq.n	8001e76 <HAL_TIM_ConfigClockSource+0x15a>
 8001dc0:	e062      	b.n	8001e88 <HAL_TIM_ConfigClockSource+0x16c>
      assert_param(IS_TIM_CLOCKPRESCALER(sClockSourceConfig->ClockPrescaler));
      assert_param(IS_TIM_CLOCKPOLARITY(sClockSourceConfig->ClockPolarity));
      assert_param(IS_TIM_CLOCKFILTER(sClockSourceConfig->ClockFilter));

      /* Configure the ETR Clock source */
      TIM_ETR_SetConfig(htim->Instance,
 8001dc2:	687b      	ldr	r3, [r7, #4]
 8001dc4:	6818      	ldr	r0, [r3, #0]
 8001dc6:	683b      	ldr	r3, [r7, #0]
 8001dc8:	6899      	ldr	r1, [r3, #8]
 8001dca:	683b      	ldr	r3, [r7, #0]
 8001dcc:	685a      	ldr	r2, [r3, #4]
 8001dce:	683b      	ldr	r3, [r7, #0]
 8001dd0:	68db      	ldr	r3, [r3, #12]
 8001dd2:	f000 f95e 	bl	8002092 <TIM_ETR_SetConfig>
                        sClockSourceConfig->ClockPrescaler,
                        sClockSourceConfig->ClockPolarity,
                        sClockSourceConfig->ClockFilter);

      /* Select the External clock mode1 and the ETRF trigger */
      tmpsmcr = htim->Instance->SMCR;
 8001dd6:	687b      	ldr	r3, [r7, #4]
 8001dd8:	681b      	ldr	r3, [r3, #0]
 8001dda:	689b      	ldr	r3, [r3, #8]
 8001ddc:	60bb      	str	r3, [r7, #8]
      tmpsmcr |= (TIM_SLAVEMODE_EXTERNAL1 | TIM_CLOCKSOURCE_ETRMODE1);
 8001dde:	68bb      	ldr	r3, [r7, #8]
 8001de0:	f043 0377 	orr.w	r3, r3, #119	; 0x77
 8001de4:	60bb      	str	r3, [r7, #8]
      /* Write to TIMx SMCR */
      htim->Instance->SMCR = tmpsmcr;
 8001de6:	687b      	ldr	r3, [r7, #4]
 8001de8:	681b      	ldr	r3, [r3, #0]
 8001dea:	68ba      	ldr	r2, [r7, #8]
 8001dec:	609a      	str	r2, [r3, #8]
      break;
 8001dee:	e04f      	b.n	8001e90 <HAL_TIM_ConfigClockSource+0x174>
      assert_param(IS_TIM_CLOCKPRESCALER(sClockSourceConfig->ClockPrescaler));
      assert_param(IS_TIM_CLOCKPOLARITY(sClockSourceConfig->ClockPolarity));
      assert_param(IS_TIM_CLOCKFILTER(sClockSourceConfig->ClockFilter));

      /* Configure the ETR Clock source */
      TIM_ETR_SetConfig(htim->Instance,
 8001df0:	687b      	ldr	r3, [r7, #4]
 8001df2:	6818      	ldr	r0, [r3, #0]
 8001df4:	683b      	ldr	r3, [r7, #0]
 8001df6:	6899      	ldr	r1, [r3, #8]
 8001df8:	683b      	ldr	r3, [r7, #0]
 8001dfa:	685a      	ldr	r2, [r3, #4]
 8001dfc:	683b      	ldr	r3, [r7, #0]
 8001dfe:	68db      	ldr	r3, [r3, #12]
 8001e00:	f000 f947 	bl	8002092 <TIM_ETR_SetConfig>
                        sClockSourceConfig->ClockPrescaler,
                        sClockSourceConfig->ClockPolarity,
                        sClockSourceConfig->ClockFilter);
      /* Enable the External clock mode2 */
      htim->Instance->SMCR |= TIM_SMCR_ECE;
 8001e04:	687b      	ldr	r3, [r7, #4]
 8001e06:	681b      	ldr	r3, [r3, #0]
 8001e08:	689a      	ldr	r2, [r3, #8]
 8001e0a:	687b      	ldr	r3, [r7, #4]
 8001e0c:	681b      	ldr	r3, [r3, #0]
 8001e0e:	f442 4280 	orr.w	r2, r2, #16384	; 0x4000
 8001e12:	609a      	str	r2, [r3, #8]
      break;
 8001e14:	e03c      	b.n	8001e90 <HAL_TIM_ConfigClockSource+0x174>

      /* Check TI1 input conditioning related parameters */
      assert_param(IS_TIM_CLOCKPOLARITY(sClockSourceConfig->ClockPolarity));
      assert_param(IS_TIM_CLOCKFILTER(sClockSourceConfig->ClockFilter));

      TIM_TI1_ConfigInputStage(htim->Instance,
 8001e16:	687b      	ldr	r3, [r7, #4]
 8001e18:	6818      	ldr	r0, [r3, #0]
 8001e1a:	683b      	ldr	r3, [r7, #0]
 8001e1c:	6859      	ldr	r1, [r3, #4]
 8001e1e:	683b      	ldr	r3, [r7, #0]
 8001e20:	68db      	ldr	r3, [r3, #12]
 8001e22:	461a      	mov	r2, r3
 8001e24:	f000 f8be 	bl	8001fa4 <TIM_TI1_ConfigInputStage>
                               sClockSourceConfig->ClockPolarity,
                               sClockSourceConfig->ClockFilter);
      TIM_ITRx_SetConfig(htim->Instance, TIM_CLOCKSOURCE_TI1);
 8001e28:	687b      	ldr	r3, [r7, #4]
 8001e2a:	681b      	ldr	r3, [r3, #0]
 8001e2c:	2150      	movs	r1, #80	; 0x50
 8001e2e:	4618      	mov	r0, r3
 8001e30:	f000 f915 	bl	800205e <TIM_ITRx_SetConfig>
      break;
 8001e34:	e02c      	b.n	8001e90 <HAL_TIM_ConfigClockSource+0x174>

      /* Check TI2 input conditioning related parameters */
      assert_param(IS_TIM_CLOCKPOLARITY(sClockSourceConfig->ClockPolarity));
      assert_param(IS_TIM_CLOCKFILTER(sClockSourceConfig->ClockFilter));

      TIM_TI2_ConfigInputStage(htim->Instance,
 8001e36:	687b      	ldr	r3, [r7, #4]
 8001e38:	6818      	ldr	r0, [r3, #0]
 8001e3a:	683b      	ldr	r3, [r7, #0]
 8001e3c:	6859      	ldr	r1, [r3, #4]
 8001e3e:	683b      	ldr	r3, [r7, #0]
 8001e40:	68db      	ldr	r3, [r3, #12]
 8001e42:	461a      	mov	r2, r3
 8001e44:	f000 f8dc 	bl	8002000 <TIM_TI2_ConfigInputStage>
                               sClockSourceConfig->ClockPolarity,
                               sClockSourceConfig->ClockFilter);
      TIM_ITRx_SetConfig(htim->Instance, TIM_CLOCKSOURCE_TI2);
 8001e48:	687b      	ldr	r3, [r7, #4]
 8001e4a:	681b      	ldr	r3, [r3, #0]
 8001e4c:	2160      	movs	r1, #96	; 0x60
 8001e4e:	4618      	mov	r0, r3
 8001e50:	f000 f905 	bl	800205e <TIM_ITRx_SetConfig>
      break;
 8001e54:	e01c      	b.n	8001e90 <HAL_TIM_ConfigClockSource+0x174>

      /* Check TI1 input conditioning related parameters */
      assert_param(IS_TIM_CLOCKPOLARITY(sClockSourceConfig->ClockPolarity));
      assert_param(IS_TIM_CLOCKFILTER(sClockSourceConfig->ClockFilter));

      TIM_TI1_ConfigInputStage(htim->Instance,
 8001e56:	687b      	ldr	r3, [r7, #4]
 8001e58:	6818      	ldr	r0, [r3, #0]
 8001e5a:	683b      	ldr	r3, [r7, #0]
 8001e5c:	6859      	ldr	r1, [r3, #4]
 8001e5e:	683b      	ldr	r3, [r7, #0]
 8001e60:	68db      	ldr	r3, [r3, #12]
 8001e62:	461a      	mov	r2, r3
 8001e64:	f000 f89e 	bl	8001fa4 <TIM_TI1_ConfigInputStage>
                               sClockSourceConfig->ClockPolarity,
                               sClockSourceConfig->ClockFilter);
      TIM_ITRx_SetConfig(htim->Instance, TIM_CLOCKSOURCE_TI1ED);
 8001e68:	687b      	ldr	r3, [r7, #4]
 8001e6a:	681b      	ldr	r3, [r3, #0]
 8001e6c:	2140      	movs	r1, #64	; 0x40
 8001e6e:	4618      	mov	r0, r3
 8001e70:	f000 f8f5 	bl	800205e <TIM_ITRx_SetConfig>
      break;
 8001e74:	e00c      	b.n	8001e90 <HAL_TIM_ConfigClockSource+0x174>
    case TIM_CLOCKSOURCE_ITR3:
    {
      /* Check whether or not the timer instance supports internal trigger input */
      assert_param(IS_TIM_CLOCKSOURCE_ITRX_INSTANCE(htim->Instance));

      TIM_ITRx_SetConfig(htim->Instance, sClockSourceConfig->ClockSource);
 8001e76:	687b      	ldr	r3, [r7, #4]
 8001e78:	681a      	ldr	r2, [r3, #0]
 8001e7a:	683b      	ldr	r3, [r7, #0]
 8001e7c:	681b      	ldr	r3, [r3, #0]
 8001e7e:	4619      	mov	r1, r3
 8001e80:	4610      	mov	r0, r2
 8001e82:	f000 f8ec 	bl	800205e <TIM_ITRx_SetConfig>
      break;
 8001e86:	e003      	b.n	8001e90 <HAL_TIM_ConfigClockSource+0x174>
    }

    default:
      status = HAL_ERROR;
 8001e88:	2301      	movs	r3, #1
 8001e8a:	73fb      	strb	r3, [r7, #15]
      break;
 8001e8c:	e000      	b.n	8001e90 <HAL_TIM_ConfigClockSource+0x174>
      break;
 8001e8e:	bf00      	nop
  }
  htim->State = HAL_TIM_STATE_READY;
 8001e90:	687b      	ldr	r3, [r7, #4]
 8001e92:	2201      	movs	r2, #1
 8001e94:	f883 203d 	strb.w	r2, [r3, #61]	; 0x3d

  __HAL_UNLOCK(htim);
 8001e98:	687b      	ldr	r3, [r7, #4]
 8001e9a:	2200      	movs	r2, #0
 8001e9c:	f883 203c 	strb.w	r2, [r3, #60]	; 0x3c

  return status;
 8001ea0:	7bfb      	ldrb	r3, [r7, #15]
}
 8001ea2:	4618      	mov	r0, r3
 8001ea4:	3710      	adds	r7, #16
 8001ea6:	46bd      	mov	sp, r7
 8001ea8:	bd80      	pop	{r7, pc}

08001eaa <HAL_TIM_OC_DelayElapsedCallback>:
  * @brief  Output Compare callback in non-blocking mode
  * @param  htim TIM OC handle
  * @retval None
  */
__weak void HAL_TIM_OC_DelayElapsedCallback(TIM_HandleTypeDef *htim)
{
 8001eaa:	b480      	push	{r7}
 8001eac:	b083      	sub	sp, #12
 8001eae:	af00      	add	r7, sp, #0
 8001eb0:	6078      	str	r0, [r7, #4]
  UNUSED(htim);

  /* NOTE : This function should not be modified, when the callback is needed,
            the HAL_TIM_OC_DelayElapsedCallback could be implemented in the user file
   */
}
 8001eb2:	bf00      	nop
 8001eb4:	370c      	adds	r7, #12
 8001eb6:	46bd      	mov	sp, r7
 8001eb8:	bc80      	pop	{r7}
 8001eba:	4770      	bx	lr

08001ebc <HAL_TIM_IC_CaptureCallback>:
  * @brief  Input Capture callback in non-blocking mode
  * @param  htim TIM IC handle
  * @retval None
  */
__weak void HAL_TIM_IC_CaptureCallback(TIM_HandleTypeDef *htim)
{
 8001ebc:	b480      	push	{r7}
 8001ebe:	b083      	sub	sp, #12
 8001ec0:	af00      	add	r7, sp, #0
 8001ec2:	6078      	str	r0, [r7, #4]
  UNUSED(htim);

  /* NOTE : This function should not be modified, when the callback is needed,
            the HAL_TIM_IC_CaptureCallback could be implemented in the user file
   */
}
 8001ec4:	bf00      	nop
 8001ec6:	370c      	adds	r7, #12
 8001ec8:	46bd      	mov	sp, r7
 8001eca:	bc80      	pop	{r7}
 8001ecc:	4770      	bx	lr

08001ece <HAL_TIM_PWM_PulseFinishedCallback>:
  * @brief  PWM Pulse finished callback in non-blocking mode
  * @param  htim TIM handle
  * @retval None
  */
__weak void HAL_TIM_PWM_PulseFinishedCallback(TIM_HandleTypeDef *htim)
{
 8001ece:	b480      	push	{r7}
 8001ed0:	b083      	sub	sp, #12
 8001ed2:	af00      	add	r7, sp, #0
 8001ed4:	6078      	str	r0, [r7, #4]
  UNUSED(htim);

  /* NOTE : This function should not be modified, when the callback is needed,
            the HAL_TIM_PWM_PulseFinishedCallback could be implemented in the user file
   */
}
 8001ed6:	bf00      	nop
 8001ed8:	370c      	adds	r7, #12
 8001eda:	46bd      	mov	sp, r7
 8001edc:	bc80      	pop	{r7}
 8001ede:	4770      	bx	lr

08001ee0 <HAL_TIM_TriggerCallback>:
  * @brief  Hall Trigger detection callback in non-blocking mode
  * @param  htim TIM handle
  * @retval None
  */
__weak void HAL_TIM_TriggerCallback(TIM_HandleTypeDef *htim)
{
 8001ee0:	b480      	push	{r7}
 8001ee2:	b083      	sub	sp, #12
 8001ee4:	af00      	add	r7, sp, #0
 8001ee6:	6078      	str	r0, [r7, #4]
  UNUSED(htim);

  /* NOTE : This function should not be modified, when the callback is needed,
            the HAL_TIM_TriggerCallback could be implemented in the user file
   */
}
 8001ee8:	bf00      	nop
 8001eea:	370c      	adds	r7, #12
 8001eec:	46bd      	mov	sp, r7
 8001eee:	bc80      	pop	{r7}
 8001ef0:	4770      	bx	lr
	...

08001ef4 <TIM_Base_SetConfig>:
  * @param  TIMx TIM peripheral
  * @param  Structure TIM Base configuration structure
  * @retval None
  */
void TIM_Base_SetConfig(TIM_TypeDef *TIMx, const TIM_Base_InitTypeDef *Structure)
{
 8001ef4:	b480      	push	{r7}
 8001ef6:	b085      	sub	sp, #20
 8001ef8:	af00      	add	r7, sp, #0
 8001efa:	6078      	str	r0, [r7, #4]
 8001efc:	6039      	str	r1, [r7, #0]
  uint32_t tmpcr1;
  tmpcr1 = TIMx->CR1;
 8001efe:	687b      	ldr	r3, [r7, #4]
 8001f00:	681b      	ldr	r3, [r3, #0]
 8001f02:	60fb      	str	r3, [r7, #12]

  /* Set TIM Time Base Unit parameters ---------------------------------------*/
  if (IS_TIM_COUNTER_MODE_SELECT_INSTANCE(TIMx))
 8001f04:	687b      	ldr	r3, [r7, #4]
 8001f06:	4a25      	ldr	r2, [pc, #148]	; (8001f9c <TIM_Base_SetConfig+0xa8>)
 8001f08:	4293      	cmp	r3, r2
 8001f0a:	d007      	beq.n	8001f1c <TIM_Base_SetConfig+0x28>
 8001f0c:	687b      	ldr	r3, [r7, #4]
 8001f0e:	f1b3 4f80 	cmp.w	r3, #1073741824	; 0x40000000
 8001f12:	d003      	beq.n	8001f1c <TIM_Base_SetConfig+0x28>
 8001f14:	687b      	ldr	r3, [r7, #4]
 8001f16:	4a22      	ldr	r2, [pc, #136]	; (8001fa0 <TIM_Base_SetConfig+0xac>)
 8001f18:	4293      	cmp	r3, r2
 8001f1a:	d108      	bne.n	8001f2e <TIM_Base_SetConfig+0x3a>
  {
    /* Select the Counter Mode */
    tmpcr1 &= ~(TIM_CR1_DIR | TIM_CR1_CMS);
 8001f1c:	68fb      	ldr	r3, [r7, #12]
 8001f1e:	f023 0370 	bic.w	r3, r3, #112	; 0x70
 8001f22:	60fb      	str	r3, [r7, #12]
    tmpcr1 |= Structure->CounterMode;
 8001f24:	683b      	ldr	r3, [r7, #0]
 8001f26:	685b      	ldr	r3, [r3, #4]
 8001f28:	68fa      	ldr	r2, [r7, #12]
 8001f2a:	4313      	orrs	r3, r2
 8001f2c:	60fb      	str	r3, [r7, #12]
  }

  if (IS_TIM_CLOCK_DIVISION_INSTANCE(TIMx))
 8001f2e:	687b      	ldr	r3, [r7, #4]
 8001f30:	4a1a      	ldr	r2, [pc, #104]	; (8001f9c <TIM_Base_SetConfig+0xa8>)
 8001f32:	4293      	cmp	r3, r2
 8001f34:	d007      	beq.n	8001f46 <TIM_Base_SetConfig+0x52>
 8001f36:	687b      	ldr	r3, [r7, #4]
 8001f38:	f1b3 4f80 	cmp.w	r3, #1073741824	; 0x40000000
 8001f3c:	d003      	beq.n	8001f46 <TIM_Base_SetConfig+0x52>
 8001f3e:	687b      	ldr	r3, [r7, #4]
 8001f40:	4a17      	ldr	r2, [pc, #92]	; (8001fa0 <TIM_Base_SetConfig+0xac>)
 8001f42:	4293      	cmp	r3, r2
 8001f44:	d108      	bne.n	8001f58 <TIM_Base_SetConfig+0x64>
  {
    /* Set the clock division */
    tmpcr1 &= ~TIM_CR1_CKD;
 8001f46:	68fb      	ldr	r3, [r7, #12]
 8001f48:	f423 7340 	bic.w	r3, r3, #768	; 0x300
 8001f4c:	60fb      	str	r3, [r7, #12]
    tmpcr1 |= (uint32_t)Structure->ClockDivision;
 8001f4e:	683b      	ldr	r3, [r7, #0]
 8001f50:	68db      	ldr	r3, [r3, #12]
 8001f52:	68fa      	ldr	r2, [r7, #12]
 8001f54:	4313      	orrs	r3, r2
 8001f56:	60fb      	str	r3, [r7, #12]
  }

  /* Set the auto-reload preload */
  MODIFY_REG(tmpcr1, TIM_CR1_ARPE, Structure->AutoReloadPreload);
 8001f58:	68fb      	ldr	r3, [r7, #12]
 8001f5a:	f023 0280 	bic.w	r2, r3, #128	; 0x80
 8001f5e:	683b      	ldr	r3, [r7, #0]
 8001f60:	695b      	ldr	r3, [r3, #20]
 8001f62:	4313      	orrs	r3, r2
 8001f64:	60fb      	str	r3, [r7, #12]

  TIMx->CR1 = tmpcr1;
 8001f66:	687b      	ldr	r3, [r7, #4]
 8001f68:	68fa      	ldr	r2, [r7, #12]
 8001f6a:	601a      	str	r2, [r3, #0]

  /* Set the Autoreload value */
  TIMx->ARR = (uint32_t)Structure->Period ;
 8001f6c:	683b      	ldr	r3, [r7, #0]
 8001f6e:	689a      	ldr	r2, [r3, #8]
 8001f70:	687b      	ldr	r3, [r7, #4]
 8001f72:	62da      	str	r2, [r3, #44]	; 0x2c

  /* Set the Prescaler value */
  TIMx->PSC = Structure->Prescaler;
 8001f74:	683b      	ldr	r3, [r7, #0]
 8001f76:	681a      	ldr	r2, [r3, #0]
 8001f78:	687b      	ldr	r3, [r7, #4]
 8001f7a:	629a      	str	r2, [r3, #40]	; 0x28

  if (IS_TIM_REPETITION_COUNTER_INSTANCE(TIMx))
 8001f7c:	687b      	ldr	r3, [r7, #4]
 8001f7e:	4a07      	ldr	r2, [pc, #28]	; (8001f9c <TIM_Base_SetConfig+0xa8>)
 8001f80:	4293      	cmp	r3, r2
 8001f82:	d103      	bne.n	8001f8c <TIM_Base_SetConfig+0x98>
  {
    /* Set the Repetition Counter value */
    TIMx->RCR = Structure->RepetitionCounter;
 8001f84:	683b      	ldr	r3, [r7, #0]
 8001f86:	691a      	ldr	r2, [r3, #16]
 8001f88:	687b      	ldr	r3, [r7, #4]
 8001f8a:	631a      	str	r2, [r3, #48]	; 0x30
  }

  /* Generate an update event to reload the Prescaler
     and the repetition counter (only for advanced timer) value immediately */
  TIMx->EGR = TIM_EGR_UG;
 8001f8c:	687b      	ldr	r3, [r7, #4]
 8001f8e:	2201      	movs	r2, #1
 8001f90:	615a      	str	r2, [r3, #20]
}
 8001f92:	bf00      	nop
 8001f94:	3714      	adds	r7, #20
 8001f96:	46bd      	mov	sp, r7
 8001f98:	bc80      	pop	{r7}
 8001f9a:	4770      	bx	lr
 8001f9c:	40012c00 	.word	0x40012c00
 8001fa0:	40000400 	.word	0x40000400

08001fa4 <TIM_TI1_ConfigInputStage>:
  * @param  TIM_ICFilter Specifies the Input Capture Filter.
  *          This parameter must be a value between 0x00 and 0x0F.
  * @retval None
  */
static void TIM_TI1_ConfigInputStage(TIM_TypeDef *TIMx, uint32_t TIM_ICPolarity, uint32_t TIM_ICFilter)
{
 8001fa4:	b480      	push	{r7}
 8001fa6:	b087      	sub	sp, #28
 8001fa8:	af00      	add	r7, sp, #0
 8001faa:	60f8      	str	r0, [r7, #12]
 8001fac:	60b9      	str	r1, [r7, #8]
 8001fae:	607a      	str	r2, [r7, #4]
  uint32_t tmpccmr1;
  uint32_t tmpccer;

  /* Disable the Channel 1: Reset the CC1E Bit */
  tmpccer = TIMx->CCER;
 8001fb0:	68fb      	ldr	r3, [r7, #12]
 8001fb2:	6a1b      	ldr	r3, [r3, #32]
 8001fb4:	617b      	str	r3, [r7, #20]
  TIMx->CCER &= ~TIM_CCER_CC1E;
 8001fb6:	68fb      	ldr	r3, [r7, #12]
 8001fb8:	6a1b      	ldr	r3, [r3, #32]
 8001fba:	f023 0201 	bic.w	r2, r3, #1
 8001fbe:	68fb      	ldr	r3, [r7, #12]
 8001fc0:	621a      	str	r2, [r3, #32]
  tmpccmr1 = TIMx->CCMR1;
 8001fc2:	68fb      	ldr	r3, [r7, #12]
 8001fc4:	699b      	ldr	r3, [r3, #24]
 8001fc6:	613b      	str	r3, [r7, #16]

  /* Set the filter */
  tmpccmr1 &= ~TIM_CCMR1_IC1F;
 8001fc8:	693b      	ldr	r3, [r7, #16]
 8001fca:	f023 03f0 	bic.w	r3, r3, #240	; 0xf0
 8001fce:	613b      	str	r3, [r7, #16]
  tmpccmr1 |= (TIM_ICFilter << 4U);
 8001fd0:	687b      	ldr	r3, [r7, #4]
 8001fd2:	011b      	lsls	r3, r3, #4
 8001fd4:	693a      	ldr	r2, [r7, #16]
 8001fd6:	4313      	orrs	r3, r2
 8001fd8:	613b      	str	r3, [r7, #16]

  /* Select the Polarity and set the CC1E Bit */
  tmpccer &= ~(TIM_CCER_CC1P | TIM_CCER_CC1NP);
 8001fda:	697b      	ldr	r3, [r7, #20]
 8001fdc:	f023 030a 	bic.w	r3, r3, #10
 8001fe0:	617b      	str	r3, [r7, #20]
  tmpccer |= TIM_ICPolarity;
 8001fe2:	697a      	ldr	r2, [r7, #20]
 8001fe4:	68bb      	ldr	r3, [r7, #8]
 8001fe6:	4313      	orrs	r3, r2
 8001fe8:	617b      	str	r3, [r7, #20]

  /* Write to TIMx CCMR1 and CCER registers */
  TIMx->CCMR1 = tmpccmr1;
 8001fea:	68fb      	ldr	r3, [r7, #12]
 8001fec:	693a      	ldr	r2, [r7, #16]
 8001fee:	619a      	str	r2, [r3, #24]
  TIMx->CCER = tmpccer;
 8001ff0:	68fb      	ldr	r3, [r7, #12]
 8001ff2:	697a      	ldr	r2, [r7, #20]
 8001ff4:	621a      	str	r2, [r3, #32]
}
 8001ff6:	bf00      	nop
 8001ff8:	371c      	adds	r7, #28
 8001ffa:	46bd      	mov	sp, r7
 8001ffc:	bc80      	pop	{r7}
 8001ffe:	4770      	bx	lr

08002000 <TIM_TI2_ConfigInputStage>:
  * @param  TIM_ICFilter Specifies the Input Capture Filter.
  *          This parameter must be a value between 0x00 and 0x0F.
  * @retval None
  */
static void TIM_TI2_ConfigInputStage(TIM_TypeDef *TIMx, uint32_t TIM_ICPolarity, uint32_t TIM_ICFilter)
{
 8002000:	b480      	push	{r7}
 8002002:	b087      	sub	sp, #28
 8002004:	af00      	add	r7, sp, #0
 8002006:	60f8      	str	r0, [r7, #12]
 8002008:	60b9      	str	r1, [r7, #8]
 800200a:	607a      	str	r2, [r7, #4]
  uint32_t tmpccmr1;
  uint32_t tmpccer;

  /* Disable the Channel 2: Reset the CC2E Bit */
  tmpccer = TIMx->CCER;
 800200c:	68fb      	ldr	r3, [r7, #12]
 800200e:	6a1b      	ldr	r3, [r3, #32]
 8002010:	617b      	str	r3, [r7, #20]
  TIMx->CCER &= ~TIM_CCER_CC2E;
 8002012:	68fb      	ldr	r3, [r7, #12]
 8002014:	6a1b      	ldr	r3, [r3, #32]
 8002016:	f023 0210 	bic.w	r2, r3, #16
 800201a:	68fb      	ldr	r3, [r7, #12]
 800201c:	621a      	str	r2, [r3, #32]
  tmpccmr1 = TIMx->CCMR1;
 800201e:	68fb      	ldr	r3, [r7, #12]
 8002020:	699b      	ldr	r3, [r3, #24]
 8002022:	613b      	str	r3, [r7, #16]

  /* Set the filter */
  tmpccmr1 &= ~TIM_CCMR1_IC2F;
 8002024:	693b      	ldr	r3, [r7, #16]
 8002026:	f423 4370 	bic.w	r3, r3, #61440	; 0xf000
 800202a:	613b      	str	r3, [r7, #16]
  tmpccmr1 |= (TIM_ICFilter << 12U);
 800202c:	687b      	ldr	r3, [r7, #4]
 800202e:	031b      	lsls	r3, r3, #12
 8002030:	693a      	ldr	r2, [r7, #16]
 8002032:	4313      	orrs	r3, r2
 8002034:	613b      	str	r3, [r7, #16]

  /* Select the Polarity and set the CC2E Bit */
  tmpccer &= ~(TIM_CCER_CC2P | TIM_CCER_CC2NP);
 8002036:	697b      	ldr	r3, [r7, #20]
 8002038:	f023 03a0 	bic.w	r3, r3, #160	; 0xa0
 800203c:	617b      	str	r3, [r7, #20]
  tmpccer |= (TIM_ICPolarity << 4U);
 800203e:	68bb      	ldr	r3, [r7, #8]
 8002040:	011b      	lsls	r3, r3, #4
 8002042:	697a      	ldr	r2, [r7, #20]
 8002044:	4313      	orrs	r3, r2
 8002046:	617b      	str	r3, [r7, #20]

  /* Write to TIMx CCMR1 and CCER registers */
  TIMx->CCMR1 = tmpccmr1 ;
 8002048:	68fb      	ldr	r3, [r7, #12]
 800204a:	693a      	ldr	r2, [r7, #16]
 800204c:	619a      	str	r2, [r3, #24]
  TIMx->CCER = tmpccer;
 800204e:	68fb      	ldr	r3, [r7, #12]
 8002050:	697a      	ldr	r2, [r7, #20]
 8002052:	621a      	str	r2, [r3, #32]
}
 8002054:	bf00      	nop
 8002056:	371c      	adds	r7, #28
 8002058:	46bd      	mov	sp, r7
 800205a:	bc80      	pop	{r7}
 800205c:	4770      	bx	lr

0800205e <TIM_ITRx_SetConfig>:
  *            @arg TIM_TS_TI2FP2: Filtered Timer Input 2
  *            @arg TIM_TS_ETRF: External Trigger input
  * @retval None
  */
static void TIM_ITRx_SetConfig(TIM_TypeDef *TIMx, uint32_t InputTriggerSource)
{
 800205e:	b480      	push	{r7}
 8002060:	b085      	sub	sp, #20
 8002062:	af00      	add	r7, sp, #0
 8002064:	6078      	str	r0, [r7, #4]
 8002066:	6039      	str	r1, [r7, #0]
  uint32_t tmpsmcr;

  /* Get the TIMx SMCR register value */
  tmpsmcr = TIMx->SMCR;
 8002068:	687b      	ldr	r3, [r7, #4]
 800206a:	689b      	ldr	r3, [r3, #8]
 800206c:	60fb      	str	r3, [r7, #12]
  /* Reset the TS Bits */
  tmpsmcr &= ~TIM_SMCR_TS;
 800206e:	68fb      	ldr	r3, [r7, #12]
 8002070:	f023 0370 	bic.w	r3, r3, #112	; 0x70
 8002074:	60fb      	str	r3, [r7, #12]
  /* Set the Input Trigger source and the slave mode*/
  tmpsmcr |= (InputTriggerSource | TIM_SLAVEMODE_EXTERNAL1);
 8002076:	683a      	ldr	r2, [r7, #0]
 8002078:	68fb      	ldr	r3, [r7, #12]
 800207a:	4313      	orrs	r3, r2
 800207c:	f043 0307 	orr.w	r3, r3, #7
 8002080:	60fb      	str	r3, [r7, #12]
  /* Write to TIMx SMCR */
  TIMx->SMCR = tmpsmcr;
 8002082:	687b      	ldr	r3, [r7, #4]
 8002084:	68fa      	ldr	r2, [r7, #12]
 8002086:	609a      	str	r2, [r3, #8]
}
 8002088:	bf00      	nop
 800208a:	3714      	adds	r7, #20
 800208c:	46bd      	mov	sp, r7
 800208e:	bc80      	pop	{r7}
 8002090:	4770      	bx	lr

08002092 <TIM_ETR_SetConfig>:
  *          This parameter must be a value between 0x00 and 0x0F
  * @retval None
  */
void TIM_ETR_SetConfig(TIM_TypeDef *TIMx, uint32_t TIM_ExtTRGPrescaler,
                       uint32_t TIM_ExtTRGPolarity, uint32_t ExtTRGFilter)
{
 8002092:	b480      	push	{r7}
 8002094:	b087      	sub	sp, #28
 8002096:	af00      	add	r7, sp, #0
 8002098:	60f8      	str	r0, [r7, #12]
 800209a:	60b9      	str	r1, [r7, #8]
 800209c:	607a      	str	r2, [r7, #4]
 800209e:	603b      	str	r3, [r7, #0]
  uint32_t tmpsmcr;

  tmpsmcr = TIMx->SMCR;
 80020a0:	68fb      	ldr	r3, [r7, #12]
 80020a2:	689b      	ldr	r3, [r3, #8]
 80020a4:	617b      	str	r3, [r7, #20]

  /* Reset the ETR Bits */
  tmpsmcr &= ~(TIM_SMCR_ETF | TIM_SMCR_ETPS | TIM_SMCR_ECE | TIM_SMCR_ETP);
 80020a6:	697b      	ldr	r3, [r7, #20]
 80020a8:	f423 437f 	bic.w	r3, r3, #65280	; 0xff00
 80020ac:	617b      	str	r3, [r7, #20]

  /* Set the Prescaler, the Filter value and the Polarity */
  tmpsmcr |= (uint32_t)(TIM_ExtTRGPrescaler | (TIM_ExtTRGPolarity | (ExtTRGFilter << 8U)));
 80020ae:	683b      	ldr	r3, [r7, #0]
 80020b0:	021a      	lsls	r2, r3, #8
 80020b2:	687b      	ldr	r3, [r7, #4]
 80020b4:	431a      	orrs	r2, r3
 80020b6:	68bb      	ldr	r3, [r7, #8]
 80020b8:	4313      	orrs	r3, r2
 80020ba:	697a      	ldr	r2, [r7, #20]
 80020bc:	4313      	orrs	r3, r2
 80020be:	617b      	str	r3, [r7, #20]

  /* Write to TIMx SMCR */
  TIMx->SMCR = tmpsmcr;
 80020c0:	68fb      	ldr	r3, [r7, #12]
 80020c2:	697a      	ldr	r2, [r7, #20]
 80020c4:	609a      	str	r2, [r3, #8]
}
 80020c6:	bf00      	nop
 80020c8:	371c      	adds	r7, #28
 80020ca:	46bd      	mov	sp, r7
 80020cc:	bc80      	pop	{r7}
 80020ce:	4770      	bx	lr

080020d0 <HAL_TIMEx_MasterConfigSynchronization>:
  *         mode.
  * @retval HAL status
  */
HAL_StatusTypeDef HAL_TIMEx_MasterConfigSynchronization(TIM_HandleTypeDef *htim,
                                                        const TIM_MasterConfigTypeDef *sMasterConfig)
{
 80020d0:	b480      	push	{r7}
 80020d2:	b085      	sub	sp, #20
 80020d4:	af00      	add	r7, sp, #0
 80020d6:	6078      	str	r0, [r7, #4]
 80020d8:	6039      	str	r1, [r7, #0]
  assert_param(IS_TIM_MASTER_INSTANCE(htim->Instance));
  assert_param(IS_TIM_TRGO_SOURCE(sMasterConfig->MasterOutputTrigger));
  assert_param(IS_TIM_MSM_STATE(sMasterConfig->MasterSlaveMode));

  /* Check input state */
  __HAL_LOCK(htim);
 80020da:	687b      	ldr	r3, [r7, #4]
 80020dc:	f893 303c 	ldrb.w	r3, [r3, #60]	; 0x3c
 80020e0:	2b01      	cmp	r3, #1
 80020e2:	d101      	bne.n	80020e8 <HAL_TIMEx_MasterConfigSynchronization+0x18>
 80020e4:	2302      	movs	r3, #2
 80020e6:	e041      	b.n	800216c <HAL_TIMEx_MasterConfigSynchronization+0x9c>
 80020e8:	687b      	ldr	r3, [r7, #4]
 80020ea:	2201      	movs	r2, #1
 80020ec:	f883 203c 	strb.w	r2, [r3, #60]	; 0x3c

  /* Change the handler state */
  htim->State = HAL_TIM_STATE_BUSY;
 80020f0:	687b      	ldr	r3, [r7, #4]
 80020f2:	2202      	movs	r2, #2
 80020f4:	f883 203d 	strb.w	r2, [r3, #61]	; 0x3d

  /* Get the TIMx CR2 register value */
  tmpcr2 = htim->Instance->CR2;
 80020f8:	687b      	ldr	r3, [r7, #4]
 80020fa:	681b      	ldr	r3, [r3, #0]
 80020fc:	685b      	ldr	r3, [r3, #4]
 80020fe:	60fb      	str	r3, [r7, #12]

  /* Get the TIMx SMCR register value */
  tmpsmcr = htim->Instance->SMCR;
 8002100:	687b      	ldr	r3, [r7, #4]
 8002102:	681b      	ldr	r3, [r3, #0]
 8002104:	689b      	ldr	r3, [r3, #8]
 8002106:	60bb      	str	r3, [r7, #8]

  /* Reset the MMS Bits */
  tmpcr2 &= ~TIM_CR2_MMS;
 8002108:	68fb      	ldr	r3, [r7, #12]
 800210a:	f023 0370 	bic.w	r3, r3, #112	; 0x70
 800210e:	60fb      	str	r3, [r7, #12]
  /* Select the TRGO source */
  tmpcr2 |=  sMasterConfig->MasterOutputTrigger;
 8002110:	683b      	ldr	r3, [r7, #0]
 8002112:	681b      	ldr	r3, [r3, #0]
 8002114:	68fa      	ldr	r2, [r7, #12]
 8002116:	4313      	orrs	r3, r2
 8002118:	60fb      	str	r3, [r7, #12]

  /* Update TIMx CR2 */
  htim->Instance->CR2 = tmpcr2;
 800211a:	687b      	ldr	r3, [r7, #4]
 800211c:	681b      	ldr	r3, [r3, #0]
 800211e:	68fa      	ldr	r2, [r7, #12]
 8002120:	605a      	str	r2, [r3, #4]

  if (IS_TIM_SLAVE_INSTANCE(htim->Instance))
 8002122:	687b      	ldr	r3, [r7, #4]
 8002124:	681b      	ldr	r3, [r3, #0]
 8002126:	4a14      	ldr	r2, [pc, #80]	; (8002178 <HAL_TIMEx_MasterConfigSynchronization+0xa8>)
 8002128:	4293      	cmp	r3, r2
 800212a:	d009      	beq.n	8002140 <HAL_TIMEx_MasterConfigSynchronization+0x70>
 800212c:	687b      	ldr	r3, [r7, #4]
 800212e:	681b      	ldr	r3, [r3, #0]
 8002130:	f1b3 4f80 	cmp.w	r3, #1073741824	; 0x40000000
 8002134:	d004      	beq.n	8002140 <HAL_TIMEx_MasterConfigSynchronization+0x70>
 8002136:	687b      	ldr	r3, [r7, #4]
 8002138:	681b      	ldr	r3, [r3, #0]
 800213a:	4a10      	ldr	r2, [pc, #64]	; (800217c <HAL_TIMEx_MasterConfigSynchronization+0xac>)
 800213c:	4293      	cmp	r3, r2
 800213e:	d10c      	bne.n	800215a <HAL_TIMEx_MasterConfigSynchronization+0x8a>
  {
    /* Reset the MSM Bit */
    tmpsmcr &= ~TIM_SMCR_MSM;
 8002140:	68bb      	ldr	r3, [r7, #8]
 8002142:	f023 0380 	bic.w	r3, r3, #128	; 0x80
 8002146:	60bb      	str	r3, [r7, #8]
    /* Set master mode */
    tmpsmcr |= sMasterConfig->MasterSlaveMode;
 8002148:	683b      	ldr	r3, [r7, #0]
 800214a:	685b      	ldr	r3, [r3, #4]
 800214c:	68ba      	ldr	r2, [r7, #8]
 800214e:	4313      	orrs	r3, r2
 8002150:	60bb      	str	r3, [r7, #8]

    /* Update TIMx SMCR */
    htim->Instance->SMCR = tmpsmcr;
 8002152:	687b      	ldr	r3, [r7, #4]
 8002154:	681b      	ldr	r3, [r3, #0]
 8002156:	68ba      	ldr	r2, [r7, #8]
 8002158:	609a      	str	r2, [r3, #8]
  }

  /* Change the htim state */
  htim->State = HAL_TIM_STATE_READY;
 800215a:	687b      	ldr	r3, [r7, #4]
 800215c:	2201      	movs	r2, #1
 800215e:	f883 203d 	strb.w	r2, [r3, #61]	; 0x3d

  __HAL_UNLOCK(htim);
 8002162:	687b      	ldr	r3, [r7, #4]
 8002164:	2200      	movs	r2, #0
 8002166:	f883 203c 	strb.w	r2, [r3, #60]	; 0x3c

  return HAL_OK;
 800216a:	2300      	movs	r3, #0
}
 800216c:	4618      	mov	r0, r3
 800216e:	3714      	adds	r7, #20
 8002170:	46bd      	mov	sp, r7
 8002172:	bc80      	pop	{r7}
 8002174:	4770      	bx	lr
 8002176:	bf00      	nop
 8002178:	40012c00 	.word	0x40012c00
 800217c:	40000400 	.word	0x40000400

08002180 <HAL_TIMEx_CommutCallback>:
  * @brief  Hall commutation changed callback in non-blocking mode
  * @param  htim TIM handle
  * @retval None
  */
__weak void HAL_TIMEx_CommutCallback(TIM_HandleTypeDef *htim)
{
 8002180:	b480      	push	{r7}
 8002182:	b083      	sub	sp, #12
 8002184:	af00      	add	r7, sp, #0
 8002186:	6078      	str	r0, [r7, #4]
  UNUSED(htim);

  /* NOTE : This function should not be modified, when the callback is needed,
            the HAL_TIMEx_CommutCallback could be implemented in the user file
   */
}
 8002188:	bf00      	nop
 800218a:	370c      	adds	r7, #12
 800218c:	46bd      	mov	sp, r7
 800218e:	bc80      	pop	{r7}
 8002190:	4770      	bx	lr

08002192 <HAL_TIMEx_BreakCallback>:
  * @brief  Hall Break detection callback in non-blocking mode
  * @param  htim TIM handle
  * @retval None
  */
__weak void HAL_TIMEx_BreakCallback(TIM_HandleTypeDef *htim)
{
 8002192:	b480      	push	{r7}
 8002194:	b083      	sub	sp, #12
 8002196:	af00      	add	r7, sp, #0
 8002198:	6078      	str	r0, [r7, #4]
  UNUSED(htim);

  /* NOTE : This function should not be modified, when the callback is needed,
            the HAL_TIMEx_BreakCallback could be implemented in the user file
   */
}
 800219a:	bf00      	nop
 800219c:	370c      	adds	r7, #12
 800219e:	46bd      	mov	sp, r7
 80021a0:	bc80      	pop	{r7}
 80021a2:	4770      	bx	lr

080021a4 <__libc_init_array>:
 80021a4:	b570      	push	{r4, r5, r6, lr}
 80021a6:	2600      	movs	r6, #0
 80021a8:	4d0c      	ldr	r5, [pc, #48]	; (80021dc <__libc_init_array+0x38>)
 80021aa:	4c0d      	ldr	r4, [pc, #52]	; (80021e0 <__libc_init_array+0x3c>)
 80021ac:	1b64      	subs	r4, r4, r5
 80021ae:	10a4      	asrs	r4, r4, #2
 80021b0:	42a6      	cmp	r6, r4
 80021b2:	d109      	bne.n	80021c8 <__libc_init_array+0x24>
 80021b4:	f000 f822 	bl	80021fc <_init>
 80021b8:	2600      	movs	r6, #0
 80021ba:	4d0a      	ldr	r5, [pc, #40]	; (80021e4 <__libc_init_array+0x40>)
 80021bc:	4c0a      	ldr	r4, [pc, #40]	; (80021e8 <__libc_init_array+0x44>)
 80021be:	1b64      	subs	r4, r4, r5
 80021c0:	10a4      	asrs	r4, r4, #2
 80021c2:	42a6      	cmp	r6, r4
 80021c4:	d105      	bne.n	80021d2 <__libc_init_array+0x2e>
 80021c6:	bd70      	pop	{r4, r5, r6, pc}
 80021c8:	f855 3b04 	ldr.w	r3, [r5], #4
 80021cc:	4798      	blx	r3
 80021ce:	3601      	adds	r6, #1
 80021d0:	e7ee      	b.n	80021b0 <__libc_init_array+0xc>
 80021d2:	f855 3b04 	ldr.w	r3, [r5], #4
 80021d6:	4798      	blx	r3
 80021d8:	3601      	adds	r6, #1
 80021da:	e7f2      	b.n	80021c2 <__libc_init_array+0x1e>
 80021dc:	08002238 	.word	0x08002238
 80021e0:	08002238 	.word	0x08002238
 80021e4:	08002238 	.word	0x08002238
 80021e8:	0800223c 	.word	0x0800223c

080021ec <memset>:
 80021ec:	4603      	mov	r3, r0
 80021ee:	4402      	add	r2, r0
 80021f0:	4293      	cmp	r3, r2
 80021f2:	d100      	bne.n	80021f6 <memset+0xa>
 80021f4:	4770      	bx	lr
 80021f6:	f803 1b01 	strb.w	r1, [r3], #1
 80021fa:	e7f9      	b.n	80021f0 <memset+0x4>

080021fc <_init>:
 80021fc:	b5f8      	push	{r3, r4, r5, r6, r7, lr}
 80021fe:	bf00      	nop
 8002200:	bcf8      	pop	{r3, r4, r5, r6, r7}
 8002202:	bc08      	pop	{r3}
 8002204:	469e      	mov	lr, r3
 8002206:	4770      	bx	lr

08002208 <_fini>:
 8002208:	b5f8      	push	{r3, r4, r5, r6, r7, lr}
 800220a:	bf00      	nop
 800220c:	bcf8      	pop	{r3, r4, r5, r6, r7}
 800220e:	bc08      	pop	{r3}
 8002210:	469e      	mov	lr, r3
 8002212:	4770      	bx	lr
