
STM32ProjectForLab2.elf:     file format elf32-littlearm

Sections:
Idx Name          Size      VMA       LMA       File off  Algn
  0 .isr_vector   0000010c  08000000  08000000  00010000  2**0
                  CONTENTS, ALLOC, LOAD, READONLY, DATA
  1 .text         00002560  0800010c  0800010c  0001010c  2**2
                  CONTENTS, ALLOC, LOAD, READONLY, CODE
  2 .rodata       00000028  0800266c  0800266c  0001266c  2**2
                  CONTENTS, ALLOC, LOAD, READONLY, DATA
  3 .ARM.extab    00000000  08002694  08002694  00020014  2**0
                  CONTENTS
  4 .ARM          00000000  08002694  08002694  00020014  2**0
                  CONTENTS
  5 .preinit_array 00000000  08002694  08002694  00020014  2**0
                  CONTENTS, ALLOC, LOAD, DATA
  6 .init_array   00000004  08002694  08002694  00012694  2**2
                  CONTENTS, ALLOC, LOAD, DATA
  7 .fini_array   00000004  08002698  08002698  00012698  2**2
                  CONTENTS, ALLOC, LOAD, DATA
  8 .data         00000014  20000000  0800269c  00020000  2**2
                  CONTENTS, ALLOC, LOAD, DATA
  9 .bss          00000090  20000014  080026b0  00020014  2**2
                  ALLOC
 10 ._user_heap_stack 00000604  200000a4  080026b0  000200a4  2**0
                  ALLOC
 11 .ARM.attributes 00000029  00000000  00000000  00020014  2**0
                  CONTENTS, READONLY
 12 .debug_info   00008769  00000000  00000000  0002003d  2**0
                  CONTENTS, READONLY, DEBUGGING, OCTETS
 13 .debug_abbrev 0000186e  00000000  00000000  000287a6  2**0
                  CONTENTS, READONLY, DEBUGGING, OCTETS
 14 .debug_aranges 000009c0  00000000  00000000  0002a018  2**3
                  CONTENTS, READONLY, DEBUGGING, OCTETS
 15 .debug_ranges 000008e8  00000000  00000000  0002a9d8  2**3
                  CONTENTS, READONLY, DEBUGGING, OCTETS
 16 .debug_macro  00001a45  00000000  00000000  0002b2c0  2**0
                  CONTENTS, READONLY, DEBUGGING, OCTETS
 17 .debug_line   0000b154  00000000  00000000  0002cd05  2**0
                  CONTENTS, READONLY, DEBUGGING, OCTETS
 18 .debug_str    00085212  00000000  00000000  00037e59  2**0
                  CONTENTS, READONLY, DEBUGGING, OCTETS
 19 .comment      00000050  00000000  00000000  000bd06b  2**0
                  CONTENTS, READONLY
 20 .debug_frame  0000273c  00000000  00000000  000bd0bc  2**2
                  CONTENTS, READONLY, DEBUGGING, OCTETS

Disassembly of section .text:

0800010c <__do_global_dtors_aux>:
 800010c:	b510      	push	{r4, lr}
 800010e:	4c05      	ldr	r4, [pc, #20]	; (8000124 <__do_global_dtors_aux+0x18>)
 8000110:	7823      	ldrb	r3, [r4, #0]
 8000112:	b933      	cbnz	r3, 8000122 <__do_global_dtors_aux+0x16>
 8000114:	4b04      	ldr	r3, [pc, #16]	; (8000128 <__do_global_dtors_aux+0x1c>)
 8000116:	b113      	cbz	r3, 800011e <__do_global_dtors_aux+0x12>
 8000118:	4804      	ldr	r0, [pc, #16]	; (800012c <__do_global_dtors_aux+0x20>)
 800011a:	f3af 8000 	nop.w
 800011e:	2301      	movs	r3, #1
 8000120:	7023      	strb	r3, [r4, #0]
 8000122:	bd10      	pop	{r4, pc}
 8000124:	20000014 	.word	0x20000014
 8000128:	00000000 	.word	0x00000000
 800012c:	08002654 	.word	0x08002654

08000130 <frame_dummy>:
 8000130:	b508      	push	{r3, lr}
 8000132:	4b03      	ldr	r3, [pc, #12]	; (8000140 <frame_dummy+0x10>)
 8000134:	b11b      	cbz	r3, 800013e <frame_dummy+0xe>
 8000136:	4903      	ldr	r1, [pc, #12]	; (8000144 <frame_dummy+0x14>)
 8000138:	4803      	ldr	r0, [pc, #12]	; (8000148 <frame_dummy+0x18>)
 800013a:	f3af 8000 	nop.w
 800013e:	bd08      	pop	{r3, pc}
 8000140:	00000000 	.word	0x00000000
 8000144:	20000018 	.word	0x20000018
 8000148:	08002654 	.word	0x08002654

0800014c <blink_led>:
/****************************************************************************************
FUNCTION DEFINITION
****************************************************************************************/
/* Function to blink led red*/
void blink_led(void)
{
 800014c:	b580      	push	{r7, lr}
 800014e:	af00      	add	r7, sp, #0
	switch(blink_status)
 8000150:	4b20      	ldr	r3, [pc, #128]	; (80001d4 <blink_led+0x88>)
 8000152:	781b      	ldrb	r3, [r3, #0]
 8000154:	2b02      	cmp	r3, #2
 8000156:	d024      	beq.n	80001a2 <blink_led+0x56>
 8000158:	2b02      	cmp	r3, #2
 800015a:	dc33      	bgt.n	80001c4 <blink_led+0x78>
 800015c:	2b00      	cmp	r3, #0
 800015e:	d002      	beq.n	8000166 <blink_led+0x1a>
 8000160:	2b01      	cmp	r3, #1
 8000162:	d00d      	beq.n	8000180 <blink_led+0x34>
			setTimer1(BLINK_ON_TIME);
			blink_status = BLINK_ON;
		}
		break;
	default:
		break;
 8000164:	e02e      	b.n	80001c4 <blink_led+0x78>
		HAL_GPIO_WritePin(LED_RED_GPIO_Port, LED_RED_Pin, GPIO_PIN_SET); /* Turn off led red*/
 8000166:	2201      	movs	r2, #1
 8000168:	2120      	movs	r1, #32
 800016a:	481b      	ldr	r0, [pc, #108]	; (80001d8 <blink_led+0x8c>)
 800016c:	f001 fa68 	bl	8001640 <HAL_GPIO_WritePin>
		blink_status = BLINK_ON;
 8000170:	4b18      	ldr	r3, [pc, #96]	; (80001d4 <blink_led+0x88>)
 8000172:	2201      	movs	r2, #1
 8000174:	701a      	strb	r2, [r3, #0]
		setTimer1(BLINK_ON_TIME);
 8000176:	f44f 70fa 	mov.w	r0, #500	; 0x1f4
 800017a:	f000 fe27 	bl	8000dcc <setTimer1>
		break;
 800017e:	e026      	b.n	80001ce <blink_led+0x82>
		HAL_GPIO_WritePin(LED_RED_GPIO_Port, LED_RED_Pin, GPIO_PIN_RESET);
 8000180:	2200      	movs	r2, #0
 8000182:	2120      	movs	r1, #32
 8000184:	4814      	ldr	r0, [pc, #80]	; (80001d8 <blink_led+0x8c>)
 8000186:	f001 fa5b 	bl	8001640 <HAL_GPIO_WritePin>
		if(timer1_flag == 1)
 800018a:	4b14      	ldr	r3, [pc, #80]	; (80001dc <blink_led+0x90>)
 800018c:	681b      	ldr	r3, [r3, #0]
 800018e:	2b01      	cmp	r3, #1
 8000190:	d11a      	bne.n	80001c8 <blink_led+0x7c>
			setTimer1(BLINK_OFF_TIME);
 8000192:	f44f 70fa 	mov.w	r0, #500	; 0x1f4
 8000196:	f000 fe19 	bl	8000dcc <setTimer1>
			blink_status = BLINK_OFF;
 800019a:	4b0e      	ldr	r3, [pc, #56]	; (80001d4 <blink_led+0x88>)
 800019c:	2202      	movs	r2, #2
 800019e:	701a      	strb	r2, [r3, #0]
		break;
 80001a0:	e012      	b.n	80001c8 <blink_led+0x7c>
		HAL_GPIO_WritePin(LED_RED_GPIO_Port, LED_RED_Pin, GPIO_PIN_SET);
 80001a2:	2201      	movs	r2, #1
 80001a4:	2120      	movs	r1, #32
 80001a6:	480c      	ldr	r0, [pc, #48]	; (80001d8 <blink_led+0x8c>)
 80001a8:	f001 fa4a 	bl	8001640 <HAL_GPIO_WritePin>
		if(timer1_flag == 1)
 80001ac:	4b0b      	ldr	r3, [pc, #44]	; (80001dc <blink_led+0x90>)
 80001ae:	681b      	ldr	r3, [r3, #0]
 80001b0:	2b01      	cmp	r3, #1
 80001b2:	d10b      	bne.n	80001cc <blink_led+0x80>
			setTimer1(BLINK_ON_TIME);
 80001b4:	f44f 70fa 	mov.w	r0, #500	; 0x1f4
 80001b8:	f000 fe08 	bl	8000dcc <setTimer1>
			blink_status = BLINK_ON;
 80001bc:	4b05      	ldr	r3, [pc, #20]	; (80001d4 <blink_led+0x88>)
 80001be:	2201      	movs	r2, #1
 80001c0:	701a      	strb	r2, [r3, #0]
		break;
 80001c2:	e003      	b.n	80001cc <blink_led+0x80>
		break;
 80001c4:	bf00      	nop
 80001c6:	e002      	b.n	80001ce <blink_led+0x82>
		break;
 80001c8:	bf00      	nop
 80001ca:	e000      	b.n	80001ce <blink_led+0x82>
		break;
 80001cc:	bf00      	nop
	}
}
 80001ce:	bf00      	nop
 80001d0:	bd80      	pop	{r7, pc}
 80001d2:	bf00      	nop
 80001d4:	20000030 	.word	0x20000030
 80001d8:	40010800 	.word	0x40010800
 80001dc:	20000084 	.word	0x20000084

080001e0 <updateLEDMatrix>:
const int MAX_LED_MATRIX = 8;
int index_led_matrix = 0;
unsigned char matrix_buffer[8] = {0xEF, 0x03, 0xED, 0xEE, 0xEE, 0xED, 0x03, 0xEF};

void updateLEDMatrix(int index)
{
 80001e0:	b580      	push	{r7, lr}
 80001e2:	b082      	sub	sp, #8
 80001e4:	af00      	add	r7, sp, #0
 80001e6:	6078      	str	r0, [r7, #4]
	switch(index)
 80001e8:	687b      	ldr	r3, [r7, #4]
 80001ea:	2b07      	cmp	r3, #7
 80001ec:	f200 84b8 	bhi.w	8000b60 <updateLEDMatrix+0x980>
 80001f0:	a201      	add	r2, pc, #4	; (adr r2, 80001f8 <updateLEDMatrix+0x18>)
 80001f2:	f852 f023 	ldr.w	pc, [r2, r3, lsl #2]
 80001f6:	bf00      	nop
 80001f8:	08000219 	.word	0x08000219
 80001fc:	0800033f 	.word	0x0800033f
 8000200:	08000471 	.word	0x08000471
 8000204:	08000595 	.word	0x08000595
 8000208:	080006c5 	.word	0x080006c5
 800020c:	080007e9 	.word	0x080007e9
 8000210:	08000919 	.word	0x08000919
 8000214:	08000a3d 	.word	0x08000a3d
	{
	case 0:
		/* Turn on col 0 with matrix_buffer[0], to turn on col -> reset*/
		HAL_GPIO_WritePin(ENM0_GPIO_Port, ENM0_Pin, GPIO_PIN_RESET);
 8000218:	2200      	movs	r2, #0
 800021a:	2104      	movs	r1, #4
 800021c:	4891      	ldr	r0, [pc, #580]	; (8000464 <updateLEDMatrix+0x284>)
 800021e:	f001 fa0f 	bl	8001640 <HAL_GPIO_WritePin>
		HAL_GPIO_WritePin(ENM1_GPIO_Port, ENM1_Pin, GPIO_PIN_SET);
 8000222:	2201      	movs	r2, #1
 8000224:	2108      	movs	r1, #8
 8000226:	488f      	ldr	r0, [pc, #572]	; (8000464 <updateLEDMatrix+0x284>)
 8000228:	f001 fa0a 	bl	8001640 <HAL_GPIO_WritePin>
		HAL_GPIO_WritePin(ENM2_GPIO_Port, ENM2_Pin, GPIO_PIN_SET);
 800022c:	2201      	movs	r2, #1
 800022e:	f44f 6180 	mov.w	r1, #1024	; 0x400
 8000232:	488c      	ldr	r0, [pc, #560]	; (8000464 <updateLEDMatrix+0x284>)
 8000234:	f001 fa04 	bl	8001640 <HAL_GPIO_WritePin>
		HAL_GPIO_WritePin(ENM3_GPIO_Port, ENM3_Pin, GPIO_PIN_SET);
 8000238:	2201      	movs	r2, #1
 800023a:	f44f 6100 	mov.w	r1, #2048	; 0x800
 800023e:	4889      	ldr	r0, [pc, #548]	; (8000464 <updateLEDMatrix+0x284>)
 8000240:	f001 f9fe 	bl	8001640 <HAL_GPIO_WritePin>
		HAL_GPIO_WritePin(ENM4_GPIO_Port, ENM4_Pin, GPIO_PIN_SET);
 8000244:	2201      	movs	r2, #1
 8000246:	f44f 5180 	mov.w	r1, #4096	; 0x1000
 800024a:	4886      	ldr	r0, [pc, #536]	; (8000464 <updateLEDMatrix+0x284>)
 800024c:	f001 f9f8 	bl	8001640 <HAL_GPIO_WritePin>
		HAL_GPIO_WritePin(ENM5_GPIO_Port, ENM5_Pin, GPIO_PIN_SET);
 8000250:	2201      	movs	r2, #1
 8000252:	f44f 5100 	mov.w	r1, #8192	; 0x2000
 8000256:	4883      	ldr	r0, [pc, #524]	; (8000464 <updateLEDMatrix+0x284>)
 8000258:	f001 f9f2 	bl	8001640 <HAL_GPIO_WritePin>
		HAL_GPIO_WritePin(ENM6_GPIO_Port, ENM6_Pin, GPIO_PIN_SET);
 800025c:	2201      	movs	r2, #1
 800025e:	f44f 4180 	mov.w	r1, #16384	; 0x4000
 8000262:	4880      	ldr	r0, [pc, #512]	; (8000464 <updateLEDMatrix+0x284>)
 8000264:	f001 f9ec 	bl	8001640 <HAL_GPIO_WritePin>
		HAL_GPIO_WritePin(ENM7_GPIO_Port, ENM7_Pin, GPIO_PIN_SET);
 8000268:	2201      	movs	r2, #1
 800026a:	f44f 4100 	mov.w	r1, #32768	; 0x8000
 800026e:	487d      	ldr	r0, [pc, #500]	; (8000464 <updateLEDMatrix+0x284>)
 8000270:	f001 f9e6 	bl	8001640 <HAL_GPIO_WritePin>

		/* Turn on rows based on buffer_matrix[0], to turn on row -> reset*/
		HAL_GPIO_WritePin(ROW0_GPIO_Port, ROW0_Pin, ((matrix_buffer[0] >> 0) & 0x01));
 8000274:	4b7c      	ldr	r3, [pc, #496]	; (8000468 <updateLEDMatrix+0x288>)
 8000276:	781b      	ldrb	r3, [r3, #0]
 8000278:	f003 0301 	and.w	r3, r3, #1
 800027c:	b2db      	uxtb	r3, r3
 800027e:	461a      	mov	r2, r3
 8000280:	f44f 7180 	mov.w	r1, #256	; 0x100
 8000284:	4879      	ldr	r0, [pc, #484]	; (800046c <updateLEDMatrix+0x28c>)
 8000286:	f001 f9db 	bl	8001640 <HAL_GPIO_WritePin>
		HAL_GPIO_WritePin(ROW1_GPIO_Port, ROW1_Pin, ((matrix_buffer[0] >> 1) & 0x01));
 800028a:	4b77      	ldr	r3, [pc, #476]	; (8000468 <updateLEDMatrix+0x288>)
 800028c:	781b      	ldrb	r3, [r3, #0]
 800028e:	085b      	lsrs	r3, r3, #1
 8000290:	b2db      	uxtb	r3, r3
 8000292:	f003 0301 	and.w	r3, r3, #1
 8000296:	b2db      	uxtb	r3, r3
 8000298:	461a      	mov	r2, r3
 800029a:	f44f 7100 	mov.w	r1, #512	; 0x200
 800029e:	4873      	ldr	r0, [pc, #460]	; (800046c <updateLEDMatrix+0x28c>)
 80002a0:	f001 f9ce 	bl	8001640 <HAL_GPIO_WritePin>
		HAL_GPIO_WritePin(ROW2_GPIO_Port, ROW2_Pin, ((matrix_buffer[0] >> 2) & 0x01));
 80002a4:	4b70      	ldr	r3, [pc, #448]	; (8000468 <updateLEDMatrix+0x288>)
 80002a6:	781b      	ldrb	r3, [r3, #0]
 80002a8:	089b      	lsrs	r3, r3, #2
 80002aa:	b2db      	uxtb	r3, r3
 80002ac:	f003 0301 	and.w	r3, r3, #1
 80002b0:	b2db      	uxtb	r3, r3
 80002b2:	461a      	mov	r2, r3
 80002b4:	f44f 6180 	mov.w	r1, #1024	; 0x400
 80002b8:	486c      	ldr	r0, [pc, #432]	; (800046c <updateLEDMatrix+0x28c>)
 80002ba:	f001 f9c1 	bl	8001640 <HAL_GPIO_WritePin>
		HAL_GPIO_WritePin(ROW3_GPIO_Port, ROW3_Pin, ((matrix_buffer[0] >> 3) & 0x01));
 80002be:	4b6a      	ldr	r3, [pc, #424]	; (8000468 <updateLEDMatrix+0x288>)
 80002c0:	781b      	ldrb	r3, [r3, #0]
 80002c2:	08db      	lsrs	r3, r3, #3
 80002c4:	b2db      	uxtb	r3, r3
 80002c6:	f003 0301 	and.w	r3, r3, #1
 80002ca:	b2db      	uxtb	r3, r3
 80002cc:	461a      	mov	r2, r3
 80002ce:	f44f 6100 	mov.w	r1, #2048	; 0x800
 80002d2:	4866      	ldr	r0, [pc, #408]	; (800046c <updateLEDMatrix+0x28c>)
 80002d4:	f001 f9b4 	bl	8001640 <HAL_GPIO_WritePin>
		HAL_GPIO_WritePin(ROW4_GPIO_Port, ROW4_Pin, ((matrix_buffer[0] >> 4) & 0x01));
 80002d8:	4b63      	ldr	r3, [pc, #396]	; (8000468 <updateLEDMatrix+0x288>)
 80002da:	781b      	ldrb	r3, [r3, #0]
 80002dc:	091b      	lsrs	r3, r3, #4
 80002de:	b2db      	uxtb	r3, r3
 80002e0:	f003 0301 	and.w	r3, r3, #1
 80002e4:	b2db      	uxtb	r3, r3
 80002e6:	461a      	mov	r2, r3
 80002e8:	f44f 5180 	mov.w	r1, #4096	; 0x1000
 80002ec:	485f      	ldr	r0, [pc, #380]	; (800046c <updateLEDMatrix+0x28c>)
 80002ee:	f001 f9a7 	bl	8001640 <HAL_GPIO_WritePin>
		HAL_GPIO_WritePin(ROW5_GPIO_Port, ROW5_Pin, ((matrix_buffer[0] >> 5) & 0x01));
 80002f2:	4b5d      	ldr	r3, [pc, #372]	; (8000468 <updateLEDMatrix+0x288>)
 80002f4:	781b      	ldrb	r3, [r3, #0]
 80002f6:	095b      	lsrs	r3, r3, #5
 80002f8:	b2db      	uxtb	r3, r3
 80002fa:	f003 0301 	and.w	r3, r3, #1
 80002fe:	b2db      	uxtb	r3, r3
 8000300:	461a      	mov	r2, r3
 8000302:	f44f 5100 	mov.w	r1, #8192	; 0x2000
 8000306:	4859      	ldr	r0, [pc, #356]	; (800046c <updateLEDMatrix+0x28c>)
 8000308:	f001 f99a 	bl	8001640 <HAL_GPIO_WritePin>
		HAL_GPIO_WritePin(ROW6_GPIO_Port, ROW6_Pin, ((matrix_buffer[0] >> 6) & 0x01));
 800030c:	4b56      	ldr	r3, [pc, #344]	; (8000468 <updateLEDMatrix+0x288>)
 800030e:	781b      	ldrb	r3, [r3, #0]
 8000310:	099b      	lsrs	r3, r3, #6
 8000312:	b2db      	uxtb	r3, r3
 8000314:	f003 0301 	and.w	r3, r3, #1
 8000318:	b2db      	uxtb	r3, r3
 800031a:	461a      	mov	r2, r3
 800031c:	f44f 4180 	mov.w	r1, #16384	; 0x4000
 8000320:	4852      	ldr	r0, [pc, #328]	; (800046c <updateLEDMatrix+0x28c>)
 8000322:	f001 f98d 	bl	8001640 <HAL_GPIO_WritePin>
		HAL_GPIO_WritePin(ROW7_GPIO_Port, ROW7_Pin, ((matrix_buffer[0] >> 7) & 0x01));
 8000326:	4b50      	ldr	r3, [pc, #320]	; (8000468 <updateLEDMatrix+0x288>)
 8000328:	781b      	ldrb	r3, [r3, #0]
 800032a:	09db      	lsrs	r3, r3, #7
 800032c:	b2db      	uxtb	r3, r3
 800032e:	461a      	mov	r2, r3
 8000330:	f44f 4100 	mov.w	r1, #32768	; 0x8000
 8000334:	484d      	ldr	r0, [pc, #308]	; (800046c <updateLEDMatrix+0x28c>)
 8000336:	f001 f983 	bl	8001640 <HAL_GPIO_WritePin>
		break;
 800033a:	f000 bc12 	b.w	8000b62 <updateLEDMatrix+0x982>
	case 1:
		/* Turn on col 0 with matrix_buffer[0], to turn on col -> reset*/
		HAL_GPIO_WritePin(ENM0_GPIO_Port, ENM0_Pin, GPIO_PIN_SET);
 800033e:	2201      	movs	r2, #1
 8000340:	2104      	movs	r1, #4
 8000342:	4848      	ldr	r0, [pc, #288]	; (8000464 <updateLEDMatrix+0x284>)
 8000344:	f001 f97c 	bl	8001640 <HAL_GPIO_WritePin>
		HAL_GPIO_WritePin(ENM1_GPIO_Port, ENM1_Pin, GPIO_PIN_RESET);
 8000348:	2200      	movs	r2, #0
 800034a:	2108      	movs	r1, #8
 800034c:	4845      	ldr	r0, [pc, #276]	; (8000464 <updateLEDMatrix+0x284>)
 800034e:	f001 f977 	bl	8001640 <HAL_GPIO_WritePin>
		HAL_GPIO_WritePin(ENM2_GPIO_Port, ENM2_Pin, GPIO_PIN_SET);
 8000352:	2201      	movs	r2, #1
 8000354:	f44f 6180 	mov.w	r1, #1024	; 0x400
 8000358:	4842      	ldr	r0, [pc, #264]	; (8000464 <updateLEDMatrix+0x284>)
 800035a:	f001 f971 	bl	8001640 <HAL_GPIO_WritePin>
		HAL_GPIO_WritePin(ENM3_GPIO_Port, ENM3_Pin, GPIO_PIN_SET);
 800035e:	2201      	movs	r2, #1
 8000360:	f44f 6100 	mov.w	r1, #2048	; 0x800
 8000364:	483f      	ldr	r0, [pc, #252]	; (8000464 <updateLEDMatrix+0x284>)
 8000366:	f001 f96b 	bl	8001640 <HAL_GPIO_WritePin>
		HAL_GPIO_WritePin(ENM4_GPIO_Port, ENM4_Pin, GPIO_PIN_SET);
 800036a:	2201      	movs	r2, #1
 800036c:	f44f 5180 	mov.w	r1, #4096	; 0x1000
 8000370:	483c      	ldr	r0, [pc, #240]	; (8000464 <updateLEDMatrix+0x284>)
 8000372:	f001 f965 	bl	8001640 <HAL_GPIO_WritePin>
		HAL_GPIO_WritePin(ENM5_GPIO_Port, ENM5_Pin, GPIO_PIN_SET);
 8000376:	2201      	movs	r2, #1
 8000378:	f44f 5100 	mov.w	r1, #8192	; 0x2000
 800037c:	4839      	ldr	r0, [pc, #228]	; (8000464 <updateLEDMatrix+0x284>)
 800037e:	f001 f95f 	bl	8001640 <HAL_GPIO_WritePin>
		HAL_GPIO_WritePin(ENM6_GPIO_Port, ENM6_Pin, GPIO_PIN_SET);
 8000382:	2201      	movs	r2, #1
 8000384:	f44f 4180 	mov.w	r1, #16384	; 0x4000
 8000388:	4836      	ldr	r0, [pc, #216]	; (8000464 <updateLEDMatrix+0x284>)
 800038a:	f001 f959 	bl	8001640 <HAL_GPIO_WritePin>
		HAL_GPIO_WritePin(ENM7_GPIO_Port, ENM7_Pin, GPIO_PIN_SET);
 800038e:	2201      	movs	r2, #1
 8000390:	f44f 4100 	mov.w	r1, #32768	; 0x8000
 8000394:	4833      	ldr	r0, [pc, #204]	; (8000464 <updateLEDMatrix+0x284>)
 8000396:	f001 f953 	bl	8001640 <HAL_GPIO_WritePin>

		/* Turn on rows based on buffer_matrix[0], to turn on row -> reset*/
		HAL_GPIO_WritePin(ROW0_GPIO_Port, ROW0_Pin, ((matrix_buffer[1] >> 0) & 0x01));
 800039a:	4b33      	ldr	r3, [pc, #204]	; (8000468 <updateLEDMatrix+0x288>)
 800039c:	785b      	ldrb	r3, [r3, #1]
 800039e:	f003 0301 	and.w	r3, r3, #1
 80003a2:	b2db      	uxtb	r3, r3
 80003a4:	461a      	mov	r2, r3
 80003a6:	f44f 7180 	mov.w	r1, #256	; 0x100
 80003aa:	4830      	ldr	r0, [pc, #192]	; (800046c <updateLEDMatrix+0x28c>)
 80003ac:	f001 f948 	bl	8001640 <HAL_GPIO_WritePin>
		HAL_GPIO_WritePin(ROW1_GPIO_Port, ROW1_Pin, ((matrix_buffer[1] >> 1) & 0x01));
 80003b0:	4b2d      	ldr	r3, [pc, #180]	; (8000468 <updateLEDMatrix+0x288>)
 80003b2:	785b      	ldrb	r3, [r3, #1]
 80003b4:	085b      	lsrs	r3, r3, #1
 80003b6:	b2db      	uxtb	r3, r3
 80003b8:	f003 0301 	and.w	r3, r3, #1
 80003bc:	b2db      	uxtb	r3, r3
 80003be:	461a      	mov	r2, r3
 80003c0:	f44f 7100 	mov.w	r1, #512	; 0x200
 80003c4:	4829      	ldr	r0, [pc, #164]	; (800046c <updateLEDMatrix+0x28c>)
 80003c6:	f001 f93b 	bl	8001640 <HAL_GPIO_WritePin>
		HAL_GPIO_WritePin(ROW2_GPIO_Port, ROW2_Pin, ((matrix_buffer[1] >> 2) & 0x01));
 80003ca:	4b27      	ldr	r3, [pc, #156]	; (8000468 <updateLEDMatrix+0x288>)
 80003cc:	785b      	ldrb	r3, [r3, #1]
 80003ce:	089b      	lsrs	r3, r3, #2
 80003d0:	b2db      	uxtb	r3, r3
 80003d2:	f003 0301 	and.w	r3, r3, #1
 80003d6:	b2db      	uxtb	r3, r3
 80003d8:	461a      	mov	r2, r3
 80003da:	f44f 6180 	mov.w	r1, #1024	; 0x400
 80003de:	4823      	ldr	r0, [pc, #140]	; (800046c <updateLEDMatrix+0x28c>)
 80003e0:	f001 f92e 	bl	8001640 <HAL_GPIO_WritePin>
		HAL_GPIO_WritePin(ROW3_GPIO_Port, ROW3_Pin, ((matrix_buffer[1] >> 3) & 0x01));
 80003e4:	4b20      	ldr	r3, [pc, #128]	; (8000468 <updateLEDMatrix+0x288>)
 80003e6:	785b      	ldrb	r3, [r3, #1]
 80003e8:	08db      	lsrs	r3, r3, #3
 80003ea:	b2db      	uxtb	r3, r3
 80003ec:	f003 0301 	and.w	r3, r3, #1
 80003f0:	b2db      	uxtb	r3, r3
 80003f2:	461a      	mov	r2, r3
 80003f4:	f44f 6100 	mov.w	r1, #2048	; 0x800
 80003f8:	481c      	ldr	r0, [pc, #112]	; (800046c <updateLEDMatrix+0x28c>)
 80003fa:	f001 f921 	bl	8001640 <HAL_GPIO_WritePin>
		HAL_GPIO_WritePin(ROW4_GPIO_Port, ROW4_Pin, ((matrix_buffer[1] >> 4) & 0x01));
 80003fe:	4b1a      	ldr	r3, [pc, #104]	; (8000468 <updateLEDMatrix+0x288>)
 8000400:	785b      	ldrb	r3, [r3, #1]
 8000402:	091b      	lsrs	r3, r3, #4
 8000404:	b2db      	uxtb	r3, r3
 8000406:	f003 0301 	and.w	r3, r3, #1
 800040a:	b2db      	uxtb	r3, r3
 800040c:	461a      	mov	r2, r3
 800040e:	f44f 5180 	mov.w	r1, #4096	; 0x1000
 8000412:	4816      	ldr	r0, [pc, #88]	; (800046c <updateLEDMatrix+0x28c>)
 8000414:	f001 f914 	bl	8001640 <HAL_GPIO_WritePin>
		HAL_GPIO_WritePin(ROW5_GPIO_Port, ROW5_Pin, ((matrix_buffer[1] >> 5) & 0x01));
 8000418:	4b13      	ldr	r3, [pc, #76]	; (8000468 <updateLEDMatrix+0x288>)
 800041a:	785b      	ldrb	r3, [r3, #1]
 800041c:	095b      	lsrs	r3, r3, #5
 800041e:	b2db      	uxtb	r3, r3
 8000420:	f003 0301 	and.w	r3, r3, #1
 8000424:	b2db      	uxtb	r3, r3
 8000426:	461a      	mov	r2, r3
 8000428:	f44f 5100 	mov.w	r1, #8192	; 0x2000
 800042c:	480f      	ldr	r0, [pc, #60]	; (800046c <updateLEDMatrix+0x28c>)
 800042e:	f001 f907 	bl	8001640 <HAL_GPIO_WritePin>
		HAL_GPIO_WritePin(ROW6_GPIO_Port, ROW6_Pin, ((matrix_buffer[1] >> 6) & 0x01));
 8000432:	4b0d      	ldr	r3, [pc, #52]	; (8000468 <updateLEDMatrix+0x288>)
 8000434:	785b      	ldrb	r3, [r3, #1]
 8000436:	099b      	lsrs	r3, r3, #6
 8000438:	b2db      	uxtb	r3, r3
 800043a:	f003 0301 	and.w	r3, r3, #1
 800043e:	b2db      	uxtb	r3, r3
 8000440:	461a      	mov	r2, r3
 8000442:	f44f 4180 	mov.w	r1, #16384	; 0x4000
 8000446:	4809      	ldr	r0, [pc, #36]	; (800046c <updateLEDMatrix+0x28c>)
 8000448:	f001 f8fa 	bl	8001640 <HAL_GPIO_WritePin>
		HAL_GPIO_WritePin(ROW7_GPIO_Port, ROW7_Pin, ((matrix_buffer[1] >> 7) & 0x01));
 800044c:	4b06      	ldr	r3, [pc, #24]	; (8000468 <updateLEDMatrix+0x288>)
 800044e:	785b      	ldrb	r3, [r3, #1]
 8000450:	09db      	lsrs	r3, r3, #7
 8000452:	b2db      	uxtb	r3, r3
 8000454:	461a      	mov	r2, r3
 8000456:	f44f 4100 	mov.w	r1, #32768	; 0x8000
 800045a:	4804      	ldr	r0, [pc, #16]	; (800046c <updateLEDMatrix+0x28c>)
 800045c:	f001 f8f0 	bl	8001640 <HAL_GPIO_WritePin>
		break;
 8000460:	e37f      	b.n	8000b62 <updateLEDMatrix+0x982>
 8000462:	bf00      	nop
 8000464:	40010800 	.word	0x40010800
 8000468:	20000000 	.word	0x20000000
 800046c:	40010c00 	.word	0x40010c00
	case 2:
		/* Turn on col 0 with matrix_buffer[0], to turn on col -> reset*/
		HAL_GPIO_WritePin(ENM0_GPIO_Port, ENM0_Pin, GPIO_PIN_SET);
 8000470:	2201      	movs	r2, #1
 8000472:	2104      	movs	r1, #4
 8000474:	4890      	ldr	r0, [pc, #576]	; (80006b8 <updateLEDMatrix+0x4d8>)
 8000476:	f001 f8e3 	bl	8001640 <HAL_GPIO_WritePin>
		HAL_GPIO_WritePin(ENM1_GPIO_Port, ENM1_Pin, GPIO_PIN_SET);
 800047a:	2201      	movs	r2, #1
 800047c:	2108      	movs	r1, #8
 800047e:	488e      	ldr	r0, [pc, #568]	; (80006b8 <updateLEDMatrix+0x4d8>)
 8000480:	f001 f8de 	bl	8001640 <HAL_GPIO_WritePin>
		HAL_GPIO_WritePin(ENM2_GPIO_Port, ENM2_Pin, GPIO_PIN_RESET);
 8000484:	2200      	movs	r2, #0
 8000486:	f44f 6180 	mov.w	r1, #1024	; 0x400
 800048a:	488b      	ldr	r0, [pc, #556]	; (80006b8 <updateLEDMatrix+0x4d8>)
 800048c:	f001 f8d8 	bl	8001640 <HAL_GPIO_WritePin>
		HAL_GPIO_WritePin(ENM3_GPIO_Port, ENM3_Pin, GPIO_PIN_SET);
 8000490:	2201      	movs	r2, #1
 8000492:	f44f 6100 	mov.w	r1, #2048	; 0x800
 8000496:	4888      	ldr	r0, [pc, #544]	; (80006b8 <updateLEDMatrix+0x4d8>)
 8000498:	f001 f8d2 	bl	8001640 <HAL_GPIO_WritePin>
		HAL_GPIO_WritePin(ENM4_GPIO_Port, ENM4_Pin, GPIO_PIN_SET);
 800049c:	2201      	movs	r2, #1
 800049e:	f44f 5180 	mov.w	r1, #4096	; 0x1000
 80004a2:	4885      	ldr	r0, [pc, #532]	; (80006b8 <updateLEDMatrix+0x4d8>)
 80004a4:	f001 f8cc 	bl	8001640 <HAL_GPIO_WritePin>
		HAL_GPIO_WritePin(ENM5_GPIO_Port, ENM5_Pin, GPIO_PIN_SET);
 80004a8:	2201      	movs	r2, #1
 80004aa:	f44f 5100 	mov.w	r1, #8192	; 0x2000
 80004ae:	4882      	ldr	r0, [pc, #520]	; (80006b8 <updateLEDMatrix+0x4d8>)
 80004b0:	f001 f8c6 	bl	8001640 <HAL_GPIO_WritePin>
		HAL_GPIO_WritePin(ENM6_GPIO_Port, ENM6_Pin, GPIO_PIN_SET);
 80004b4:	2201      	movs	r2, #1
 80004b6:	f44f 4180 	mov.w	r1, #16384	; 0x4000
 80004ba:	487f      	ldr	r0, [pc, #508]	; (80006b8 <updateLEDMatrix+0x4d8>)
 80004bc:	f001 f8c0 	bl	8001640 <HAL_GPIO_WritePin>
		HAL_GPIO_WritePin(ENM7_GPIO_Port, ENM7_Pin, GPIO_PIN_SET);
 80004c0:	2201      	movs	r2, #1
 80004c2:	f44f 4100 	mov.w	r1, #32768	; 0x8000
 80004c6:	487c      	ldr	r0, [pc, #496]	; (80006b8 <updateLEDMatrix+0x4d8>)
 80004c8:	f001 f8ba 	bl	8001640 <HAL_GPIO_WritePin>

		/* Turn on rows based on buffer_matrix[0], to turn on row -> reset*/
		HAL_GPIO_WritePin(ROW0_GPIO_Port, ROW0_Pin, ((matrix_buffer[2] >> 0) & 0x01));
 80004cc:	4b7b      	ldr	r3, [pc, #492]	; (80006bc <updateLEDMatrix+0x4dc>)
 80004ce:	789b      	ldrb	r3, [r3, #2]
 80004d0:	f003 0301 	and.w	r3, r3, #1
 80004d4:	b2db      	uxtb	r3, r3
 80004d6:	461a      	mov	r2, r3
 80004d8:	f44f 7180 	mov.w	r1, #256	; 0x100
 80004dc:	4878      	ldr	r0, [pc, #480]	; (80006c0 <updateLEDMatrix+0x4e0>)
 80004de:	f001 f8af 	bl	8001640 <HAL_GPIO_WritePin>
		HAL_GPIO_WritePin(ROW1_GPIO_Port, ROW1_Pin, ((matrix_buffer[2] >> 1) & 0x01));
 80004e2:	4b76      	ldr	r3, [pc, #472]	; (80006bc <updateLEDMatrix+0x4dc>)
 80004e4:	789b      	ldrb	r3, [r3, #2]
 80004e6:	085b      	lsrs	r3, r3, #1
 80004e8:	b2db      	uxtb	r3, r3
 80004ea:	f003 0301 	and.w	r3, r3, #1
 80004ee:	b2db      	uxtb	r3, r3
 80004f0:	461a      	mov	r2, r3
 80004f2:	f44f 7100 	mov.w	r1, #512	; 0x200
 80004f6:	4872      	ldr	r0, [pc, #456]	; (80006c0 <updateLEDMatrix+0x4e0>)
 80004f8:	f001 f8a2 	bl	8001640 <HAL_GPIO_WritePin>
		HAL_GPIO_WritePin(ROW2_GPIO_Port, ROW2_Pin, ((matrix_buffer[2] >> 2) & 0x01));
 80004fc:	4b6f      	ldr	r3, [pc, #444]	; (80006bc <updateLEDMatrix+0x4dc>)
 80004fe:	789b      	ldrb	r3, [r3, #2]
 8000500:	089b      	lsrs	r3, r3, #2
 8000502:	b2db      	uxtb	r3, r3
 8000504:	f003 0301 	and.w	r3, r3, #1
 8000508:	b2db      	uxtb	r3, r3
 800050a:	461a      	mov	r2, r3
 800050c:	f44f 6180 	mov.w	r1, #1024	; 0x400
 8000510:	486b      	ldr	r0, [pc, #428]	; (80006c0 <updateLEDMatrix+0x4e0>)
 8000512:	f001 f895 	bl	8001640 <HAL_GPIO_WritePin>
		HAL_GPIO_WritePin(ROW3_GPIO_Port, ROW3_Pin, ((matrix_buffer[2] >> 3) & 0x01));
 8000516:	4b69      	ldr	r3, [pc, #420]	; (80006bc <updateLEDMatrix+0x4dc>)
 8000518:	789b      	ldrb	r3, [r3, #2]
 800051a:	08db      	lsrs	r3, r3, #3
 800051c:	b2db      	uxtb	r3, r3
 800051e:	f003 0301 	and.w	r3, r3, #1
 8000522:	b2db      	uxtb	r3, r3
 8000524:	461a      	mov	r2, r3
 8000526:	f44f 6100 	mov.w	r1, #2048	; 0x800
 800052a:	4865      	ldr	r0, [pc, #404]	; (80006c0 <updateLEDMatrix+0x4e0>)
 800052c:	f001 f888 	bl	8001640 <HAL_GPIO_WritePin>
		HAL_GPIO_WritePin(ROW4_GPIO_Port, ROW4_Pin, ((matrix_buffer[2] >> 4) & 0x01));
 8000530:	4b62      	ldr	r3, [pc, #392]	; (80006bc <updateLEDMatrix+0x4dc>)
 8000532:	789b      	ldrb	r3, [r3, #2]
 8000534:	091b      	lsrs	r3, r3, #4
 8000536:	b2db      	uxtb	r3, r3
 8000538:	f003 0301 	and.w	r3, r3, #1
 800053c:	b2db      	uxtb	r3, r3
 800053e:	461a      	mov	r2, r3
 8000540:	f44f 5180 	mov.w	r1, #4096	; 0x1000
 8000544:	485e      	ldr	r0, [pc, #376]	; (80006c0 <updateLEDMatrix+0x4e0>)
 8000546:	f001 f87b 	bl	8001640 <HAL_GPIO_WritePin>
		HAL_GPIO_WritePin(ROW5_GPIO_Port, ROW5_Pin, ((matrix_buffer[2] >> 5) & 0x01));
 800054a:	4b5c      	ldr	r3, [pc, #368]	; (80006bc <updateLEDMatrix+0x4dc>)
 800054c:	789b      	ldrb	r3, [r3, #2]
 800054e:	095b      	lsrs	r3, r3, #5
 8000550:	b2db      	uxtb	r3, r3
 8000552:	f003 0301 	and.w	r3, r3, #1
 8000556:	b2db      	uxtb	r3, r3
 8000558:	461a      	mov	r2, r3
 800055a:	f44f 5100 	mov.w	r1, #8192	; 0x2000
 800055e:	4858      	ldr	r0, [pc, #352]	; (80006c0 <updateLEDMatrix+0x4e0>)
 8000560:	f001 f86e 	bl	8001640 <HAL_GPIO_WritePin>
		HAL_GPIO_WritePin(ROW6_GPIO_Port, ROW6_Pin, ((matrix_buffer[2] >> 6) & 0x01));
 8000564:	4b55      	ldr	r3, [pc, #340]	; (80006bc <updateLEDMatrix+0x4dc>)
 8000566:	789b      	ldrb	r3, [r3, #2]
 8000568:	099b      	lsrs	r3, r3, #6
 800056a:	b2db      	uxtb	r3, r3
 800056c:	f003 0301 	and.w	r3, r3, #1
 8000570:	b2db      	uxtb	r3, r3
 8000572:	461a      	mov	r2, r3
 8000574:	f44f 4180 	mov.w	r1, #16384	; 0x4000
 8000578:	4851      	ldr	r0, [pc, #324]	; (80006c0 <updateLEDMatrix+0x4e0>)
 800057a:	f001 f861 	bl	8001640 <HAL_GPIO_WritePin>
		HAL_GPIO_WritePin(ROW7_GPIO_Port, ROW7_Pin, ((matrix_buffer[2] >> 7) & 0x01));
 800057e:	4b4f      	ldr	r3, [pc, #316]	; (80006bc <updateLEDMatrix+0x4dc>)
 8000580:	789b      	ldrb	r3, [r3, #2]
 8000582:	09db      	lsrs	r3, r3, #7
 8000584:	b2db      	uxtb	r3, r3
 8000586:	461a      	mov	r2, r3
 8000588:	f44f 4100 	mov.w	r1, #32768	; 0x8000
 800058c:	484c      	ldr	r0, [pc, #304]	; (80006c0 <updateLEDMatrix+0x4e0>)
 800058e:	f001 f857 	bl	8001640 <HAL_GPIO_WritePin>
		break;
 8000592:	e2e6      	b.n	8000b62 <updateLEDMatrix+0x982>
	case 3:
		/* Turn on col 0 with matrix_buffer[0], to turn on col -> reset*/
		HAL_GPIO_WritePin(ENM0_GPIO_Port, ENM0_Pin, GPIO_PIN_SET);
 8000594:	2201      	movs	r2, #1
 8000596:	2104      	movs	r1, #4
 8000598:	4847      	ldr	r0, [pc, #284]	; (80006b8 <updateLEDMatrix+0x4d8>)
 800059a:	f001 f851 	bl	8001640 <HAL_GPIO_WritePin>
		HAL_GPIO_WritePin(ENM1_GPIO_Port, ENM1_Pin, GPIO_PIN_SET);
 800059e:	2201      	movs	r2, #1
 80005a0:	2108      	movs	r1, #8
 80005a2:	4845      	ldr	r0, [pc, #276]	; (80006b8 <updateLEDMatrix+0x4d8>)
 80005a4:	f001 f84c 	bl	8001640 <HAL_GPIO_WritePin>
		HAL_GPIO_WritePin(ENM2_GPIO_Port, ENM2_Pin, GPIO_PIN_SET);
 80005a8:	2201      	movs	r2, #1
 80005aa:	f44f 6180 	mov.w	r1, #1024	; 0x400
 80005ae:	4842      	ldr	r0, [pc, #264]	; (80006b8 <updateLEDMatrix+0x4d8>)
 80005b0:	f001 f846 	bl	8001640 <HAL_GPIO_WritePin>
		HAL_GPIO_WritePin(ENM3_GPIO_Port, ENM3_Pin, GPIO_PIN_RESET);
 80005b4:	2200      	movs	r2, #0
 80005b6:	f44f 6100 	mov.w	r1, #2048	; 0x800
 80005ba:	483f      	ldr	r0, [pc, #252]	; (80006b8 <updateLEDMatrix+0x4d8>)
 80005bc:	f001 f840 	bl	8001640 <HAL_GPIO_WritePin>
		HAL_GPIO_WritePin(ENM4_GPIO_Port, ENM4_Pin, GPIO_PIN_SET);
 80005c0:	2201      	movs	r2, #1
 80005c2:	f44f 5180 	mov.w	r1, #4096	; 0x1000
 80005c6:	483c      	ldr	r0, [pc, #240]	; (80006b8 <updateLEDMatrix+0x4d8>)
 80005c8:	f001 f83a 	bl	8001640 <HAL_GPIO_WritePin>
		HAL_GPIO_WritePin(ENM5_GPIO_Port, ENM5_Pin, GPIO_PIN_SET);
 80005cc:	2201      	movs	r2, #1
 80005ce:	f44f 5100 	mov.w	r1, #8192	; 0x2000
 80005d2:	4839      	ldr	r0, [pc, #228]	; (80006b8 <updateLEDMatrix+0x4d8>)
 80005d4:	f001 f834 	bl	8001640 <HAL_GPIO_WritePin>
		HAL_GPIO_WritePin(ENM6_GPIO_Port, ENM6_Pin, GPIO_PIN_SET);
 80005d8:	2201      	movs	r2, #1
 80005da:	f44f 4180 	mov.w	r1, #16384	; 0x4000
 80005de:	4836      	ldr	r0, [pc, #216]	; (80006b8 <updateLEDMatrix+0x4d8>)
 80005e0:	f001 f82e 	bl	8001640 <HAL_GPIO_WritePin>
		HAL_GPIO_WritePin(ENM7_GPIO_Port, ENM7_Pin, GPIO_PIN_SET);
 80005e4:	2201      	movs	r2, #1
 80005e6:	f44f 4100 	mov.w	r1, #32768	; 0x8000
 80005ea:	4833      	ldr	r0, [pc, #204]	; (80006b8 <updateLEDMatrix+0x4d8>)
 80005ec:	f001 f828 	bl	8001640 <HAL_GPIO_WritePin>

		/* Turn on rows based on buffer_matrix[0], to turn on row -> reset*/
		HAL_GPIO_WritePin(ROW0_GPIO_Port, ROW0_Pin, ((matrix_buffer[3] >> 0) & 0x01));
 80005f0:	4b32      	ldr	r3, [pc, #200]	; (80006bc <updateLEDMatrix+0x4dc>)
 80005f2:	78db      	ldrb	r3, [r3, #3]
 80005f4:	f003 0301 	and.w	r3, r3, #1
 80005f8:	b2db      	uxtb	r3, r3
 80005fa:	461a      	mov	r2, r3
 80005fc:	f44f 7180 	mov.w	r1, #256	; 0x100
 8000600:	482f      	ldr	r0, [pc, #188]	; (80006c0 <updateLEDMatrix+0x4e0>)
 8000602:	f001 f81d 	bl	8001640 <HAL_GPIO_WritePin>
		HAL_GPIO_WritePin(ROW1_GPIO_Port, ROW1_Pin, ((matrix_buffer[3] >> 1) & 0x01));
 8000606:	4b2d      	ldr	r3, [pc, #180]	; (80006bc <updateLEDMatrix+0x4dc>)
 8000608:	78db      	ldrb	r3, [r3, #3]
 800060a:	085b      	lsrs	r3, r3, #1
 800060c:	b2db      	uxtb	r3, r3
 800060e:	f003 0301 	and.w	r3, r3, #1
 8000612:	b2db      	uxtb	r3, r3
 8000614:	461a      	mov	r2, r3
 8000616:	f44f 7100 	mov.w	r1, #512	; 0x200
 800061a:	4829      	ldr	r0, [pc, #164]	; (80006c0 <updateLEDMatrix+0x4e0>)
 800061c:	f001 f810 	bl	8001640 <HAL_GPIO_WritePin>
		HAL_GPIO_WritePin(ROW2_GPIO_Port, ROW2_Pin, ((matrix_buffer[3] >> 2) & 0x01));
 8000620:	4b26      	ldr	r3, [pc, #152]	; (80006bc <updateLEDMatrix+0x4dc>)
 8000622:	78db      	ldrb	r3, [r3, #3]
 8000624:	089b      	lsrs	r3, r3, #2
 8000626:	b2db      	uxtb	r3, r3
 8000628:	f003 0301 	and.w	r3, r3, #1
 800062c:	b2db      	uxtb	r3, r3
 800062e:	461a      	mov	r2, r3
 8000630:	f44f 6180 	mov.w	r1, #1024	; 0x400
 8000634:	4822      	ldr	r0, [pc, #136]	; (80006c0 <updateLEDMatrix+0x4e0>)
 8000636:	f001 f803 	bl	8001640 <HAL_GPIO_WritePin>
		HAL_GPIO_WritePin(ROW3_GPIO_Port, ROW3_Pin, ((matrix_buffer[3] >> 3) & 0x01));
 800063a:	4b20      	ldr	r3, [pc, #128]	; (80006bc <updateLEDMatrix+0x4dc>)
 800063c:	78db      	ldrb	r3, [r3, #3]
 800063e:	08db      	lsrs	r3, r3, #3
 8000640:	b2db      	uxtb	r3, r3
 8000642:	f003 0301 	and.w	r3, r3, #1
 8000646:	b2db      	uxtb	r3, r3
 8000648:	461a      	mov	r2, r3
 800064a:	f44f 6100 	mov.w	r1, #2048	; 0x800
 800064e:	481c      	ldr	r0, [pc, #112]	; (80006c0 <updateLEDMatrix+0x4e0>)
 8000650:	f000 fff6 	bl	8001640 <HAL_GPIO_WritePin>
		HAL_GPIO_WritePin(ROW4_GPIO_Port, ROW4_Pin, ((matrix_buffer[3] >> 4) & 0x01));
 8000654:	4b19      	ldr	r3, [pc, #100]	; (80006bc <updateLEDMatrix+0x4dc>)
 8000656:	78db      	ldrb	r3, [r3, #3]
 8000658:	091b      	lsrs	r3, r3, #4
 800065a:	b2db      	uxtb	r3, r3
 800065c:	f003 0301 	and.w	r3, r3, #1
 8000660:	b2db      	uxtb	r3, r3
 8000662:	461a      	mov	r2, r3
 8000664:	f44f 5180 	mov.w	r1, #4096	; 0x1000
 8000668:	4815      	ldr	r0, [pc, #84]	; (80006c0 <updateLEDMatrix+0x4e0>)
 800066a:	f000 ffe9 	bl	8001640 <HAL_GPIO_WritePin>
		HAL_GPIO_WritePin(ROW5_GPIO_Port, ROW5_Pin, ((matrix_buffer[3] >> 5) & 0x01));
 800066e:	4b13      	ldr	r3, [pc, #76]	; (80006bc <updateLEDMatrix+0x4dc>)
 8000670:	78db      	ldrb	r3, [r3, #3]
 8000672:	095b      	lsrs	r3, r3, #5
 8000674:	b2db      	uxtb	r3, r3
 8000676:	f003 0301 	and.w	r3, r3, #1
 800067a:	b2db      	uxtb	r3, r3
 800067c:	461a      	mov	r2, r3
 800067e:	f44f 5100 	mov.w	r1, #8192	; 0x2000
 8000682:	480f      	ldr	r0, [pc, #60]	; (80006c0 <updateLEDMatrix+0x4e0>)
 8000684:	f000 ffdc 	bl	8001640 <HAL_GPIO_WritePin>
		HAL_GPIO_WritePin(ROW6_GPIO_Port, ROW6_Pin, ((matrix_buffer[3] >> 6) & 0x01));
 8000688:	4b0c      	ldr	r3, [pc, #48]	; (80006bc <updateLEDMatrix+0x4dc>)
 800068a:	78db      	ldrb	r3, [r3, #3]
 800068c:	099b      	lsrs	r3, r3, #6
 800068e:	b2db      	uxtb	r3, r3
 8000690:	f003 0301 	and.w	r3, r3, #1
 8000694:	b2db      	uxtb	r3, r3
 8000696:	461a      	mov	r2, r3
 8000698:	f44f 4180 	mov.w	r1, #16384	; 0x4000
 800069c:	4808      	ldr	r0, [pc, #32]	; (80006c0 <updateLEDMatrix+0x4e0>)
 800069e:	f000 ffcf 	bl	8001640 <HAL_GPIO_WritePin>
		HAL_GPIO_WritePin(ROW7_GPIO_Port, ROW7_Pin, ((matrix_buffer[3] >> 7) & 0x01));
 80006a2:	4b06      	ldr	r3, [pc, #24]	; (80006bc <updateLEDMatrix+0x4dc>)
 80006a4:	78db      	ldrb	r3, [r3, #3]
 80006a6:	09db      	lsrs	r3, r3, #7
 80006a8:	b2db      	uxtb	r3, r3
 80006aa:	461a      	mov	r2, r3
 80006ac:	f44f 4100 	mov.w	r1, #32768	; 0x8000
 80006b0:	4803      	ldr	r0, [pc, #12]	; (80006c0 <updateLEDMatrix+0x4e0>)
 80006b2:	f000 ffc5 	bl	8001640 <HAL_GPIO_WritePin>
		break;
 80006b6:	e254      	b.n	8000b62 <updateLEDMatrix+0x982>
 80006b8:	40010800 	.word	0x40010800
 80006bc:	20000000 	.word	0x20000000
 80006c0:	40010c00 	.word	0x40010c00
	case 4:
		/* Turn on col 0 with matrix_buffer[0], to turn on col -> reset*/
		HAL_GPIO_WritePin(ENM0_GPIO_Port, ENM0_Pin, GPIO_PIN_SET);
 80006c4:	2201      	movs	r2, #1
 80006c6:	2104      	movs	r1, #4
 80006c8:	4890      	ldr	r0, [pc, #576]	; (800090c <updateLEDMatrix+0x72c>)
 80006ca:	f000 ffb9 	bl	8001640 <HAL_GPIO_WritePin>
		HAL_GPIO_WritePin(ENM1_GPIO_Port, ENM1_Pin, GPIO_PIN_SET);
 80006ce:	2201      	movs	r2, #1
 80006d0:	2108      	movs	r1, #8
 80006d2:	488e      	ldr	r0, [pc, #568]	; (800090c <updateLEDMatrix+0x72c>)
 80006d4:	f000 ffb4 	bl	8001640 <HAL_GPIO_WritePin>
		HAL_GPIO_WritePin(ENM2_GPIO_Port, ENM2_Pin, GPIO_PIN_SET);
 80006d8:	2201      	movs	r2, #1
 80006da:	f44f 6180 	mov.w	r1, #1024	; 0x400
 80006de:	488b      	ldr	r0, [pc, #556]	; (800090c <updateLEDMatrix+0x72c>)
 80006e0:	f000 ffae 	bl	8001640 <HAL_GPIO_WritePin>
		HAL_GPIO_WritePin(ENM3_GPIO_Port, ENM3_Pin, GPIO_PIN_SET);
 80006e4:	2201      	movs	r2, #1
 80006e6:	f44f 6100 	mov.w	r1, #2048	; 0x800
 80006ea:	4888      	ldr	r0, [pc, #544]	; (800090c <updateLEDMatrix+0x72c>)
 80006ec:	f000 ffa8 	bl	8001640 <HAL_GPIO_WritePin>
		HAL_GPIO_WritePin(ENM4_GPIO_Port, ENM4_Pin, GPIO_PIN_RESET);
 80006f0:	2200      	movs	r2, #0
 80006f2:	f44f 5180 	mov.w	r1, #4096	; 0x1000
 80006f6:	4885      	ldr	r0, [pc, #532]	; (800090c <updateLEDMatrix+0x72c>)
 80006f8:	f000 ffa2 	bl	8001640 <HAL_GPIO_WritePin>
		HAL_GPIO_WritePin(ENM5_GPIO_Port, ENM5_Pin, GPIO_PIN_SET);
 80006fc:	2201      	movs	r2, #1
 80006fe:	f44f 5100 	mov.w	r1, #8192	; 0x2000
 8000702:	4882      	ldr	r0, [pc, #520]	; (800090c <updateLEDMatrix+0x72c>)
 8000704:	f000 ff9c 	bl	8001640 <HAL_GPIO_WritePin>
		HAL_GPIO_WritePin(ENM6_GPIO_Port, ENM6_Pin, GPIO_PIN_SET);
 8000708:	2201      	movs	r2, #1
 800070a:	f44f 4180 	mov.w	r1, #16384	; 0x4000
 800070e:	487f      	ldr	r0, [pc, #508]	; (800090c <updateLEDMatrix+0x72c>)
 8000710:	f000 ff96 	bl	8001640 <HAL_GPIO_WritePin>
		HAL_GPIO_WritePin(ENM7_GPIO_Port, ENM7_Pin, GPIO_PIN_SET);
 8000714:	2201      	movs	r2, #1
 8000716:	f44f 4100 	mov.w	r1, #32768	; 0x8000
 800071a:	487c      	ldr	r0, [pc, #496]	; (800090c <updateLEDMatrix+0x72c>)
 800071c:	f000 ff90 	bl	8001640 <HAL_GPIO_WritePin>

		/* Turn on rows based on buffer_matrix[0], to turn on row -> reset*/
		HAL_GPIO_WritePin(ROW0_GPIO_Port, ROW0_Pin, ((matrix_buffer[4] >> 0) & 0x01));
 8000720:	4b7b      	ldr	r3, [pc, #492]	; (8000910 <updateLEDMatrix+0x730>)
 8000722:	791b      	ldrb	r3, [r3, #4]
 8000724:	f003 0301 	and.w	r3, r3, #1
 8000728:	b2db      	uxtb	r3, r3
 800072a:	461a      	mov	r2, r3
 800072c:	f44f 7180 	mov.w	r1, #256	; 0x100
 8000730:	4878      	ldr	r0, [pc, #480]	; (8000914 <updateLEDMatrix+0x734>)
 8000732:	f000 ff85 	bl	8001640 <HAL_GPIO_WritePin>
		HAL_GPIO_WritePin(ROW1_GPIO_Port, ROW1_Pin, ((matrix_buffer[4] >> 1) & 0x01));
 8000736:	4b76      	ldr	r3, [pc, #472]	; (8000910 <updateLEDMatrix+0x730>)
 8000738:	791b      	ldrb	r3, [r3, #4]
 800073a:	085b      	lsrs	r3, r3, #1
 800073c:	b2db      	uxtb	r3, r3
 800073e:	f003 0301 	and.w	r3, r3, #1
 8000742:	b2db      	uxtb	r3, r3
 8000744:	461a      	mov	r2, r3
 8000746:	f44f 7100 	mov.w	r1, #512	; 0x200
 800074a:	4872      	ldr	r0, [pc, #456]	; (8000914 <updateLEDMatrix+0x734>)
 800074c:	f000 ff78 	bl	8001640 <HAL_GPIO_WritePin>
		HAL_GPIO_WritePin(ROW2_GPIO_Port, ROW2_Pin, ((matrix_buffer[4] >> 2) & 0x01));
 8000750:	4b6f      	ldr	r3, [pc, #444]	; (8000910 <updateLEDMatrix+0x730>)
 8000752:	791b      	ldrb	r3, [r3, #4]
 8000754:	089b      	lsrs	r3, r3, #2
 8000756:	b2db      	uxtb	r3, r3
 8000758:	f003 0301 	and.w	r3, r3, #1
 800075c:	b2db      	uxtb	r3, r3
 800075e:	461a      	mov	r2, r3
 8000760:	f44f 6180 	mov.w	r1, #1024	; 0x400
 8000764:	486b      	ldr	r0, [pc, #428]	; (8000914 <updateLEDMatrix+0x734>)
 8000766:	f000 ff6b 	bl	8001640 <HAL_GPIO_WritePin>
		HAL_GPIO_WritePin(ROW3_GPIO_Port, ROW3_Pin, ((matrix_buffer[4] >> 3) & 0x01));
 800076a:	4b69      	ldr	r3, [pc, #420]	; (8000910 <updateLEDMatrix+0x730>)
 800076c:	791b      	ldrb	r3, [r3, #4]
 800076e:	08db      	lsrs	r3, r3, #3
 8000770:	b2db      	uxtb	r3, r3
 8000772:	f003 0301 	and.w	r3, r3, #1
 8000776:	b2db      	uxtb	r3, r3
 8000778:	461a      	mov	r2, r3
 800077a:	f44f 6100 	mov.w	r1, #2048	; 0x800
 800077e:	4865      	ldr	r0, [pc, #404]	; (8000914 <updateLEDMatrix+0x734>)
 8000780:	f000 ff5e 	bl	8001640 <HAL_GPIO_WritePin>
		HAL_GPIO_WritePin(ROW4_GPIO_Port, ROW4_Pin, ((matrix_buffer[4] >> 4) & 0x01));
 8000784:	4b62      	ldr	r3, [pc, #392]	; (8000910 <updateLEDMatrix+0x730>)
 8000786:	791b      	ldrb	r3, [r3, #4]
 8000788:	091b      	lsrs	r3, r3, #4
 800078a:	b2db      	uxtb	r3, r3
 800078c:	f003 0301 	and.w	r3, r3, #1
 8000790:	b2db      	uxtb	r3, r3
 8000792:	461a      	mov	r2, r3
 8000794:	f44f 5180 	mov.w	r1, #4096	; 0x1000
 8000798:	485e      	ldr	r0, [pc, #376]	; (8000914 <updateLEDMatrix+0x734>)
 800079a:	f000 ff51 	bl	8001640 <HAL_GPIO_WritePin>
		HAL_GPIO_WritePin(ROW5_GPIO_Port, ROW5_Pin, ((matrix_buffer[4] >> 5) & 0x01));
 800079e:	4b5c      	ldr	r3, [pc, #368]	; (8000910 <updateLEDMatrix+0x730>)
 80007a0:	791b      	ldrb	r3, [r3, #4]
 80007a2:	095b      	lsrs	r3, r3, #5
 80007a4:	b2db      	uxtb	r3, r3
 80007a6:	f003 0301 	and.w	r3, r3, #1
 80007aa:	b2db      	uxtb	r3, r3
 80007ac:	461a      	mov	r2, r3
 80007ae:	f44f 5100 	mov.w	r1, #8192	; 0x2000
 80007b2:	4858      	ldr	r0, [pc, #352]	; (8000914 <updateLEDMatrix+0x734>)
 80007b4:	f000 ff44 	bl	8001640 <HAL_GPIO_WritePin>
		HAL_GPIO_WritePin(ROW6_GPIO_Port, ROW6_Pin, ((matrix_buffer[4] >> 6) & 0x01));
 80007b8:	4b55      	ldr	r3, [pc, #340]	; (8000910 <updateLEDMatrix+0x730>)
 80007ba:	791b      	ldrb	r3, [r3, #4]
 80007bc:	099b      	lsrs	r3, r3, #6
 80007be:	b2db      	uxtb	r3, r3
 80007c0:	f003 0301 	and.w	r3, r3, #1
 80007c4:	b2db      	uxtb	r3, r3
 80007c6:	461a      	mov	r2, r3
 80007c8:	f44f 4180 	mov.w	r1, #16384	; 0x4000
 80007cc:	4851      	ldr	r0, [pc, #324]	; (8000914 <updateLEDMatrix+0x734>)
 80007ce:	f000 ff37 	bl	8001640 <HAL_GPIO_WritePin>
		HAL_GPIO_WritePin(ROW7_GPIO_Port, ROW7_Pin, ((matrix_buffer[4] >> 7) & 0x01));
 80007d2:	4b4f      	ldr	r3, [pc, #316]	; (8000910 <updateLEDMatrix+0x730>)
 80007d4:	791b      	ldrb	r3, [r3, #4]
 80007d6:	09db      	lsrs	r3, r3, #7
 80007d8:	b2db      	uxtb	r3, r3
 80007da:	461a      	mov	r2, r3
 80007dc:	f44f 4100 	mov.w	r1, #32768	; 0x8000
 80007e0:	484c      	ldr	r0, [pc, #304]	; (8000914 <updateLEDMatrix+0x734>)
 80007e2:	f000 ff2d 	bl	8001640 <HAL_GPIO_WritePin>
		break;
 80007e6:	e1bc      	b.n	8000b62 <updateLEDMatrix+0x982>
	case 5:
		/* Turn on col 0 with matrix_buffer[0], to turn on col -> reset*/
		HAL_GPIO_WritePin(ENM0_GPIO_Port, ENM0_Pin, GPIO_PIN_SET);
 80007e8:	2201      	movs	r2, #1
 80007ea:	2104      	movs	r1, #4
 80007ec:	4847      	ldr	r0, [pc, #284]	; (800090c <updateLEDMatrix+0x72c>)
 80007ee:	f000 ff27 	bl	8001640 <HAL_GPIO_WritePin>
		HAL_GPIO_WritePin(ENM1_GPIO_Port, ENM1_Pin, GPIO_PIN_SET);
 80007f2:	2201      	movs	r2, #1
 80007f4:	2108      	movs	r1, #8
 80007f6:	4845      	ldr	r0, [pc, #276]	; (800090c <updateLEDMatrix+0x72c>)
 80007f8:	f000 ff22 	bl	8001640 <HAL_GPIO_WritePin>
		HAL_GPIO_WritePin(ENM2_GPIO_Port, ENM2_Pin, GPIO_PIN_SET);
 80007fc:	2201      	movs	r2, #1
 80007fe:	f44f 6180 	mov.w	r1, #1024	; 0x400
 8000802:	4842      	ldr	r0, [pc, #264]	; (800090c <updateLEDMatrix+0x72c>)
 8000804:	f000 ff1c 	bl	8001640 <HAL_GPIO_WritePin>
		HAL_GPIO_WritePin(ENM3_GPIO_Port, ENM3_Pin, GPIO_PIN_SET);
 8000808:	2201      	movs	r2, #1
 800080a:	f44f 6100 	mov.w	r1, #2048	; 0x800
 800080e:	483f      	ldr	r0, [pc, #252]	; (800090c <updateLEDMatrix+0x72c>)
 8000810:	f000 ff16 	bl	8001640 <HAL_GPIO_WritePin>
		HAL_GPIO_WritePin(ENM4_GPIO_Port, ENM4_Pin, GPIO_PIN_SET);
 8000814:	2201      	movs	r2, #1
 8000816:	f44f 5180 	mov.w	r1, #4096	; 0x1000
 800081a:	483c      	ldr	r0, [pc, #240]	; (800090c <updateLEDMatrix+0x72c>)
 800081c:	f000 ff10 	bl	8001640 <HAL_GPIO_WritePin>
		HAL_GPIO_WritePin(ENM5_GPIO_Port, ENM5_Pin, GPIO_PIN_RESET);
 8000820:	2200      	movs	r2, #0
 8000822:	f44f 5100 	mov.w	r1, #8192	; 0x2000
 8000826:	4839      	ldr	r0, [pc, #228]	; (800090c <updateLEDMatrix+0x72c>)
 8000828:	f000 ff0a 	bl	8001640 <HAL_GPIO_WritePin>
		HAL_GPIO_WritePin(ENM6_GPIO_Port, ENM6_Pin, GPIO_PIN_SET);
 800082c:	2201      	movs	r2, #1
 800082e:	f44f 4180 	mov.w	r1, #16384	; 0x4000
 8000832:	4836      	ldr	r0, [pc, #216]	; (800090c <updateLEDMatrix+0x72c>)
 8000834:	f000 ff04 	bl	8001640 <HAL_GPIO_WritePin>
		HAL_GPIO_WritePin(ENM7_GPIO_Port, ENM7_Pin, GPIO_PIN_SET);
 8000838:	2201      	movs	r2, #1
 800083a:	f44f 4100 	mov.w	r1, #32768	; 0x8000
 800083e:	4833      	ldr	r0, [pc, #204]	; (800090c <updateLEDMatrix+0x72c>)
 8000840:	f000 fefe 	bl	8001640 <HAL_GPIO_WritePin>

		/* Turn on rows based on buffer_matrix[0], to turn on row -> reset*/
		HAL_GPIO_WritePin(ROW0_GPIO_Port, ROW0_Pin, ((matrix_buffer[5] >> 0) & 0x01));
 8000844:	4b32      	ldr	r3, [pc, #200]	; (8000910 <updateLEDMatrix+0x730>)
 8000846:	795b      	ldrb	r3, [r3, #5]
 8000848:	f003 0301 	and.w	r3, r3, #1
 800084c:	b2db      	uxtb	r3, r3
 800084e:	461a      	mov	r2, r3
 8000850:	f44f 7180 	mov.w	r1, #256	; 0x100
 8000854:	482f      	ldr	r0, [pc, #188]	; (8000914 <updateLEDMatrix+0x734>)
 8000856:	f000 fef3 	bl	8001640 <HAL_GPIO_WritePin>
		HAL_GPIO_WritePin(ROW1_GPIO_Port, ROW1_Pin, ((matrix_buffer[5] >> 1) & 0x01));
 800085a:	4b2d      	ldr	r3, [pc, #180]	; (8000910 <updateLEDMatrix+0x730>)
 800085c:	795b      	ldrb	r3, [r3, #5]
 800085e:	085b      	lsrs	r3, r3, #1
 8000860:	b2db      	uxtb	r3, r3
 8000862:	f003 0301 	and.w	r3, r3, #1
 8000866:	b2db      	uxtb	r3, r3
 8000868:	461a      	mov	r2, r3
 800086a:	f44f 7100 	mov.w	r1, #512	; 0x200
 800086e:	4829      	ldr	r0, [pc, #164]	; (8000914 <updateLEDMatrix+0x734>)
 8000870:	f000 fee6 	bl	8001640 <HAL_GPIO_WritePin>
		HAL_GPIO_WritePin(ROW2_GPIO_Port, ROW2_Pin, ((matrix_buffer[5] >> 2) & 0x01));
 8000874:	4b26      	ldr	r3, [pc, #152]	; (8000910 <updateLEDMatrix+0x730>)
 8000876:	795b      	ldrb	r3, [r3, #5]
 8000878:	089b      	lsrs	r3, r3, #2
 800087a:	b2db      	uxtb	r3, r3
 800087c:	f003 0301 	and.w	r3, r3, #1
 8000880:	b2db      	uxtb	r3, r3
 8000882:	461a      	mov	r2, r3
 8000884:	f44f 6180 	mov.w	r1, #1024	; 0x400
 8000888:	4822      	ldr	r0, [pc, #136]	; (8000914 <updateLEDMatrix+0x734>)
 800088a:	f000 fed9 	bl	8001640 <HAL_GPIO_WritePin>
		HAL_GPIO_WritePin(ROW3_GPIO_Port, ROW3_Pin, ((matrix_buffer[5] >> 3) & 0x01));
 800088e:	4b20      	ldr	r3, [pc, #128]	; (8000910 <updateLEDMatrix+0x730>)
 8000890:	795b      	ldrb	r3, [r3, #5]
 8000892:	08db      	lsrs	r3, r3, #3
 8000894:	b2db      	uxtb	r3, r3
 8000896:	f003 0301 	and.w	r3, r3, #1
 800089a:	b2db      	uxtb	r3, r3
 800089c:	461a      	mov	r2, r3
 800089e:	f44f 6100 	mov.w	r1, #2048	; 0x800
 80008a2:	481c      	ldr	r0, [pc, #112]	; (8000914 <updateLEDMatrix+0x734>)
 80008a4:	f000 fecc 	bl	8001640 <HAL_GPIO_WritePin>
		HAL_GPIO_WritePin(ROW4_GPIO_Port, ROW4_Pin, ((matrix_buffer[5] >> 4) & 0x01));
 80008a8:	4b19      	ldr	r3, [pc, #100]	; (8000910 <updateLEDMatrix+0x730>)
 80008aa:	795b      	ldrb	r3, [r3, #5]
 80008ac:	091b      	lsrs	r3, r3, #4
 80008ae:	b2db      	uxtb	r3, r3
 80008b0:	f003 0301 	and.w	r3, r3, #1
 80008b4:	b2db      	uxtb	r3, r3
 80008b6:	461a      	mov	r2, r3
 80008b8:	f44f 5180 	mov.w	r1, #4096	; 0x1000
 80008bc:	4815      	ldr	r0, [pc, #84]	; (8000914 <updateLEDMatrix+0x734>)
 80008be:	f000 febf 	bl	8001640 <HAL_GPIO_WritePin>
		HAL_GPIO_WritePin(ROW5_GPIO_Port, ROW5_Pin, ((matrix_buffer[5] >> 5) & 0x01));
 80008c2:	4b13      	ldr	r3, [pc, #76]	; (8000910 <updateLEDMatrix+0x730>)
 80008c4:	795b      	ldrb	r3, [r3, #5]
 80008c6:	095b      	lsrs	r3, r3, #5
 80008c8:	b2db      	uxtb	r3, r3
 80008ca:	f003 0301 	and.w	r3, r3, #1
 80008ce:	b2db      	uxtb	r3, r3
 80008d0:	461a      	mov	r2, r3
 80008d2:	f44f 5100 	mov.w	r1, #8192	; 0x2000
 80008d6:	480f      	ldr	r0, [pc, #60]	; (8000914 <updateLEDMatrix+0x734>)
 80008d8:	f000 feb2 	bl	8001640 <HAL_GPIO_WritePin>
		HAL_GPIO_WritePin(ROW6_GPIO_Port, ROW6_Pin, ((matrix_buffer[5] >> 6) & 0x01));
 80008dc:	4b0c      	ldr	r3, [pc, #48]	; (8000910 <updateLEDMatrix+0x730>)
 80008de:	795b      	ldrb	r3, [r3, #5]
 80008e0:	099b      	lsrs	r3, r3, #6
 80008e2:	b2db      	uxtb	r3, r3
 80008e4:	f003 0301 	and.w	r3, r3, #1
 80008e8:	b2db      	uxtb	r3, r3
 80008ea:	461a      	mov	r2, r3
 80008ec:	f44f 4180 	mov.w	r1, #16384	; 0x4000
 80008f0:	4808      	ldr	r0, [pc, #32]	; (8000914 <updateLEDMatrix+0x734>)
 80008f2:	f000 fea5 	bl	8001640 <HAL_GPIO_WritePin>
		HAL_GPIO_WritePin(ROW7_GPIO_Port, ROW7_Pin, ((matrix_buffer[5] >> 7) & 0x01));
 80008f6:	4b06      	ldr	r3, [pc, #24]	; (8000910 <updateLEDMatrix+0x730>)
 80008f8:	795b      	ldrb	r3, [r3, #5]
 80008fa:	09db      	lsrs	r3, r3, #7
 80008fc:	b2db      	uxtb	r3, r3
 80008fe:	461a      	mov	r2, r3
 8000900:	f44f 4100 	mov.w	r1, #32768	; 0x8000
 8000904:	4803      	ldr	r0, [pc, #12]	; (8000914 <updateLEDMatrix+0x734>)
 8000906:	f000 fe9b 	bl	8001640 <HAL_GPIO_WritePin>
		break;
 800090a:	e12a      	b.n	8000b62 <updateLEDMatrix+0x982>
 800090c:	40010800 	.word	0x40010800
 8000910:	20000000 	.word	0x20000000
 8000914:	40010c00 	.word	0x40010c00
	case 6:
		/* Turn on col 0 with matrix_buffer[0], to turn on col -> reset*/
		HAL_GPIO_WritePin(ENM0_GPIO_Port, ENM0_Pin, GPIO_PIN_SET);
 8000918:	2201      	movs	r2, #1
 800091a:	2104      	movs	r1, #4
 800091c:	4893      	ldr	r0, [pc, #588]	; (8000b6c <updateLEDMatrix+0x98c>)
 800091e:	f000 fe8f 	bl	8001640 <HAL_GPIO_WritePin>
		HAL_GPIO_WritePin(ENM1_GPIO_Port, ENM1_Pin, GPIO_PIN_SET);
 8000922:	2201      	movs	r2, #1
 8000924:	2108      	movs	r1, #8
 8000926:	4891      	ldr	r0, [pc, #580]	; (8000b6c <updateLEDMatrix+0x98c>)
 8000928:	f000 fe8a 	bl	8001640 <HAL_GPIO_WritePin>
		HAL_GPIO_WritePin(ENM2_GPIO_Port, ENM2_Pin, GPIO_PIN_SET);
 800092c:	2201      	movs	r2, #1
 800092e:	f44f 6180 	mov.w	r1, #1024	; 0x400
 8000932:	488e      	ldr	r0, [pc, #568]	; (8000b6c <updateLEDMatrix+0x98c>)
 8000934:	f000 fe84 	bl	8001640 <HAL_GPIO_WritePin>
		HAL_GPIO_WritePin(ENM3_GPIO_Port, ENM3_Pin, GPIO_PIN_SET);
 8000938:	2201      	movs	r2, #1
 800093a:	f44f 6100 	mov.w	r1, #2048	; 0x800
 800093e:	488b      	ldr	r0, [pc, #556]	; (8000b6c <updateLEDMatrix+0x98c>)
 8000940:	f000 fe7e 	bl	8001640 <HAL_GPIO_WritePin>
		HAL_GPIO_WritePin(ENM4_GPIO_Port, ENM4_Pin, GPIO_PIN_SET);
 8000944:	2201      	movs	r2, #1
 8000946:	f44f 5180 	mov.w	r1, #4096	; 0x1000
 800094a:	4888      	ldr	r0, [pc, #544]	; (8000b6c <updateLEDMatrix+0x98c>)
 800094c:	f000 fe78 	bl	8001640 <HAL_GPIO_WritePin>
		HAL_GPIO_WritePin(ENM5_GPIO_Port, ENM5_Pin, GPIO_PIN_SET);
 8000950:	2201      	movs	r2, #1
 8000952:	f44f 5100 	mov.w	r1, #8192	; 0x2000
 8000956:	4885      	ldr	r0, [pc, #532]	; (8000b6c <updateLEDMatrix+0x98c>)
 8000958:	f000 fe72 	bl	8001640 <HAL_GPIO_WritePin>
		HAL_GPIO_WritePin(ENM6_GPIO_Port, ENM6_Pin, GPIO_PIN_RESET);
 800095c:	2200      	movs	r2, #0
 800095e:	f44f 4180 	mov.w	r1, #16384	; 0x4000
 8000962:	4882      	ldr	r0, [pc, #520]	; (8000b6c <updateLEDMatrix+0x98c>)
 8000964:	f000 fe6c 	bl	8001640 <HAL_GPIO_WritePin>
		HAL_GPIO_WritePin(ENM7_GPIO_Port, ENM7_Pin, GPIO_PIN_SET);
 8000968:	2201      	movs	r2, #1
 800096a:	f44f 4100 	mov.w	r1, #32768	; 0x8000
 800096e:	487f      	ldr	r0, [pc, #508]	; (8000b6c <updateLEDMatrix+0x98c>)
 8000970:	f000 fe66 	bl	8001640 <HAL_GPIO_WritePin>

		/* Turn on rows based on buffer_matrix[0], to turn on row -> reset*/
		HAL_GPIO_WritePin(ROW0_GPIO_Port, ROW0_Pin, ((matrix_buffer[6] >> 0) & 0x01));
 8000974:	4b7e      	ldr	r3, [pc, #504]	; (8000b70 <updateLEDMatrix+0x990>)
 8000976:	799b      	ldrb	r3, [r3, #6]
 8000978:	f003 0301 	and.w	r3, r3, #1
 800097c:	b2db      	uxtb	r3, r3
 800097e:	461a      	mov	r2, r3
 8000980:	f44f 7180 	mov.w	r1, #256	; 0x100
 8000984:	487b      	ldr	r0, [pc, #492]	; (8000b74 <updateLEDMatrix+0x994>)
 8000986:	f000 fe5b 	bl	8001640 <HAL_GPIO_WritePin>
		HAL_GPIO_WritePin(ROW1_GPIO_Port, ROW1_Pin, ((matrix_buffer[6] >> 1) & 0x01));
 800098a:	4b79      	ldr	r3, [pc, #484]	; (8000b70 <updateLEDMatrix+0x990>)
 800098c:	799b      	ldrb	r3, [r3, #6]
 800098e:	085b      	lsrs	r3, r3, #1
 8000990:	b2db      	uxtb	r3, r3
 8000992:	f003 0301 	and.w	r3, r3, #1
 8000996:	b2db      	uxtb	r3, r3
 8000998:	461a      	mov	r2, r3
 800099a:	f44f 7100 	mov.w	r1, #512	; 0x200
 800099e:	4875      	ldr	r0, [pc, #468]	; (8000b74 <updateLEDMatrix+0x994>)
 80009a0:	f000 fe4e 	bl	8001640 <HAL_GPIO_WritePin>
		HAL_GPIO_WritePin(ROW2_GPIO_Port, ROW2_Pin, ((matrix_buffer[6] >> 2) & 0x01));
 80009a4:	4b72      	ldr	r3, [pc, #456]	; (8000b70 <updateLEDMatrix+0x990>)
 80009a6:	799b      	ldrb	r3, [r3, #6]
 80009a8:	089b      	lsrs	r3, r3, #2
 80009aa:	b2db      	uxtb	r3, r3
 80009ac:	f003 0301 	and.w	r3, r3, #1
 80009b0:	b2db      	uxtb	r3, r3
 80009b2:	461a      	mov	r2, r3
 80009b4:	f44f 6180 	mov.w	r1, #1024	; 0x400
 80009b8:	486e      	ldr	r0, [pc, #440]	; (8000b74 <updateLEDMatrix+0x994>)
 80009ba:	f000 fe41 	bl	8001640 <HAL_GPIO_WritePin>
		HAL_GPIO_WritePin(ROW3_GPIO_Port, ROW3_Pin, ((matrix_buffer[6] >> 3) & 0x01));
 80009be:	4b6c      	ldr	r3, [pc, #432]	; (8000b70 <updateLEDMatrix+0x990>)
 80009c0:	799b      	ldrb	r3, [r3, #6]
 80009c2:	08db      	lsrs	r3, r3, #3
 80009c4:	b2db      	uxtb	r3, r3
 80009c6:	f003 0301 	and.w	r3, r3, #1
 80009ca:	b2db      	uxtb	r3, r3
 80009cc:	461a      	mov	r2, r3
 80009ce:	f44f 6100 	mov.w	r1, #2048	; 0x800
 80009d2:	4868      	ldr	r0, [pc, #416]	; (8000b74 <updateLEDMatrix+0x994>)
 80009d4:	f000 fe34 	bl	8001640 <HAL_GPIO_WritePin>
		HAL_GPIO_WritePin(ROW4_GPIO_Port, ROW4_Pin, ((matrix_buffer[6] >> 4) & 0x01));
 80009d8:	4b65      	ldr	r3, [pc, #404]	; (8000b70 <updateLEDMatrix+0x990>)
 80009da:	799b      	ldrb	r3, [r3, #6]
 80009dc:	091b      	lsrs	r3, r3, #4
 80009de:	b2db      	uxtb	r3, r3
 80009e0:	f003 0301 	and.w	r3, r3, #1
 80009e4:	b2db      	uxtb	r3, r3
 80009e6:	461a      	mov	r2, r3
 80009e8:	f44f 5180 	mov.w	r1, #4096	; 0x1000
 80009ec:	4861      	ldr	r0, [pc, #388]	; (8000b74 <updateLEDMatrix+0x994>)
 80009ee:	f000 fe27 	bl	8001640 <HAL_GPIO_WritePin>
		HAL_GPIO_WritePin(ROW5_GPIO_Port, ROW5_Pin, ((matrix_buffer[6] >> 5) & 0x01));
 80009f2:	4b5f      	ldr	r3, [pc, #380]	; (8000b70 <updateLEDMatrix+0x990>)
 80009f4:	799b      	ldrb	r3, [r3, #6]
 80009f6:	095b      	lsrs	r3, r3, #5
 80009f8:	b2db      	uxtb	r3, r3
 80009fa:	f003 0301 	and.w	r3, r3, #1
 80009fe:	b2db      	uxtb	r3, r3
 8000a00:	461a      	mov	r2, r3
 8000a02:	f44f 5100 	mov.w	r1, #8192	; 0x2000
 8000a06:	485b      	ldr	r0, [pc, #364]	; (8000b74 <updateLEDMatrix+0x994>)
 8000a08:	f000 fe1a 	bl	8001640 <HAL_GPIO_WritePin>
		HAL_GPIO_WritePin(ROW6_GPIO_Port, ROW6_Pin, ((matrix_buffer[6] >> 6) & 0x01));
 8000a0c:	4b58      	ldr	r3, [pc, #352]	; (8000b70 <updateLEDMatrix+0x990>)
 8000a0e:	799b      	ldrb	r3, [r3, #6]
 8000a10:	099b      	lsrs	r3, r3, #6
 8000a12:	b2db      	uxtb	r3, r3
 8000a14:	f003 0301 	and.w	r3, r3, #1
 8000a18:	b2db      	uxtb	r3, r3
 8000a1a:	461a      	mov	r2, r3
 8000a1c:	f44f 4180 	mov.w	r1, #16384	; 0x4000
 8000a20:	4854      	ldr	r0, [pc, #336]	; (8000b74 <updateLEDMatrix+0x994>)
 8000a22:	f000 fe0d 	bl	8001640 <HAL_GPIO_WritePin>
		HAL_GPIO_WritePin(ROW7_GPIO_Port, ROW7_Pin, ((matrix_buffer[6] >> 7) & 0x01));
 8000a26:	4b52      	ldr	r3, [pc, #328]	; (8000b70 <updateLEDMatrix+0x990>)
 8000a28:	799b      	ldrb	r3, [r3, #6]
 8000a2a:	09db      	lsrs	r3, r3, #7
 8000a2c:	b2db      	uxtb	r3, r3
 8000a2e:	461a      	mov	r2, r3
 8000a30:	f44f 4100 	mov.w	r1, #32768	; 0x8000
 8000a34:	484f      	ldr	r0, [pc, #316]	; (8000b74 <updateLEDMatrix+0x994>)
 8000a36:	f000 fe03 	bl	8001640 <HAL_GPIO_WritePin>
		break;
 8000a3a:	e092      	b.n	8000b62 <updateLEDMatrix+0x982>
	case 7:
		/* Turn on col 0 with matrix_buffer[0], to turn on col -> reset*/
		HAL_GPIO_WritePin(ENM0_GPIO_Port, ENM0_Pin, GPIO_PIN_SET);
 8000a3c:	2201      	movs	r2, #1
 8000a3e:	2104      	movs	r1, #4
 8000a40:	484a      	ldr	r0, [pc, #296]	; (8000b6c <updateLEDMatrix+0x98c>)
 8000a42:	f000 fdfd 	bl	8001640 <HAL_GPIO_WritePin>
		HAL_GPIO_WritePin(ENM1_GPIO_Port, ENM1_Pin, GPIO_PIN_SET);
 8000a46:	2201      	movs	r2, #1
 8000a48:	2108      	movs	r1, #8
 8000a4a:	4848      	ldr	r0, [pc, #288]	; (8000b6c <updateLEDMatrix+0x98c>)
 8000a4c:	f000 fdf8 	bl	8001640 <HAL_GPIO_WritePin>
		HAL_GPIO_WritePin(ENM2_GPIO_Port, ENM2_Pin, GPIO_PIN_SET);
 8000a50:	2201      	movs	r2, #1
 8000a52:	f44f 6180 	mov.w	r1, #1024	; 0x400
 8000a56:	4845      	ldr	r0, [pc, #276]	; (8000b6c <updateLEDMatrix+0x98c>)
 8000a58:	f000 fdf2 	bl	8001640 <HAL_GPIO_WritePin>
		HAL_GPIO_WritePin(ENM3_GPIO_Port, ENM3_Pin, GPIO_PIN_SET);
 8000a5c:	2201      	movs	r2, #1
 8000a5e:	f44f 6100 	mov.w	r1, #2048	; 0x800
 8000a62:	4842      	ldr	r0, [pc, #264]	; (8000b6c <updateLEDMatrix+0x98c>)
 8000a64:	f000 fdec 	bl	8001640 <HAL_GPIO_WritePin>
		HAL_GPIO_WritePin(ENM4_GPIO_Port, ENM4_Pin, GPIO_PIN_SET);
 8000a68:	2201      	movs	r2, #1
 8000a6a:	f44f 5180 	mov.w	r1, #4096	; 0x1000
 8000a6e:	483f      	ldr	r0, [pc, #252]	; (8000b6c <updateLEDMatrix+0x98c>)
 8000a70:	f000 fde6 	bl	8001640 <HAL_GPIO_WritePin>
		HAL_GPIO_WritePin(ENM5_GPIO_Port, ENM5_Pin, GPIO_PIN_SET);
 8000a74:	2201      	movs	r2, #1
 8000a76:	f44f 5100 	mov.w	r1, #8192	; 0x2000
 8000a7a:	483c      	ldr	r0, [pc, #240]	; (8000b6c <updateLEDMatrix+0x98c>)
 8000a7c:	f000 fde0 	bl	8001640 <HAL_GPIO_WritePin>
		HAL_GPIO_WritePin(ENM6_GPIO_Port, ENM6_Pin, GPIO_PIN_SET);
 8000a80:	2201      	movs	r2, #1
 8000a82:	f44f 4180 	mov.w	r1, #16384	; 0x4000
 8000a86:	4839      	ldr	r0, [pc, #228]	; (8000b6c <updateLEDMatrix+0x98c>)
 8000a88:	f000 fdda 	bl	8001640 <HAL_GPIO_WritePin>
		HAL_GPIO_WritePin(ENM7_GPIO_Port, ENM7_Pin, GPIO_PIN_RESET);
 8000a8c:	2200      	movs	r2, #0
 8000a8e:	f44f 4100 	mov.w	r1, #32768	; 0x8000
 8000a92:	4836      	ldr	r0, [pc, #216]	; (8000b6c <updateLEDMatrix+0x98c>)
 8000a94:	f000 fdd4 	bl	8001640 <HAL_GPIO_WritePin>

		/* Turn on rows based on buffer_matrix[0], to turn on row -> reset*/
		HAL_GPIO_WritePin(ROW0_GPIO_Port, ROW0_Pin, ((matrix_buffer[7] >> 0) & 0x01));
 8000a98:	4b35      	ldr	r3, [pc, #212]	; (8000b70 <updateLEDMatrix+0x990>)
 8000a9a:	79db      	ldrb	r3, [r3, #7]
 8000a9c:	f003 0301 	and.w	r3, r3, #1
 8000aa0:	b2db      	uxtb	r3, r3
 8000aa2:	461a      	mov	r2, r3
 8000aa4:	f44f 7180 	mov.w	r1, #256	; 0x100
 8000aa8:	4832      	ldr	r0, [pc, #200]	; (8000b74 <updateLEDMatrix+0x994>)
 8000aaa:	f000 fdc9 	bl	8001640 <HAL_GPIO_WritePin>
		HAL_GPIO_WritePin(ROW1_GPIO_Port, ROW1_Pin, ((matrix_buffer[7] >> 1) & 0x01));
 8000aae:	4b30      	ldr	r3, [pc, #192]	; (8000b70 <updateLEDMatrix+0x990>)
 8000ab0:	79db      	ldrb	r3, [r3, #7]
 8000ab2:	085b      	lsrs	r3, r3, #1
 8000ab4:	b2db      	uxtb	r3, r3
 8000ab6:	f003 0301 	and.w	r3, r3, #1
 8000aba:	b2db      	uxtb	r3, r3
 8000abc:	461a      	mov	r2, r3
 8000abe:	f44f 7100 	mov.w	r1, #512	; 0x200
 8000ac2:	482c      	ldr	r0, [pc, #176]	; (8000b74 <updateLEDMatrix+0x994>)
 8000ac4:	f000 fdbc 	bl	8001640 <HAL_GPIO_WritePin>
		HAL_GPIO_WritePin(ROW2_GPIO_Port, ROW2_Pin, ((matrix_buffer[7] >> 2) & 0x01));
 8000ac8:	4b29      	ldr	r3, [pc, #164]	; (8000b70 <updateLEDMatrix+0x990>)
 8000aca:	79db      	ldrb	r3, [r3, #7]
 8000acc:	089b      	lsrs	r3, r3, #2
 8000ace:	b2db      	uxtb	r3, r3
 8000ad0:	f003 0301 	and.w	r3, r3, #1
 8000ad4:	b2db      	uxtb	r3, r3
 8000ad6:	461a      	mov	r2, r3
 8000ad8:	f44f 6180 	mov.w	r1, #1024	; 0x400
 8000adc:	4825      	ldr	r0, [pc, #148]	; (8000b74 <updateLEDMatrix+0x994>)
 8000ade:	f000 fdaf 	bl	8001640 <HAL_GPIO_WritePin>
		HAL_GPIO_WritePin(ROW3_GPIO_Port, ROW3_Pin, ((matrix_buffer[7] >> 3) & 0x01));
 8000ae2:	4b23      	ldr	r3, [pc, #140]	; (8000b70 <updateLEDMatrix+0x990>)
 8000ae4:	79db      	ldrb	r3, [r3, #7]
 8000ae6:	08db      	lsrs	r3, r3, #3
 8000ae8:	b2db      	uxtb	r3, r3
 8000aea:	f003 0301 	and.w	r3, r3, #1
 8000aee:	b2db      	uxtb	r3, r3
 8000af0:	461a      	mov	r2, r3
 8000af2:	f44f 6100 	mov.w	r1, #2048	; 0x800
 8000af6:	481f      	ldr	r0, [pc, #124]	; (8000b74 <updateLEDMatrix+0x994>)
 8000af8:	f000 fda2 	bl	8001640 <HAL_GPIO_WritePin>
		HAL_GPIO_WritePin(ROW4_GPIO_Port, ROW4_Pin, ((matrix_buffer[7] >> 4) & 0x01));
 8000afc:	4b1c      	ldr	r3, [pc, #112]	; (8000b70 <updateLEDMatrix+0x990>)
 8000afe:	79db      	ldrb	r3, [r3, #7]
 8000b00:	091b      	lsrs	r3, r3, #4
 8000b02:	b2db      	uxtb	r3, r3
 8000b04:	f003 0301 	and.w	r3, r3, #1
 8000b08:	b2db      	uxtb	r3, r3
 8000b0a:	461a      	mov	r2, r3
 8000b0c:	f44f 5180 	mov.w	r1, #4096	; 0x1000
 8000b10:	4818      	ldr	r0, [pc, #96]	; (8000b74 <updateLEDMatrix+0x994>)
 8000b12:	f000 fd95 	bl	8001640 <HAL_GPIO_WritePin>
		HAL_GPIO_WritePin(ROW5_GPIO_Port, ROW5_Pin, ((matrix_buffer[7] >> 5) & 0x01));
 8000b16:	4b16      	ldr	r3, [pc, #88]	; (8000b70 <updateLEDMatrix+0x990>)
 8000b18:	79db      	ldrb	r3, [r3, #7]
 8000b1a:	095b      	lsrs	r3, r3, #5
 8000b1c:	b2db      	uxtb	r3, r3
 8000b1e:	f003 0301 	and.w	r3, r3, #1
 8000b22:	b2db      	uxtb	r3, r3
 8000b24:	461a      	mov	r2, r3
 8000b26:	f44f 5100 	mov.w	r1, #8192	; 0x2000
 8000b2a:	4812      	ldr	r0, [pc, #72]	; (8000b74 <updateLEDMatrix+0x994>)
 8000b2c:	f000 fd88 	bl	8001640 <HAL_GPIO_WritePin>
		HAL_GPIO_WritePin(ROW6_GPIO_Port, ROW6_Pin, ((matrix_buffer[7] >> 6) & 0x01));
 8000b30:	4b0f      	ldr	r3, [pc, #60]	; (8000b70 <updateLEDMatrix+0x990>)
 8000b32:	79db      	ldrb	r3, [r3, #7]
 8000b34:	099b      	lsrs	r3, r3, #6
 8000b36:	b2db      	uxtb	r3, r3
 8000b38:	f003 0301 	and.w	r3, r3, #1
 8000b3c:	b2db      	uxtb	r3, r3
 8000b3e:	461a      	mov	r2, r3
 8000b40:	f44f 4180 	mov.w	r1, #16384	; 0x4000
 8000b44:	480b      	ldr	r0, [pc, #44]	; (8000b74 <updateLEDMatrix+0x994>)
 8000b46:	f000 fd7b 	bl	8001640 <HAL_GPIO_WritePin>
		HAL_GPIO_WritePin(ROW7_GPIO_Port, ROW7_Pin, ((matrix_buffer[7] >> 7) & 0x01));
 8000b4a:	4b09      	ldr	r3, [pc, #36]	; (8000b70 <updateLEDMatrix+0x990>)
 8000b4c:	79db      	ldrb	r3, [r3, #7]
 8000b4e:	09db      	lsrs	r3, r3, #7
 8000b50:	b2db      	uxtb	r3, r3
 8000b52:	461a      	mov	r2, r3
 8000b54:	f44f 4100 	mov.w	r1, #32768	; 0x8000
 8000b58:	4806      	ldr	r0, [pc, #24]	; (8000b74 <updateLEDMatrix+0x994>)
 8000b5a:	f000 fd71 	bl	8001640 <HAL_GPIO_WritePin>
		break;
 8000b5e:	e000      	b.n	8000b62 <updateLEDMatrix+0x982>
	default:
		break;
 8000b60:	bf00      	nop
	}
}
 8000b62:	bf00      	nop
 8000b64:	3708      	adds	r7, #8
 8000b66:	46bd      	mov	sp, r7
 8000b68:	bd80      	pop	{r7, pc}
 8000b6a:	bf00      	nop
 8000b6c:	40010800 	.word	0x40010800
 8000b70:	20000000 	.word	0x20000000
 8000b74:	40010c00 	.word	0x40010c00

08000b78 <main>:
/**
  * @brief  The application entry point.
  * @retval int
  */
int main(void)
{
 8000b78:	b580      	push	{r7, lr}
 8000b7a:	af00      	add	r7, sp, #0
  /* USER CODE END 1 */

  /* MCU Configuration--------------------------------------------------------*/

  /* Reset of all peripherals, Initializes the Flash interface and the Systick. */
  HAL_Init();
 8000b7c:	f000 fa74 	bl	8001068 <HAL_Init>
  /* USER CODE BEGIN Init */

  /* USER CODE END Init */

  /* Configure the system clock */
  SystemClock_Config();
 8000b80:	f000 f836 	bl	8000bf0 <SystemClock_Config>
  /* USER CODE BEGIN SysInit */

  /* USER CODE END SysInit */

  /* Initialize all configured peripherals */
  MX_GPIO_Init();
 8000b84:	f000 f8bc 	bl	8000d00 <MX_GPIO_Init>
  MX_TIM2_Init();
 8000b88:	f000 f86e 	bl	8000c68 <MX_TIM2_Init>
  /* USER CODE BEGIN 2 */
  HAL_TIM_Base_Start_IT(& htim2); /*function to initialize the timer*/
 8000b8c:	4814      	ldr	r0, [pc, #80]	; (8000be0 <main+0x68>)
 8000b8e:	f001 f99d 	bl	8001ecc <HAL_TIM_Base_Start_IT>
  /* USER CODE END 2 */

  /* Infinite loop */
  /* USER CODE BEGIN WHILE */
  setTimer4(1000);
 8000b92:	f44f 707a 	mov.w	r0, #1000	; 0x3e8
 8000b96:	f000 f951 	bl	8000e3c <setTimer4>
  /* Setupt for led matrix*/
  index_led_matrix = 0;
 8000b9a:	4b12      	ldr	r3, [pc, #72]	; (8000be4 <main+0x6c>)
 8000b9c:	2200      	movs	r2, #0
 8000b9e:	601a      	str	r2, [r3, #0]
  setTimer2(250);
 8000ba0:	20fa      	movs	r0, #250	; 0xfa
 8000ba2:	f000 f92f 	bl	8000e04 <setTimer2>
  while (1)
  {
	  /*********************************************************************************
	   EXERCISE 05
	  *********************************************************************************/
	  blink_led();
 8000ba6:	f7ff fad1 	bl	800014c <blink_led>
//	  DigitalClock();
//	  scan_led(clock_buffer);
	  /*********************************************************************************
	  EXERCISE 09
	  *********************************************************************************/
	  updateLEDMatrix(index_led_matrix);
 8000baa:	4b0e      	ldr	r3, [pc, #56]	; (8000be4 <main+0x6c>)
 8000bac:	681b      	ldr	r3, [r3, #0]
 8000bae:	4618      	mov	r0, r3
 8000bb0:	f7ff fb16 	bl	80001e0 <updateLEDMatrix>
	  if(timer2_flag == 1)
 8000bb4:	4b0c      	ldr	r3, [pc, #48]	; (8000be8 <main+0x70>)
 8000bb6:	681b      	ldr	r3, [r3, #0]
 8000bb8:	2b01      	cmp	r3, #1
 8000bba:	d1f4      	bne.n	8000ba6 <main+0x2e>
	  {
		  setTimer2(250);
 8000bbc:	20fa      	movs	r0, #250	; 0xfa
 8000bbe:	f000 f921 	bl	8000e04 <setTimer2>
		  index_led_matrix++;
 8000bc2:	4b08      	ldr	r3, [pc, #32]	; (8000be4 <main+0x6c>)
 8000bc4:	681b      	ldr	r3, [r3, #0]
 8000bc6:	3301      	adds	r3, #1
 8000bc8:	4a06      	ldr	r2, [pc, #24]	; (8000be4 <main+0x6c>)
 8000bca:	6013      	str	r3, [r2, #0]
		  if(index_led_matrix >= MAX_LED_MATRIX)
 8000bcc:	4b05      	ldr	r3, [pc, #20]	; (8000be4 <main+0x6c>)
 8000bce:	681a      	ldr	r2, [r3, #0]
 8000bd0:	4b06      	ldr	r3, [pc, #24]	; (8000bec <main+0x74>)
 8000bd2:	681b      	ldr	r3, [r3, #0]
 8000bd4:	429a      	cmp	r2, r3
 8000bd6:	dbe6      	blt.n	8000ba6 <main+0x2e>
		  {
			  index_led_matrix = 0;
 8000bd8:	4b02      	ldr	r3, [pc, #8]	; (8000be4 <main+0x6c>)
 8000bda:	2200      	movs	r2, #0
 8000bdc:	601a      	str	r2, [r3, #0]
	  blink_led();
 8000bde:	e7e2      	b.n	8000ba6 <main+0x2e>
 8000be0:	20000038 	.word	0x20000038
 8000be4:	20000034 	.word	0x20000034
 8000be8:	2000008c 	.word	0x2000008c
 8000bec:	0800266c 	.word	0x0800266c

08000bf0 <SystemClock_Config>:
/**
  * @brief System Clock Configuration
  * @retval None
  */
void SystemClock_Config(void)
{
 8000bf0:	b580      	push	{r7, lr}
 8000bf2:	b090      	sub	sp, #64	; 0x40
 8000bf4:	af00      	add	r7, sp, #0
  RCC_OscInitTypeDef RCC_OscInitStruct = {0};
 8000bf6:	f107 0318 	add.w	r3, r7, #24
 8000bfa:	2228      	movs	r2, #40	; 0x28
 8000bfc:	2100      	movs	r1, #0
 8000bfe:	4618      	mov	r0, r3
 8000c00:	f001 fd20 	bl	8002644 <memset>
  RCC_ClkInitTypeDef RCC_ClkInitStruct = {0};
 8000c04:	1d3b      	adds	r3, r7, #4
 8000c06:	2200      	movs	r2, #0
 8000c08:	601a      	str	r2, [r3, #0]
 8000c0a:	605a      	str	r2, [r3, #4]
 8000c0c:	609a      	str	r2, [r3, #8]
 8000c0e:	60da      	str	r2, [r3, #12]
 8000c10:	611a      	str	r2, [r3, #16]

  /** Initializes the RCC Oscillators according to the specified parameters
  * in the RCC_OscInitTypeDef structure.
  */
  RCC_OscInitStruct.OscillatorType = RCC_OSCILLATORTYPE_HSI;
 8000c12:	2302      	movs	r3, #2
 8000c14:	61bb      	str	r3, [r7, #24]
  RCC_OscInitStruct.HSIState = RCC_HSI_ON;
 8000c16:	2301      	movs	r3, #1
 8000c18:	62bb      	str	r3, [r7, #40]	; 0x28
  RCC_OscInitStruct.HSICalibrationValue = RCC_HSICALIBRATION_DEFAULT;
 8000c1a:	2310      	movs	r3, #16
 8000c1c:	62fb      	str	r3, [r7, #44]	; 0x2c
  RCC_OscInitStruct.PLL.PLLState = RCC_PLL_NONE;
 8000c1e:	2300      	movs	r3, #0
 8000c20:	637b      	str	r3, [r7, #52]	; 0x34
  if (HAL_RCC_OscConfig(&RCC_OscInitStruct) != HAL_OK)
 8000c22:	f107 0318 	add.w	r3, r7, #24
 8000c26:	4618      	mov	r0, r3
 8000c28:	f000 fd22 	bl	8001670 <HAL_RCC_OscConfig>
 8000c2c:	4603      	mov	r3, r0
 8000c2e:	2b00      	cmp	r3, #0
 8000c30:	d001      	beq.n	8000c36 <SystemClock_Config+0x46>
  {
    Error_Handler();
 8000c32:	f000 f8c5 	bl	8000dc0 <Error_Handler>
  }

  /** Initializes the CPU, AHB and APB buses clocks
  */
  RCC_ClkInitStruct.ClockType = RCC_CLOCKTYPE_HCLK|RCC_CLOCKTYPE_SYSCLK
 8000c36:	230f      	movs	r3, #15
 8000c38:	607b      	str	r3, [r7, #4]
                              |RCC_CLOCKTYPE_PCLK1|RCC_CLOCKTYPE_PCLK2;
  RCC_ClkInitStruct.SYSCLKSource = RCC_SYSCLKSOURCE_HSI;
 8000c3a:	2300      	movs	r3, #0
 8000c3c:	60bb      	str	r3, [r7, #8]
  RCC_ClkInitStruct.AHBCLKDivider = RCC_SYSCLK_DIV1;
 8000c3e:	2300      	movs	r3, #0
 8000c40:	60fb      	str	r3, [r7, #12]
  RCC_ClkInitStruct.APB1CLKDivider = RCC_HCLK_DIV1;
 8000c42:	2300      	movs	r3, #0
 8000c44:	613b      	str	r3, [r7, #16]
  RCC_ClkInitStruct.APB2CLKDivider = RCC_HCLK_DIV1;
 8000c46:	2300      	movs	r3, #0
 8000c48:	617b      	str	r3, [r7, #20]

  if (HAL_RCC_ClockConfig(&RCC_ClkInitStruct, FLASH_LATENCY_0) != HAL_OK)
 8000c4a:	1d3b      	adds	r3, r7, #4
 8000c4c:	2100      	movs	r1, #0
 8000c4e:	4618      	mov	r0, r3
 8000c50:	f000 ff90 	bl	8001b74 <HAL_RCC_ClockConfig>
 8000c54:	4603      	mov	r3, r0
 8000c56:	2b00      	cmp	r3, #0
 8000c58:	d001      	beq.n	8000c5e <SystemClock_Config+0x6e>
  {
    Error_Handler();
 8000c5a:	f000 f8b1 	bl	8000dc0 <Error_Handler>
  }
}
 8000c5e:	bf00      	nop
 8000c60:	3740      	adds	r7, #64	; 0x40
 8000c62:	46bd      	mov	sp, r7
 8000c64:	bd80      	pop	{r7, pc}
	...

08000c68 <MX_TIM2_Init>:
  * @brief TIM2 Initialization Function
  * @param None
  * @retval None
  */
static void MX_TIM2_Init(void)
{
 8000c68:	b580      	push	{r7, lr}
 8000c6a:	b086      	sub	sp, #24
 8000c6c:	af00      	add	r7, sp, #0

  /* USER CODE BEGIN TIM2_Init 0 */

  /* USER CODE END TIM2_Init 0 */

  TIM_ClockConfigTypeDef sClockSourceConfig = {0};
 8000c6e:	f107 0308 	add.w	r3, r7, #8
 8000c72:	2200      	movs	r2, #0
 8000c74:	601a      	str	r2, [r3, #0]
 8000c76:	605a      	str	r2, [r3, #4]
 8000c78:	609a      	str	r2, [r3, #8]
 8000c7a:	60da      	str	r2, [r3, #12]
  TIM_MasterConfigTypeDef sMasterConfig = {0};
 8000c7c:	463b      	mov	r3, r7
 8000c7e:	2200      	movs	r2, #0
 8000c80:	601a      	str	r2, [r3, #0]
 8000c82:	605a      	str	r2, [r3, #4]

  /* USER CODE BEGIN TIM2_Init 1 */

  /* USER CODE END TIM2_Init 1 */
  htim2.Instance = TIM2;
 8000c84:	4b1d      	ldr	r3, [pc, #116]	; (8000cfc <MX_TIM2_Init+0x94>)
 8000c86:	f04f 4280 	mov.w	r2, #1073741824	; 0x40000000
 8000c8a:	601a      	str	r2, [r3, #0]
  htim2.Init.Prescaler = 7999;
 8000c8c:	4b1b      	ldr	r3, [pc, #108]	; (8000cfc <MX_TIM2_Init+0x94>)
 8000c8e:	f641 723f 	movw	r2, #7999	; 0x1f3f
 8000c92:	605a      	str	r2, [r3, #4]
  htim2.Init.CounterMode = TIM_COUNTERMODE_UP;
 8000c94:	4b19      	ldr	r3, [pc, #100]	; (8000cfc <MX_TIM2_Init+0x94>)
 8000c96:	2200      	movs	r2, #0
 8000c98:	609a      	str	r2, [r3, #8]
  htim2.Init.Period = 9;
 8000c9a:	4b18      	ldr	r3, [pc, #96]	; (8000cfc <MX_TIM2_Init+0x94>)
 8000c9c:	2209      	movs	r2, #9
 8000c9e:	60da      	str	r2, [r3, #12]
  htim2.Init.ClockDivision = TIM_CLOCKDIVISION_DIV1;
 8000ca0:	4b16      	ldr	r3, [pc, #88]	; (8000cfc <MX_TIM2_Init+0x94>)
 8000ca2:	2200      	movs	r2, #0
 8000ca4:	611a      	str	r2, [r3, #16]
  htim2.Init.AutoReloadPreload = TIM_AUTORELOAD_PRELOAD_DISABLE;
 8000ca6:	4b15      	ldr	r3, [pc, #84]	; (8000cfc <MX_TIM2_Init+0x94>)
 8000ca8:	2200      	movs	r2, #0
 8000caa:	619a      	str	r2, [r3, #24]
  if (HAL_TIM_Base_Init(&htim2) != HAL_OK)
 8000cac:	4813      	ldr	r0, [pc, #76]	; (8000cfc <MX_TIM2_Init+0x94>)
 8000cae:	f001 f8bd 	bl	8001e2c <HAL_TIM_Base_Init>
 8000cb2:	4603      	mov	r3, r0
 8000cb4:	2b00      	cmp	r3, #0
 8000cb6:	d001      	beq.n	8000cbc <MX_TIM2_Init+0x54>
  {
    Error_Handler();
 8000cb8:	f000 f882 	bl	8000dc0 <Error_Handler>
  }
  sClockSourceConfig.ClockSource = TIM_CLOCKSOURCE_INTERNAL;
 8000cbc:	f44f 5380 	mov.w	r3, #4096	; 0x1000
 8000cc0:	60bb      	str	r3, [r7, #8]
  if (HAL_TIM_ConfigClockSource(&htim2, &sClockSourceConfig) != HAL_OK)
 8000cc2:	f107 0308 	add.w	r3, r7, #8
 8000cc6:	4619      	mov	r1, r3
 8000cc8:	480c      	ldr	r0, [pc, #48]	; (8000cfc <MX_TIM2_Init+0x94>)
 8000cca:	f001 fa53 	bl	8002174 <HAL_TIM_ConfigClockSource>
 8000cce:	4603      	mov	r3, r0
 8000cd0:	2b00      	cmp	r3, #0
 8000cd2:	d001      	beq.n	8000cd8 <MX_TIM2_Init+0x70>
  {
    Error_Handler();
 8000cd4:	f000 f874 	bl	8000dc0 <Error_Handler>
  }
  sMasterConfig.MasterOutputTrigger = TIM_TRGO_RESET;
 8000cd8:	2300      	movs	r3, #0
 8000cda:	603b      	str	r3, [r7, #0]
  sMasterConfig.MasterSlaveMode = TIM_MASTERSLAVEMODE_DISABLE;
 8000cdc:	2300      	movs	r3, #0
 8000cde:	607b      	str	r3, [r7, #4]
  if (HAL_TIMEx_MasterConfigSynchronization(&htim2, &sMasterConfig) != HAL_OK)
 8000ce0:	463b      	mov	r3, r7
 8000ce2:	4619      	mov	r1, r3
 8000ce4:	4805      	ldr	r0, [pc, #20]	; (8000cfc <MX_TIM2_Init+0x94>)
 8000ce6:	f001 fc1f 	bl	8002528 <HAL_TIMEx_MasterConfigSynchronization>
 8000cea:	4603      	mov	r3, r0
 8000cec:	2b00      	cmp	r3, #0
 8000cee:	d001      	beq.n	8000cf4 <MX_TIM2_Init+0x8c>
  {
    Error_Handler();
 8000cf0:	f000 f866 	bl	8000dc0 <Error_Handler>
  }
  /* USER CODE BEGIN TIM2_Init 2 */

  /* USER CODE END TIM2_Init 2 */

}
 8000cf4:	bf00      	nop
 8000cf6:	3718      	adds	r7, #24
 8000cf8:	46bd      	mov	sp, r7
 8000cfa:	bd80      	pop	{r7, pc}
 8000cfc:	20000038 	.word	0x20000038

08000d00 <MX_GPIO_Init>:
  * @brief GPIO Initialization Function
  * @param None
  * @retval None
  */
static void MX_GPIO_Init(void)
{
 8000d00:	b580      	push	{r7, lr}
 8000d02:	b086      	sub	sp, #24
 8000d04:	af00      	add	r7, sp, #0
  GPIO_InitTypeDef GPIO_InitStruct = {0};
 8000d06:	f107 0308 	add.w	r3, r7, #8
 8000d0a:	2200      	movs	r2, #0
 8000d0c:	601a      	str	r2, [r3, #0]
 8000d0e:	605a      	str	r2, [r3, #4]
 8000d10:	609a      	str	r2, [r3, #8]
 8000d12:	60da      	str	r2, [r3, #12]
/* USER CODE BEGIN MX_GPIO_Init_1 */
/* USER CODE END MX_GPIO_Init_1 */

  /* GPIO Ports Clock Enable */
  __HAL_RCC_GPIOA_CLK_ENABLE();
 8000d14:	4b22      	ldr	r3, [pc, #136]	; (8000da0 <MX_GPIO_Init+0xa0>)
 8000d16:	699b      	ldr	r3, [r3, #24]
 8000d18:	4a21      	ldr	r2, [pc, #132]	; (8000da0 <MX_GPIO_Init+0xa0>)
 8000d1a:	f043 0304 	orr.w	r3, r3, #4
 8000d1e:	6193      	str	r3, [r2, #24]
 8000d20:	4b1f      	ldr	r3, [pc, #124]	; (8000da0 <MX_GPIO_Init+0xa0>)
 8000d22:	699b      	ldr	r3, [r3, #24]
 8000d24:	f003 0304 	and.w	r3, r3, #4
 8000d28:	607b      	str	r3, [r7, #4]
 8000d2a:	687b      	ldr	r3, [r7, #4]
  __HAL_RCC_GPIOB_CLK_ENABLE();
 8000d2c:	4b1c      	ldr	r3, [pc, #112]	; (8000da0 <MX_GPIO_Init+0xa0>)
 8000d2e:	699b      	ldr	r3, [r3, #24]
 8000d30:	4a1b      	ldr	r2, [pc, #108]	; (8000da0 <MX_GPIO_Init+0xa0>)
 8000d32:	f043 0308 	orr.w	r3, r3, #8
 8000d36:	6193      	str	r3, [r2, #24]
 8000d38:	4b19      	ldr	r3, [pc, #100]	; (8000da0 <MX_GPIO_Init+0xa0>)
 8000d3a:	699b      	ldr	r3, [r3, #24]
 8000d3c:	f003 0308 	and.w	r3, r3, #8
 8000d40:	603b      	str	r3, [r7, #0]
 8000d42:	683b      	ldr	r3, [r7, #0]

  /*Configure GPIO pin Output Level */
  HAL_GPIO_WritePin(GPIOA, ENM0_Pin|ENM1_Pin|DOT_Pin|LED_RED_Pin
 8000d44:	2200      	movs	r2, #0
 8000d46:	f64f 71fc 	movw	r1, #65532	; 0xfffc
 8000d4a:	4816      	ldr	r0, [pc, #88]	; (8000da4 <MX_GPIO_Init+0xa4>)
 8000d4c:	f000 fc78 	bl	8001640 <HAL_GPIO_WritePin>
                          |EN0_Pin|EN1_Pin|EN2_Pin|EN3_Pin
                          |ENM2_Pin|ENM3_Pin|ENM4_Pin|ENM5_Pin
                          |ENM6_Pin|ENM7_Pin, GPIO_PIN_RESET);

  /*Configure GPIO pin Output Level */
  HAL_GPIO_WritePin(GPIOB, SEG0_Pin|SEG1_Pin|SEG2_Pin|ROW2_Pin
 8000d50:	2200      	movs	r2, #0
 8000d52:	f64f 717f 	movw	r1, #65407	; 0xff7f
 8000d56:	4814      	ldr	r0, [pc, #80]	; (8000da8 <MX_GPIO_Init+0xa8>)
 8000d58:	f000 fc72 	bl	8001640 <HAL_GPIO_WritePin>

  /*Configure GPIO pins : ENM0_Pin ENM1_Pin DOT_Pin LED_RED_Pin
                           EN0_Pin EN1_Pin EN2_Pin EN3_Pin
                           ENM2_Pin ENM3_Pin ENM4_Pin ENM5_Pin
                           ENM6_Pin ENM7_Pin */
  GPIO_InitStruct.Pin = ENM0_Pin|ENM1_Pin|DOT_Pin|LED_RED_Pin
 8000d5c:	f64f 73fc 	movw	r3, #65532	; 0xfffc
 8000d60:	60bb      	str	r3, [r7, #8]
                          |EN0_Pin|EN1_Pin|EN2_Pin|EN3_Pin
                          |ENM2_Pin|ENM3_Pin|ENM4_Pin|ENM5_Pin
                          |ENM6_Pin|ENM7_Pin;
  GPIO_InitStruct.Mode = GPIO_MODE_OUTPUT_PP;
 8000d62:	2301      	movs	r3, #1
 8000d64:	60fb      	str	r3, [r7, #12]
  GPIO_InitStruct.Pull = GPIO_NOPULL;
 8000d66:	2300      	movs	r3, #0
 8000d68:	613b      	str	r3, [r7, #16]
  GPIO_InitStruct.Speed = GPIO_SPEED_FREQ_LOW;
 8000d6a:	2302      	movs	r3, #2
 8000d6c:	617b      	str	r3, [r7, #20]
  HAL_GPIO_Init(GPIOA, &GPIO_InitStruct);
 8000d6e:	f107 0308 	add.w	r3, r7, #8
 8000d72:	4619      	mov	r1, r3
 8000d74:	480b      	ldr	r0, [pc, #44]	; (8000da4 <MX_GPIO_Init+0xa4>)
 8000d76:	f000 fae7 	bl	8001348 <HAL_GPIO_Init>

  /*Configure GPIO pins : SEG0_Pin SEG1_Pin SEG2_Pin ROW2_Pin
                           ROW3_Pin ROW4_Pin ROW5_Pin ROW6_Pin
                           ROW7_Pin SEG3_Pin SEG4_Pin SEG5_Pin
                           SEG6_Pin ROW0_Pin ROW1_Pin */
  GPIO_InitStruct.Pin = SEG0_Pin|SEG1_Pin|SEG2_Pin|ROW2_Pin
 8000d7a:	f64f 737f 	movw	r3, #65407	; 0xff7f
 8000d7e:	60bb      	str	r3, [r7, #8]
                          |ROW3_Pin|ROW4_Pin|ROW5_Pin|ROW6_Pin
                          |ROW7_Pin|SEG3_Pin|SEG4_Pin|SEG5_Pin
                          |SEG6_Pin|ROW0_Pin|ROW1_Pin;
  GPIO_InitStruct.Mode = GPIO_MODE_OUTPUT_PP;
 8000d80:	2301      	movs	r3, #1
 8000d82:	60fb      	str	r3, [r7, #12]
  GPIO_InitStruct.Pull = GPIO_NOPULL;
 8000d84:	2300      	movs	r3, #0
 8000d86:	613b      	str	r3, [r7, #16]
  GPIO_InitStruct.Speed = GPIO_SPEED_FREQ_LOW;
 8000d88:	2302      	movs	r3, #2
 8000d8a:	617b      	str	r3, [r7, #20]
  HAL_GPIO_Init(GPIOB, &GPIO_InitStruct);
 8000d8c:	f107 0308 	add.w	r3, r7, #8
 8000d90:	4619      	mov	r1, r3
 8000d92:	4805      	ldr	r0, [pc, #20]	; (8000da8 <MX_GPIO_Init+0xa8>)
 8000d94:	f000 fad8 	bl	8001348 <HAL_GPIO_Init>

/* USER CODE BEGIN MX_GPIO_Init_2 */
/* USER CODE END MX_GPIO_Init_2 */
}
 8000d98:	bf00      	nop
 8000d9a:	3718      	adds	r7, #24
 8000d9c:	46bd      	mov	sp, r7
 8000d9e:	bd80      	pop	{r7, pc}
 8000da0:	40021000 	.word	0x40021000
 8000da4:	40010800 	.word	0x40010800
 8000da8:	40010c00 	.word	0x40010c00

08000dac <HAL_TIM_PeriodElapsedCallback>:

/* USER CODE BEGIN 4 */
/*******************************************************
 Interrupt function is called every 10 ms
*******************************************************/
void HAL_TIM_PeriodElapsedCallback(TIM_HandleTypeDef *htim){
 8000dac:	b580      	push	{r7, lr}
 8000dae:	b082      	sub	sp, #8
 8000db0:	af00      	add	r7, sp, #0
 8000db2:	6078      	str	r0, [r7, #4]
	timerRun();
 8000db4:	f000 f85e 	bl	8000e74 <timerRun>
}
 8000db8:	bf00      	nop
 8000dba:	3708      	adds	r7, #8
 8000dbc:	46bd      	mov	sp, r7
 8000dbe:	bd80      	pop	{r7, pc}

08000dc0 <Error_Handler>:
/**
  * @brief  This function is executed in case of error occurrence.
  * @retval None
  */
void Error_Handler(void)
{
 8000dc0:	b480      	push	{r7}
 8000dc2:	af00      	add	r7, sp, #0
  \details Disables IRQ interrupts by setting the I-bit in the CPSR.
           Can only be executed in Privileged modes.
 */
__STATIC_FORCEINLINE void __disable_irq(void)
{
  __ASM volatile ("cpsid i" : : : "memory");
 8000dc4:	b672      	cpsid	i
}
 8000dc6:	bf00      	nop
  /* USER CODE BEGIN Error_Handler_Debug */
  /* User can add his own implementation to report the HAL error return state */
  __disable_irq();
  while (1)
 8000dc8:	e7fe      	b.n	8000dc8 <Error_Handler+0x8>
	...

08000dcc <setTimer1>:
 */
#include "software_timer.h"
int timer1_counter = 0;
int timer1_flag = 0;

void setTimer1(int duration){
 8000dcc:	b480      	push	{r7}
 8000dce:	b083      	sub	sp, #12
 8000dd0:	af00      	add	r7, sp, #0
 8000dd2:	6078      	str	r0, [r7, #4]
	timer1_counter = duration/TICK;
 8000dd4:	687b      	ldr	r3, [r7, #4]
 8000dd6:	4a08      	ldr	r2, [pc, #32]	; (8000df8 <setTimer1+0x2c>)
 8000dd8:	fb82 1203 	smull	r1, r2, r2, r3
 8000ddc:	1092      	asrs	r2, r2, #2
 8000dde:	17db      	asrs	r3, r3, #31
 8000de0:	1ad3      	subs	r3, r2, r3
 8000de2:	4a06      	ldr	r2, [pc, #24]	; (8000dfc <setTimer1+0x30>)
 8000de4:	6013      	str	r3, [r2, #0]
	timer1_flag = 0;
 8000de6:	4b06      	ldr	r3, [pc, #24]	; (8000e00 <setTimer1+0x34>)
 8000de8:	2200      	movs	r2, #0
 8000dea:	601a      	str	r2, [r3, #0]
}
 8000dec:	bf00      	nop
 8000dee:	370c      	adds	r7, #12
 8000df0:	46bd      	mov	sp, r7
 8000df2:	bc80      	pop	{r7}
 8000df4:	4770      	bx	lr
 8000df6:	bf00      	nop
 8000df8:	66666667 	.word	0x66666667
 8000dfc:	20000080 	.word	0x20000080
 8000e00:	20000084 	.word	0x20000084

08000e04 <setTimer2>:

int timer2_counter = 0;
int timer2_flag = 0;
void setTimer2(int duration)
{
 8000e04:	b480      	push	{r7}
 8000e06:	b083      	sub	sp, #12
 8000e08:	af00      	add	r7, sp, #0
 8000e0a:	6078      	str	r0, [r7, #4]
	timer2_counter = duration/TICK;
 8000e0c:	687b      	ldr	r3, [r7, #4]
 8000e0e:	4a08      	ldr	r2, [pc, #32]	; (8000e30 <setTimer2+0x2c>)
 8000e10:	fb82 1203 	smull	r1, r2, r2, r3
 8000e14:	1092      	asrs	r2, r2, #2
 8000e16:	17db      	asrs	r3, r3, #31
 8000e18:	1ad3      	subs	r3, r2, r3
 8000e1a:	4a06      	ldr	r2, [pc, #24]	; (8000e34 <setTimer2+0x30>)
 8000e1c:	6013      	str	r3, [r2, #0]
	timer2_flag = 0;
 8000e1e:	4b06      	ldr	r3, [pc, #24]	; (8000e38 <setTimer2+0x34>)
 8000e20:	2200      	movs	r2, #0
 8000e22:	601a      	str	r2, [r3, #0]
}
 8000e24:	bf00      	nop
 8000e26:	370c      	adds	r7, #12
 8000e28:	46bd      	mov	sp, r7
 8000e2a:	bc80      	pop	{r7}
 8000e2c:	4770      	bx	lr
 8000e2e:	bf00      	nop
 8000e30:	66666667 	.word	0x66666667
 8000e34:	20000088 	.word	0x20000088
 8000e38:	2000008c 	.word	0x2000008c

08000e3c <setTimer4>:
 SOFTWARE TIMER 4
*********************************************************/
int timer4_counter = 0;
int timer4_flag = 0;
void setTimer4(int duration)
{
 8000e3c:	b480      	push	{r7}
 8000e3e:	b083      	sub	sp, #12
 8000e40:	af00      	add	r7, sp, #0
 8000e42:	6078      	str	r0, [r7, #4]
	timer4_counter = duration/TICK;
 8000e44:	687b      	ldr	r3, [r7, #4]
 8000e46:	4a08      	ldr	r2, [pc, #32]	; (8000e68 <setTimer4+0x2c>)
 8000e48:	fb82 1203 	smull	r1, r2, r2, r3
 8000e4c:	1092      	asrs	r2, r2, #2
 8000e4e:	17db      	asrs	r3, r3, #31
 8000e50:	1ad3      	subs	r3, r2, r3
 8000e52:	4a06      	ldr	r2, [pc, #24]	; (8000e6c <setTimer4+0x30>)
 8000e54:	6013      	str	r3, [r2, #0]
	timer4_flag = 0;
 8000e56:	4b06      	ldr	r3, [pc, #24]	; (8000e70 <setTimer4+0x34>)
 8000e58:	2200      	movs	r2, #0
 8000e5a:	601a      	str	r2, [r3, #0]
}
 8000e5c:	bf00      	nop
 8000e5e:	370c      	adds	r7, #12
 8000e60:	46bd      	mov	sp, r7
 8000e62:	bc80      	pop	{r7}
 8000e64:	4770      	bx	lr
 8000e66:	bf00      	nop
 8000e68:	66666667 	.word	0x66666667
 8000e6c:	20000098 	.word	0x20000098
 8000e70:	2000009c 	.word	0x2000009c

08000e74 <timerRun>:

/*********************************************************
 CONTROL TIMER
*********************************************************/
void timerRun(){
 8000e74:	b480      	push	{r7}
 8000e76:	af00      	add	r7, sp, #0
	if(timer1_counter > 0){
 8000e78:	4b21      	ldr	r3, [pc, #132]	; (8000f00 <timerRun+0x8c>)
 8000e7a:	681b      	ldr	r3, [r3, #0]
 8000e7c:	2b00      	cmp	r3, #0
 8000e7e:	dd0b      	ble.n	8000e98 <timerRun+0x24>
		timer1_counter--;
 8000e80:	4b1f      	ldr	r3, [pc, #124]	; (8000f00 <timerRun+0x8c>)
 8000e82:	681b      	ldr	r3, [r3, #0]
 8000e84:	3b01      	subs	r3, #1
 8000e86:	4a1e      	ldr	r2, [pc, #120]	; (8000f00 <timerRun+0x8c>)
 8000e88:	6013      	str	r3, [r2, #0]
		if(timer1_counter <= 0){
 8000e8a:	4b1d      	ldr	r3, [pc, #116]	; (8000f00 <timerRun+0x8c>)
 8000e8c:	681b      	ldr	r3, [r3, #0]
 8000e8e:	2b00      	cmp	r3, #0
 8000e90:	dc02      	bgt.n	8000e98 <timerRun+0x24>
			timer1_flag = 1;
 8000e92:	4b1c      	ldr	r3, [pc, #112]	; (8000f04 <timerRun+0x90>)
 8000e94:	2201      	movs	r2, #1
 8000e96:	601a      	str	r2, [r3, #0]
		}
	}
	if(timer2_counter > 0)
 8000e98:	4b1b      	ldr	r3, [pc, #108]	; (8000f08 <timerRun+0x94>)
 8000e9a:	681b      	ldr	r3, [r3, #0]
 8000e9c:	2b00      	cmp	r3, #0
 8000e9e:	dd0b      	ble.n	8000eb8 <timerRun+0x44>
	{
		timer2_counter--;
 8000ea0:	4b19      	ldr	r3, [pc, #100]	; (8000f08 <timerRun+0x94>)
 8000ea2:	681b      	ldr	r3, [r3, #0]
 8000ea4:	3b01      	subs	r3, #1
 8000ea6:	4a18      	ldr	r2, [pc, #96]	; (8000f08 <timerRun+0x94>)
 8000ea8:	6013      	str	r3, [r2, #0]
		if(timer2_counter <= 0)
 8000eaa:	4b17      	ldr	r3, [pc, #92]	; (8000f08 <timerRun+0x94>)
 8000eac:	681b      	ldr	r3, [r3, #0]
 8000eae:	2b00      	cmp	r3, #0
 8000eb0:	dc02      	bgt.n	8000eb8 <timerRun+0x44>
		{
			timer2_flag = 1;
 8000eb2:	4b16      	ldr	r3, [pc, #88]	; (8000f0c <timerRun+0x98>)
 8000eb4:	2201      	movs	r2, #1
 8000eb6:	601a      	str	r2, [r3, #0]
		}
	}
	if(timer3_counter > 0)
 8000eb8:	4b15      	ldr	r3, [pc, #84]	; (8000f10 <timerRun+0x9c>)
 8000eba:	681b      	ldr	r3, [r3, #0]
 8000ebc:	2b00      	cmp	r3, #0
 8000ebe:	dd0b      	ble.n	8000ed8 <timerRun+0x64>
	{
		timer3_counter--;
 8000ec0:	4b13      	ldr	r3, [pc, #76]	; (8000f10 <timerRun+0x9c>)
 8000ec2:	681b      	ldr	r3, [r3, #0]
 8000ec4:	3b01      	subs	r3, #1
 8000ec6:	4a12      	ldr	r2, [pc, #72]	; (8000f10 <timerRun+0x9c>)
 8000ec8:	6013      	str	r3, [r2, #0]
		if(timer3_counter <= 0)
 8000eca:	4b11      	ldr	r3, [pc, #68]	; (8000f10 <timerRun+0x9c>)
 8000ecc:	681b      	ldr	r3, [r3, #0]
 8000ece:	2b00      	cmp	r3, #0
 8000ed0:	dc02      	bgt.n	8000ed8 <timerRun+0x64>
		{
			timer3_flag = 1;
 8000ed2:	4b10      	ldr	r3, [pc, #64]	; (8000f14 <timerRun+0xa0>)
 8000ed4:	2201      	movs	r2, #1
 8000ed6:	601a      	str	r2, [r3, #0]
		}
	}
	if(timer4_counter > 0)
 8000ed8:	4b0f      	ldr	r3, [pc, #60]	; (8000f18 <timerRun+0xa4>)
 8000eda:	681b      	ldr	r3, [r3, #0]
 8000edc:	2b00      	cmp	r3, #0
 8000ede:	dd0b      	ble.n	8000ef8 <timerRun+0x84>
	{
		timer4_counter--;
 8000ee0:	4b0d      	ldr	r3, [pc, #52]	; (8000f18 <timerRun+0xa4>)
 8000ee2:	681b      	ldr	r3, [r3, #0]
 8000ee4:	3b01      	subs	r3, #1
 8000ee6:	4a0c      	ldr	r2, [pc, #48]	; (8000f18 <timerRun+0xa4>)
 8000ee8:	6013      	str	r3, [r2, #0]
		if(timer4_counter <= 0)
 8000eea:	4b0b      	ldr	r3, [pc, #44]	; (8000f18 <timerRun+0xa4>)
 8000eec:	681b      	ldr	r3, [r3, #0]
 8000eee:	2b00      	cmp	r3, #0
 8000ef0:	dc02      	bgt.n	8000ef8 <timerRun+0x84>
		{
			timer4_flag = 1;
 8000ef2:	4b0a      	ldr	r3, [pc, #40]	; (8000f1c <timerRun+0xa8>)
 8000ef4:	2201      	movs	r2, #1
 8000ef6:	601a      	str	r2, [r3, #0]
		}
	}
}
 8000ef8:	bf00      	nop
 8000efa:	46bd      	mov	sp, r7
 8000efc:	bc80      	pop	{r7}
 8000efe:	4770      	bx	lr
 8000f00:	20000080 	.word	0x20000080
 8000f04:	20000084 	.word	0x20000084
 8000f08:	20000088 	.word	0x20000088
 8000f0c:	2000008c 	.word	0x2000008c
 8000f10:	20000090 	.word	0x20000090
 8000f14:	20000094 	.word	0x20000094
 8000f18:	20000098 	.word	0x20000098
 8000f1c:	2000009c 	.word	0x2000009c

08000f20 <HAL_MspInit>:
/* USER CODE END 0 */
/**
  * Initializes the Global MSP.
  */
void HAL_MspInit(void)
{
 8000f20:	b480      	push	{r7}
 8000f22:	b083      	sub	sp, #12
 8000f24:	af00      	add	r7, sp, #0
  /* USER CODE BEGIN MspInit 0 */

  /* USER CODE END MspInit 0 */

  __HAL_RCC_AFIO_CLK_ENABLE();
 8000f26:	4b0e      	ldr	r3, [pc, #56]	; (8000f60 <HAL_MspInit+0x40>)
 8000f28:	699b      	ldr	r3, [r3, #24]
 8000f2a:	4a0d      	ldr	r2, [pc, #52]	; (8000f60 <HAL_MspInit+0x40>)
 8000f2c:	f043 0301 	orr.w	r3, r3, #1
 8000f30:	6193      	str	r3, [r2, #24]
 8000f32:	4b0b      	ldr	r3, [pc, #44]	; (8000f60 <HAL_MspInit+0x40>)
 8000f34:	699b      	ldr	r3, [r3, #24]
 8000f36:	f003 0301 	and.w	r3, r3, #1
 8000f3a:	607b      	str	r3, [r7, #4]
 8000f3c:	687b      	ldr	r3, [r7, #4]
  __HAL_RCC_PWR_CLK_ENABLE();
 8000f3e:	4b08      	ldr	r3, [pc, #32]	; (8000f60 <HAL_MspInit+0x40>)
 8000f40:	69db      	ldr	r3, [r3, #28]
 8000f42:	4a07      	ldr	r2, [pc, #28]	; (8000f60 <HAL_MspInit+0x40>)
 8000f44:	f043 5380 	orr.w	r3, r3, #268435456	; 0x10000000
 8000f48:	61d3      	str	r3, [r2, #28]
 8000f4a:	4b05      	ldr	r3, [pc, #20]	; (8000f60 <HAL_MspInit+0x40>)
 8000f4c:	69db      	ldr	r3, [r3, #28]
 8000f4e:	f003 5380 	and.w	r3, r3, #268435456	; 0x10000000
 8000f52:	603b      	str	r3, [r7, #0]
 8000f54:	683b      	ldr	r3, [r7, #0]
  /* System interrupt init*/

  /* USER CODE BEGIN MspInit 1 */

  /* USER CODE END MspInit 1 */
}
 8000f56:	bf00      	nop
 8000f58:	370c      	adds	r7, #12
 8000f5a:	46bd      	mov	sp, r7
 8000f5c:	bc80      	pop	{r7}
 8000f5e:	4770      	bx	lr
 8000f60:	40021000 	.word	0x40021000

08000f64 <HAL_TIM_Base_MspInit>:
* This function configures the hardware resources used in this example
* @param htim_base: TIM_Base handle pointer
* @retval None
*/
void HAL_TIM_Base_MspInit(TIM_HandleTypeDef* htim_base)
{
 8000f64:	b580      	push	{r7, lr}
 8000f66:	b084      	sub	sp, #16
 8000f68:	af00      	add	r7, sp, #0
 8000f6a:	6078      	str	r0, [r7, #4]
  if(htim_base->Instance==TIM2)
 8000f6c:	687b      	ldr	r3, [r7, #4]
 8000f6e:	681b      	ldr	r3, [r3, #0]
 8000f70:	f1b3 4f80 	cmp.w	r3, #1073741824	; 0x40000000
 8000f74:	d113      	bne.n	8000f9e <HAL_TIM_Base_MspInit+0x3a>
  {
  /* USER CODE BEGIN TIM2_MspInit 0 */

  /* USER CODE END TIM2_MspInit 0 */
    /* Peripheral clock enable */
    __HAL_RCC_TIM2_CLK_ENABLE();
 8000f76:	4b0c      	ldr	r3, [pc, #48]	; (8000fa8 <HAL_TIM_Base_MspInit+0x44>)
 8000f78:	69db      	ldr	r3, [r3, #28]
 8000f7a:	4a0b      	ldr	r2, [pc, #44]	; (8000fa8 <HAL_TIM_Base_MspInit+0x44>)
 8000f7c:	f043 0301 	orr.w	r3, r3, #1
 8000f80:	61d3      	str	r3, [r2, #28]
 8000f82:	4b09      	ldr	r3, [pc, #36]	; (8000fa8 <HAL_TIM_Base_MspInit+0x44>)
 8000f84:	69db      	ldr	r3, [r3, #28]
 8000f86:	f003 0301 	and.w	r3, r3, #1
 8000f8a:	60fb      	str	r3, [r7, #12]
 8000f8c:	68fb      	ldr	r3, [r7, #12]
    /* TIM2 interrupt Init */
    HAL_NVIC_SetPriority(TIM2_IRQn, 0, 0);
 8000f8e:	2200      	movs	r2, #0
 8000f90:	2100      	movs	r1, #0
 8000f92:	201c      	movs	r0, #28
 8000f94:	f000 f9a1 	bl	80012da <HAL_NVIC_SetPriority>
    HAL_NVIC_EnableIRQ(TIM2_IRQn);
 8000f98:	201c      	movs	r0, #28
 8000f9a:	f000 f9ba 	bl	8001312 <HAL_NVIC_EnableIRQ>
  /* USER CODE BEGIN TIM2_MspInit 1 */

  /* USER CODE END TIM2_MspInit 1 */
  }

}
 8000f9e:	bf00      	nop
 8000fa0:	3710      	adds	r7, #16
 8000fa2:	46bd      	mov	sp, r7
 8000fa4:	bd80      	pop	{r7, pc}
 8000fa6:	bf00      	nop
 8000fa8:	40021000 	.word	0x40021000

08000fac <NMI_Handler>:
/******************************************************************************/
/**
  * @brief This function handles Non maskable interrupt.
  */
void NMI_Handler(void)
{
 8000fac:	b480      	push	{r7}
 8000fae:	af00      	add	r7, sp, #0
  /* USER CODE BEGIN NonMaskableInt_IRQn 0 */

  /* USER CODE END NonMaskableInt_IRQn 0 */
  /* USER CODE BEGIN NonMaskableInt_IRQn 1 */
  while (1)
 8000fb0:	e7fe      	b.n	8000fb0 <NMI_Handler+0x4>

08000fb2 <HardFault_Handler>:

/**
  * @brief This function handles Hard fault interrupt.
  */
void HardFault_Handler(void)
{
 8000fb2:	b480      	push	{r7}
 8000fb4:	af00      	add	r7, sp, #0
  /* USER CODE BEGIN HardFault_IRQn 0 */

  /* USER CODE END HardFault_IRQn 0 */
  while (1)
 8000fb6:	e7fe      	b.n	8000fb6 <HardFault_Handler+0x4>

08000fb8 <MemManage_Handler>:

/**
  * @brief This function handles Memory management fault.
  */
void MemManage_Handler(void)
{
 8000fb8:	b480      	push	{r7}
 8000fba:	af00      	add	r7, sp, #0
  /* USER CODE BEGIN MemoryManagement_IRQn 0 */

  /* USER CODE END MemoryManagement_IRQn 0 */
  while (1)
 8000fbc:	e7fe      	b.n	8000fbc <MemManage_Handler+0x4>

08000fbe <BusFault_Handler>:

/**
  * @brief This function handles Prefetch fault, memory access fault.
  */
void BusFault_Handler(void)
{
 8000fbe:	b480      	push	{r7}
 8000fc0:	af00      	add	r7, sp, #0
  /* USER CODE BEGIN BusFault_IRQn 0 */

  /* USER CODE END BusFault_IRQn 0 */
  while (1)
 8000fc2:	e7fe      	b.n	8000fc2 <BusFault_Handler+0x4>

08000fc4 <UsageFault_Handler>:

/**
  * @brief This function handles Undefined instruction or illegal state.
  */
void UsageFault_Handler(void)
{
 8000fc4:	b480      	push	{r7}
 8000fc6:	af00      	add	r7, sp, #0
  /* USER CODE BEGIN UsageFault_IRQn 0 */

  /* USER CODE END UsageFault_IRQn 0 */
  while (1)
 8000fc8:	e7fe      	b.n	8000fc8 <UsageFault_Handler+0x4>

08000fca <SVC_Handler>:

/**
  * @brief This function handles System service call via SWI instruction.
  */
void SVC_Handler(void)
{
 8000fca:	b480      	push	{r7}
 8000fcc:	af00      	add	r7, sp, #0

  /* USER CODE END SVCall_IRQn 0 */
  /* USER CODE BEGIN SVCall_IRQn 1 */

  /* USER CODE END SVCall_IRQn 1 */
}
 8000fce:	bf00      	nop
 8000fd0:	46bd      	mov	sp, r7
 8000fd2:	bc80      	pop	{r7}
 8000fd4:	4770      	bx	lr

08000fd6 <DebugMon_Handler>:

/**
  * @brief This function handles Debug monitor.
  */
void DebugMon_Handler(void)
{
 8000fd6:	b480      	push	{r7}
 8000fd8:	af00      	add	r7, sp, #0

  /* USER CODE END DebugMonitor_IRQn 0 */
  /* USER CODE BEGIN DebugMonitor_IRQn 1 */

  /* USER CODE END DebugMonitor_IRQn 1 */
}
 8000fda:	bf00      	nop
 8000fdc:	46bd      	mov	sp, r7
 8000fde:	bc80      	pop	{r7}
 8000fe0:	4770      	bx	lr

08000fe2 <PendSV_Handler>:

/**
  * @brief This function handles Pendable request for system service.
  */
void PendSV_Handler(void)
{
 8000fe2:	b480      	push	{r7}
 8000fe4:	af00      	add	r7, sp, #0

  /* USER CODE END PendSV_IRQn 0 */
  /* USER CODE BEGIN PendSV_IRQn 1 */

  /* USER CODE END PendSV_IRQn 1 */
}
 8000fe6:	bf00      	nop
 8000fe8:	46bd      	mov	sp, r7
 8000fea:	bc80      	pop	{r7}
 8000fec:	4770      	bx	lr

08000fee <SysTick_Handler>:

/**
  * @brief This function handles System tick timer.
  */
void SysTick_Handler(void)
{
 8000fee:	b580      	push	{r7, lr}
 8000ff0:	af00      	add	r7, sp, #0
  /* USER CODE BEGIN SysTick_IRQn 0 */

  /* USER CODE END SysTick_IRQn 0 */
  HAL_IncTick();
 8000ff2:	f000 f87f 	bl	80010f4 <HAL_IncTick>
  /* USER CODE BEGIN SysTick_IRQn 1 */

  /* USER CODE END SysTick_IRQn 1 */
}
 8000ff6:	bf00      	nop
 8000ff8:	bd80      	pop	{r7, pc}
	...

08000ffc <TIM2_IRQHandler>:

/**
  * @brief This function handles TIM2 global interrupt.
  */
void TIM2_IRQHandler(void)
{
 8000ffc:	b580      	push	{r7, lr}
 8000ffe:	af00      	add	r7, sp, #0
  /* USER CODE BEGIN TIM2_IRQn 0 */

  /* USER CODE END TIM2_IRQn 0 */
  HAL_TIM_IRQHandler(&htim2);
 8001000:	4802      	ldr	r0, [pc, #8]	; (800100c <TIM2_IRQHandler+0x10>)
 8001002:	f000 ffaf 	bl	8001f64 <HAL_TIM_IRQHandler>
  /* USER CODE BEGIN TIM2_IRQn 1 */

  /* USER CODE END TIM2_IRQn 1 */
}
 8001006:	bf00      	nop
 8001008:	bd80      	pop	{r7, pc}
 800100a:	bf00      	nop
 800100c:	20000038 	.word	0x20000038

08001010 <SystemInit>:
  * @note   This function should be used only after reset.
  * @param  None
  * @retval None
  */
void SystemInit (void)
{
 8001010:	b480      	push	{r7}
 8001012:	af00      	add	r7, sp, #0

  /* Configure the Vector Table location -------------------------------------*/
#if defined(USER_VECT_TAB_ADDRESS)
  SCB->VTOR = VECT_TAB_BASE_ADDRESS | VECT_TAB_OFFSET; /* Vector Table Relocation in Internal SRAM. */
#endif /* USER_VECT_TAB_ADDRESS */
}
 8001014:	bf00      	nop
 8001016:	46bd      	mov	sp, r7
 8001018:	bc80      	pop	{r7}
 800101a:	4770      	bx	lr

0800101c <Reset_Handler>:
  .weak Reset_Handler
  .type Reset_Handler, %function
Reset_Handler:

/* Call the clock system initialization function.*/
    bl  SystemInit
 800101c:	f7ff fff8 	bl	8001010 <SystemInit>

/* Copy the data segment initializers from flash to SRAM */
  ldr r0, =_sdata
 8001020:	480b      	ldr	r0, [pc, #44]	; (8001050 <LoopFillZerobss+0xe>)
  ldr r1, =_edata
 8001022:	490c      	ldr	r1, [pc, #48]	; (8001054 <LoopFillZerobss+0x12>)
  ldr r2, =_sidata
 8001024:	4a0c      	ldr	r2, [pc, #48]	; (8001058 <LoopFillZerobss+0x16>)
  movs r3, #0
 8001026:	2300      	movs	r3, #0
  b LoopCopyDataInit
 8001028:	e002      	b.n	8001030 <LoopCopyDataInit>

0800102a <CopyDataInit>:

CopyDataInit:
  ldr r4, [r2, r3]
 800102a:	58d4      	ldr	r4, [r2, r3]
  str r4, [r0, r3]
 800102c:	50c4      	str	r4, [r0, r3]
  adds r3, r3, #4
 800102e:	3304      	adds	r3, #4

08001030 <LoopCopyDataInit>:

LoopCopyDataInit:
  adds r4, r0, r3
 8001030:	18c4      	adds	r4, r0, r3
  cmp r4, r1
 8001032:	428c      	cmp	r4, r1
  bcc CopyDataInit
 8001034:	d3f9      	bcc.n	800102a <CopyDataInit>
  
/* Zero fill the bss segment. */
  ldr r2, =_sbss
 8001036:	4a09      	ldr	r2, [pc, #36]	; (800105c <LoopFillZerobss+0x1a>)
  ldr r4, =_ebss
 8001038:	4c09      	ldr	r4, [pc, #36]	; (8001060 <LoopFillZerobss+0x1e>)
  movs r3, #0
 800103a:	2300      	movs	r3, #0
  b LoopFillZerobss
 800103c:	e001      	b.n	8001042 <LoopFillZerobss>

0800103e <FillZerobss>:

FillZerobss:
  str  r3, [r2]
 800103e:	6013      	str	r3, [r2, #0]
  adds r2, r2, #4
 8001040:	3204      	adds	r2, #4

08001042 <LoopFillZerobss>:

LoopFillZerobss:
  cmp r2, r4
 8001042:	42a2      	cmp	r2, r4
  bcc FillZerobss
 8001044:	d3fb      	bcc.n	800103e <FillZerobss>

/* Call static constructors */
    bl __libc_init_array
 8001046:	f001 fad9 	bl	80025fc <__libc_init_array>
/* Call the application's entry point.*/
  bl main
 800104a:	f7ff fd95 	bl	8000b78 <main>
  bx lr
 800104e:	4770      	bx	lr
  ldr r0, =_sdata
 8001050:	20000000 	.word	0x20000000
  ldr r1, =_edata
 8001054:	20000014 	.word	0x20000014
  ldr r2, =_sidata
 8001058:	0800269c 	.word	0x0800269c
  ldr r2, =_sbss
 800105c:	20000014 	.word	0x20000014
  ldr r4, =_ebss
 8001060:	200000a4 	.word	0x200000a4

08001064 <ADC1_2_IRQHandler>:
 * @retval : None
*/
    .section .text.Default_Handler,"ax",%progbits
Default_Handler:
Infinite_Loop:
  b Infinite_Loop
 8001064:	e7fe      	b.n	8001064 <ADC1_2_IRQHandler>
	...

08001068 <HAL_Init>:
  *         need to ensure that the SysTick time base is always set to 1 millisecond
  *         to have correct HAL operation.
  * @retval HAL status
  */
HAL_StatusTypeDef HAL_Init(void)
{
 8001068:	b580      	push	{r7, lr}
 800106a:	af00      	add	r7, sp, #0
    defined(STM32F102x6) || defined(STM32F102xB) || \
    defined(STM32F103x6) || defined(STM32F103xB) || defined(STM32F103xE) || defined(STM32F103xG) || \
    defined(STM32F105xC) || defined(STM32F107xC)

  /* Prefetch buffer is not available on value line devices */
  __HAL_FLASH_PREFETCH_BUFFER_ENABLE();
 800106c:	4b08      	ldr	r3, [pc, #32]	; (8001090 <HAL_Init+0x28>)
 800106e:	681b      	ldr	r3, [r3, #0]
 8001070:	4a07      	ldr	r2, [pc, #28]	; (8001090 <HAL_Init+0x28>)
 8001072:	f043 0310 	orr.w	r3, r3, #16
 8001076:	6013      	str	r3, [r2, #0]
#endif
#endif /* PREFETCH_ENABLE */

  /* Set Interrupt Group Priority */
  HAL_NVIC_SetPriorityGrouping(NVIC_PRIORITYGROUP_4);
 8001078:	2003      	movs	r0, #3
 800107a:	f000 f923 	bl	80012c4 <HAL_NVIC_SetPriorityGrouping>

  /* Use systick as time base source and configure 1ms tick (default clock after Reset is HSI) */
  HAL_InitTick(TICK_INT_PRIORITY);
 800107e:	200f      	movs	r0, #15
 8001080:	f000 f808 	bl	8001094 <HAL_InitTick>

  /* Init the low level hardware */
  HAL_MspInit();
 8001084:	f7ff ff4c 	bl	8000f20 <HAL_MspInit>

  /* Return function status */
  return HAL_OK;
 8001088:	2300      	movs	r3, #0
}
 800108a:	4618      	mov	r0, r3
 800108c:	bd80      	pop	{r7, pc}
 800108e:	bf00      	nop
 8001090:	40022000 	.word	0x40022000

08001094 <HAL_InitTick>:
  *       implementation  in user file.
  * @param TickPriority Tick interrupt priority.
  * @retval HAL status
  */
__weak HAL_StatusTypeDef HAL_InitTick(uint32_t TickPriority)
{
 8001094:	b580      	push	{r7, lr}
 8001096:	b082      	sub	sp, #8
 8001098:	af00      	add	r7, sp, #0
 800109a:	6078      	str	r0, [r7, #4]
  /* Configure the SysTick to have interrupt in 1ms time basis*/
  if (HAL_SYSTICK_Config(SystemCoreClock / (1000U / uwTickFreq)) > 0U)
 800109c:	4b12      	ldr	r3, [pc, #72]	; (80010e8 <HAL_InitTick+0x54>)
 800109e:	681a      	ldr	r2, [r3, #0]
 80010a0:	4b12      	ldr	r3, [pc, #72]	; (80010ec <HAL_InitTick+0x58>)
 80010a2:	781b      	ldrb	r3, [r3, #0]
 80010a4:	4619      	mov	r1, r3
 80010a6:	f44f 737a 	mov.w	r3, #1000	; 0x3e8
 80010aa:	fbb3 f3f1 	udiv	r3, r3, r1
 80010ae:	fbb2 f3f3 	udiv	r3, r2, r3
 80010b2:	4618      	mov	r0, r3
 80010b4:	f000 f93b 	bl	800132e <HAL_SYSTICK_Config>
 80010b8:	4603      	mov	r3, r0
 80010ba:	2b00      	cmp	r3, #0
 80010bc:	d001      	beq.n	80010c2 <HAL_InitTick+0x2e>
  {
    return HAL_ERROR;
 80010be:	2301      	movs	r3, #1
 80010c0:	e00e      	b.n	80010e0 <HAL_InitTick+0x4c>
  }

  /* Configure the SysTick IRQ priority */
  if (TickPriority < (1UL << __NVIC_PRIO_BITS))
 80010c2:	687b      	ldr	r3, [r7, #4]
 80010c4:	2b0f      	cmp	r3, #15
 80010c6:	d80a      	bhi.n	80010de <HAL_InitTick+0x4a>
  {
    HAL_NVIC_SetPriority(SysTick_IRQn, TickPriority, 0U);
 80010c8:	2200      	movs	r2, #0
 80010ca:	6879      	ldr	r1, [r7, #4]
 80010cc:	f04f 30ff 	mov.w	r0, #4294967295
 80010d0:	f000 f903 	bl	80012da <HAL_NVIC_SetPriority>
    uwTickPrio = TickPriority;
 80010d4:	4a06      	ldr	r2, [pc, #24]	; (80010f0 <HAL_InitTick+0x5c>)
 80010d6:	687b      	ldr	r3, [r7, #4]
 80010d8:	6013      	str	r3, [r2, #0]
  {
    return HAL_ERROR;
  }

  /* Return function status */
  return HAL_OK;
 80010da:	2300      	movs	r3, #0
 80010dc:	e000      	b.n	80010e0 <HAL_InitTick+0x4c>
    return HAL_ERROR;
 80010de:	2301      	movs	r3, #1
}
 80010e0:	4618      	mov	r0, r3
 80010e2:	3708      	adds	r7, #8
 80010e4:	46bd      	mov	sp, r7
 80010e6:	bd80      	pop	{r7, pc}
 80010e8:	20000008 	.word	0x20000008
 80010ec:	20000010 	.word	0x20000010
 80010f0:	2000000c 	.word	0x2000000c

080010f4 <HAL_IncTick>:
  * @note This function is declared as __weak to be overwritten in case of other
  *      implementations in user file.
  * @retval None
  */
__weak void HAL_IncTick(void)
{
 80010f4:	b480      	push	{r7}
 80010f6:	af00      	add	r7, sp, #0
  uwTick += uwTickFreq;
 80010f8:	4b05      	ldr	r3, [pc, #20]	; (8001110 <HAL_IncTick+0x1c>)
 80010fa:	781b      	ldrb	r3, [r3, #0]
 80010fc:	461a      	mov	r2, r3
 80010fe:	4b05      	ldr	r3, [pc, #20]	; (8001114 <HAL_IncTick+0x20>)
 8001100:	681b      	ldr	r3, [r3, #0]
 8001102:	4413      	add	r3, r2
 8001104:	4a03      	ldr	r2, [pc, #12]	; (8001114 <HAL_IncTick+0x20>)
 8001106:	6013      	str	r3, [r2, #0]
}
 8001108:	bf00      	nop
 800110a:	46bd      	mov	sp, r7
 800110c:	bc80      	pop	{r7}
 800110e:	4770      	bx	lr
 8001110:	20000010 	.word	0x20000010
 8001114:	200000a0 	.word	0x200000a0

08001118 <HAL_GetTick>:
  * @note  This function is declared as __weak to be overwritten in case of other
  *       implementations in user file.
  * @retval tick value
  */
__weak uint32_t HAL_GetTick(void)
{
 8001118:	b480      	push	{r7}
 800111a:	af00      	add	r7, sp, #0
  return uwTick;
 800111c:	4b02      	ldr	r3, [pc, #8]	; (8001128 <HAL_GetTick+0x10>)
 800111e:	681b      	ldr	r3, [r3, #0]
}
 8001120:	4618      	mov	r0, r3
 8001122:	46bd      	mov	sp, r7
 8001124:	bc80      	pop	{r7}
 8001126:	4770      	bx	lr
 8001128:	200000a0 	.word	0x200000a0

0800112c <__NVIC_SetPriorityGrouping>:
           In case of a conflict between priority grouping and available
           priority bits (__NVIC_PRIO_BITS), the smallest possible priority group is set.
  \param [in]      PriorityGroup  Priority grouping field.
 */
__STATIC_INLINE void __NVIC_SetPriorityGrouping(uint32_t PriorityGroup)
{
 800112c:	b480      	push	{r7}
 800112e:	b085      	sub	sp, #20
 8001130:	af00      	add	r7, sp, #0
 8001132:	6078      	str	r0, [r7, #4]
  uint32_t reg_value;
  uint32_t PriorityGroupTmp = (PriorityGroup & (uint32_t)0x07UL);             /* only values 0..7 are used          */
 8001134:	687b      	ldr	r3, [r7, #4]
 8001136:	f003 0307 	and.w	r3, r3, #7
 800113a:	60fb      	str	r3, [r7, #12]

  reg_value  =  SCB->AIRCR;                                                   /* read old register configuration    */
 800113c:	4b0c      	ldr	r3, [pc, #48]	; (8001170 <__NVIC_SetPriorityGrouping+0x44>)
 800113e:	68db      	ldr	r3, [r3, #12]
 8001140:	60bb      	str	r3, [r7, #8]
  reg_value &= ~((uint32_t)(SCB_AIRCR_VECTKEY_Msk | SCB_AIRCR_PRIGROUP_Msk)); /* clear bits to change               */
 8001142:	68ba      	ldr	r2, [r7, #8]
 8001144:	f64f 03ff 	movw	r3, #63743	; 0xf8ff
 8001148:	4013      	ands	r3, r2
 800114a:	60bb      	str	r3, [r7, #8]
  reg_value  =  (reg_value                                   |
                ((uint32_t)0x5FAUL << SCB_AIRCR_VECTKEY_Pos) |
                (PriorityGroupTmp << SCB_AIRCR_PRIGROUP_Pos) );               /* Insert write key and priority group */
 800114c:	68fb      	ldr	r3, [r7, #12]
 800114e:	021a      	lsls	r2, r3, #8
                ((uint32_t)0x5FAUL << SCB_AIRCR_VECTKEY_Pos) |
 8001150:	68bb      	ldr	r3, [r7, #8]
 8001152:	4313      	orrs	r3, r2
  reg_value  =  (reg_value                                   |
 8001154:	f043 63bf 	orr.w	r3, r3, #100139008	; 0x5f80000
 8001158:	f443 3300 	orr.w	r3, r3, #131072	; 0x20000
 800115c:	60bb      	str	r3, [r7, #8]
  SCB->AIRCR =  reg_value;
 800115e:	4a04      	ldr	r2, [pc, #16]	; (8001170 <__NVIC_SetPriorityGrouping+0x44>)
 8001160:	68bb      	ldr	r3, [r7, #8]
 8001162:	60d3      	str	r3, [r2, #12]
}
 8001164:	bf00      	nop
 8001166:	3714      	adds	r7, #20
 8001168:	46bd      	mov	sp, r7
 800116a:	bc80      	pop	{r7}
 800116c:	4770      	bx	lr
 800116e:	bf00      	nop
 8001170:	e000ed00 	.word	0xe000ed00

08001174 <__NVIC_GetPriorityGrouping>:
  \brief   Get Priority Grouping
  \details Reads the priority grouping field from the NVIC Interrupt Controller.
  \return                Priority grouping field (SCB->AIRCR [10:8] PRIGROUP field).
 */
__STATIC_INLINE uint32_t __NVIC_GetPriorityGrouping(void)
{
 8001174:	b480      	push	{r7}
 8001176:	af00      	add	r7, sp, #0
  return ((uint32_t)((SCB->AIRCR & SCB_AIRCR_PRIGROUP_Msk) >> SCB_AIRCR_PRIGROUP_Pos));
 8001178:	4b04      	ldr	r3, [pc, #16]	; (800118c <__NVIC_GetPriorityGrouping+0x18>)
 800117a:	68db      	ldr	r3, [r3, #12]
 800117c:	0a1b      	lsrs	r3, r3, #8
 800117e:	f003 0307 	and.w	r3, r3, #7
}
 8001182:	4618      	mov	r0, r3
 8001184:	46bd      	mov	sp, r7
 8001186:	bc80      	pop	{r7}
 8001188:	4770      	bx	lr
 800118a:	bf00      	nop
 800118c:	e000ed00 	.word	0xe000ed00

08001190 <__NVIC_EnableIRQ>:
  \details Enables a device specific interrupt in the NVIC interrupt controller.
  \param [in]      IRQn  Device specific interrupt number.
  \note    IRQn must not be negative.
 */
__STATIC_INLINE void __NVIC_EnableIRQ(IRQn_Type IRQn)
{
 8001190:	b480      	push	{r7}
 8001192:	b083      	sub	sp, #12
 8001194:	af00      	add	r7, sp, #0
 8001196:	4603      	mov	r3, r0
 8001198:	71fb      	strb	r3, [r7, #7]
  if ((int32_t)(IRQn) >= 0)
 800119a:	f997 3007 	ldrsb.w	r3, [r7, #7]
 800119e:	2b00      	cmp	r3, #0
 80011a0:	db0b      	blt.n	80011ba <__NVIC_EnableIRQ+0x2a>
  {
    NVIC->ISER[(((uint32_t)IRQn) >> 5UL)] = (uint32_t)(1UL << (((uint32_t)IRQn) & 0x1FUL));
 80011a2:	79fb      	ldrb	r3, [r7, #7]
 80011a4:	f003 021f 	and.w	r2, r3, #31
 80011a8:	4906      	ldr	r1, [pc, #24]	; (80011c4 <__NVIC_EnableIRQ+0x34>)
 80011aa:	f997 3007 	ldrsb.w	r3, [r7, #7]
 80011ae:	095b      	lsrs	r3, r3, #5
 80011b0:	2001      	movs	r0, #1
 80011b2:	fa00 f202 	lsl.w	r2, r0, r2
 80011b6:	f841 2023 	str.w	r2, [r1, r3, lsl #2]
  }
}
 80011ba:	bf00      	nop
 80011bc:	370c      	adds	r7, #12
 80011be:	46bd      	mov	sp, r7
 80011c0:	bc80      	pop	{r7}
 80011c2:	4770      	bx	lr
 80011c4:	e000e100 	.word	0xe000e100

080011c8 <__NVIC_SetPriority>:
  \param [in]      IRQn  Interrupt number.
  \param [in]  priority  Priority to set.
  \note    The priority cannot be set for every processor exception.
 */
__STATIC_INLINE void __NVIC_SetPriority(IRQn_Type IRQn, uint32_t priority)
{
 80011c8:	b480      	push	{r7}
 80011ca:	b083      	sub	sp, #12
 80011cc:	af00      	add	r7, sp, #0
 80011ce:	4603      	mov	r3, r0
 80011d0:	6039      	str	r1, [r7, #0]
 80011d2:	71fb      	strb	r3, [r7, #7]
  if ((int32_t)(IRQn) >= 0)
 80011d4:	f997 3007 	ldrsb.w	r3, [r7, #7]
 80011d8:	2b00      	cmp	r3, #0
 80011da:	db0a      	blt.n	80011f2 <__NVIC_SetPriority+0x2a>
  {
    NVIC->IP[((uint32_t)IRQn)]               = (uint8_t)((priority << (8U - __NVIC_PRIO_BITS)) & (uint32_t)0xFFUL);
 80011dc:	683b      	ldr	r3, [r7, #0]
 80011de:	b2da      	uxtb	r2, r3
 80011e0:	490c      	ldr	r1, [pc, #48]	; (8001214 <__NVIC_SetPriority+0x4c>)
 80011e2:	f997 3007 	ldrsb.w	r3, [r7, #7]
 80011e6:	0112      	lsls	r2, r2, #4
 80011e8:	b2d2      	uxtb	r2, r2
 80011ea:	440b      	add	r3, r1
 80011ec:	f883 2300 	strb.w	r2, [r3, #768]	; 0x300
  }
  else
  {
    SCB->SHP[(((uint32_t)IRQn) & 0xFUL)-4UL] = (uint8_t)((priority << (8U - __NVIC_PRIO_BITS)) & (uint32_t)0xFFUL);
  }
}
 80011f0:	e00a      	b.n	8001208 <__NVIC_SetPriority+0x40>
    SCB->SHP[(((uint32_t)IRQn) & 0xFUL)-4UL] = (uint8_t)((priority << (8U - __NVIC_PRIO_BITS)) & (uint32_t)0xFFUL);
 80011f2:	683b      	ldr	r3, [r7, #0]
 80011f4:	b2da      	uxtb	r2, r3
 80011f6:	4908      	ldr	r1, [pc, #32]	; (8001218 <__NVIC_SetPriority+0x50>)
 80011f8:	79fb      	ldrb	r3, [r7, #7]
 80011fa:	f003 030f 	and.w	r3, r3, #15
 80011fe:	3b04      	subs	r3, #4
 8001200:	0112      	lsls	r2, r2, #4
 8001202:	b2d2      	uxtb	r2, r2
 8001204:	440b      	add	r3, r1
 8001206:	761a      	strb	r2, [r3, #24]
}
 8001208:	bf00      	nop
 800120a:	370c      	adds	r7, #12
 800120c:	46bd      	mov	sp, r7
 800120e:	bc80      	pop	{r7}
 8001210:	4770      	bx	lr
 8001212:	bf00      	nop
 8001214:	e000e100 	.word	0xe000e100
 8001218:	e000ed00 	.word	0xe000ed00

0800121c <NVIC_EncodePriority>:
  \param [in]   PreemptPriority  Preemptive priority value (starting from 0).
  \param [in]       SubPriority  Subpriority value (starting from 0).
  \return                        Encoded priority. Value can be used in the function \ref NVIC_SetPriority().
 */
__STATIC_INLINE uint32_t NVIC_EncodePriority (uint32_t PriorityGroup, uint32_t PreemptPriority, uint32_t SubPriority)
{
 800121c:	b480      	push	{r7}
 800121e:	b089      	sub	sp, #36	; 0x24
 8001220:	af00      	add	r7, sp, #0
 8001222:	60f8      	str	r0, [r7, #12]
 8001224:	60b9      	str	r1, [r7, #8]
 8001226:	607a      	str	r2, [r7, #4]
  uint32_t PriorityGroupTmp = (PriorityGroup & (uint32_t)0x07UL);   /* only values 0..7 are used          */
 8001228:	68fb      	ldr	r3, [r7, #12]
 800122a:	f003 0307 	and.w	r3, r3, #7
 800122e:	61fb      	str	r3, [r7, #28]
  uint32_t PreemptPriorityBits;
  uint32_t SubPriorityBits;

  PreemptPriorityBits = ((7UL - PriorityGroupTmp) > (uint32_t)(__NVIC_PRIO_BITS)) ? (uint32_t)(__NVIC_PRIO_BITS) : (uint32_t)(7UL - PriorityGroupTmp);
 8001230:	69fb      	ldr	r3, [r7, #28]
 8001232:	f1c3 0307 	rsb	r3, r3, #7
 8001236:	2b04      	cmp	r3, #4
 8001238:	bf28      	it	cs
 800123a:	2304      	movcs	r3, #4
 800123c:	61bb      	str	r3, [r7, #24]
  SubPriorityBits     = ((PriorityGroupTmp + (uint32_t)(__NVIC_PRIO_BITS)) < (uint32_t)7UL) ? (uint32_t)0UL : (uint32_t)((PriorityGroupTmp - 7UL) + (uint32_t)(__NVIC_PRIO_BITS));
 800123e:	69fb      	ldr	r3, [r7, #28]
 8001240:	3304      	adds	r3, #4
 8001242:	2b06      	cmp	r3, #6
 8001244:	d902      	bls.n	800124c <NVIC_EncodePriority+0x30>
 8001246:	69fb      	ldr	r3, [r7, #28]
 8001248:	3b03      	subs	r3, #3
 800124a:	e000      	b.n	800124e <NVIC_EncodePriority+0x32>
 800124c:	2300      	movs	r3, #0
 800124e:	617b      	str	r3, [r7, #20]

  return (
           ((PreemptPriority & (uint32_t)((1UL << (PreemptPriorityBits)) - 1UL)) << SubPriorityBits) |
 8001250:	f04f 32ff 	mov.w	r2, #4294967295
 8001254:	69bb      	ldr	r3, [r7, #24]
 8001256:	fa02 f303 	lsl.w	r3, r2, r3
 800125a:	43da      	mvns	r2, r3
 800125c:	68bb      	ldr	r3, [r7, #8]
 800125e:	401a      	ands	r2, r3
 8001260:	697b      	ldr	r3, [r7, #20]
 8001262:	409a      	lsls	r2, r3
           ((SubPriority     & (uint32_t)((1UL << (SubPriorityBits    )) - 1UL)))
 8001264:	f04f 31ff 	mov.w	r1, #4294967295
 8001268:	697b      	ldr	r3, [r7, #20]
 800126a:	fa01 f303 	lsl.w	r3, r1, r3
 800126e:	43d9      	mvns	r1, r3
 8001270:	687b      	ldr	r3, [r7, #4]
 8001272:	400b      	ands	r3, r1
           ((PreemptPriority & (uint32_t)((1UL << (PreemptPriorityBits)) - 1UL)) << SubPriorityBits) |
 8001274:	4313      	orrs	r3, r2
         );
}
 8001276:	4618      	mov	r0, r3
 8001278:	3724      	adds	r7, #36	; 0x24
 800127a:	46bd      	mov	sp, r7
 800127c:	bc80      	pop	{r7}
 800127e:	4770      	bx	lr

08001280 <SysTick_Config>:
  \note    When the variable <b>__Vendor_SysTickConfig</b> is set to 1, then the
           function <b>SysTick_Config</b> is not included. In this case, the file <b><i>device</i>.h</b>
           must contain a vendor-specific implementation of this function.
 */
__STATIC_INLINE uint32_t SysTick_Config(uint32_t ticks)
{
 8001280:	b580      	push	{r7, lr}
 8001282:	b082      	sub	sp, #8
 8001284:	af00      	add	r7, sp, #0
 8001286:	6078      	str	r0, [r7, #4]
  if ((ticks - 1UL) > SysTick_LOAD_RELOAD_Msk)
 8001288:	687b      	ldr	r3, [r7, #4]
 800128a:	3b01      	subs	r3, #1
 800128c:	f1b3 7f80 	cmp.w	r3, #16777216	; 0x1000000
 8001290:	d301      	bcc.n	8001296 <SysTick_Config+0x16>
  {
    return (1UL);                                                   /* Reload value impossible */
 8001292:	2301      	movs	r3, #1
 8001294:	e00f      	b.n	80012b6 <SysTick_Config+0x36>
  }

  SysTick->LOAD  = (uint32_t)(ticks - 1UL);                         /* set reload register */
 8001296:	4a0a      	ldr	r2, [pc, #40]	; (80012c0 <SysTick_Config+0x40>)
 8001298:	687b      	ldr	r3, [r7, #4]
 800129a:	3b01      	subs	r3, #1
 800129c:	6053      	str	r3, [r2, #4]
  NVIC_SetPriority (SysTick_IRQn, (1UL << __NVIC_PRIO_BITS) - 1UL); /* set Priority for Systick Interrupt */
 800129e:	210f      	movs	r1, #15
 80012a0:	f04f 30ff 	mov.w	r0, #4294967295
 80012a4:	f7ff ff90 	bl	80011c8 <__NVIC_SetPriority>
  SysTick->VAL   = 0UL;                                             /* Load the SysTick Counter Value */
 80012a8:	4b05      	ldr	r3, [pc, #20]	; (80012c0 <SysTick_Config+0x40>)
 80012aa:	2200      	movs	r2, #0
 80012ac:	609a      	str	r2, [r3, #8]
  SysTick->CTRL  = SysTick_CTRL_CLKSOURCE_Msk |
 80012ae:	4b04      	ldr	r3, [pc, #16]	; (80012c0 <SysTick_Config+0x40>)
 80012b0:	2207      	movs	r2, #7
 80012b2:	601a      	str	r2, [r3, #0]
                   SysTick_CTRL_TICKINT_Msk   |
                   SysTick_CTRL_ENABLE_Msk;                         /* Enable SysTick IRQ and SysTick Timer */
  return (0UL);                                                     /* Function successful */
 80012b4:	2300      	movs	r3, #0
}
 80012b6:	4618      	mov	r0, r3
 80012b8:	3708      	adds	r7, #8
 80012ba:	46bd      	mov	sp, r7
 80012bc:	bd80      	pop	{r7, pc}
 80012be:	bf00      	nop
 80012c0:	e000e010 	.word	0xe000e010

080012c4 <HAL_NVIC_SetPriorityGrouping>:
  * @note   When the NVIC_PriorityGroup_0 is selected, IRQ preemption is no more possible. 
  *         The pending IRQ priority will be managed only by the subpriority. 
  * @retval None
  */
void HAL_NVIC_SetPriorityGrouping(uint32_t PriorityGroup)
{
 80012c4:	b580      	push	{r7, lr}
 80012c6:	b082      	sub	sp, #8
 80012c8:	af00      	add	r7, sp, #0
 80012ca:	6078      	str	r0, [r7, #4]
  /* Check the parameters */
  assert_param(IS_NVIC_PRIORITY_GROUP(PriorityGroup));
  
  /* Set the PRIGROUP[10:8] bits according to the PriorityGroup parameter value */
  NVIC_SetPriorityGrouping(PriorityGroup);
 80012cc:	6878      	ldr	r0, [r7, #4]
 80012ce:	f7ff ff2d 	bl	800112c <__NVIC_SetPriorityGrouping>
}
 80012d2:	bf00      	nop
 80012d4:	3708      	adds	r7, #8
 80012d6:	46bd      	mov	sp, r7
 80012d8:	bd80      	pop	{r7, pc}

080012da <HAL_NVIC_SetPriority>:
  *         This parameter can be a value between 0 and 15
  *         A lower priority value indicates a higher priority.          
  * @retval None
  */
void HAL_NVIC_SetPriority(IRQn_Type IRQn, uint32_t PreemptPriority, uint32_t SubPriority)
{ 
 80012da:	b580      	push	{r7, lr}
 80012dc:	b086      	sub	sp, #24
 80012de:	af00      	add	r7, sp, #0
 80012e0:	4603      	mov	r3, r0
 80012e2:	60b9      	str	r1, [r7, #8]
 80012e4:	607a      	str	r2, [r7, #4]
 80012e6:	73fb      	strb	r3, [r7, #15]
  uint32_t prioritygroup = 0x00U;
 80012e8:	2300      	movs	r3, #0
 80012ea:	617b      	str	r3, [r7, #20]
  
  /* Check the parameters */
  assert_param(IS_NVIC_SUB_PRIORITY(SubPriority));
  assert_param(IS_NVIC_PREEMPTION_PRIORITY(PreemptPriority));
  
  prioritygroup = NVIC_GetPriorityGrouping();
 80012ec:	f7ff ff42 	bl	8001174 <__NVIC_GetPriorityGrouping>
 80012f0:	6178      	str	r0, [r7, #20]
  
  NVIC_SetPriority(IRQn, NVIC_EncodePriority(prioritygroup, PreemptPriority, SubPriority));
 80012f2:	687a      	ldr	r2, [r7, #4]
 80012f4:	68b9      	ldr	r1, [r7, #8]
 80012f6:	6978      	ldr	r0, [r7, #20]
 80012f8:	f7ff ff90 	bl	800121c <NVIC_EncodePriority>
 80012fc:	4602      	mov	r2, r0
 80012fe:	f997 300f 	ldrsb.w	r3, [r7, #15]
 8001302:	4611      	mov	r1, r2
 8001304:	4618      	mov	r0, r3
 8001306:	f7ff ff5f 	bl	80011c8 <__NVIC_SetPriority>
}
 800130a:	bf00      	nop
 800130c:	3718      	adds	r7, #24
 800130e:	46bd      	mov	sp, r7
 8001310:	bd80      	pop	{r7, pc}

08001312 <HAL_NVIC_EnableIRQ>:
  *         This parameter can be an enumerator of IRQn_Type enumeration
  *         (For the complete STM32 Devices IRQ Channels list, please refer to the appropriate CMSIS device file (stm32f10xxx.h))
  * @retval None
  */
void HAL_NVIC_EnableIRQ(IRQn_Type IRQn)
{
 8001312:	b580      	push	{r7, lr}
 8001314:	b082      	sub	sp, #8
 8001316:	af00      	add	r7, sp, #0
 8001318:	4603      	mov	r3, r0
 800131a:	71fb      	strb	r3, [r7, #7]
  /* Check the parameters */
  assert_param(IS_NVIC_DEVICE_IRQ(IRQn));

  /* Enable interrupt */
  NVIC_EnableIRQ(IRQn);
 800131c:	f997 3007 	ldrsb.w	r3, [r7, #7]
 8001320:	4618      	mov	r0, r3
 8001322:	f7ff ff35 	bl	8001190 <__NVIC_EnableIRQ>
}
 8001326:	bf00      	nop
 8001328:	3708      	adds	r7, #8
 800132a:	46bd      	mov	sp, r7
 800132c:	bd80      	pop	{r7, pc}

0800132e <HAL_SYSTICK_Config>:
  * @param  TicksNumb: Specifies the ticks Number of ticks between two interrupts.
  * @retval status:  - 0  Function succeeded.
  *                  - 1  Function failed.
  */
uint32_t HAL_SYSTICK_Config(uint32_t TicksNumb)
{
 800132e:	b580      	push	{r7, lr}
 8001330:	b082      	sub	sp, #8
 8001332:	af00      	add	r7, sp, #0
 8001334:	6078      	str	r0, [r7, #4]
   return SysTick_Config(TicksNumb);
 8001336:	6878      	ldr	r0, [r7, #4]
 8001338:	f7ff ffa2 	bl	8001280 <SysTick_Config>
 800133c:	4603      	mov	r3, r0
}
 800133e:	4618      	mov	r0, r3
 8001340:	3708      	adds	r7, #8
 8001342:	46bd      	mov	sp, r7
 8001344:	bd80      	pop	{r7, pc}
	...

08001348 <HAL_GPIO_Init>:
  * @param  GPIO_Init: pointer to a GPIO_InitTypeDef structure that contains
  *         the configuration information for the specified GPIO peripheral.
  * @retval None
  */
void HAL_GPIO_Init(GPIO_TypeDef  *GPIOx, GPIO_InitTypeDef *GPIO_Init)
{
 8001348:	b480      	push	{r7}
 800134a:	b08b      	sub	sp, #44	; 0x2c
 800134c:	af00      	add	r7, sp, #0
 800134e:	6078      	str	r0, [r7, #4]
 8001350:	6039      	str	r1, [r7, #0]
  uint32_t position = 0x00u;
 8001352:	2300      	movs	r3, #0
 8001354:	627b      	str	r3, [r7, #36]	; 0x24
  uint32_t ioposition;
  uint32_t iocurrent;
  uint32_t temp;
  uint32_t config = 0x00u;
 8001356:	2300      	movs	r3, #0
 8001358:	623b      	str	r3, [r7, #32]
  assert_param(IS_GPIO_ALL_INSTANCE(GPIOx));
  assert_param(IS_GPIO_PIN(GPIO_Init->Pin));
  assert_param(IS_GPIO_MODE(GPIO_Init->Mode));

  /* Configure the port pins */
  while (((GPIO_Init->Pin) >> position) != 0x00u)
 800135a:	e161      	b.n	8001620 <HAL_GPIO_Init+0x2d8>
  {
    /* Get the IO position */
    ioposition = (0x01uL << position);
 800135c:	2201      	movs	r2, #1
 800135e:	6a7b      	ldr	r3, [r7, #36]	; 0x24
 8001360:	fa02 f303 	lsl.w	r3, r2, r3
 8001364:	61fb      	str	r3, [r7, #28]

    /* Get the current IO position */
    iocurrent = (uint32_t)(GPIO_Init->Pin) & ioposition;
 8001366:	683b      	ldr	r3, [r7, #0]
 8001368:	681b      	ldr	r3, [r3, #0]
 800136a:	69fa      	ldr	r2, [r7, #28]
 800136c:	4013      	ands	r3, r2
 800136e:	61bb      	str	r3, [r7, #24]

    if (iocurrent == ioposition)
 8001370:	69ba      	ldr	r2, [r7, #24]
 8001372:	69fb      	ldr	r3, [r7, #28]
 8001374:	429a      	cmp	r2, r3
 8001376:	f040 8150 	bne.w	800161a <HAL_GPIO_Init+0x2d2>
    {
      /* Check the Alternate function parameters */
      assert_param(IS_GPIO_AF_INSTANCE(GPIOx));

      /* Based on the required mode, filling config variable with MODEy[1:0] and CNFy[3:2] corresponding bits */
      switch (GPIO_Init->Mode)
 800137a:	683b      	ldr	r3, [r7, #0]
 800137c:	685b      	ldr	r3, [r3, #4]
 800137e:	4a97      	ldr	r2, [pc, #604]	; (80015dc <HAL_GPIO_Init+0x294>)
 8001380:	4293      	cmp	r3, r2
 8001382:	d05e      	beq.n	8001442 <HAL_GPIO_Init+0xfa>
 8001384:	4a95      	ldr	r2, [pc, #596]	; (80015dc <HAL_GPIO_Init+0x294>)
 8001386:	4293      	cmp	r3, r2
 8001388:	d875      	bhi.n	8001476 <HAL_GPIO_Init+0x12e>
 800138a:	4a95      	ldr	r2, [pc, #596]	; (80015e0 <HAL_GPIO_Init+0x298>)
 800138c:	4293      	cmp	r3, r2
 800138e:	d058      	beq.n	8001442 <HAL_GPIO_Init+0xfa>
 8001390:	4a93      	ldr	r2, [pc, #588]	; (80015e0 <HAL_GPIO_Init+0x298>)
 8001392:	4293      	cmp	r3, r2
 8001394:	d86f      	bhi.n	8001476 <HAL_GPIO_Init+0x12e>
 8001396:	4a93      	ldr	r2, [pc, #588]	; (80015e4 <HAL_GPIO_Init+0x29c>)
 8001398:	4293      	cmp	r3, r2
 800139a:	d052      	beq.n	8001442 <HAL_GPIO_Init+0xfa>
 800139c:	4a91      	ldr	r2, [pc, #580]	; (80015e4 <HAL_GPIO_Init+0x29c>)
 800139e:	4293      	cmp	r3, r2
 80013a0:	d869      	bhi.n	8001476 <HAL_GPIO_Init+0x12e>
 80013a2:	4a91      	ldr	r2, [pc, #580]	; (80015e8 <HAL_GPIO_Init+0x2a0>)
 80013a4:	4293      	cmp	r3, r2
 80013a6:	d04c      	beq.n	8001442 <HAL_GPIO_Init+0xfa>
 80013a8:	4a8f      	ldr	r2, [pc, #572]	; (80015e8 <HAL_GPIO_Init+0x2a0>)
 80013aa:	4293      	cmp	r3, r2
 80013ac:	d863      	bhi.n	8001476 <HAL_GPIO_Init+0x12e>
 80013ae:	4a8f      	ldr	r2, [pc, #572]	; (80015ec <HAL_GPIO_Init+0x2a4>)
 80013b0:	4293      	cmp	r3, r2
 80013b2:	d046      	beq.n	8001442 <HAL_GPIO_Init+0xfa>
 80013b4:	4a8d      	ldr	r2, [pc, #564]	; (80015ec <HAL_GPIO_Init+0x2a4>)
 80013b6:	4293      	cmp	r3, r2
 80013b8:	d85d      	bhi.n	8001476 <HAL_GPIO_Init+0x12e>
 80013ba:	2b12      	cmp	r3, #18
 80013bc:	d82a      	bhi.n	8001414 <HAL_GPIO_Init+0xcc>
 80013be:	2b12      	cmp	r3, #18
 80013c0:	d859      	bhi.n	8001476 <HAL_GPIO_Init+0x12e>
 80013c2:	a201      	add	r2, pc, #4	; (adr r2, 80013c8 <HAL_GPIO_Init+0x80>)
 80013c4:	f852 f023 	ldr.w	pc, [r2, r3, lsl #2]
 80013c8:	08001443 	.word	0x08001443
 80013cc:	0800141d 	.word	0x0800141d
 80013d0:	0800142f 	.word	0x0800142f
 80013d4:	08001471 	.word	0x08001471
 80013d8:	08001477 	.word	0x08001477
 80013dc:	08001477 	.word	0x08001477
 80013e0:	08001477 	.word	0x08001477
 80013e4:	08001477 	.word	0x08001477
 80013e8:	08001477 	.word	0x08001477
 80013ec:	08001477 	.word	0x08001477
 80013f0:	08001477 	.word	0x08001477
 80013f4:	08001477 	.word	0x08001477
 80013f8:	08001477 	.word	0x08001477
 80013fc:	08001477 	.word	0x08001477
 8001400:	08001477 	.word	0x08001477
 8001404:	08001477 	.word	0x08001477
 8001408:	08001477 	.word	0x08001477
 800140c:	08001425 	.word	0x08001425
 8001410:	08001439 	.word	0x08001439
 8001414:	4a76      	ldr	r2, [pc, #472]	; (80015f0 <HAL_GPIO_Init+0x2a8>)
 8001416:	4293      	cmp	r3, r2
 8001418:	d013      	beq.n	8001442 <HAL_GPIO_Init+0xfa>
          config = GPIO_CR_MODE_INPUT + GPIO_CR_CNF_ANALOG;
          break;

        /* Parameters are checked with assert_param */
        default:
          break;
 800141a:	e02c      	b.n	8001476 <HAL_GPIO_Init+0x12e>
          config = GPIO_Init->Speed + GPIO_CR_CNF_GP_OUTPUT_PP;
 800141c:	683b      	ldr	r3, [r7, #0]
 800141e:	68db      	ldr	r3, [r3, #12]
 8001420:	623b      	str	r3, [r7, #32]
          break;
 8001422:	e029      	b.n	8001478 <HAL_GPIO_Init+0x130>
          config = GPIO_Init->Speed + GPIO_CR_CNF_GP_OUTPUT_OD;
 8001424:	683b      	ldr	r3, [r7, #0]
 8001426:	68db      	ldr	r3, [r3, #12]
 8001428:	3304      	adds	r3, #4
 800142a:	623b      	str	r3, [r7, #32]
          break;
 800142c:	e024      	b.n	8001478 <HAL_GPIO_Init+0x130>
          config = GPIO_Init->Speed + GPIO_CR_CNF_AF_OUTPUT_PP;
 800142e:	683b      	ldr	r3, [r7, #0]
 8001430:	68db      	ldr	r3, [r3, #12]
 8001432:	3308      	adds	r3, #8
 8001434:	623b      	str	r3, [r7, #32]
          break;
 8001436:	e01f      	b.n	8001478 <HAL_GPIO_Init+0x130>
          config = GPIO_Init->Speed + GPIO_CR_CNF_AF_OUTPUT_OD;
 8001438:	683b      	ldr	r3, [r7, #0]
 800143a:	68db      	ldr	r3, [r3, #12]
 800143c:	330c      	adds	r3, #12
 800143e:	623b      	str	r3, [r7, #32]
          break;
 8001440:	e01a      	b.n	8001478 <HAL_GPIO_Init+0x130>
          if (GPIO_Init->Pull == GPIO_NOPULL)
 8001442:	683b      	ldr	r3, [r7, #0]
 8001444:	689b      	ldr	r3, [r3, #8]
 8001446:	2b00      	cmp	r3, #0
 8001448:	d102      	bne.n	8001450 <HAL_GPIO_Init+0x108>
            config = GPIO_CR_MODE_INPUT + GPIO_CR_CNF_INPUT_FLOATING;
 800144a:	2304      	movs	r3, #4
 800144c:	623b      	str	r3, [r7, #32]
          break;
 800144e:	e013      	b.n	8001478 <HAL_GPIO_Init+0x130>
          else if (GPIO_Init->Pull == GPIO_PULLUP)
 8001450:	683b      	ldr	r3, [r7, #0]
 8001452:	689b      	ldr	r3, [r3, #8]
 8001454:	2b01      	cmp	r3, #1
 8001456:	d105      	bne.n	8001464 <HAL_GPIO_Init+0x11c>
            config = GPIO_CR_MODE_INPUT + GPIO_CR_CNF_INPUT_PU_PD;
 8001458:	2308      	movs	r3, #8
 800145a:	623b      	str	r3, [r7, #32]
            GPIOx->BSRR = ioposition;
 800145c:	687b      	ldr	r3, [r7, #4]
 800145e:	69fa      	ldr	r2, [r7, #28]
 8001460:	611a      	str	r2, [r3, #16]
          break;
 8001462:	e009      	b.n	8001478 <HAL_GPIO_Init+0x130>
            config = GPIO_CR_MODE_INPUT + GPIO_CR_CNF_INPUT_PU_PD;
 8001464:	2308      	movs	r3, #8
 8001466:	623b      	str	r3, [r7, #32]
            GPIOx->BRR = ioposition;
 8001468:	687b      	ldr	r3, [r7, #4]
 800146a:	69fa      	ldr	r2, [r7, #28]
 800146c:	615a      	str	r2, [r3, #20]
          break;
 800146e:	e003      	b.n	8001478 <HAL_GPIO_Init+0x130>
          config = GPIO_CR_MODE_INPUT + GPIO_CR_CNF_ANALOG;
 8001470:	2300      	movs	r3, #0
 8001472:	623b      	str	r3, [r7, #32]
          break;
 8001474:	e000      	b.n	8001478 <HAL_GPIO_Init+0x130>
          break;
 8001476:	bf00      	nop
      }

      /* Check if the current bit belongs to first half or last half of the pin count number
       in order to address CRH or CRL register*/
      configregister = (iocurrent < GPIO_PIN_8) ? &GPIOx->CRL     : &GPIOx->CRH;
 8001478:	69bb      	ldr	r3, [r7, #24]
 800147a:	2bff      	cmp	r3, #255	; 0xff
 800147c:	d801      	bhi.n	8001482 <HAL_GPIO_Init+0x13a>
 800147e:	687b      	ldr	r3, [r7, #4]
 8001480:	e001      	b.n	8001486 <HAL_GPIO_Init+0x13e>
 8001482:	687b      	ldr	r3, [r7, #4]
 8001484:	3304      	adds	r3, #4
 8001486:	617b      	str	r3, [r7, #20]
      registeroffset = (iocurrent < GPIO_PIN_8) ? (position << 2u) : ((position - 8u) << 2u);
 8001488:	69bb      	ldr	r3, [r7, #24]
 800148a:	2bff      	cmp	r3, #255	; 0xff
 800148c:	d802      	bhi.n	8001494 <HAL_GPIO_Init+0x14c>
 800148e:	6a7b      	ldr	r3, [r7, #36]	; 0x24
 8001490:	009b      	lsls	r3, r3, #2
 8001492:	e002      	b.n	800149a <HAL_GPIO_Init+0x152>
 8001494:	6a7b      	ldr	r3, [r7, #36]	; 0x24
 8001496:	3b08      	subs	r3, #8
 8001498:	009b      	lsls	r3, r3, #2
 800149a:	613b      	str	r3, [r7, #16]

      /* Apply the new configuration of the pin to the register */
      MODIFY_REG((*configregister), ((GPIO_CRL_MODE0 | GPIO_CRL_CNF0) << registeroffset), (config << registeroffset));
 800149c:	697b      	ldr	r3, [r7, #20]
 800149e:	681a      	ldr	r2, [r3, #0]
 80014a0:	210f      	movs	r1, #15
 80014a2:	693b      	ldr	r3, [r7, #16]
 80014a4:	fa01 f303 	lsl.w	r3, r1, r3
 80014a8:	43db      	mvns	r3, r3
 80014aa:	401a      	ands	r2, r3
 80014ac:	6a39      	ldr	r1, [r7, #32]
 80014ae:	693b      	ldr	r3, [r7, #16]
 80014b0:	fa01 f303 	lsl.w	r3, r1, r3
 80014b4:	431a      	orrs	r2, r3
 80014b6:	697b      	ldr	r3, [r7, #20]
 80014b8:	601a      	str	r2, [r3, #0]

      /*--------------------- EXTI Mode Configuration ------------------------*/
      /* Configure the External Interrupt or event for the current IO */
      if ((GPIO_Init->Mode & EXTI_MODE) == EXTI_MODE)
 80014ba:	683b      	ldr	r3, [r7, #0]
 80014bc:	685b      	ldr	r3, [r3, #4]
 80014be:	f003 5380 	and.w	r3, r3, #268435456	; 0x10000000
 80014c2:	2b00      	cmp	r3, #0
 80014c4:	f000 80a9 	beq.w	800161a <HAL_GPIO_Init+0x2d2>
      {
        /* Enable AFIO Clock */
        __HAL_RCC_AFIO_CLK_ENABLE();
 80014c8:	4b4a      	ldr	r3, [pc, #296]	; (80015f4 <HAL_GPIO_Init+0x2ac>)
 80014ca:	699b      	ldr	r3, [r3, #24]
 80014cc:	4a49      	ldr	r2, [pc, #292]	; (80015f4 <HAL_GPIO_Init+0x2ac>)
 80014ce:	f043 0301 	orr.w	r3, r3, #1
 80014d2:	6193      	str	r3, [r2, #24]
 80014d4:	4b47      	ldr	r3, [pc, #284]	; (80015f4 <HAL_GPIO_Init+0x2ac>)
 80014d6:	699b      	ldr	r3, [r3, #24]
 80014d8:	f003 0301 	and.w	r3, r3, #1
 80014dc:	60bb      	str	r3, [r7, #8]
 80014de:	68bb      	ldr	r3, [r7, #8]
        temp = AFIO->EXTICR[position >> 2u];
 80014e0:	4a45      	ldr	r2, [pc, #276]	; (80015f8 <HAL_GPIO_Init+0x2b0>)
 80014e2:	6a7b      	ldr	r3, [r7, #36]	; 0x24
 80014e4:	089b      	lsrs	r3, r3, #2
 80014e6:	3302      	adds	r3, #2
 80014e8:	f852 3023 	ldr.w	r3, [r2, r3, lsl #2]
 80014ec:	60fb      	str	r3, [r7, #12]
        CLEAR_BIT(temp, (0x0Fu) << (4u * (position & 0x03u)));
 80014ee:	6a7b      	ldr	r3, [r7, #36]	; 0x24
 80014f0:	f003 0303 	and.w	r3, r3, #3
 80014f4:	009b      	lsls	r3, r3, #2
 80014f6:	220f      	movs	r2, #15
 80014f8:	fa02 f303 	lsl.w	r3, r2, r3
 80014fc:	43db      	mvns	r3, r3
 80014fe:	68fa      	ldr	r2, [r7, #12]
 8001500:	4013      	ands	r3, r2
 8001502:	60fb      	str	r3, [r7, #12]
        SET_BIT(temp, (GPIO_GET_INDEX(GPIOx)) << (4u * (position & 0x03u)));
 8001504:	687b      	ldr	r3, [r7, #4]
 8001506:	4a3d      	ldr	r2, [pc, #244]	; (80015fc <HAL_GPIO_Init+0x2b4>)
 8001508:	4293      	cmp	r3, r2
 800150a:	d00d      	beq.n	8001528 <HAL_GPIO_Init+0x1e0>
 800150c:	687b      	ldr	r3, [r7, #4]
 800150e:	4a3c      	ldr	r2, [pc, #240]	; (8001600 <HAL_GPIO_Init+0x2b8>)
 8001510:	4293      	cmp	r3, r2
 8001512:	d007      	beq.n	8001524 <HAL_GPIO_Init+0x1dc>
 8001514:	687b      	ldr	r3, [r7, #4]
 8001516:	4a3b      	ldr	r2, [pc, #236]	; (8001604 <HAL_GPIO_Init+0x2bc>)
 8001518:	4293      	cmp	r3, r2
 800151a:	d101      	bne.n	8001520 <HAL_GPIO_Init+0x1d8>
 800151c:	2302      	movs	r3, #2
 800151e:	e004      	b.n	800152a <HAL_GPIO_Init+0x1e2>
 8001520:	2303      	movs	r3, #3
 8001522:	e002      	b.n	800152a <HAL_GPIO_Init+0x1e2>
 8001524:	2301      	movs	r3, #1
 8001526:	e000      	b.n	800152a <HAL_GPIO_Init+0x1e2>
 8001528:	2300      	movs	r3, #0
 800152a:	6a7a      	ldr	r2, [r7, #36]	; 0x24
 800152c:	f002 0203 	and.w	r2, r2, #3
 8001530:	0092      	lsls	r2, r2, #2
 8001532:	4093      	lsls	r3, r2
 8001534:	68fa      	ldr	r2, [r7, #12]
 8001536:	4313      	orrs	r3, r2
 8001538:	60fb      	str	r3, [r7, #12]
        AFIO->EXTICR[position >> 2u] = temp;
 800153a:	492f      	ldr	r1, [pc, #188]	; (80015f8 <HAL_GPIO_Init+0x2b0>)
 800153c:	6a7b      	ldr	r3, [r7, #36]	; 0x24
 800153e:	089b      	lsrs	r3, r3, #2
 8001540:	3302      	adds	r3, #2
 8001542:	68fa      	ldr	r2, [r7, #12]
 8001544:	f841 2023 	str.w	r2, [r1, r3, lsl #2]


        /* Enable or disable the rising trigger */
        if ((GPIO_Init->Mode & RISING_EDGE) == RISING_EDGE)
 8001548:	683b      	ldr	r3, [r7, #0]
 800154a:	685b      	ldr	r3, [r3, #4]
 800154c:	f403 1380 	and.w	r3, r3, #1048576	; 0x100000
 8001550:	2b00      	cmp	r3, #0
 8001552:	d006      	beq.n	8001562 <HAL_GPIO_Init+0x21a>
        {
          SET_BIT(EXTI->RTSR, iocurrent);
 8001554:	4b2c      	ldr	r3, [pc, #176]	; (8001608 <HAL_GPIO_Init+0x2c0>)
 8001556:	689a      	ldr	r2, [r3, #8]
 8001558:	492b      	ldr	r1, [pc, #172]	; (8001608 <HAL_GPIO_Init+0x2c0>)
 800155a:	69bb      	ldr	r3, [r7, #24]
 800155c:	4313      	orrs	r3, r2
 800155e:	608b      	str	r3, [r1, #8]
 8001560:	e006      	b.n	8001570 <HAL_GPIO_Init+0x228>
        }
        else
        {
          CLEAR_BIT(EXTI->RTSR, iocurrent);
 8001562:	4b29      	ldr	r3, [pc, #164]	; (8001608 <HAL_GPIO_Init+0x2c0>)
 8001564:	689a      	ldr	r2, [r3, #8]
 8001566:	69bb      	ldr	r3, [r7, #24]
 8001568:	43db      	mvns	r3, r3
 800156a:	4927      	ldr	r1, [pc, #156]	; (8001608 <HAL_GPIO_Init+0x2c0>)
 800156c:	4013      	ands	r3, r2
 800156e:	608b      	str	r3, [r1, #8]
        }

        /* Enable or disable the falling trigger */
        if ((GPIO_Init->Mode & FALLING_EDGE) == FALLING_EDGE)
 8001570:	683b      	ldr	r3, [r7, #0]
 8001572:	685b      	ldr	r3, [r3, #4]
 8001574:	f403 1300 	and.w	r3, r3, #2097152	; 0x200000
 8001578:	2b00      	cmp	r3, #0
 800157a:	d006      	beq.n	800158a <HAL_GPIO_Init+0x242>
        {
          SET_BIT(EXTI->FTSR, iocurrent);
 800157c:	4b22      	ldr	r3, [pc, #136]	; (8001608 <HAL_GPIO_Init+0x2c0>)
 800157e:	68da      	ldr	r2, [r3, #12]
 8001580:	4921      	ldr	r1, [pc, #132]	; (8001608 <HAL_GPIO_Init+0x2c0>)
 8001582:	69bb      	ldr	r3, [r7, #24]
 8001584:	4313      	orrs	r3, r2
 8001586:	60cb      	str	r3, [r1, #12]
 8001588:	e006      	b.n	8001598 <HAL_GPIO_Init+0x250>
        }
        else
        {
          CLEAR_BIT(EXTI->FTSR, iocurrent);
 800158a:	4b1f      	ldr	r3, [pc, #124]	; (8001608 <HAL_GPIO_Init+0x2c0>)
 800158c:	68da      	ldr	r2, [r3, #12]
 800158e:	69bb      	ldr	r3, [r7, #24]
 8001590:	43db      	mvns	r3, r3
 8001592:	491d      	ldr	r1, [pc, #116]	; (8001608 <HAL_GPIO_Init+0x2c0>)
 8001594:	4013      	ands	r3, r2
 8001596:	60cb      	str	r3, [r1, #12]
        }

        /* Configure the event mask */
        if ((GPIO_Init->Mode & GPIO_MODE_EVT) == GPIO_MODE_EVT)
 8001598:	683b      	ldr	r3, [r7, #0]
 800159a:	685b      	ldr	r3, [r3, #4]
 800159c:	f403 3300 	and.w	r3, r3, #131072	; 0x20000
 80015a0:	2b00      	cmp	r3, #0
 80015a2:	d006      	beq.n	80015b2 <HAL_GPIO_Init+0x26a>
        {
          SET_BIT(EXTI->EMR, iocurrent);
 80015a4:	4b18      	ldr	r3, [pc, #96]	; (8001608 <HAL_GPIO_Init+0x2c0>)
 80015a6:	685a      	ldr	r2, [r3, #4]
 80015a8:	4917      	ldr	r1, [pc, #92]	; (8001608 <HAL_GPIO_Init+0x2c0>)
 80015aa:	69bb      	ldr	r3, [r7, #24]
 80015ac:	4313      	orrs	r3, r2
 80015ae:	604b      	str	r3, [r1, #4]
 80015b0:	e006      	b.n	80015c0 <HAL_GPIO_Init+0x278>
        }
        else
        {
          CLEAR_BIT(EXTI->EMR, iocurrent);
 80015b2:	4b15      	ldr	r3, [pc, #84]	; (8001608 <HAL_GPIO_Init+0x2c0>)
 80015b4:	685a      	ldr	r2, [r3, #4]
 80015b6:	69bb      	ldr	r3, [r7, #24]
 80015b8:	43db      	mvns	r3, r3
 80015ba:	4913      	ldr	r1, [pc, #76]	; (8001608 <HAL_GPIO_Init+0x2c0>)
 80015bc:	4013      	ands	r3, r2
 80015be:	604b      	str	r3, [r1, #4]
        }

        /* Configure the interrupt mask */
        if ((GPIO_Init->Mode & GPIO_MODE_IT) == GPIO_MODE_IT)
 80015c0:	683b      	ldr	r3, [r7, #0]
 80015c2:	685b      	ldr	r3, [r3, #4]
 80015c4:	f403 3380 	and.w	r3, r3, #65536	; 0x10000
 80015c8:	2b00      	cmp	r3, #0
 80015ca:	d01f      	beq.n	800160c <HAL_GPIO_Init+0x2c4>
        {
          SET_BIT(EXTI->IMR, iocurrent);
 80015cc:	4b0e      	ldr	r3, [pc, #56]	; (8001608 <HAL_GPIO_Init+0x2c0>)
 80015ce:	681a      	ldr	r2, [r3, #0]
 80015d0:	490d      	ldr	r1, [pc, #52]	; (8001608 <HAL_GPIO_Init+0x2c0>)
 80015d2:	69bb      	ldr	r3, [r7, #24]
 80015d4:	4313      	orrs	r3, r2
 80015d6:	600b      	str	r3, [r1, #0]
 80015d8:	e01f      	b.n	800161a <HAL_GPIO_Init+0x2d2>
 80015da:	bf00      	nop
 80015dc:	10320000 	.word	0x10320000
 80015e0:	10310000 	.word	0x10310000
 80015e4:	10220000 	.word	0x10220000
 80015e8:	10210000 	.word	0x10210000
 80015ec:	10120000 	.word	0x10120000
 80015f0:	10110000 	.word	0x10110000
 80015f4:	40021000 	.word	0x40021000
 80015f8:	40010000 	.word	0x40010000
 80015fc:	40010800 	.word	0x40010800
 8001600:	40010c00 	.word	0x40010c00
 8001604:	40011000 	.word	0x40011000
 8001608:	40010400 	.word	0x40010400
        }
        else
        {
          CLEAR_BIT(EXTI->IMR, iocurrent);
 800160c:	4b0b      	ldr	r3, [pc, #44]	; (800163c <HAL_GPIO_Init+0x2f4>)
 800160e:	681a      	ldr	r2, [r3, #0]
 8001610:	69bb      	ldr	r3, [r7, #24]
 8001612:	43db      	mvns	r3, r3
 8001614:	4909      	ldr	r1, [pc, #36]	; (800163c <HAL_GPIO_Init+0x2f4>)
 8001616:	4013      	ands	r3, r2
 8001618:	600b      	str	r3, [r1, #0]
        }
      }
    }

	position++;
 800161a:	6a7b      	ldr	r3, [r7, #36]	; 0x24
 800161c:	3301      	adds	r3, #1
 800161e:	627b      	str	r3, [r7, #36]	; 0x24
  while (((GPIO_Init->Pin) >> position) != 0x00u)
 8001620:	683b      	ldr	r3, [r7, #0]
 8001622:	681a      	ldr	r2, [r3, #0]
 8001624:	6a7b      	ldr	r3, [r7, #36]	; 0x24
 8001626:	fa22 f303 	lsr.w	r3, r2, r3
 800162a:	2b00      	cmp	r3, #0
 800162c:	f47f ae96 	bne.w	800135c <HAL_GPIO_Init+0x14>
  }
}
 8001630:	bf00      	nop
 8001632:	bf00      	nop
 8001634:	372c      	adds	r7, #44	; 0x2c
 8001636:	46bd      	mov	sp, r7
 8001638:	bc80      	pop	{r7}
 800163a:	4770      	bx	lr
 800163c:	40010400 	.word	0x40010400

08001640 <HAL_GPIO_WritePin>:
  *            @arg GPIO_PIN_RESET: to clear the port pin
  *            @arg GPIO_PIN_SET: to set the port pin
  * @retval None
  */
void HAL_GPIO_WritePin(GPIO_TypeDef *GPIOx, uint16_t GPIO_Pin, GPIO_PinState PinState)
{
 8001640:	b480      	push	{r7}
 8001642:	b083      	sub	sp, #12
 8001644:	af00      	add	r7, sp, #0
 8001646:	6078      	str	r0, [r7, #4]
 8001648:	460b      	mov	r3, r1
 800164a:	807b      	strh	r3, [r7, #2]
 800164c:	4613      	mov	r3, r2
 800164e:	707b      	strb	r3, [r7, #1]
  /* Check the parameters */
  assert_param(IS_GPIO_PIN(GPIO_Pin));
  assert_param(IS_GPIO_PIN_ACTION(PinState));

  if (PinState != GPIO_PIN_RESET)
 8001650:	787b      	ldrb	r3, [r7, #1]
 8001652:	2b00      	cmp	r3, #0
 8001654:	d003      	beq.n	800165e <HAL_GPIO_WritePin+0x1e>
  {
    GPIOx->BSRR = GPIO_Pin;
 8001656:	887a      	ldrh	r2, [r7, #2]
 8001658:	687b      	ldr	r3, [r7, #4]
 800165a:	611a      	str	r2, [r3, #16]
  }
  else
  {
    GPIOx->BSRR = (uint32_t)GPIO_Pin << 16u;
  }
}
 800165c:	e003      	b.n	8001666 <HAL_GPIO_WritePin+0x26>
    GPIOx->BSRR = (uint32_t)GPIO_Pin << 16u;
 800165e:	887b      	ldrh	r3, [r7, #2]
 8001660:	041a      	lsls	r2, r3, #16
 8001662:	687b      	ldr	r3, [r7, #4]
 8001664:	611a      	str	r2, [r3, #16]
}
 8001666:	bf00      	nop
 8001668:	370c      	adds	r7, #12
 800166a:	46bd      	mov	sp, r7
 800166c:	bc80      	pop	{r7}
 800166e:	4770      	bx	lr

08001670 <HAL_RCC_OscConfig>:
  *         supported by this macro. User should request a transition to HSE Off
  *         first and then HSE On or HSE Bypass.
  * @retval HAL status
  */
HAL_StatusTypeDef HAL_RCC_OscConfig(RCC_OscInitTypeDef  *RCC_OscInitStruct)
{
 8001670:	b580      	push	{r7, lr}
 8001672:	b086      	sub	sp, #24
 8001674:	af00      	add	r7, sp, #0
 8001676:	6078      	str	r0, [r7, #4]
  uint32_t tickstart;
  uint32_t pll_config;

  /* Check Null pointer */
  if (RCC_OscInitStruct == NULL)
 8001678:	687b      	ldr	r3, [r7, #4]
 800167a:	2b00      	cmp	r3, #0
 800167c:	d101      	bne.n	8001682 <HAL_RCC_OscConfig+0x12>
  {
    return HAL_ERROR;
 800167e:	2301      	movs	r3, #1
 8001680:	e272      	b.n	8001b68 <HAL_RCC_OscConfig+0x4f8>

  /* Check the parameters */
  assert_param(IS_RCC_OSCILLATORTYPE(RCC_OscInitStruct->OscillatorType));

  /*------------------------------- HSE Configuration ------------------------*/
  if (((RCC_OscInitStruct->OscillatorType) & RCC_OSCILLATORTYPE_HSE) == RCC_OSCILLATORTYPE_HSE)
 8001682:	687b      	ldr	r3, [r7, #4]
 8001684:	681b      	ldr	r3, [r3, #0]
 8001686:	f003 0301 	and.w	r3, r3, #1
 800168a:	2b00      	cmp	r3, #0
 800168c:	f000 8087 	beq.w	800179e <HAL_RCC_OscConfig+0x12e>
  {
    /* Check the parameters */
    assert_param(IS_RCC_HSE(RCC_OscInitStruct->HSEState));

    /* When the HSE is used as system clock or clock source for PLL in these cases it is not allowed to be disabled */
    if ((__HAL_RCC_GET_SYSCLK_SOURCE() == RCC_SYSCLKSOURCE_STATUS_HSE)
 8001690:	4b92      	ldr	r3, [pc, #584]	; (80018dc <HAL_RCC_OscConfig+0x26c>)
 8001692:	685b      	ldr	r3, [r3, #4]
 8001694:	f003 030c 	and.w	r3, r3, #12
 8001698:	2b04      	cmp	r3, #4
 800169a:	d00c      	beq.n	80016b6 <HAL_RCC_OscConfig+0x46>
        || ((__HAL_RCC_GET_SYSCLK_SOURCE() == RCC_SYSCLKSOURCE_STATUS_PLLCLK) && (__HAL_RCC_GET_PLL_OSCSOURCE() == RCC_PLLSOURCE_HSE)))
 800169c:	4b8f      	ldr	r3, [pc, #572]	; (80018dc <HAL_RCC_OscConfig+0x26c>)
 800169e:	685b      	ldr	r3, [r3, #4]
 80016a0:	f003 030c 	and.w	r3, r3, #12
 80016a4:	2b08      	cmp	r3, #8
 80016a6:	d112      	bne.n	80016ce <HAL_RCC_OscConfig+0x5e>
 80016a8:	4b8c      	ldr	r3, [pc, #560]	; (80018dc <HAL_RCC_OscConfig+0x26c>)
 80016aa:	685b      	ldr	r3, [r3, #4]
 80016ac:	f403 3380 	and.w	r3, r3, #65536	; 0x10000
 80016b0:	f5b3 3f80 	cmp.w	r3, #65536	; 0x10000
 80016b4:	d10b      	bne.n	80016ce <HAL_RCC_OscConfig+0x5e>
    {
      if ((__HAL_RCC_GET_FLAG(RCC_FLAG_HSERDY) != RESET) && (RCC_OscInitStruct->HSEState == RCC_HSE_OFF))
 80016b6:	4b89      	ldr	r3, [pc, #548]	; (80018dc <HAL_RCC_OscConfig+0x26c>)
 80016b8:	681b      	ldr	r3, [r3, #0]
 80016ba:	f403 3300 	and.w	r3, r3, #131072	; 0x20000
 80016be:	2b00      	cmp	r3, #0
 80016c0:	d06c      	beq.n	800179c <HAL_RCC_OscConfig+0x12c>
 80016c2:	687b      	ldr	r3, [r7, #4]
 80016c4:	685b      	ldr	r3, [r3, #4]
 80016c6:	2b00      	cmp	r3, #0
 80016c8:	d168      	bne.n	800179c <HAL_RCC_OscConfig+0x12c>
      {
        return HAL_ERROR;
 80016ca:	2301      	movs	r3, #1
 80016cc:	e24c      	b.n	8001b68 <HAL_RCC_OscConfig+0x4f8>
      }
    }
    else
    {
      /* Set the new HSE configuration ---------------------------------------*/
      __HAL_RCC_HSE_CONFIG(RCC_OscInitStruct->HSEState);
 80016ce:	687b      	ldr	r3, [r7, #4]
 80016d0:	685b      	ldr	r3, [r3, #4]
 80016d2:	f5b3 3f80 	cmp.w	r3, #65536	; 0x10000
 80016d6:	d106      	bne.n	80016e6 <HAL_RCC_OscConfig+0x76>
 80016d8:	4b80      	ldr	r3, [pc, #512]	; (80018dc <HAL_RCC_OscConfig+0x26c>)
 80016da:	681b      	ldr	r3, [r3, #0]
 80016dc:	4a7f      	ldr	r2, [pc, #508]	; (80018dc <HAL_RCC_OscConfig+0x26c>)
 80016de:	f443 3380 	orr.w	r3, r3, #65536	; 0x10000
 80016e2:	6013      	str	r3, [r2, #0]
 80016e4:	e02e      	b.n	8001744 <HAL_RCC_OscConfig+0xd4>
 80016e6:	687b      	ldr	r3, [r7, #4]
 80016e8:	685b      	ldr	r3, [r3, #4]
 80016ea:	2b00      	cmp	r3, #0
 80016ec:	d10c      	bne.n	8001708 <HAL_RCC_OscConfig+0x98>
 80016ee:	4b7b      	ldr	r3, [pc, #492]	; (80018dc <HAL_RCC_OscConfig+0x26c>)
 80016f0:	681b      	ldr	r3, [r3, #0]
 80016f2:	4a7a      	ldr	r2, [pc, #488]	; (80018dc <HAL_RCC_OscConfig+0x26c>)
 80016f4:	f423 3380 	bic.w	r3, r3, #65536	; 0x10000
 80016f8:	6013      	str	r3, [r2, #0]
 80016fa:	4b78      	ldr	r3, [pc, #480]	; (80018dc <HAL_RCC_OscConfig+0x26c>)
 80016fc:	681b      	ldr	r3, [r3, #0]
 80016fe:	4a77      	ldr	r2, [pc, #476]	; (80018dc <HAL_RCC_OscConfig+0x26c>)
 8001700:	f423 2380 	bic.w	r3, r3, #262144	; 0x40000
 8001704:	6013      	str	r3, [r2, #0]
 8001706:	e01d      	b.n	8001744 <HAL_RCC_OscConfig+0xd4>
 8001708:	687b      	ldr	r3, [r7, #4]
 800170a:	685b      	ldr	r3, [r3, #4]
 800170c:	f5b3 2fa0 	cmp.w	r3, #327680	; 0x50000
 8001710:	d10c      	bne.n	800172c <HAL_RCC_OscConfig+0xbc>
 8001712:	4b72      	ldr	r3, [pc, #456]	; (80018dc <HAL_RCC_OscConfig+0x26c>)
 8001714:	681b      	ldr	r3, [r3, #0]
 8001716:	4a71      	ldr	r2, [pc, #452]	; (80018dc <HAL_RCC_OscConfig+0x26c>)
 8001718:	f443 2380 	orr.w	r3, r3, #262144	; 0x40000
 800171c:	6013      	str	r3, [r2, #0]
 800171e:	4b6f      	ldr	r3, [pc, #444]	; (80018dc <HAL_RCC_OscConfig+0x26c>)
 8001720:	681b      	ldr	r3, [r3, #0]
 8001722:	4a6e      	ldr	r2, [pc, #440]	; (80018dc <HAL_RCC_OscConfig+0x26c>)
 8001724:	f443 3380 	orr.w	r3, r3, #65536	; 0x10000
 8001728:	6013      	str	r3, [r2, #0]
 800172a:	e00b      	b.n	8001744 <HAL_RCC_OscConfig+0xd4>
 800172c:	4b6b      	ldr	r3, [pc, #428]	; (80018dc <HAL_RCC_OscConfig+0x26c>)
 800172e:	681b      	ldr	r3, [r3, #0]
 8001730:	4a6a      	ldr	r2, [pc, #424]	; (80018dc <HAL_RCC_OscConfig+0x26c>)
 8001732:	f423 3380 	bic.w	r3, r3, #65536	; 0x10000
 8001736:	6013      	str	r3, [r2, #0]
 8001738:	4b68      	ldr	r3, [pc, #416]	; (80018dc <HAL_RCC_OscConfig+0x26c>)
 800173a:	681b      	ldr	r3, [r3, #0]
 800173c:	4a67      	ldr	r2, [pc, #412]	; (80018dc <HAL_RCC_OscConfig+0x26c>)
 800173e:	f423 2380 	bic.w	r3, r3, #262144	; 0x40000
 8001742:	6013      	str	r3, [r2, #0]


      /* Check the HSE State */
      if (RCC_OscInitStruct->HSEState != RCC_HSE_OFF)
 8001744:	687b      	ldr	r3, [r7, #4]
 8001746:	685b      	ldr	r3, [r3, #4]
 8001748:	2b00      	cmp	r3, #0
 800174a:	d013      	beq.n	8001774 <HAL_RCC_OscConfig+0x104>
      {
        /* Get Start Tick */
        tickstart = HAL_GetTick();
 800174c:	f7ff fce4 	bl	8001118 <HAL_GetTick>
 8001750:	6138      	str	r0, [r7, #16]

        /* Wait till HSE is ready */
        while (__HAL_RCC_GET_FLAG(RCC_FLAG_HSERDY) == RESET)
 8001752:	e008      	b.n	8001766 <HAL_RCC_OscConfig+0xf6>
        {
          if ((HAL_GetTick() - tickstart) > HSE_TIMEOUT_VALUE)
 8001754:	f7ff fce0 	bl	8001118 <HAL_GetTick>
 8001758:	4602      	mov	r2, r0
 800175a:	693b      	ldr	r3, [r7, #16]
 800175c:	1ad3      	subs	r3, r2, r3
 800175e:	2b64      	cmp	r3, #100	; 0x64
 8001760:	d901      	bls.n	8001766 <HAL_RCC_OscConfig+0xf6>
          {
            return HAL_TIMEOUT;
 8001762:	2303      	movs	r3, #3
 8001764:	e200      	b.n	8001b68 <HAL_RCC_OscConfig+0x4f8>
        while (__HAL_RCC_GET_FLAG(RCC_FLAG_HSERDY) == RESET)
 8001766:	4b5d      	ldr	r3, [pc, #372]	; (80018dc <HAL_RCC_OscConfig+0x26c>)
 8001768:	681b      	ldr	r3, [r3, #0]
 800176a:	f403 3300 	and.w	r3, r3, #131072	; 0x20000
 800176e:	2b00      	cmp	r3, #0
 8001770:	d0f0      	beq.n	8001754 <HAL_RCC_OscConfig+0xe4>
 8001772:	e014      	b.n	800179e <HAL_RCC_OscConfig+0x12e>
        }
      }
      else
      {
        /* Get Start Tick */
        tickstart = HAL_GetTick();
 8001774:	f7ff fcd0 	bl	8001118 <HAL_GetTick>
 8001778:	6138      	str	r0, [r7, #16]

        /* Wait till HSE is disabled */
        while (__HAL_RCC_GET_FLAG(RCC_FLAG_HSERDY) != RESET)
 800177a:	e008      	b.n	800178e <HAL_RCC_OscConfig+0x11e>
        {
          if ((HAL_GetTick() - tickstart) > HSE_TIMEOUT_VALUE)
 800177c:	f7ff fccc 	bl	8001118 <HAL_GetTick>
 8001780:	4602      	mov	r2, r0
 8001782:	693b      	ldr	r3, [r7, #16]
 8001784:	1ad3      	subs	r3, r2, r3
 8001786:	2b64      	cmp	r3, #100	; 0x64
 8001788:	d901      	bls.n	800178e <HAL_RCC_OscConfig+0x11e>
          {
            return HAL_TIMEOUT;
 800178a:	2303      	movs	r3, #3
 800178c:	e1ec      	b.n	8001b68 <HAL_RCC_OscConfig+0x4f8>
        while (__HAL_RCC_GET_FLAG(RCC_FLAG_HSERDY) != RESET)
 800178e:	4b53      	ldr	r3, [pc, #332]	; (80018dc <HAL_RCC_OscConfig+0x26c>)
 8001790:	681b      	ldr	r3, [r3, #0]
 8001792:	f403 3300 	and.w	r3, r3, #131072	; 0x20000
 8001796:	2b00      	cmp	r3, #0
 8001798:	d1f0      	bne.n	800177c <HAL_RCC_OscConfig+0x10c>
 800179a:	e000      	b.n	800179e <HAL_RCC_OscConfig+0x12e>
      if ((__HAL_RCC_GET_FLAG(RCC_FLAG_HSERDY) != RESET) && (RCC_OscInitStruct->HSEState == RCC_HSE_OFF))
 800179c:	bf00      	nop
        }
      }
    }
  }
  /*----------------------------- HSI Configuration --------------------------*/
  if (((RCC_OscInitStruct->OscillatorType) & RCC_OSCILLATORTYPE_HSI) == RCC_OSCILLATORTYPE_HSI)
 800179e:	687b      	ldr	r3, [r7, #4]
 80017a0:	681b      	ldr	r3, [r3, #0]
 80017a2:	f003 0302 	and.w	r3, r3, #2
 80017a6:	2b00      	cmp	r3, #0
 80017a8:	d063      	beq.n	8001872 <HAL_RCC_OscConfig+0x202>
    /* Check the parameters */
    assert_param(IS_RCC_HSI(RCC_OscInitStruct->HSIState));
    assert_param(IS_RCC_CALIBRATION_VALUE(RCC_OscInitStruct->HSICalibrationValue));

    /* Check if HSI is used as system clock or as PLL source when PLL is selected as system clock */
    if ((__HAL_RCC_GET_SYSCLK_SOURCE() == RCC_SYSCLKSOURCE_STATUS_HSI)
 80017aa:	4b4c      	ldr	r3, [pc, #304]	; (80018dc <HAL_RCC_OscConfig+0x26c>)
 80017ac:	685b      	ldr	r3, [r3, #4]
 80017ae:	f003 030c 	and.w	r3, r3, #12
 80017b2:	2b00      	cmp	r3, #0
 80017b4:	d00b      	beq.n	80017ce <HAL_RCC_OscConfig+0x15e>
        || ((__HAL_RCC_GET_SYSCLK_SOURCE() == RCC_SYSCLKSOURCE_STATUS_PLLCLK) && (__HAL_RCC_GET_PLL_OSCSOURCE() == RCC_PLLSOURCE_HSI_DIV2)))
 80017b6:	4b49      	ldr	r3, [pc, #292]	; (80018dc <HAL_RCC_OscConfig+0x26c>)
 80017b8:	685b      	ldr	r3, [r3, #4]
 80017ba:	f003 030c 	and.w	r3, r3, #12
 80017be:	2b08      	cmp	r3, #8
 80017c0:	d11c      	bne.n	80017fc <HAL_RCC_OscConfig+0x18c>
 80017c2:	4b46      	ldr	r3, [pc, #280]	; (80018dc <HAL_RCC_OscConfig+0x26c>)
 80017c4:	685b      	ldr	r3, [r3, #4]
 80017c6:	f403 3380 	and.w	r3, r3, #65536	; 0x10000
 80017ca:	2b00      	cmp	r3, #0
 80017cc:	d116      	bne.n	80017fc <HAL_RCC_OscConfig+0x18c>
    {
      /* When HSI is used as system clock it will not disabled */
      if ((__HAL_RCC_GET_FLAG(RCC_FLAG_HSIRDY) != RESET) && (RCC_OscInitStruct->HSIState != RCC_HSI_ON))
 80017ce:	4b43      	ldr	r3, [pc, #268]	; (80018dc <HAL_RCC_OscConfig+0x26c>)
 80017d0:	681b      	ldr	r3, [r3, #0]
 80017d2:	f003 0302 	and.w	r3, r3, #2
 80017d6:	2b00      	cmp	r3, #0
 80017d8:	d005      	beq.n	80017e6 <HAL_RCC_OscConfig+0x176>
 80017da:	687b      	ldr	r3, [r7, #4]
 80017dc:	691b      	ldr	r3, [r3, #16]
 80017de:	2b01      	cmp	r3, #1
 80017e0:	d001      	beq.n	80017e6 <HAL_RCC_OscConfig+0x176>
      {
        return HAL_ERROR;
 80017e2:	2301      	movs	r3, #1
 80017e4:	e1c0      	b.n	8001b68 <HAL_RCC_OscConfig+0x4f8>
      }
      /* Otherwise, just the calibration is allowed */
      else
      {
        /* Adjusts the Internal High Speed oscillator (HSI) calibration value.*/
        __HAL_RCC_HSI_CALIBRATIONVALUE_ADJUST(RCC_OscInitStruct->HSICalibrationValue);
 80017e6:	4b3d      	ldr	r3, [pc, #244]	; (80018dc <HAL_RCC_OscConfig+0x26c>)
 80017e8:	681b      	ldr	r3, [r3, #0]
 80017ea:	f023 02f8 	bic.w	r2, r3, #248	; 0xf8
 80017ee:	687b      	ldr	r3, [r7, #4]
 80017f0:	695b      	ldr	r3, [r3, #20]
 80017f2:	00db      	lsls	r3, r3, #3
 80017f4:	4939      	ldr	r1, [pc, #228]	; (80018dc <HAL_RCC_OscConfig+0x26c>)
 80017f6:	4313      	orrs	r3, r2
 80017f8:	600b      	str	r3, [r1, #0]
      if ((__HAL_RCC_GET_FLAG(RCC_FLAG_HSIRDY) != RESET) && (RCC_OscInitStruct->HSIState != RCC_HSI_ON))
 80017fa:	e03a      	b.n	8001872 <HAL_RCC_OscConfig+0x202>
      }
    }
    else
    {
      /* Check the HSI State */
      if (RCC_OscInitStruct->HSIState != RCC_HSI_OFF)
 80017fc:	687b      	ldr	r3, [r7, #4]
 80017fe:	691b      	ldr	r3, [r3, #16]
 8001800:	2b00      	cmp	r3, #0
 8001802:	d020      	beq.n	8001846 <HAL_RCC_OscConfig+0x1d6>
      {
        /* Enable the Internal High Speed oscillator (HSI). */
        __HAL_RCC_HSI_ENABLE();
 8001804:	4b36      	ldr	r3, [pc, #216]	; (80018e0 <HAL_RCC_OscConfig+0x270>)
 8001806:	2201      	movs	r2, #1
 8001808:	601a      	str	r2, [r3, #0]

        /* Get Start Tick */
        tickstart = HAL_GetTick();
 800180a:	f7ff fc85 	bl	8001118 <HAL_GetTick>
 800180e:	6138      	str	r0, [r7, #16]

        /* Wait till HSI is ready */
        while (__HAL_RCC_GET_FLAG(RCC_FLAG_HSIRDY) == RESET)
 8001810:	e008      	b.n	8001824 <HAL_RCC_OscConfig+0x1b4>
        {
          if ((HAL_GetTick() - tickstart) > HSI_TIMEOUT_VALUE)
 8001812:	f7ff fc81 	bl	8001118 <HAL_GetTick>
 8001816:	4602      	mov	r2, r0
 8001818:	693b      	ldr	r3, [r7, #16]
 800181a:	1ad3      	subs	r3, r2, r3
 800181c:	2b02      	cmp	r3, #2
 800181e:	d901      	bls.n	8001824 <HAL_RCC_OscConfig+0x1b4>
          {
            return HAL_TIMEOUT;
 8001820:	2303      	movs	r3, #3
 8001822:	e1a1      	b.n	8001b68 <HAL_RCC_OscConfig+0x4f8>
        while (__HAL_RCC_GET_FLAG(RCC_FLAG_HSIRDY) == RESET)
 8001824:	4b2d      	ldr	r3, [pc, #180]	; (80018dc <HAL_RCC_OscConfig+0x26c>)
 8001826:	681b      	ldr	r3, [r3, #0]
 8001828:	f003 0302 	and.w	r3, r3, #2
 800182c:	2b00      	cmp	r3, #0
 800182e:	d0f0      	beq.n	8001812 <HAL_RCC_OscConfig+0x1a2>
          }
        }

        /* Adjusts the Internal High Speed oscillator (HSI) calibration value.*/
        __HAL_RCC_HSI_CALIBRATIONVALUE_ADJUST(RCC_OscInitStruct->HSICalibrationValue);
 8001830:	4b2a      	ldr	r3, [pc, #168]	; (80018dc <HAL_RCC_OscConfig+0x26c>)
 8001832:	681b      	ldr	r3, [r3, #0]
 8001834:	f023 02f8 	bic.w	r2, r3, #248	; 0xf8
 8001838:	687b      	ldr	r3, [r7, #4]
 800183a:	695b      	ldr	r3, [r3, #20]
 800183c:	00db      	lsls	r3, r3, #3
 800183e:	4927      	ldr	r1, [pc, #156]	; (80018dc <HAL_RCC_OscConfig+0x26c>)
 8001840:	4313      	orrs	r3, r2
 8001842:	600b      	str	r3, [r1, #0]
 8001844:	e015      	b.n	8001872 <HAL_RCC_OscConfig+0x202>
      }
      else
      {
        /* Disable the Internal High Speed oscillator (HSI). */
        __HAL_RCC_HSI_DISABLE();
 8001846:	4b26      	ldr	r3, [pc, #152]	; (80018e0 <HAL_RCC_OscConfig+0x270>)
 8001848:	2200      	movs	r2, #0
 800184a:	601a      	str	r2, [r3, #0]

        /* Get Start Tick */
        tickstart = HAL_GetTick();
 800184c:	f7ff fc64 	bl	8001118 <HAL_GetTick>
 8001850:	6138      	str	r0, [r7, #16]

        /* Wait till HSI is disabled */
        while (__HAL_RCC_GET_FLAG(RCC_FLAG_HSIRDY) != RESET)
 8001852:	e008      	b.n	8001866 <HAL_RCC_OscConfig+0x1f6>
        {
          if ((HAL_GetTick() - tickstart) > HSI_TIMEOUT_VALUE)
 8001854:	f7ff fc60 	bl	8001118 <HAL_GetTick>
 8001858:	4602      	mov	r2, r0
 800185a:	693b      	ldr	r3, [r7, #16]
 800185c:	1ad3      	subs	r3, r2, r3
 800185e:	2b02      	cmp	r3, #2
 8001860:	d901      	bls.n	8001866 <HAL_RCC_OscConfig+0x1f6>
          {
            return HAL_TIMEOUT;
 8001862:	2303      	movs	r3, #3
 8001864:	e180      	b.n	8001b68 <HAL_RCC_OscConfig+0x4f8>
        while (__HAL_RCC_GET_FLAG(RCC_FLAG_HSIRDY) != RESET)
 8001866:	4b1d      	ldr	r3, [pc, #116]	; (80018dc <HAL_RCC_OscConfig+0x26c>)
 8001868:	681b      	ldr	r3, [r3, #0]
 800186a:	f003 0302 	and.w	r3, r3, #2
 800186e:	2b00      	cmp	r3, #0
 8001870:	d1f0      	bne.n	8001854 <HAL_RCC_OscConfig+0x1e4>
        }
      }
    }
  }
  /*------------------------------ LSI Configuration -------------------------*/
  if (((RCC_OscInitStruct->OscillatorType) & RCC_OSCILLATORTYPE_LSI) == RCC_OSCILLATORTYPE_LSI)
 8001872:	687b      	ldr	r3, [r7, #4]
 8001874:	681b      	ldr	r3, [r3, #0]
 8001876:	f003 0308 	and.w	r3, r3, #8
 800187a:	2b00      	cmp	r3, #0
 800187c:	d03a      	beq.n	80018f4 <HAL_RCC_OscConfig+0x284>
  {
    /* Check the parameters */
    assert_param(IS_RCC_LSI(RCC_OscInitStruct->LSIState));

    /* Check the LSI State */
    if (RCC_OscInitStruct->LSIState != RCC_LSI_OFF)
 800187e:	687b      	ldr	r3, [r7, #4]
 8001880:	699b      	ldr	r3, [r3, #24]
 8001882:	2b00      	cmp	r3, #0
 8001884:	d019      	beq.n	80018ba <HAL_RCC_OscConfig+0x24a>
    {
      /* Enable the Internal Low Speed oscillator (LSI). */
      __HAL_RCC_LSI_ENABLE();
 8001886:	4b17      	ldr	r3, [pc, #92]	; (80018e4 <HAL_RCC_OscConfig+0x274>)
 8001888:	2201      	movs	r2, #1
 800188a:	601a      	str	r2, [r3, #0]

      /* Get Start Tick */
      tickstart = HAL_GetTick();
 800188c:	f7ff fc44 	bl	8001118 <HAL_GetTick>
 8001890:	6138      	str	r0, [r7, #16]

      /* Wait till LSI is ready */
      while (__HAL_RCC_GET_FLAG(RCC_FLAG_LSIRDY) == RESET)
 8001892:	e008      	b.n	80018a6 <HAL_RCC_OscConfig+0x236>
      {
        if ((HAL_GetTick() - tickstart) > LSI_TIMEOUT_VALUE)
 8001894:	f7ff fc40 	bl	8001118 <HAL_GetTick>
 8001898:	4602      	mov	r2, r0
 800189a:	693b      	ldr	r3, [r7, #16]
 800189c:	1ad3      	subs	r3, r2, r3
 800189e:	2b02      	cmp	r3, #2
 80018a0:	d901      	bls.n	80018a6 <HAL_RCC_OscConfig+0x236>
        {
          return HAL_TIMEOUT;
 80018a2:	2303      	movs	r3, #3
 80018a4:	e160      	b.n	8001b68 <HAL_RCC_OscConfig+0x4f8>
      while (__HAL_RCC_GET_FLAG(RCC_FLAG_LSIRDY) == RESET)
 80018a6:	4b0d      	ldr	r3, [pc, #52]	; (80018dc <HAL_RCC_OscConfig+0x26c>)
 80018a8:	6a5b      	ldr	r3, [r3, #36]	; 0x24
 80018aa:	f003 0302 	and.w	r3, r3, #2
 80018ae:	2b00      	cmp	r3, #0
 80018b0:	d0f0      	beq.n	8001894 <HAL_RCC_OscConfig+0x224>
        }
      }
      /*  To have a fully stabilized clock in the specified range, a software delay of 1ms
          should be added.*/
      RCC_Delay(1);
 80018b2:	2001      	movs	r0, #1
 80018b4:	f000 fa9c 	bl	8001df0 <RCC_Delay>
 80018b8:	e01c      	b.n	80018f4 <HAL_RCC_OscConfig+0x284>
    }
    else
    {
      /* Disable the Internal Low Speed oscillator (LSI). */
      __HAL_RCC_LSI_DISABLE();
 80018ba:	4b0a      	ldr	r3, [pc, #40]	; (80018e4 <HAL_RCC_OscConfig+0x274>)
 80018bc:	2200      	movs	r2, #0
 80018be:	601a      	str	r2, [r3, #0]

      /* Get Start Tick */
      tickstart = HAL_GetTick();
 80018c0:	f7ff fc2a 	bl	8001118 <HAL_GetTick>
 80018c4:	6138      	str	r0, [r7, #16]

      /* Wait till LSI is disabled */
      while (__HAL_RCC_GET_FLAG(RCC_FLAG_LSIRDY) != RESET)
 80018c6:	e00f      	b.n	80018e8 <HAL_RCC_OscConfig+0x278>
      {
        if ((HAL_GetTick() - tickstart) > LSI_TIMEOUT_VALUE)
 80018c8:	f7ff fc26 	bl	8001118 <HAL_GetTick>
 80018cc:	4602      	mov	r2, r0
 80018ce:	693b      	ldr	r3, [r7, #16]
 80018d0:	1ad3      	subs	r3, r2, r3
 80018d2:	2b02      	cmp	r3, #2
 80018d4:	d908      	bls.n	80018e8 <HAL_RCC_OscConfig+0x278>
        {
          return HAL_TIMEOUT;
 80018d6:	2303      	movs	r3, #3
 80018d8:	e146      	b.n	8001b68 <HAL_RCC_OscConfig+0x4f8>
 80018da:	bf00      	nop
 80018dc:	40021000 	.word	0x40021000
 80018e0:	42420000 	.word	0x42420000
 80018e4:	42420480 	.word	0x42420480
      while (__HAL_RCC_GET_FLAG(RCC_FLAG_LSIRDY) != RESET)
 80018e8:	4b92      	ldr	r3, [pc, #584]	; (8001b34 <HAL_RCC_OscConfig+0x4c4>)
 80018ea:	6a5b      	ldr	r3, [r3, #36]	; 0x24
 80018ec:	f003 0302 	and.w	r3, r3, #2
 80018f0:	2b00      	cmp	r3, #0
 80018f2:	d1e9      	bne.n	80018c8 <HAL_RCC_OscConfig+0x258>
        }
      }
    }
  }
  /*------------------------------ LSE Configuration -------------------------*/
  if (((RCC_OscInitStruct->OscillatorType) & RCC_OSCILLATORTYPE_LSE) == RCC_OSCILLATORTYPE_LSE)
 80018f4:	687b      	ldr	r3, [r7, #4]
 80018f6:	681b      	ldr	r3, [r3, #0]
 80018f8:	f003 0304 	and.w	r3, r3, #4
 80018fc:	2b00      	cmp	r3, #0
 80018fe:	f000 80a6 	beq.w	8001a4e <HAL_RCC_OscConfig+0x3de>
  {
    FlagStatus       pwrclkchanged = RESET;
 8001902:	2300      	movs	r3, #0
 8001904:	75fb      	strb	r3, [r7, #23]
    /* Check the parameters */
    assert_param(IS_RCC_LSE(RCC_OscInitStruct->LSEState));

    /* Update LSE configuration in Backup Domain control register    */
    /* Requires to enable write access to Backup Domain of necessary */
    if (__HAL_RCC_PWR_IS_CLK_DISABLED())
 8001906:	4b8b      	ldr	r3, [pc, #556]	; (8001b34 <HAL_RCC_OscConfig+0x4c4>)
 8001908:	69db      	ldr	r3, [r3, #28]
 800190a:	f003 5380 	and.w	r3, r3, #268435456	; 0x10000000
 800190e:	2b00      	cmp	r3, #0
 8001910:	d10d      	bne.n	800192e <HAL_RCC_OscConfig+0x2be>
    {
      __HAL_RCC_PWR_CLK_ENABLE();
 8001912:	4b88      	ldr	r3, [pc, #544]	; (8001b34 <HAL_RCC_OscConfig+0x4c4>)
 8001914:	69db      	ldr	r3, [r3, #28]
 8001916:	4a87      	ldr	r2, [pc, #540]	; (8001b34 <HAL_RCC_OscConfig+0x4c4>)
 8001918:	f043 5380 	orr.w	r3, r3, #268435456	; 0x10000000
 800191c:	61d3      	str	r3, [r2, #28]
 800191e:	4b85      	ldr	r3, [pc, #532]	; (8001b34 <HAL_RCC_OscConfig+0x4c4>)
 8001920:	69db      	ldr	r3, [r3, #28]
 8001922:	f003 5380 	and.w	r3, r3, #268435456	; 0x10000000
 8001926:	60bb      	str	r3, [r7, #8]
 8001928:	68bb      	ldr	r3, [r7, #8]
      pwrclkchanged = SET;
 800192a:	2301      	movs	r3, #1
 800192c:	75fb      	strb	r3, [r7, #23]
    }

    if (HAL_IS_BIT_CLR(PWR->CR, PWR_CR_DBP))
 800192e:	4b82      	ldr	r3, [pc, #520]	; (8001b38 <HAL_RCC_OscConfig+0x4c8>)
 8001930:	681b      	ldr	r3, [r3, #0]
 8001932:	f403 7380 	and.w	r3, r3, #256	; 0x100
 8001936:	2b00      	cmp	r3, #0
 8001938:	d118      	bne.n	800196c <HAL_RCC_OscConfig+0x2fc>
    {
      /* Enable write access to Backup domain */
      SET_BIT(PWR->CR, PWR_CR_DBP);
 800193a:	4b7f      	ldr	r3, [pc, #508]	; (8001b38 <HAL_RCC_OscConfig+0x4c8>)
 800193c:	681b      	ldr	r3, [r3, #0]
 800193e:	4a7e      	ldr	r2, [pc, #504]	; (8001b38 <HAL_RCC_OscConfig+0x4c8>)
 8001940:	f443 7380 	orr.w	r3, r3, #256	; 0x100
 8001944:	6013      	str	r3, [r2, #0]

      /* Wait for Backup domain Write protection disable */
      tickstart = HAL_GetTick();
 8001946:	f7ff fbe7 	bl	8001118 <HAL_GetTick>
 800194a:	6138      	str	r0, [r7, #16]

      while (HAL_IS_BIT_CLR(PWR->CR, PWR_CR_DBP))
 800194c:	e008      	b.n	8001960 <HAL_RCC_OscConfig+0x2f0>
      {
        if ((HAL_GetTick() - tickstart) > RCC_DBP_TIMEOUT_VALUE)
 800194e:	f7ff fbe3 	bl	8001118 <HAL_GetTick>
 8001952:	4602      	mov	r2, r0
 8001954:	693b      	ldr	r3, [r7, #16]
 8001956:	1ad3      	subs	r3, r2, r3
 8001958:	2b64      	cmp	r3, #100	; 0x64
 800195a:	d901      	bls.n	8001960 <HAL_RCC_OscConfig+0x2f0>
        {
          return HAL_TIMEOUT;
 800195c:	2303      	movs	r3, #3
 800195e:	e103      	b.n	8001b68 <HAL_RCC_OscConfig+0x4f8>
      while (HAL_IS_BIT_CLR(PWR->CR, PWR_CR_DBP))
 8001960:	4b75      	ldr	r3, [pc, #468]	; (8001b38 <HAL_RCC_OscConfig+0x4c8>)
 8001962:	681b      	ldr	r3, [r3, #0]
 8001964:	f403 7380 	and.w	r3, r3, #256	; 0x100
 8001968:	2b00      	cmp	r3, #0
 800196a:	d0f0      	beq.n	800194e <HAL_RCC_OscConfig+0x2de>
        }
      }
    }

    /* Set the new LSE configuration -----------------------------------------*/
    __HAL_RCC_LSE_CONFIG(RCC_OscInitStruct->LSEState);
 800196c:	687b      	ldr	r3, [r7, #4]
 800196e:	68db      	ldr	r3, [r3, #12]
 8001970:	2b01      	cmp	r3, #1
 8001972:	d106      	bne.n	8001982 <HAL_RCC_OscConfig+0x312>
 8001974:	4b6f      	ldr	r3, [pc, #444]	; (8001b34 <HAL_RCC_OscConfig+0x4c4>)
 8001976:	6a1b      	ldr	r3, [r3, #32]
 8001978:	4a6e      	ldr	r2, [pc, #440]	; (8001b34 <HAL_RCC_OscConfig+0x4c4>)
 800197a:	f043 0301 	orr.w	r3, r3, #1
 800197e:	6213      	str	r3, [r2, #32]
 8001980:	e02d      	b.n	80019de <HAL_RCC_OscConfig+0x36e>
 8001982:	687b      	ldr	r3, [r7, #4]
 8001984:	68db      	ldr	r3, [r3, #12]
 8001986:	2b00      	cmp	r3, #0
 8001988:	d10c      	bne.n	80019a4 <HAL_RCC_OscConfig+0x334>
 800198a:	4b6a      	ldr	r3, [pc, #424]	; (8001b34 <HAL_RCC_OscConfig+0x4c4>)
 800198c:	6a1b      	ldr	r3, [r3, #32]
 800198e:	4a69      	ldr	r2, [pc, #420]	; (8001b34 <HAL_RCC_OscConfig+0x4c4>)
 8001990:	f023 0301 	bic.w	r3, r3, #1
 8001994:	6213      	str	r3, [r2, #32]
 8001996:	4b67      	ldr	r3, [pc, #412]	; (8001b34 <HAL_RCC_OscConfig+0x4c4>)
 8001998:	6a1b      	ldr	r3, [r3, #32]
 800199a:	4a66      	ldr	r2, [pc, #408]	; (8001b34 <HAL_RCC_OscConfig+0x4c4>)
 800199c:	f023 0304 	bic.w	r3, r3, #4
 80019a0:	6213      	str	r3, [r2, #32]
 80019a2:	e01c      	b.n	80019de <HAL_RCC_OscConfig+0x36e>
 80019a4:	687b      	ldr	r3, [r7, #4]
 80019a6:	68db      	ldr	r3, [r3, #12]
 80019a8:	2b05      	cmp	r3, #5
 80019aa:	d10c      	bne.n	80019c6 <HAL_RCC_OscConfig+0x356>
 80019ac:	4b61      	ldr	r3, [pc, #388]	; (8001b34 <HAL_RCC_OscConfig+0x4c4>)
 80019ae:	6a1b      	ldr	r3, [r3, #32]
 80019b0:	4a60      	ldr	r2, [pc, #384]	; (8001b34 <HAL_RCC_OscConfig+0x4c4>)
 80019b2:	f043 0304 	orr.w	r3, r3, #4
 80019b6:	6213      	str	r3, [r2, #32]
 80019b8:	4b5e      	ldr	r3, [pc, #376]	; (8001b34 <HAL_RCC_OscConfig+0x4c4>)
 80019ba:	6a1b      	ldr	r3, [r3, #32]
 80019bc:	4a5d      	ldr	r2, [pc, #372]	; (8001b34 <HAL_RCC_OscConfig+0x4c4>)
 80019be:	f043 0301 	orr.w	r3, r3, #1
 80019c2:	6213      	str	r3, [r2, #32]
 80019c4:	e00b      	b.n	80019de <HAL_RCC_OscConfig+0x36e>
 80019c6:	4b5b      	ldr	r3, [pc, #364]	; (8001b34 <HAL_RCC_OscConfig+0x4c4>)
 80019c8:	6a1b      	ldr	r3, [r3, #32]
 80019ca:	4a5a      	ldr	r2, [pc, #360]	; (8001b34 <HAL_RCC_OscConfig+0x4c4>)
 80019cc:	f023 0301 	bic.w	r3, r3, #1
 80019d0:	6213      	str	r3, [r2, #32]
 80019d2:	4b58      	ldr	r3, [pc, #352]	; (8001b34 <HAL_RCC_OscConfig+0x4c4>)
 80019d4:	6a1b      	ldr	r3, [r3, #32]
 80019d6:	4a57      	ldr	r2, [pc, #348]	; (8001b34 <HAL_RCC_OscConfig+0x4c4>)
 80019d8:	f023 0304 	bic.w	r3, r3, #4
 80019dc:	6213      	str	r3, [r2, #32]
    /* Check the LSE State */
    if (RCC_OscInitStruct->LSEState != RCC_LSE_OFF)
 80019de:	687b      	ldr	r3, [r7, #4]
 80019e0:	68db      	ldr	r3, [r3, #12]
 80019e2:	2b00      	cmp	r3, #0
 80019e4:	d015      	beq.n	8001a12 <HAL_RCC_OscConfig+0x3a2>
    {
      /* Get Start Tick */
      tickstart = HAL_GetTick();
 80019e6:	f7ff fb97 	bl	8001118 <HAL_GetTick>
 80019ea:	6138      	str	r0, [r7, #16]

      /* Wait till LSE is ready */
      while (__HAL_RCC_GET_FLAG(RCC_FLAG_LSERDY) == RESET)
 80019ec:	e00a      	b.n	8001a04 <HAL_RCC_OscConfig+0x394>
      {
        if ((HAL_GetTick() - tickstart) > RCC_LSE_TIMEOUT_VALUE)
 80019ee:	f7ff fb93 	bl	8001118 <HAL_GetTick>
 80019f2:	4602      	mov	r2, r0
 80019f4:	693b      	ldr	r3, [r7, #16]
 80019f6:	1ad3      	subs	r3, r2, r3
 80019f8:	f241 3288 	movw	r2, #5000	; 0x1388
 80019fc:	4293      	cmp	r3, r2
 80019fe:	d901      	bls.n	8001a04 <HAL_RCC_OscConfig+0x394>
        {
          return HAL_TIMEOUT;
 8001a00:	2303      	movs	r3, #3
 8001a02:	e0b1      	b.n	8001b68 <HAL_RCC_OscConfig+0x4f8>
      while (__HAL_RCC_GET_FLAG(RCC_FLAG_LSERDY) == RESET)
 8001a04:	4b4b      	ldr	r3, [pc, #300]	; (8001b34 <HAL_RCC_OscConfig+0x4c4>)
 8001a06:	6a1b      	ldr	r3, [r3, #32]
 8001a08:	f003 0302 	and.w	r3, r3, #2
 8001a0c:	2b00      	cmp	r3, #0
 8001a0e:	d0ee      	beq.n	80019ee <HAL_RCC_OscConfig+0x37e>
 8001a10:	e014      	b.n	8001a3c <HAL_RCC_OscConfig+0x3cc>
      }
    }
    else
    {
      /* Get Start Tick */
      tickstart = HAL_GetTick();
 8001a12:	f7ff fb81 	bl	8001118 <HAL_GetTick>
 8001a16:	6138      	str	r0, [r7, #16]

      /* Wait till LSE is disabled */
      while (__HAL_RCC_GET_FLAG(RCC_FLAG_LSERDY) != RESET)
 8001a18:	e00a      	b.n	8001a30 <HAL_RCC_OscConfig+0x3c0>
      {
        if ((HAL_GetTick() - tickstart) > RCC_LSE_TIMEOUT_VALUE)
 8001a1a:	f7ff fb7d 	bl	8001118 <HAL_GetTick>
 8001a1e:	4602      	mov	r2, r0
 8001a20:	693b      	ldr	r3, [r7, #16]
 8001a22:	1ad3      	subs	r3, r2, r3
 8001a24:	f241 3288 	movw	r2, #5000	; 0x1388
 8001a28:	4293      	cmp	r3, r2
 8001a2a:	d901      	bls.n	8001a30 <HAL_RCC_OscConfig+0x3c0>
        {
          return HAL_TIMEOUT;
 8001a2c:	2303      	movs	r3, #3
 8001a2e:	e09b      	b.n	8001b68 <HAL_RCC_OscConfig+0x4f8>
      while (__HAL_RCC_GET_FLAG(RCC_FLAG_LSERDY) != RESET)
 8001a30:	4b40      	ldr	r3, [pc, #256]	; (8001b34 <HAL_RCC_OscConfig+0x4c4>)
 8001a32:	6a1b      	ldr	r3, [r3, #32]
 8001a34:	f003 0302 	and.w	r3, r3, #2
 8001a38:	2b00      	cmp	r3, #0
 8001a3a:	d1ee      	bne.n	8001a1a <HAL_RCC_OscConfig+0x3aa>
        }
      }
    }

    /* Require to disable power clock if necessary */
    if (pwrclkchanged == SET)
 8001a3c:	7dfb      	ldrb	r3, [r7, #23]
 8001a3e:	2b01      	cmp	r3, #1
 8001a40:	d105      	bne.n	8001a4e <HAL_RCC_OscConfig+0x3de>
    {
      __HAL_RCC_PWR_CLK_DISABLE();
 8001a42:	4b3c      	ldr	r3, [pc, #240]	; (8001b34 <HAL_RCC_OscConfig+0x4c4>)
 8001a44:	69db      	ldr	r3, [r3, #28]
 8001a46:	4a3b      	ldr	r2, [pc, #236]	; (8001b34 <HAL_RCC_OscConfig+0x4c4>)
 8001a48:	f023 5380 	bic.w	r3, r3, #268435456	; 0x10000000
 8001a4c:	61d3      	str	r3, [r2, #28]

#endif /* RCC_CR_PLL2ON */
  /*-------------------------------- PLL Configuration -----------------------*/
  /* Check the parameters */
  assert_param(IS_RCC_PLL(RCC_OscInitStruct->PLL.PLLState));
  if ((RCC_OscInitStruct->PLL.PLLState) != RCC_PLL_NONE)
 8001a4e:	687b      	ldr	r3, [r7, #4]
 8001a50:	69db      	ldr	r3, [r3, #28]
 8001a52:	2b00      	cmp	r3, #0
 8001a54:	f000 8087 	beq.w	8001b66 <HAL_RCC_OscConfig+0x4f6>
  {
    /* Check if the PLL is used as system clock or not */
    if (__HAL_RCC_GET_SYSCLK_SOURCE() != RCC_SYSCLKSOURCE_STATUS_PLLCLK)
 8001a58:	4b36      	ldr	r3, [pc, #216]	; (8001b34 <HAL_RCC_OscConfig+0x4c4>)
 8001a5a:	685b      	ldr	r3, [r3, #4]
 8001a5c:	f003 030c 	and.w	r3, r3, #12
 8001a60:	2b08      	cmp	r3, #8
 8001a62:	d061      	beq.n	8001b28 <HAL_RCC_OscConfig+0x4b8>
    {
      if ((RCC_OscInitStruct->PLL.PLLState) == RCC_PLL_ON)
 8001a64:	687b      	ldr	r3, [r7, #4]
 8001a66:	69db      	ldr	r3, [r3, #28]
 8001a68:	2b02      	cmp	r3, #2
 8001a6a:	d146      	bne.n	8001afa <HAL_RCC_OscConfig+0x48a>
        /* Check the parameters */
        assert_param(IS_RCC_PLLSOURCE(RCC_OscInitStruct->PLL.PLLSource));
        assert_param(IS_RCC_PLL_MUL(RCC_OscInitStruct->PLL.PLLMUL));

        /* Disable the main PLL. */
        __HAL_RCC_PLL_DISABLE();
 8001a6c:	4b33      	ldr	r3, [pc, #204]	; (8001b3c <HAL_RCC_OscConfig+0x4cc>)
 8001a6e:	2200      	movs	r2, #0
 8001a70:	601a      	str	r2, [r3, #0]

        /* Get Start Tick */
        tickstart = HAL_GetTick();
 8001a72:	f7ff fb51 	bl	8001118 <HAL_GetTick>
 8001a76:	6138      	str	r0, [r7, #16]

        /* Wait till PLL is disabled */
        while (__HAL_RCC_GET_FLAG(RCC_FLAG_PLLRDY)  != RESET)
 8001a78:	e008      	b.n	8001a8c <HAL_RCC_OscConfig+0x41c>
        {
          if ((HAL_GetTick() - tickstart) > PLL_TIMEOUT_VALUE)
 8001a7a:	f7ff fb4d 	bl	8001118 <HAL_GetTick>
 8001a7e:	4602      	mov	r2, r0
 8001a80:	693b      	ldr	r3, [r7, #16]
 8001a82:	1ad3      	subs	r3, r2, r3
 8001a84:	2b02      	cmp	r3, #2
 8001a86:	d901      	bls.n	8001a8c <HAL_RCC_OscConfig+0x41c>
          {
            return HAL_TIMEOUT;
 8001a88:	2303      	movs	r3, #3
 8001a8a:	e06d      	b.n	8001b68 <HAL_RCC_OscConfig+0x4f8>
        while (__HAL_RCC_GET_FLAG(RCC_FLAG_PLLRDY)  != RESET)
 8001a8c:	4b29      	ldr	r3, [pc, #164]	; (8001b34 <HAL_RCC_OscConfig+0x4c4>)
 8001a8e:	681b      	ldr	r3, [r3, #0]
 8001a90:	f003 7300 	and.w	r3, r3, #33554432	; 0x2000000
 8001a94:	2b00      	cmp	r3, #0
 8001a96:	d1f0      	bne.n	8001a7a <HAL_RCC_OscConfig+0x40a>
          }
        }

        /* Configure the HSE prediv factor --------------------------------*/
        /* It can be written only when the PLL is disabled. Not used in PLL source is different than HSE */
        if (RCC_OscInitStruct->PLL.PLLSource == RCC_PLLSOURCE_HSE)
 8001a98:	687b      	ldr	r3, [r7, #4]
 8001a9a:	6a1b      	ldr	r3, [r3, #32]
 8001a9c:	f5b3 3f80 	cmp.w	r3, #65536	; 0x10000
 8001aa0:	d108      	bne.n	8001ab4 <HAL_RCC_OscConfig+0x444>
          /* Set PREDIV1 source */
          SET_BIT(RCC->CFGR2, RCC_OscInitStruct->Prediv1Source);
#endif /* RCC_CFGR2_PREDIV1SRC */

          /* Set PREDIV1 Value */
          __HAL_RCC_HSE_PREDIV_CONFIG(RCC_OscInitStruct->HSEPredivValue);
 8001aa2:	4b24      	ldr	r3, [pc, #144]	; (8001b34 <HAL_RCC_OscConfig+0x4c4>)
 8001aa4:	685b      	ldr	r3, [r3, #4]
 8001aa6:	f423 3200 	bic.w	r2, r3, #131072	; 0x20000
 8001aaa:	687b      	ldr	r3, [r7, #4]
 8001aac:	689b      	ldr	r3, [r3, #8]
 8001aae:	4921      	ldr	r1, [pc, #132]	; (8001b34 <HAL_RCC_OscConfig+0x4c4>)
 8001ab0:	4313      	orrs	r3, r2
 8001ab2:	604b      	str	r3, [r1, #4]
        }

        /* Configure the main PLL clock source and multiplication factors. */
        __HAL_RCC_PLL_CONFIG(RCC_OscInitStruct->PLL.PLLSource,
 8001ab4:	4b1f      	ldr	r3, [pc, #124]	; (8001b34 <HAL_RCC_OscConfig+0x4c4>)
 8001ab6:	685b      	ldr	r3, [r3, #4]
 8001ab8:	f423 1274 	bic.w	r2, r3, #3997696	; 0x3d0000
 8001abc:	687b      	ldr	r3, [r7, #4]
 8001abe:	6a19      	ldr	r1, [r3, #32]
 8001ac0:	687b      	ldr	r3, [r7, #4]
 8001ac2:	6a5b      	ldr	r3, [r3, #36]	; 0x24
 8001ac4:	430b      	orrs	r3, r1
 8001ac6:	491b      	ldr	r1, [pc, #108]	; (8001b34 <HAL_RCC_OscConfig+0x4c4>)
 8001ac8:	4313      	orrs	r3, r2
 8001aca:	604b      	str	r3, [r1, #4]
                             RCC_OscInitStruct->PLL.PLLMUL);
        /* Enable the main PLL. */
        __HAL_RCC_PLL_ENABLE();
 8001acc:	4b1b      	ldr	r3, [pc, #108]	; (8001b3c <HAL_RCC_OscConfig+0x4cc>)
 8001ace:	2201      	movs	r2, #1
 8001ad0:	601a      	str	r2, [r3, #0]

        /* Get Start Tick */
        tickstart = HAL_GetTick();
 8001ad2:	f7ff fb21 	bl	8001118 <HAL_GetTick>
 8001ad6:	6138      	str	r0, [r7, #16]

        /* Wait till PLL is ready */
        while (__HAL_RCC_GET_FLAG(RCC_FLAG_PLLRDY)  == RESET)
 8001ad8:	e008      	b.n	8001aec <HAL_RCC_OscConfig+0x47c>
        {
          if ((HAL_GetTick() - tickstart) > PLL_TIMEOUT_VALUE)
 8001ada:	f7ff fb1d 	bl	8001118 <HAL_GetTick>
 8001ade:	4602      	mov	r2, r0
 8001ae0:	693b      	ldr	r3, [r7, #16]
 8001ae2:	1ad3      	subs	r3, r2, r3
 8001ae4:	2b02      	cmp	r3, #2
 8001ae6:	d901      	bls.n	8001aec <HAL_RCC_OscConfig+0x47c>
          {
            return HAL_TIMEOUT;
 8001ae8:	2303      	movs	r3, #3
 8001aea:	e03d      	b.n	8001b68 <HAL_RCC_OscConfig+0x4f8>
        while (__HAL_RCC_GET_FLAG(RCC_FLAG_PLLRDY)  == RESET)
 8001aec:	4b11      	ldr	r3, [pc, #68]	; (8001b34 <HAL_RCC_OscConfig+0x4c4>)
 8001aee:	681b      	ldr	r3, [r3, #0]
 8001af0:	f003 7300 	and.w	r3, r3, #33554432	; 0x2000000
 8001af4:	2b00      	cmp	r3, #0
 8001af6:	d0f0      	beq.n	8001ada <HAL_RCC_OscConfig+0x46a>
 8001af8:	e035      	b.n	8001b66 <HAL_RCC_OscConfig+0x4f6>
        }
      }
      else
      {
        /* Disable the main PLL. */
        __HAL_RCC_PLL_DISABLE();
 8001afa:	4b10      	ldr	r3, [pc, #64]	; (8001b3c <HAL_RCC_OscConfig+0x4cc>)
 8001afc:	2200      	movs	r2, #0
 8001afe:	601a      	str	r2, [r3, #0]

        /* Get Start Tick */
        tickstart = HAL_GetTick();
 8001b00:	f7ff fb0a 	bl	8001118 <HAL_GetTick>
 8001b04:	6138      	str	r0, [r7, #16]

        /* Wait till PLL is disabled */
        while (__HAL_RCC_GET_FLAG(RCC_FLAG_PLLRDY)  != RESET)
 8001b06:	e008      	b.n	8001b1a <HAL_RCC_OscConfig+0x4aa>
        {
          if ((HAL_GetTick() - tickstart) > PLL_TIMEOUT_VALUE)
 8001b08:	f7ff fb06 	bl	8001118 <HAL_GetTick>
 8001b0c:	4602      	mov	r2, r0
 8001b0e:	693b      	ldr	r3, [r7, #16]
 8001b10:	1ad3      	subs	r3, r2, r3
 8001b12:	2b02      	cmp	r3, #2
 8001b14:	d901      	bls.n	8001b1a <HAL_RCC_OscConfig+0x4aa>
          {
            return HAL_TIMEOUT;
 8001b16:	2303      	movs	r3, #3
 8001b18:	e026      	b.n	8001b68 <HAL_RCC_OscConfig+0x4f8>
        while (__HAL_RCC_GET_FLAG(RCC_FLAG_PLLRDY)  != RESET)
 8001b1a:	4b06      	ldr	r3, [pc, #24]	; (8001b34 <HAL_RCC_OscConfig+0x4c4>)
 8001b1c:	681b      	ldr	r3, [r3, #0]
 8001b1e:	f003 7300 	and.w	r3, r3, #33554432	; 0x2000000
 8001b22:	2b00      	cmp	r3, #0
 8001b24:	d1f0      	bne.n	8001b08 <HAL_RCC_OscConfig+0x498>
 8001b26:	e01e      	b.n	8001b66 <HAL_RCC_OscConfig+0x4f6>
      }
    }
    else
    {
      /* Check if there is a request to disable the PLL used as System clock source */
      if ((RCC_OscInitStruct->PLL.PLLState) == RCC_PLL_OFF)
 8001b28:	687b      	ldr	r3, [r7, #4]
 8001b2a:	69db      	ldr	r3, [r3, #28]
 8001b2c:	2b01      	cmp	r3, #1
 8001b2e:	d107      	bne.n	8001b40 <HAL_RCC_OscConfig+0x4d0>
      {
        return HAL_ERROR;
 8001b30:	2301      	movs	r3, #1
 8001b32:	e019      	b.n	8001b68 <HAL_RCC_OscConfig+0x4f8>
 8001b34:	40021000 	.word	0x40021000
 8001b38:	40007000 	.word	0x40007000
 8001b3c:	42420060 	.word	0x42420060
      }
      else
      {
        /* Do not return HAL_ERROR if request repeats the current configuration */
        pll_config = RCC->CFGR;
 8001b40:	4b0b      	ldr	r3, [pc, #44]	; (8001b70 <HAL_RCC_OscConfig+0x500>)
 8001b42:	685b      	ldr	r3, [r3, #4]
 8001b44:	60fb      	str	r3, [r7, #12]
        if ((READ_BIT(pll_config, RCC_CFGR_PLLSRC) != RCC_OscInitStruct->PLL.PLLSource) ||
 8001b46:	68fb      	ldr	r3, [r7, #12]
 8001b48:	f403 3280 	and.w	r2, r3, #65536	; 0x10000
 8001b4c:	687b      	ldr	r3, [r7, #4]
 8001b4e:	6a1b      	ldr	r3, [r3, #32]
 8001b50:	429a      	cmp	r2, r3
 8001b52:	d106      	bne.n	8001b62 <HAL_RCC_OscConfig+0x4f2>
            (READ_BIT(pll_config, RCC_CFGR_PLLMULL) != RCC_OscInitStruct->PLL.PLLMUL))
 8001b54:	68fb      	ldr	r3, [r7, #12]
 8001b56:	f403 1270 	and.w	r2, r3, #3932160	; 0x3c0000
 8001b5a:	687b      	ldr	r3, [r7, #4]
 8001b5c:	6a5b      	ldr	r3, [r3, #36]	; 0x24
        if ((READ_BIT(pll_config, RCC_CFGR_PLLSRC) != RCC_OscInitStruct->PLL.PLLSource) ||
 8001b5e:	429a      	cmp	r2, r3
 8001b60:	d001      	beq.n	8001b66 <HAL_RCC_OscConfig+0x4f6>
        {
          return HAL_ERROR;
 8001b62:	2301      	movs	r3, #1
 8001b64:	e000      	b.n	8001b68 <HAL_RCC_OscConfig+0x4f8>
        }
      }
    }
  }

  return HAL_OK;
 8001b66:	2300      	movs	r3, #0
}
 8001b68:	4618      	mov	r0, r3
 8001b6a:	3718      	adds	r7, #24
 8001b6c:	46bd      	mov	sp, r7
 8001b6e:	bd80      	pop	{r7, pc}
 8001b70:	40021000 	.word	0x40021000

08001b74 <HAL_RCC_ClockConfig>:
  *         You can use @ref HAL_RCC_GetClockConfig() function to know which clock is
  *         currently used as system clock source.
  * @retval HAL status
  */
HAL_StatusTypeDef HAL_RCC_ClockConfig(RCC_ClkInitTypeDef  *RCC_ClkInitStruct, uint32_t FLatency)
{
 8001b74:	b580      	push	{r7, lr}
 8001b76:	b084      	sub	sp, #16
 8001b78:	af00      	add	r7, sp, #0
 8001b7a:	6078      	str	r0, [r7, #4]
 8001b7c:	6039      	str	r1, [r7, #0]
  uint32_t tickstart;

  /* Check Null pointer */
  if (RCC_ClkInitStruct == NULL)
 8001b7e:	687b      	ldr	r3, [r7, #4]
 8001b80:	2b00      	cmp	r3, #0
 8001b82:	d101      	bne.n	8001b88 <HAL_RCC_ClockConfig+0x14>
  {
    return HAL_ERROR;
 8001b84:	2301      	movs	r3, #1
 8001b86:	e0d0      	b.n	8001d2a <HAL_RCC_ClockConfig+0x1b6>
  must be correctly programmed according to the frequency of the CPU clock
    (HCLK) of the device. */

#if defined(FLASH_ACR_LATENCY)
  /* Increasing the number of wait states because of higher CPU frequency */
  if (FLatency > __HAL_FLASH_GET_LATENCY())
 8001b88:	4b6a      	ldr	r3, [pc, #424]	; (8001d34 <HAL_RCC_ClockConfig+0x1c0>)
 8001b8a:	681b      	ldr	r3, [r3, #0]
 8001b8c:	f003 0307 	and.w	r3, r3, #7
 8001b90:	683a      	ldr	r2, [r7, #0]
 8001b92:	429a      	cmp	r2, r3
 8001b94:	d910      	bls.n	8001bb8 <HAL_RCC_ClockConfig+0x44>
  {
    /* Program the new number of wait states to the LATENCY bits in the FLASH_ACR register */
    __HAL_FLASH_SET_LATENCY(FLatency);
 8001b96:	4b67      	ldr	r3, [pc, #412]	; (8001d34 <HAL_RCC_ClockConfig+0x1c0>)
 8001b98:	681b      	ldr	r3, [r3, #0]
 8001b9a:	f023 0207 	bic.w	r2, r3, #7
 8001b9e:	4965      	ldr	r1, [pc, #404]	; (8001d34 <HAL_RCC_ClockConfig+0x1c0>)
 8001ba0:	683b      	ldr	r3, [r7, #0]
 8001ba2:	4313      	orrs	r3, r2
 8001ba4:	600b      	str	r3, [r1, #0]

    /* Check that the new number of wait states is taken into account to access the Flash
    memory by reading the FLASH_ACR register */
    if (__HAL_FLASH_GET_LATENCY() != FLatency)
 8001ba6:	4b63      	ldr	r3, [pc, #396]	; (8001d34 <HAL_RCC_ClockConfig+0x1c0>)
 8001ba8:	681b      	ldr	r3, [r3, #0]
 8001baa:	f003 0307 	and.w	r3, r3, #7
 8001bae:	683a      	ldr	r2, [r7, #0]
 8001bb0:	429a      	cmp	r2, r3
 8001bb2:	d001      	beq.n	8001bb8 <HAL_RCC_ClockConfig+0x44>
  {
    return HAL_ERROR;
 8001bb4:	2301      	movs	r3, #1
 8001bb6:	e0b8      	b.n	8001d2a <HAL_RCC_ClockConfig+0x1b6>
  }
}

#endif /* FLASH_ACR_LATENCY */
/*-------------------------- HCLK Configuration --------------------------*/
if (((RCC_ClkInitStruct->ClockType) & RCC_CLOCKTYPE_HCLK) == RCC_CLOCKTYPE_HCLK)
 8001bb8:	687b      	ldr	r3, [r7, #4]
 8001bba:	681b      	ldr	r3, [r3, #0]
 8001bbc:	f003 0302 	and.w	r3, r3, #2
 8001bc0:	2b00      	cmp	r3, #0
 8001bc2:	d020      	beq.n	8001c06 <HAL_RCC_ClockConfig+0x92>
  {
    /* Set the highest APBx dividers in order to ensure that we do not go through
    a non-spec phase whatever we decrease or increase HCLK. */
    if (((RCC_ClkInitStruct->ClockType) & RCC_CLOCKTYPE_PCLK1) == RCC_CLOCKTYPE_PCLK1)
 8001bc4:	687b      	ldr	r3, [r7, #4]
 8001bc6:	681b      	ldr	r3, [r3, #0]
 8001bc8:	f003 0304 	and.w	r3, r3, #4
 8001bcc:	2b00      	cmp	r3, #0
 8001bce:	d005      	beq.n	8001bdc <HAL_RCC_ClockConfig+0x68>
    {
      MODIFY_REG(RCC->CFGR, RCC_CFGR_PPRE1, RCC_HCLK_DIV16);
 8001bd0:	4b59      	ldr	r3, [pc, #356]	; (8001d38 <HAL_RCC_ClockConfig+0x1c4>)
 8001bd2:	685b      	ldr	r3, [r3, #4]
 8001bd4:	4a58      	ldr	r2, [pc, #352]	; (8001d38 <HAL_RCC_ClockConfig+0x1c4>)
 8001bd6:	f443 63e0 	orr.w	r3, r3, #1792	; 0x700
 8001bda:	6053      	str	r3, [r2, #4]
    }

    if (((RCC_ClkInitStruct->ClockType) & RCC_CLOCKTYPE_PCLK2) == RCC_CLOCKTYPE_PCLK2)
 8001bdc:	687b      	ldr	r3, [r7, #4]
 8001bde:	681b      	ldr	r3, [r3, #0]
 8001be0:	f003 0308 	and.w	r3, r3, #8
 8001be4:	2b00      	cmp	r3, #0
 8001be6:	d005      	beq.n	8001bf4 <HAL_RCC_ClockConfig+0x80>
    {
      MODIFY_REG(RCC->CFGR, RCC_CFGR_PPRE2, (RCC_HCLK_DIV16 << 3));
 8001be8:	4b53      	ldr	r3, [pc, #332]	; (8001d38 <HAL_RCC_ClockConfig+0x1c4>)
 8001bea:	685b      	ldr	r3, [r3, #4]
 8001bec:	4a52      	ldr	r2, [pc, #328]	; (8001d38 <HAL_RCC_ClockConfig+0x1c4>)
 8001bee:	f443 5360 	orr.w	r3, r3, #14336	; 0x3800
 8001bf2:	6053      	str	r3, [r2, #4]
    }

    /* Set the new HCLK clock divider */
    assert_param(IS_RCC_HCLK(RCC_ClkInitStruct->AHBCLKDivider));
    MODIFY_REG(RCC->CFGR, RCC_CFGR_HPRE, RCC_ClkInitStruct->AHBCLKDivider);
 8001bf4:	4b50      	ldr	r3, [pc, #320]	; (8001d38 <HAL_RCC_ClockConfig+0x1c4>)
 8001bf6:	685b      	ldr	r3, [r3, #4]
 8001bf8:	f023 02f0 	bic.w	r2, r3, #240	; 0xf0
 8001bfc:	687b      	ldr	r3, [r7, #4]
 8001bfe:	689b      	ldr	r3, [r3, #8]
 8001c00:	494d      	ldr	r1, [pc, #308]	; (8001d38 <HAL_RCC_ClockConfig+0x1c4>)
 8001c02:	4313      	orrs	r3, r2
 8001c04:	604b      	str	r3, [r1, #4]
  }

  /*------------------------- SYSCLK Configuration ---------------------------*/
  if (((RCC_ClkInitStruct->ClockType) & RCC_CLOCKTYPE_SYSCLK) == RCC_CLOCKTYPE_SYSCLK)
 8001c06:	687b      	ldr	r3, [r7, #4]
 8001c08:	681b      	ldr	r3, [r3, #0]
 8001c0a:	f003 0301 	and.w	r3, r3, #1
 8001c0e:	2b00      	cmp	r3, #0
 8001c10:	d040      	beq.n	8001c94 <HAL_RCC_ClockConfig+0x120>
  {
    assert_param(IS_RCC_SYSCLKSOURCE(RCC_ClkInitStruct->SYSCLKSource));

    /* HSE is selected as System Clock Source */
    if (RCC_ClkInitStruct->SYSCLKSource == RCC_SYSCLKSOURCE_HSE)
 8001c12:	687b      	ldr	r3, [r7, #4]
 8001c14:	685b      	ldr	r3, [r3, #4]
 8001c16:	2b01      	cmp	r3, #1
 8001c18:	d107      	bne.n	8001c2a <HAL_RCC_ClockConfig+0xb6>
    {
      /* Check the HSE ready flag */
      if (__HAL_RCC_GET_FLAG(RCC_FLAG_HSERDY) == RESET)
 8001c1a:	4b47      	ldr	r3, [pc, #284]	; (8001d38 <HAL_RCC_ClockConfig+0x1c4>)
 8001c1c:	681b      	ldr	r3, [r3, #0]
 8001c1e:	f403 3300 	and.w	r3, r3, #131072	; 0x20000
 8001c22:	2b00      	cmp	r3, #0
 8001c24:	d115      	bne.n	8001c52 <HAL_RCC_ClockConfig+0xde>
      {
        return HAL_ERROR;
 8001c26:	2301      	movs	r3, #1
 8001c28:	e07f      	b.n	8001d2a <HAL_RCC_ClockConfig+0x1b6>
      }
    }
    /* PLL is selected as System Clock Source */
    else if (RCC_ClkInitStruct->SYSCLKSource == RCC_SYSCLKSOURCE_PLLCLK)
 8001c2a:	687b      	ldr	r3, [r7, #4]
 8001c2c:	685b      	ldr	r3, [r3, #4]
 8001c2e:	2b02      	cmp	r3, #2
 8001c30:	d107      	bne.n	8001c42 <HAL_RCC_ClockConfig+0xce>
    {
      /* Check the PLL ready flag */
      if (__HAL_RCC_GET_FLAG(RCC_FLAG_PLLRDY) == RESET)
 8001c32:	4b41      	ldr	r3, [pc, #260]	; (8001d38 <HAL_RCC_ClockConfig+0x1c4>)
 8001c34:	681b      	ldr	r3, [r3, #0]
 8001c36:	f003 7300 	and.w	r3, r3, #33554432	; 0x2000000
 8001c3a:	2b00      	cmp	r3, #0
 8001c3c:	d109      	bne.n	8001c52 <HAL_RCC_ClockConfig+0xde>
      {
        return HAL_ERROR;
 8001c3e:	2301      	movs	r3, #1
 8001c40:	e073      	b.n	8001d2a <HAL_RCC_ClockConfig+0x1b6>
    }
    /* HSI is selected as System Clock Source */
    else
    {
      /* Check the HSI ready flag */
      if (__HAL_RCC_GET_FLAG(RCC_FLAG_HSIRDY) == RESET)
 8001c42:	4b3d      	ldr	r3, [pc, #244]	; (8001d38 <HAL_RCC_ClockConfig+0x1c4>)
 8001c44:	681b      	ldr	r3, [r3, #0]
 8001c46:	f003 0302 	and.w	r3, r3, #2
 8001c4a:	2b00      	cmp	r3, #0
 8001c4c:	d101      	bne.n	8001c52 <HAL_RCC_ClockConfig+0xde>
      {
        return HAL_ERROR;
 8001c4e:	2301      	movs	r3, #1
 8001c50:	e06b      	b.n	8001d2a <HAL_RCC_ClockConfig+0x1b6>
      }
    }
    __HAL_RCC_SYSCLK_CONFIG(RCC_ClkInitStruct->SYSCLKSource);
 8001c52:	4b39      	ldr	r3, [pc, #228]	; (8001d38 <HAL_RCC_ClockConfig+0x1c4>)
 8001c54:	685b      	ldr	r3, [r3, #4]
 8001c56:	f023 0203 	bic.w	r2, r3, #3
 8001c5a:	687b      	ldr	r3, [r7, #4]
 8001c5c:	685b      	ldr	r3, [r3, #4]
 8001c5e:	4936      	ldr	r1, [pc, #216]	; (8001d38 <HAL_RCC_ClockConfig+0x1c4>)
 8001c60:	4313      	orrs	r3, r2
 8001c62:	604b      	str	r3, [r1, #4]

    /* Get Start Tick */
    tickstart = HAL_GetTick();
 8001c64:	f7ff fa58 	bl	8001118 <HAL_GetTick>
 8001c68:	60f8      	str	r0, [r7, #12]

    while (__HAL_RCC_GET_SYSCLK_SOURCE() != (RCC_ClkInitStruct->SYSCLKSource << RCC_CFGR_SWS_Pos))
 8001c6a:	e00a      	b.n	8001c82 <HAL_RCC_ClockConfig+0x10e>
    {
      if ((HAL_GetTick() - tickstart) > CLOCKSWITCH_TIMEOUT_VALUE)
 8001c6c:	f7ff fa54 	bl	8001118 <HAL_GetTick>
 8001c70:	4602      	mov	r2, r0
 8001c72:	68fb      	ldr	r3, [r7, #12]
 8001c74:	1ad3      	subs	r3, r2, r3
 8001c76:	f241 3288 	movw	r2, #5000	; 0x1388
 8001c7a:	4293      	cmp	r3, r2
 8001c7c:	d901      	bls.n	8001c82 <HAL_RCC_ClockConfig+0x10e>
      {
        return HAL_TIMEOUT;
 8001c7e:	2303      	movs	r3, #3
 8001c80:	e053      	b.n	8001d2a <HAL_RCC_ClockConfig+0x1b6>
    while (__HAL_RCC_GET_SYSCLK_SOURCE() != (RCC_ClkInitStruct->SYSCLKSource << RCC_CFGR_SWS_Pos))
 8001c82:	4b2d      	ldr	r3, [pc, #180]	; (8001d38 <HAL_RCC_ClockConfig+0x1c4>)
 8001c84:	685b      	ldr	r3, [r3, #4]
 8001c86:	f003 020c 	and.w	r2, r3, #12
 8001c8a:	687b      	ldr	r3, [r7, #4]
 8001c8c:	685b      	ldr	r3, [r3, #4]
 8001c8e:	009b      	lsls	r3, r3, #2
 8001c90:	429a      	cmp	r2, r3
 8001c92:	d1eb      	bne.n	8001c6c <HAL_RCC_ClockConfig+0xf8>
    }
  }

#if defined(FLASH_ACR_LATENCY)
  /* Decreasing the number of wait states because of lower CPU frequency */
  if (FLatency < __HAL_FLASH_GET_LATENCY())
 8001c94:	4b27      	ldr	r3, [pc, #156]	; (8001d34 <HAL_RCC_ClockConfig+0x1c0>)
 8001c96:	681b      	ldr	r3, [r3, #0]
 8001c98:	f003 0307 	and.w	r3, r3, #7
 8001c9c:	683a      	ldr	r2, [r7, #0]
 8001c9e:	429a      	cmp	r2, r3
 8001ca0:	d210      	bcs.n	8001cc4 <HAL_RCC_ClockConfig+0x150>
  {
    /* Program the new number of wait states to the LATENCY bits in the FLASH_ACR register */
    __HAL_FLASH_SET_LATENCY(FLatency);
 8001ca2:	4b24      	ldr	r3, [pc, #144]	; (8001d34 <HAL_RCC_ClockConfig+0x1c0>)
 8001ca4:	681b      	ldr	r3, [r3, #0]
 8001ca6:	f023 0207 	bic.w	r2, r3, #7
 8001caa:	4922      	ldr	r1, [pc, #136]	; (8001d34 <HAL_RCC_ClockConfig+0x1c0>)
 8001cac:	683b      	ldr	r3, [r7, #0]
 8001cae:	4313      	orrs	r3, r2
 8001cb0:	600b      	str	r3, [r1, #0]

    /* Check that the new number of wait states is taken into account to access the Flash
    memory by reading the FLASH_ACR register */
    if (__HAL_FLASH_GET_LATENCY() != FLatency)
 8001cb2:	4b20      	ldr	r3, [pc, #128]	; (8001d34 <HAL_RCC_ClockConfig+0x1c0>)
 8001cb4:	681b      	ldr	r3, [r3, #0]
 8001cb6:	f003 0307 	and.w	r3, r3, #7
 8001cba:	683a      	ldr	r2, [r7, #0]
 8001cbc:	429a      	cmp	r2, r3
 8001cbe:	d001      	beq.n	8001cc4 <HAL_RCC_ClockConfig+0x150>
  {
    return HAL_ERROR;
 8001cc0:	2301      	movs	r3, #1
 8001cc2:	e032      	b.n	8001d2a <HAL_RCC_ClockConfig+0x1b6>
  }
}
#endif /* FLASH_ACR_LATENCY */

/*-------------------------- PCLK1 Configuration ---------------------------*/
if (((RCC_ClkInitStruct->ClockType) & RCC_CLOCKTYPE_PCLK1) == RCC_CLOCKTYPE_PCLK1)
 8001cc4:	687b      	ldr	r3, [r7, #4]
 8001cc6:	681b      	ldr	r3, [r3, #0]
 8001cc8:	f003 0304 	and.w	r3, r3, #4
 8001ccc:	2b00      	cmp	r3, #0
 8001cce:	d008      	beq.n	8001ce2 <HAL_RCC_ClockConfig+0x16e>
  {
    assert_param(IS_RCC_PCLK(RCC_ClkInitStruct->APB1CLKDivider));
    MODIFY_REG(RCC->CFGR, RCC_CFGR_PPRE1, RCC_ClkInitStruct->APB1CLKDivider);
 8001cd0:	4b19      	ldr	r3, [pc, #100]	; (8001d38 <HAL_RCC_ClockConfig+0x1c4>)
 8001cd2:	685b      	ldr	r3, [r3, #4]
 8001cd4:	f423 62e0 	bic.w	r2, r3, #1792	; 0x700
 8001cd8:	687b      	ldr	r3, [r7, #4]
 8001cda:	68db      	ldr	r3, [r3, #12]
 8001cdc:	4916      	ldr	r1, [pc, #88]	; (8001d38 <HAL_RCC_ClockConfig+0x1c4>)
 8001cde:	4313      	orrs	r3, r2
 8001ce0:	604b      	str	r3, [r1, #4]
  }

  /*-------------------------- PCLK2 Configuration ---------------------------*/
  if (((RCC_ClkInitStruct->ClockType) & RCC_CLOCKTYPE_PCLK2) == RCC_CLOCKTYPE_PCLK2)
 8001ce2:	687b      	ldr	r3, [r7, #4]
 8001ce4:	681b      	ldr	r3, [r3, #0]
 8001ce6:	f003 0308 	and.w	r3, r3, #8
 8001cea:	2b00      	cmp	r3, #0
 8001cec:	d009      	beq.n	8001d02 <HAL_RCC_ClockConfig+0x18e>
  {
    assert_param(IS_RCC_PCLK(RCC_ClkInitStruct->APB2CLKDivider));
    MODIFY_REG(RCC->CFGR, RCC_CFGR_PPRE2, ((RCC_ClkInitStruct->APB2CLKDivider) << 3));
 8001cee:	4b12      	ldr	r3, [pc, #72]	; (8001d38 <HAL_RCC_ClockConfig+0x1c4>)
 8001cf0:	685b      	ldr	r3, [r3, #4]
 8001cf2:	f423 5260 	bic.w	r2, r3, #14336	; 0x3800
 8001cf6:	687b      	ldr	r3, [r7, #4]
 8001cf8:	691b      	ldr	r3, [r3, #16]
 8001cfa:	00db      	lsls	r3, r3, #3
 8001cfc:	490e      	ldr	r1, [pc, #56]	; (8001d38 <HAL_RCC_ClockConfig+0x1c4>)
 8001cfe:	4313      	orrs	r3, r2
 8001d00:	604b      	str	r3, [r1, #4]
  }

  /* Update the SystemCoreClock global variable */
  SystemCoreClock = HAL_RCC_GetSysClockFreq() >> AHBPrescTable[(RCC->CFGR & RCC_CFGR_HPRE) >> RCC_CFGR_HPRE_Pos];
 8001d02:	f000 f821 	bl	8001d48 <HAL_RCC_GetSysClockFreq>
 8001d06:	4602      	mov	r2, r0
 8001d08:	4b0b      	ldr	r3, [pc, #44]	; (8001d38 <HAL_RCC_ClockConfig+0x1c4>)
 8001d0a:	685b      	ldr	r3, [r3, #4]
 8001d0c:	091b      	lsrs	r3, r3, #4
 8001d0e:	f003 030f 	and.w	r3, r3, #15
 8001d12:	490a      	ldr	r1, [pc, #40]	; (8001d3c <HAL_RCC_ClockConfig+0x1c8>)
 8001d14:	5ccb      	ldrb	r3, [r1, r3]
 8001d16:	fa22 f303 	lsr.w	r3, r2, r3
 8001d1a:	4a09      	ldr	r2, [pc, #36]	; (8001d40 <HAL_RCC_ClockConfig+0x1cc>)
 8001d1c:	6013      	str	r3, [r2, #0]

  /* Configure the source of time base considering new system clocks settings*/
  HAL_InitTick(uwTickPrio);
 8001d1e:	4b09      	ldr	r3, [pc, #36]	; (8001d44 <HAL_RCC_ClockConfig+0x1d0>)
 8001d20:	681b      	ldr	r3, [r3, #0]
 8001d22:	4618      	mov	r0, r3
 8001d24:	f7ff f9b6 	bl	8001094 <HAL_InitTick>

  return HAL_OK;
 8001d28:	2300      	movs	r3, #0
}
 8001d2a:	4618      	mov	r0, r3
 8001d2c:	3710      	adds	r7, #16
 8001d2e:	46bd      	mov	sp, r7
 8001d30:	bd80      	pop	{r7, pc}
 8001d32:	bf00      	nop
 8001d34:	40022000 	.word	0x40022000
 8001d38:	40021000 	.word	0x40021000
 8001d3c:	08002670 	.word	0x08002670
 8001d40:	20000008 	.word	0x20000008
 8001d44:	2000000c 	.word	0x2000000c

08001d48 <HAL_RCC_GetSysClockFreq>:
  *         right SYSCLK value. Otherwise, any configuration based on this function will be incorrect.
  *
  * @retval SYSCLK frequency
  */
uint32_t HAL_RCC_GetSysClockFreq(void)
{
 8001d48:	b480      	push	{r7}
 8001d4a:	b087      	sub	sp, #28
 8001d4c:	af00      	add	r7, sp, #0
#else
  static const uint8_t aPredivFactorTable[2U] = {1, 2};
#endif /*RCC_CFGR2_PREDIV1*/

#endif
  uint32_t tmpreg = 0U, prediv = 0U, pllclk = 0U, pllmul = 0U;
 8001d4e:	2300      	movs	r3, #0
 8001d50:	60fb      	str	r3, [r7, #12]
 8001d52:	2300      	movs	r3, #0
 8001d54:	60bb      	str	r3, [r7, #8]
 8001d56:	2300      	movs	r3, #0
 8001d58:	617b      	str	r3, [r7, #20]
 8001d5a:	2300      	movs	r3, #0
 8001d5c:	607b      	str	r3, [r7, #4]
  uint32_t sysclockfreq = 0U;
 8001d5e:	2300      	movs	r3, #0
 8001d60:	613b      	str	r3, [r7, #16]
#if defined(RCC_CFGR2_PREDIV1SRC)
  uint32_t prediv2 = 0U, pll2mul = 0U;
#endif /*RCC_CFGR2_PREDIV1SRC*/

  tmpreg = RCC->CFGR;
 8001d62:	4b1e      	ldr	r3, [pc, #120]	; (8001ddc <HAL_RCC_GetSysClockFreq+0x94>)
 8001d64:	685b      	ldr	r3, [r3, #4]
 8001d66:	60fb      	str	r3, [r7, #12]

  /* Get SYSCLK source -------------------------------------------------------*/
  switch (tmpreg & RCC_CFGR_SWS)
 8001d68:	68fb      	ldr	r3, [r7, #12]
 8001d6a:	f003 030c 	and.w	r3, r3, #12
 8001d6e:	2b04      	cmp	r3, #4
 8001d70:	d002      	beq.n	8001d78 <HAL_RCC_GetSysClockFreq+0x30>
 8001d72:	2b08      	cmp	r3, #8
 8001d74:	d003      	beq.n	8001d7e <HAL_RCC_GetSysClockFreq+0x36>
 8001d76:	e027      	b.n	8001dc8 <HAL_RCC_GetSysClockFreq+0x80>
  {
    case RCC_SYSCLKSOURCE_STATUS_HSE:  /* HSE used as system clock */
    {
      sysclockfreq = HSE_VALUE;
 8001d78:	4b19      	ldr	r3, [pc, #100]	; (8001de0 <HAL_RCC_GetSysClockFreq+0x98>)
 8001d7a:	613b      	str	r3, [r7, #16]
      break;
 8001d7c:	e027      	b.n	8001dce <HAL_RCC_GetSysClockFreq+0x86>
    }
    case RCC_SYSCLKSOURCE_STATUS_PLLCLK:  /* PLL used as system clock */
    {
      pllmul = aPLLMULFactorTable[(uint32_t)(tmpreg & RCC_CFGR_PLLMULL) >> RCC_CFGR_PLLMULL_Pos];
 8001d7e:	68fb      	ldr	r3, [r7, #12]
 8001d80:	0c9b      	lsrs	r3, r3, #18
 8001d82:	f003 030f 	and.w	r3, r3, #15
 8001d86:	4a17      	ldr	r2, [pc, #92]	; (8001de4 <HAL_RCC_GetSysClockFreq+0x9c>)
 8001d88:	5cd3      	ldrb	r3, [r2, r3]
 8001d8a:	607b      	str	r3, [r7, #4]
      if ((tmpreg & RCC_CFGR_PLLSRC) != RCC_PLLSOURCE_HSI_DIV2)
 8001d8c:	68fb      	ldr	r3, [r7, #12]
 8001d8e:	f403 3380 	and.w	r3, r3, #65536	; 0x10000
 8001d92:	2b00      	cmp	r3, #0
 8001d94:	d010      	beq.n	8001db8 <HAL_RCC_GetSysClockFreq+0x70>
      {
#if defined(RCC_CFGR2_PREDIV1)
        prediv = aPredivFactorTable[(uint32_t)(RCC->CFGR2 & RCC_CFGR2_PREDIV1) >> RCC_CFGR2_PREDIV1_Pos];
#else
        prediv = aPredivFactorTable[(uint32_t)(RCC->CFGR & RCC_CFGR_PLLXTPRE) >> RCC_CFGR_PLLXTPRE_Pos];
 8001d96:	4b11      	ldr	r3, [pc, #68]	; (8001ddc <HAL_RCC_GetSysClockFreq+0x94>)
 8001d98:	685b      	ldr	r3, [r3, #4]
 8001d9a:	0c5b      	lsrs	r3, r3, #17
 8001d9c:	f003 0301 	and.w	r3, r3, #1
 8001da0:	4a11      	ldr	r2, [pc, #68]	; (8001de8 <HAL_RCC_GetSysClockFreq+0xa0>)
 8001da2:	5cd3      	ldrb	r3, [r2, r3]
 8001da4:	60bb      	str	r3, [r7, #8]
        {
          pllclk = pllclk / 2;
        }
#else
        /* HSE used as PLL clock source : PLLCLK = HSE/PREDIV1 * PLLMUL */
        pllclk = (uint32_t)((HSE_VALUE  * pllmul) / prediv);
 8001da6:	687b      	ldr	r3, [r7, #4]
 8001da8:	4a0d      	ldr	r2, [pc, #52]	; (8001de0 <HAL_RCC_GetSysClockFreq+0x98>)
 8001daa:	fb03 f202 	mul.w	r2, r3, r2
 8001dae:	68bb      	ldr	r3, [r7, #8]
 8001db0:	fbb2 f3f3 	udiv	r3, r2, r3
 8001db4:	617b      	str	r3, [r7, #20]
 8001db6:	e004      	b.n	8001dc2 <HAL_RCC_GetSysClockFreq+0x7a>
#endif /*RCC_CFGR2_PREDIV1SRC*/
      }
      else
      {
        /* HSI used as PLL clock source : PLLCLK = HSI/2 * PLLMUL */
        pllclk = (uint32_t)((HSI_VALUE >> 1) * pllmul);
 8001db8:	687b      	ldr	r3, [r7, #4]
 8001dba:	4a0c      	ldr	r2, [pc, #48]	; (8001dec <HAL_RCC_GetSysClockFreq+0xa4>)
 8001dbc:	fb02 f303 	mul.w	r3, r2, r3
 8001dc0:	617b      	str	r3, [r7, #20]
      }
      sysclockfreq = pllclk;
 8001dc2:	697b      	ldr	r3, [r7, #20]
 8001dc4:	613b      	str	r3, [r7, #16]
      break;
 8001dc6:	e002      	b.n	8001dce <HAL_RCC_GetSysClockFreq+0x86>
    }
    case RCC_SYSCLKSOURCE_STATUS_HSI:  /* HSI used as system clock source */
    default: /* HSI used as system clock */
    {
      sysclockfreq = HSI_VALUE;
 8001dc8:	4b05      	ldr	r3, [pc, #20]	; (8001de0 <HAL_RCC_GetSysClockFreq+0x98>)
 8001dca:	613b      	str	r3, [r7, #16]
      break;
 8001dcc:	bf00      	nop
    }
  }
  return sysclockfreq;
 8001dce:	693b      	ldr	r3, [r7, #16]
}
 8001dd0:	4618      	mov	r0, r3
 8001dd2:	371c      	adds	r7, #28
 8001dd4:	46bd      	mov	sp, r7
 8001dd6:	bc80      	pop	{r7}
 8001dd8:	4770      	bx	lr
 8001dda:	bf00      	nop
 8001ddc:	40021000 	.word	0x40021000
 8001de0:	007a1200 	.word	0x007a1200
 8001de4:	08002680 	.word	0x08002680
 8001de8:	08002690 	.word	0x08002690
 8001dec:	003d0900 	.word	0x003d0900

08001df0 <RCC_Delay>:
  * @brief  This function provides delay (in milliseconds) based on CPU cycles method.
  * @param  mdelay: specifies the delay time length, in milliseconds.
  * @retval None
  */
static void RCC_Delay(uint32_t mdelay)
{
 8001df0:	b480      	push	{r7}
 8001df2:	b085      	sub	sp, #20
 8001df4:	af00      	add	r7, sp, #0
 8001df6:	6078      	str	r0, [r7, #4]
  __IO uint32_t Delay = mdelay * (SystemCoreClock / 8U / 1000U);
 8001df8:	4b0a      	ldr	r3, [pc, #40]	; (8001e24 <RCC_Delay+0x34>)
 8001dfa:	681b      	ldr	r3, [r3, #0]
 8001dfc:	4a0a      	ldr	r2, [pc, #40]	; (8001e28 <RCC_Delay+0x38>)
 8001dfe:	fba2 2303 	umull	r2, r3, r2, r3
 8001e02:	0a5b      	lsrs	r3, r3, #9
 8001e04:	687a      	ldr	r2, [r7, #4]
 8001e06:	fb02 f303 	mul.w	r3, r2, r3
 8001e0a:	60fb      	str	r3, [r7, #12]
  do
  {
    __NOP();
 8001e0c:	bf00      	nop
  }
  while (Delay --);
 8001e0e:	68fb      	ldr	r3, [r7, #12]
 8001e10:	1e5a      	subs	r2, r3, #1
 8001e12:	60fa      	str	r2, [r7, #12]
 8001e14:	2b00      	cmp	r3, #0
 8001e16:	d1f9      	bne.n	8001e0c <RCC_Delay+0x1c>
}
 8001e18:	bf00      	nop
 8001e1a:	bf00      	nop
 8001e1c:	3714      	adds	r7, #20
 8001e1e:	46bd      	mov	sp, r7
 8001e20:	bc80      	pop	{r7}
 8001e22:	4770      	bx	lr
 8001e24:	20000008 	.word	0x20000008
 8001e28:	10624dd3 	.word	0x10624dd3

08001e2c <HAL_TIM_Base_Init>:
  *         Ex: call @ref HAL_TIM_Base_DeInit() before HAL_TIM_Base_Init()
  * @param  htim TIM Base handle
  * @retval HAL status
  */
HAL_StatusTypeDef HAL_TIM_Base_Init(TIM_HandleTypeDef *htim)
{
 8001e2c:	b580      	push	{r7, lr}
 8001e2e:	b082      	sub	sp, #8
 8001e30:	af00      	add	r7, sp, #0
 8001e32:	6078      	str	r0, [r7, #4]
  /* Check the TIM handle allocation */
  if (htim == NULL)
 8001e34:	687b      	ldr	r3, [r7, #4]
 8001e36:	2b00      	cmp	r3, #0
 8001e38:	d101      	bne.n	8001e3e <HAL_TIM_Base_Init+0x12>
  {
    return HAL_ERROR;
 8001e3a:	2301      	movs	r3, #1
 8001e3c:	e041      	b.n	8001ec2 <HAL_TIM_Base_Init+0x96>
  assert_param(IS_TIM_COUNTER_MODE(htim->Init.CounterMode));
  assert_param(IS_TIM_CLOCKDIVISION_DIV(htim->Init.ClockDivision));
  assert_param(IS_TIM_PERIOD(htim->Init.Period));
  assert_param(IS_TIM_AUTORELOAD_PRELOAD(htim->Init.AutoReloadPreload));

  if (htim->State == HAL_TIM_STATE_RESET)
 8001e3e:	687b      	ldr	r3, [r7, #4]
 8001e40:	f893 303d 	ldrb.w	r3, [r3, #61]	; 0x3d
 8001e44:	b2db      	uxtb	r3, r3
 8001e46:	2b00      	cmp	r3, #0
 8001e48:	d106      	bne.n	8001e58 <HAL_TIM_Base_Init+0x2c>
  {
    /* Allocate lock resource and initialize it */
    htim->Lock = HAL_UNLOCKED;
 8001e4a:	687b      	ldr	r3, [r7, #4]
 8001e4c:	2200      	movs	r2, #0
 8001e4e:	f883 203c 	strb.w	r2, [r3, #60]	; 0x3c
    }
    /* Init the low level hardware : GPIO, CLOCK, NVIC */
    htim->Base_MspInitCallback(htim);
#else
    /* Init the low level hardware : GPIO, CLOCK, NVIC */
    HAL_TIM_Base_MspInit(htim);
 8001e52:	6878      	ldr	r0, [r7, #4]
 8001e54:	f7ff f886 	bl	8000f64 <HAL_TIM_Base_MspInit>
#endif /* USE_HAL_TIM_REGISTER_CALLBACKS */
  }

  /* Set the TIM state */
  htim->State = HAL_TIM_STATE_BUSY;
 8001e58:	687b      	ldr	r3, [r7, #4]
 8001e5a:	2202      	movs	r2, #2
 8001e5c:	f883 203d 	strb.w	r2, [r3, #61]	; 0x3d

  /* Set the Time Base configuration */
  TIM_Base_SetConfig(htim->Instance, &htim->Init);
 8001e60:	687b      	ldr	r3, [r7, #4]
 8001e62:	681a      	ldr	r2, [r3, #0]
 8001e64:	687b      	ldr	r3, [r7, #4]
 8001e66:	3304      	adds	r3, #4
 8001e68:	4619      	mov	r1, r3
 8001e6a:	4610      	mov	r0, r2
 8001e6c:	f000 fa6e 	bl	800234c <TIM_Base_SetConfig>

  /* Initialize the DMA burst operation state */
  htim->DMABurstState = HAL_DMA_BURST_STATE_READY;
 8001e70:	687b      	ldr	r3, [r7, #4]
 8001e72:	2201      	movs	r2, #1
 8001e74:	f883 2046 	strb.w	r2, [r3, #70]	; 0x46

  /* Initialize the TIM channels state */
  TIM_CHANNEL_STATE_SET_ALL(htim, HAL_TIM_CHANNEL_STATE_READY);
 8001e78:	687b      	ldr	r3, [r7, #4]
 8001e7a:	2201      	movs	r2, #1
 8001e7c:	f883 203e 	strb.w	r2, [r3, #62]	; 0x3e
 8001e80:	687b      	ldr	r3, [r7, #4]
 8001e82:	2201      	movs	r2, #1
 8001e84:	f883 203f 	strb.w	r2, [r3, #63]	; 0x3f
 8001e88:	687b      	ldr	r3, [r7, #4]
 8001e8a:	2201      	movs	r2, #1
 8001e8c:	f883 2040 	strb.w	r2, [r3, #64]	; 0x40
 8001e90:	687b      	ldr	r3, [r7, #4]
 8001e92:	2201      	movs	r2, #1
 8001e94:	f883 2041 	strb.w	r2, [r3, #65]	; 0x41
  TIM_CHANNEL_N_STATE_SET_ALL(htim, HAL_TIM_CHANNEL_STATE_READY);
 8001e98:	687b      	ldr	r3, [r7, #4]
 8001e9a:	2201      	movs	r2, #1
 8001e9c:	f883 2042 	strb.w	r2, [r3, #66]	; 0x42
 8001ea0:	687b      	ldr	r3, [r7, #4]
 8001ea2:	2201      	movs	r2, #1
 8001ea4:	f883 2043 	strb.w	r2, [r3, #67]	; 0x43
 8001ea8:	687b      	ldr	r3, [r7, #4]
 8001eaa:	2201      	movs	r2, #1
 8001eac:	f883 2044 	strb.w	r2, [r3, #68]	; 0x44
 8001eb0:	687b      	ldr	r3, [r7, #4]
 8001eb2:	2201      	movs	r2, #1
 8001eb4:	f883 2045 	strb.w	r2, [r3, #69]	; 0x45

  /* Initialize the TIM state*/
  htim->State = HAL_TIM_STATE_READY;
 8001eb8:	687b      	ldr	r3, [r7, #4]
 8001eba:	2201      	movs	r2, #1
 8001ebc:	f883 203d 	strb.w	r2, [r3, #61]	; 0x3d

  return HAL_OK;
 8001ec0:	2300      	movs	r3, #0
}
 8001ec2:	4618      	mov	r0, r3
 8001ec4:	3708      	adds	r7, #8
 8001ec6:	46bd      	mov	sp, r7
 8001ec8:	bd80      	pop	{r7, pc}
	...

08001ecc <HAL_TIM_Base_Start_IT>:
  * @brief  Starts the TIM Base generation in interrupt mode.
  * @param  htim TIM Base handle
  * @retval HAL status
  */
HAL_StatusTypeDef HAL_TIM_Base_Start_IT(TIM_HandleTypeDef *htim)
{
 8001ecc:	b480      	push	{r7}
 8001ece:	b085      	sub	sp, #20
 8001ed0:	af00      	add	r7, sp, #0
 8001ed2:	6078      	str	r0, [r7, #4]

  /* Check the parameters */
  assert_param(IS_TIM_INSTANCE(htim->Instance));

  /* Check the TIM state */
  if (htim->State != HAL_TIM_STATE_READY)
 8001ed4:	687b      	ldr	r3, [r7, #4]
 8001ed6:	f893 303d 	ldrb.w	r3, [r3, #61]	; 0x3d
 8001eda:	b2db      	uxtb	r3, r3
 8001edc:	2b01      	cmp	r3, #1
 8001ede:	d001      	beq.n	8001ee4 <HAL_TIM_Base_Start_IT+0x18>
  {
    return HAL_ERROR;
 8001ee0:	2301      	movs	r3, #1
 8001ee2:	e035      	b.n	8001f50 <HAL_TIM_Base_Start_IT+0x84>
  }

  /* Set the TIM state */
  htim->State = HAL_TIM_STATE_BUSY;
 8001ee4:	687b      	ldr	r3, [r7, #4]
 8001ee6:	2202      	movs	r2, #2
 8001ee8:	f883 203d 	strb.w	r2, [r3, #61]	; 0x3d

  /* Enable the TIM Update interrupt */
  __HAL_TIM_ENABLE_IT(htim, TIM_IT_UPDATE);
 8001eec:	687b      	ldr	r3, [r7, #4]
 8001eee:	681b      	ldr	r3, [r3, #0]
 8001ef0:	68da      	ldr	r2, [r3, #12]
 8001ef2:	687b      	ldr	r3, [r7, #4]
 8001ef4:	681b      	ldr	r3, [r3, #0]
 8001ef6:	f042 0201 	orr.w	r2, r2, #1
 8001efa:	60da      	str	r2, [r3, #12]

  /* Enable the Peripheral, except in trigger mode where enable is automatically done with trigger */
  if (IS_TIM_SLAVE_INSTANCE(htim->Instance))
 8001efc:	687b      	ldr	r3, [r7, #4]
 8001efe:	681b      	ldr	r3, [r3, #0]
 8001f00:	4a16      	ldr	r2, [pc, #88]	; (8001f5c <HAL_TIM_Base_Start_IT+0x90>)
 8001f02:	4293      	cmp	r3, r2
 8001f04:	d009      	beq.n	8001f1a <HAL_TIM_Base_Start_IT+0x4e>
 8001f06:	687b      	ldr	r3, [r7, #4]
 8001f08:	681b      	ldr	r3, [r3, #0]
 8001f0a:	f1b3 4f80 	cmp.w	r3, #1073741824	; 0x40000000
 8001f0e:	d004      	beq.n	8001f1a <HAL_TIM_Base_Start_IT+0x4e>
 8001f10:	687b      	ldr	r3, [r7, #4]
 8001f12:	681b      	ldr	r3, [r3, #0]
 8001f14:	4a12      	ldr	r2, [pc, #72]	; (8001f60 <HAL_TIM_Base_Start_IT+0x94>)
 8001f16:	4293      	cmp	r3, r2
 8001f18:	d111      	bne.n	8001f3e <HAL_TIM_Base_Start_IT+0x72>
  {
    tmpsmcr = htim->Instance->SMCR & TIM_SMCR_SMS;
 8001f1a:	687b      	ldr	r3, [r7, #4]
 8001f1c:	681b      	ldr	r3, [r3, #0]
 8001f1e:	689b      	ldr	r3, [r3, #8]
 8001f20:	f003 0307 	and.w	r3, r3, #7
 8001f24:	60fb      	str	r3, [r7, #12]
    if (!IS_TIM_SLAVEMODE_TRIGGER_ENABLED(tmpsmcr))
 8001f26:	68fb      	ldr	r3, [r7, #12]
 8001f28:	2b06      	cmp	r3, #6
 8001f2a:	d010      	beq.n	8001f4e <HAL_TIM_Base_Start_IT+0x82>
    {
      __HAL_TIM_ENABLE(htim);
 8001f2c:	687b      	ldr	r3, [r7, #4]
 8001f2e:	681b      	ldr	r3, [r3, #0]
 8001f30:	681a      	ldr	r2, [r3, #0]
 8001f32:	687b      	ldr	r3, [r7, #4]
 8001f34:	681b      	ldr	r3, [r3, #0]
 8001f36:	f042 0201 	orr.w	r2, r2, #1
 8001f3a:	601a      	str	r2, [r3, #0]
    if (!IS_TIM_SLAVEMODE_TRIGGER_ENABLED(tmpsmcr))
 8001f3c:	e007      	b.n	8001f4e <HAL_TIM_Base_Start_IT+0x82>
    }
  }
  else
  {
    __HAL_TIM_ENABLE(htim);
 8001f3e:	687b      	ldr	r3, [r7, #4]
 8001f40:	681b      	ldr	r3, [r3, #0]
 8001f42:	681a      	ldr	r2, [r3, #0]
 8001f44:	687b      	ldr	r3, [r7, #4]
 8001f46:	681b      	ldr	r3, [r3, #0]
 8001f48:	f042 0201 	orr.w	r2, r2, #1
 8001f4c:	601a      	str	r2, [r3, #0]
  }

  /* Return function status */
  return HAL_OK;
 8001f4e:	2300      	movs	r3, #0
}
 8001f50:	4618      	mov	r0, r3
 8001f52:	3714      	adds	r7, #20
 8001f54:	46bd      	mov	sp, r7
 8001f56:	bc80      	pop	{r7}
 8001f58:	4770      	bx	lr
 8001f5a:	bf00      	nop
 8001f5c:	40012c00 	.word	0x40012c00
 8001f60:	40000400 	.word	0x40000400

08001f64 <HAL_TIM_IRQHandler>:
  * @brief  This function handles TIM interrupts requests.
  * @param  htim TIM  handle
  * @retval None
  */
void HAL_TIM_IRQHandler(TIM_HandleTypeDef *htim)
{
 8001f64:	b580      	push	{r7, lr}
 8001f66:	b082      	sub	sp, #8
 8001f68:	af00      	add	r7, sp, #0
 8001f6a:	6078      	str	r0, [r7, #4]
  /* Capture compare 1 event */
  if (__HAL_TIM_GET_FLAG(htim, TIM_FLAG_CC1) != RESET)
 8001f6c:	687b      	ldr	r3, [r7, #4]
 8001f6e:	681b      	ldr	r3, [r3, #0]
 8001f70:	691b      	ldr	r3, [r3, #16]
 8001f72:	f003 0302 	and.w	r3, r3, #2
 8001f76:	2b02      	cmp	r3, #2
 8001f78:	d122      	bne.n	8001fc0 <HAL_TIM_IRQHandler+0x5c>
  {
    if (__HAL_TIM_GET_IT_SOURCE(htim, TIM_IT_CC1) != RESET)
 8001f7a:	687b      	ldr	r3, [r7, #4]
 8001f7c:	681b      	ldr	r3, [r3, #0]
 8001f7e:	68db      	ldr	r3, [r3, #12]
 8001f80:	f003 0302 	and.w	r3, r3, #2
 8001f84:	2b02      	cmp	r3, #2
 8001f86:	d11b      	bne.n	8001fc0 <HAL_TIM_IRQHandler+0x5c>
    {
      {
        __HAL_TIM_CLEAR_IT(htim, TIM_IT_CC1);
 8001f88:	687b      	ldr	r3, [r7, #4]
 8001f8a:	681b      	ldr	r3, [r3, #0]
 8001f8c:	f06f 0202 	mvn.w	r2, #2
 8001f90:	611a      	str	r2, [r3, #16]
        htim->Channel = HAL_TIM_ACTIVE_CHANNEL_1;
 8001f92:	687b      	ldr	r3, [r7, #4]
 8001f94:	2201      	movs	r2, #1
 8001f96:	771a      	strb	r2, [r3, #28]

        /* Input capture event */
        if ((htim->Instance->CCMR1 & TIM_CCMR1_CC1S) != 0x00U)
 8001f98:	687b      	ldr	r3, [r7, #4]
 8001f9a:	681b      	ldr	r3, [r3, #0]
 8001f9c:	699b      	ldr	r3, [r3, #24]
 8001f9e:	f003 0303 	and.w	r3, r3, #3
 8001fa2:	2b00      	cmp	r3, #0
 8001fa4:	d003      	beq.n	8001fae <HAL_TIM_IRQHandler+0x4a>
        {
#if (USE_HAL_TIM_REGISTER_CALLBACKS == 1)
          htim->IC_CaptureCallback(htim);
#else
          HAL_TIM_IC_CaptureCallback(htim);
 8001fa6:	6878      	ldr	r0, [r7, #4]
 8001fa8:	f000 f9b4 	bl	8002314 <HAL_TIM_IC_CaptureCallback>
 8001fac:	e005      	b.n	8001fba <HAL_TIM_IRQHandler+0x56>
        {
#if (USE_HAL_TIM_REGISTER_CALLBACKS == 1)
          htim->OC_DelayElapsedCallback(htim);
          htim->PWM_PulseFinishedCallback(htim);
#else
          HAL_TIM_OC_DelayElapsedCallback(htim);
 8001fae:	6878      	ldr	r0, [r7, #4]
 8001fb0:	f000 f9a7 	bl	8002302 <HAL_TIM_OC_DelayElapsedCallback>
          HAL_TIM_PWM_PulseFinishedCallback(htim);
 8001fb4:	6878      	ldr	r0, [r7, #4]
 8001fb6:	f000 f9b6 	bl	8002326 <HAL_TIM_PWM_PulseFinishedCallback>
#endif /* USE_HAL_TIM_REGISTER_CALLBACKS */
        }
        htim->Channel = HAL_TIM_ACTIVE_CHANNEL_CLEARED;
 8001fba:	687b      	ldr	r3, [r7, #4]
 8001fbc:	2200      	movs	r2, #0
 8001fbe:	771a      	strb	r2, [r3, #28]
      }
    }
  }
  /* Capture compare 2 event */
  if (__HAL_TIM_GET_FLAG(htim, TIM_FLAG_CC2) != RESET)
 8001fc0:	687b      	ldr	r3, [r7, #4]
 8001fc2:	681b      	ldr	r3, [r3, #0]
 8001fc4:	691b      	ldr	r3, [r3, #16]
 8001fc6:	f003 0304 	and.w	r3, r3, #4
 8001fca:	2b04      	cmp	r3, #4
 8001fcc:	d122      	bne.n	8002014 <HAL_TIM_IRQHandler+0xb0>
  {
    if (__HAL_TIM_GET_IT_SOURCE(htim, TIM_IT_CC2) != RESET)
 8001fce:	687b      	ldr	r3, [r7, #4]
 8001fd0:	681b      	ldr	r3, [r3, #0]
 8001fd2:	68db      	ldr	r3, [r3, #12]
 8001fd4:	f003 0304 	and.w	r3, r3, #4
 8001fd8:	2b04      	cmp	r3, #4
 8001fda:	d11b      	bne.n	8002014 <HAL_TIM_IRQHandler+0xb0>
    {
      __HAL_TIM_CLEAR_IT(htim, TIM_IT_CC2);
 8001fdc:	687b      	ldr	r3, [r7, #4]
 8001fde:	681b      	ldr	r3, [r3, #0]
 8001fe0:	f06f 0204 	mvn.w	r2, #4
 8001fe4:	611a      	str	r2, [r3, #16]
      htim->Channel = HAL_TIM_ACTIVE_CHANNEL_2;
 8001fe6:	687b      	ldr	r3, [r7, #4]
 8001fe8:	2202      	movs	r2, #2
 8001fea:	771a      	strb	r2, [r3, #28]
      /* Input capture event */
      if ((htim->Instance->CCMR1 & TIM_CCMR1_CC2S) != 0x00U)
 8001fec:	687b      	ldr	r3, [r7, #4]
 8001fee:	681b      	ldr	r3, [r3, #0]
 8001ff0:	699b      	ldr	r3, [r3, #24]
 8001ff2:	f403 7340 	and.w	r3, r3, #768	; 0x300
 8001ff6:	2b00      	cmp	r3, #0
 8001ff8:	d003      	beq.n	8002002 <HAL_TIM_IRQHandler+0x9e>
      {
#if (USE_HAL_TIM_REGISTER_CALLBACKS == 1)
        htim->IC_CaptureCallback(htim);
#else
        HAL_TIM_IC_CaptureCallback(htim);
 8001ffa:	6878      	ldr	r0, [r7, #4]
 8001ffc:	f000 f98a 	bl	8002314 <HAL_TIM_IC_CaptureCallback>
 8002000:	e005      	b.n	800200e <HAL_TIM_IRQHandler+0xaa>
      {
#if (USE_HAL_TIM_REGISTER_CALLBACKS == 1)
        htim->OC_DelayElapsedCallback(htim);
        htim->PWM_PulseFinishedCallback(htim);
#else
        HAL_TIM_OC_DelayElapsedCallback(htim);
 8002002:	6878      	ldr	r0, [r7, #4]
 8002004:	f000 f97d 	bl	8002302 <HAL_TIM_OC_DelayElapsedCallback>
        HAL_TIM_PWM_PulseFinishedCallback(htim);
 8002008:	6878      	ldr	r0, [r7, #4]
 800200a:	f000 f98c 	bl	8002326 <HAL_TIM_PWM_PulseFinishedCallback>
#endif /* USE_HAL_TIM_REGISTER_CALLBACKS */
      }
      htim->Channel = HAL_TIM_ACTIVE_CHANNEL_CLEARED;
 800200e:	687b      	ldr	r3, [r7, #4]
 8002010:	2200      	movs	r2, #0
 8002012:	771a      	strb	r2, [r3, #28]
    }
  }
  /* Capture compare 3 event */
  if (__HAL_TIM_GET_FLAG(htim, TIM_FLAG_CC3) != RESET)
 8002014:	687b      	ldr	r3, [r7, #4]
 8002016:	681b      	ldr	r3, [r3, #0]
 8002018:	691b      	ldr	r3, [r3, #16]
 800201a:	f003 0308 	and.w	r3, r3, #8
 800201e:	2b08      	cmp	r3, #8
 8002020:	d122      	bne.n	8002068 <HAL_TIM_IRQHandler+0x104>
  {
    if (__HAL_TIM_GET_IT_SOURCE(htim, TIM_IT_CC3) != RESET)
 8002022:	687b      	ldr	r3, [r7, #4]
 8002024:	681b      	ldr	r3, [r3, #0]
 8002026:	68db      	ldr	r3, [r3, #12]
 8002028:	f003 0308 	and.w	r3, r3, #8
 800202c:	2b08      	cmp	r3, #8
 800202e:	d11b      	bne.n	8002068 <HAL_TIM_IRQHandler+0x104>
    {
      __HAL_TIM_CLEAR_IT(htim, TIM_IT_CC3);
 8002030:	687b      	ldr	r3, [r7, #4]
 8002032:	681b      	ldr	r3, [r3, #0]
 8002034:	f06f 0208 	mvn.w	r2, #8
 8002038:	611a      	str	r2, [r3, #16]
      htim->Channel = HAL_TIM_ACTIVE_CHANNEL_3;
 800203a:	687b      	ldr	r3, [r7, #4]
 800203c:	2204      	movs	r2, #4
 800203e:	771a      	strb	r2, [r3, #28]
      /* Input capture event */
      if ((htim->Instance->CCMR2 & TIM_CCMR2_CC3S) != 0x00U)
 8002040:	687b      	ldr	r3, [r7, #4]
 8002042:	681b      	ldr	r3, [r3, #0]
 8002044:	69db      	ldr	r3, [r3, #28]
 8002046:	f003 0303 	and.w	r3, r3, #3
 800204a:	2b00      	cmp	r3, #0
 800204c:	d003      	beq.n	8002056 <HAL_TIM_IRQHandler+0xf2>
      {
#if (USE_HAL_TIM_REGISTER_CALLBACKS == 1)
        htim->IC_CaptureCallback(htim);
#else
        HAL_TIM_IC_CaptureCallback(htim);
 800204e:	6878      	ldr	r0, [r7, #4]
 8002050:	f000 f960 	bl	8002314 <HAL_TIM_IC_CaptureCallback>
 8002054:	e005      	b.n	8002062 <HAL_TIM_IRQHandler+0xfe>
      {
#if (USE_HAL_TIM_REGISTER_CALLBACKS == 1)
        htim->OC_DelayElapsedCallback(htim);
        htim->PWM_PulseFinishedCallback(htim);
#else
        HAL_TIM_OC_DelayElapsedCallback(htim);
 8002056:	6878      	ldr	r0, [r7, #4]
 8002058:	f000 f953 	bl	8002302 <HAL_TIM_OC_DelayElapsedCallback>
        HAL_TIM_PWM_PulseFinishedCallback(htim);
 800205c:	6878      	ldr	r0, [r7, #4]
 800205e:	f000 f962 	bl	8002326 <HAL_TIM_PWM_PulseFinishedCallback>
#endif /* USE_HAL_TIM_REGISTER_CALLBACKS */
      }
      htim->Channel = HAL_TIM_ACTIVE_CHANNEL_CLEARED;
 8002062:	687b      	ldr	r3, [r7, #4]
 8002064:	2200      	movs	r2, #0
 8002066:	771a      	strb	r2, [r3, #28]
    }
  }
  /* Capture compare 4 event */
  if (__HAL_TIM_GET_FLAG(htim, TIM_FLAG_CC4) != RESET)
 8002068:	687b      	ldr	r3, [r7, #4]
 800206a:	681b      	ldr	r3, [r3, #0]
 800206c:	691b      	ldr	r3, [r3, #16]
 800206e:	f003 0310 	and.w	r3, r3, #16
 8002072:	2b10      	cmp	r3, #16
 8002074:	d122      	bne.n	80020bc <HAL_TIM_IRQHandler+0x158>
  {
    if (__HAL_TIM_GET_IT_SOURCE(htim, TIM_IT_CC4) != RESET)
 8002076:	687b      	ldr	r3, [r7, #4]
 8002078:	681b      	ldr	r3, [r3, #0]
 800207a:	68db      	ldr	r3, [r3, #12]
 800207c:	f003 0310 	and.w	r3, r3, #16
 8002080:	2b10      	cmp	r3, #16
 8002082:	d11b      	bne.n	80020bc <HAL_TIM_IRQHandler+0x158>
    {
      __HAL_TIM_CLEAR_IT(htim, TIM_IT_CC4);
 8002084:	687b      	ldr	r3, [r7, #4]
 8002086:	681b      	ldr	r3, [r3, #0]
 8002088:	f06f 0210 	mvn.w	r2, #16
 800208c:	611a      	str	r2, [r3, #16]
      htim->Channel = HAL_TIM_ACTIVE_CHANNEL_4;
 800208e:	687b      	ldr	r3, [r7, #4]
 8002090:	2208      	movs	r2, #8
 8002092:	771a      	strb	r2, [r3, #28]
      /* Input capture event */
      if ((htim->Instance->CCMR2 & TIM_CCMR2_CC4S) != 0x00U)
 8002094:	687b      	ldr	r3, [r7, #4]
 8002096:	681b      	ldr	r3, [r3, #0]
 8002098:	69db      	ldr	r3, [r3, #28]
 800209a:	f403 7340 	and.w	r3, r3, #768	; 0x300
 800209e:	2b00      	cmp	r3, #0
 80020a0:	d003      	beq.n	80020aa <HAL_TIM_IRQHandler+0x146>
      {
#if (USE_HAL_TIM_REGISTER_CALLBACKS == 1)
        htim->IC_CaptureCallback(htim);
#else
        HAL_TIM_IC_CaptureCallback(htim);
 80020a2:	6878      	ldr	r0, [r7, #4]
 80020a4:	f000 f936 	bl	8002314 <HAL_TIM_IC_CaptureCallback>
 80020a8:	e005      	b.n	80020b6 <HAL_TIM_IRQHandler+0x152>
      {
#if (USE_HAL_TIM_REGISTER_CALLBACKS == 1)
        htim->OC_DelayElapsedCallback(htim);
        htim->PWM_PulseFinishedCallback(htim);
#else
        HAL_TIM_OC_DelayElapsedCallback(htim);
 80020aa:	6878      	ldr	r0, [r7, #4]
 80020ac:	f000 f929 	bl	8002302 <HAL_TIM_OC_DelayElapsedCallback>
        HAL_TIM_PWM_PulseFinishedCallback(htim);
 80020b0:	6878      	ldr	r0, [r7, #4]
 80020b2:	f000 f938 	bl	8002326 <HAL_TIM_PWM_PulseFinishedCallback>
#endif /* USE_HAL_TIM_REGISTER_CALLBACKS */
      }
      htim->Channel = HAL_TIM_ACTIVE_CHANNEL_CLEARED;
 80020b6:	687b      	ldr	r3, [r7, #4]
 80020b8:	2200      	movs	r2, #0
 80020ba:	771a      	strb	r2, [r3, #28]
    }
  }
  /* TIM Update event */
  if (__HAL_TIM_GET_FLAG(htim, TIM_FLAG_UPDATE) != RESET)
 80020bc:	687b      	ldr	r3, [r7, #4]
 80020be:	681b      	ldr	r3, [r3, #0]
 80020c0:	691b      	ldr	r3, [r3, #16]
 80020c2:	f003 0301 	and.w	r3, r3, #1
 80020c6:	2b01      	cmp	r3, #1
 80020c8:	d10e      	bne.n	80020e8 <HAL_TIM_IRQHandler+0x184>
  {
    if (__HAL_TIM_GET_IT_SOURCE(htim, TIM_IT_UPDATE) != RESET)
 80020ca:	687b      	ldr	r3, [r7, #4]
 80020cc:	681b      	ldr	r3, [r3, #0]
 80020ce:	68db      	ldr	r3, [r3, #12]
 80020d0:	f003 0301 	and.w	r3, r3, #1
 80020d4:	2b01      	cmp	r3, #1
 80020d6:	d107      	bne.n	80020e8 <HAL_TIM_IRQHandler+0x184>
    {
      __HAL_TIM_CLEAR_IT(htim, TIM_IT_UPDATE);
 80020d8:	687b      	ldr	r3, [r7, #4]
 80020da:	681b      	ldr	r3, [r3, #0]
 80020dc:	f06f 0201 	mvn.w	r2, #1
 80020e0:	611a      	str	r2, [r3, #16]
#if (USE_HAL_TIM_REGISTER_CALLBACKS == 1)
      htim->PeriodElapsedCallback(htim);
#else
      HAL_TIM_PeriodElapsedCallback(htim);
 80020e2:	6878      	ldr	r0, [r7, #4]
 80020e4:	f7fe fe62 	bl	8000dac <HAL_TIM_PeriodElapsedCallback>
#endif /* USE_HAL_TIM_REGISTER_CALLBACKS */
    }
  }
  /* TIM Break input event */
  if (__HAL_TIM_GET_FLAG(htim, TIM_FLAG_BREAK) != RESET)
 80020e8:	687b      	ldr	r3, [r7, #4]
 80020ea:	681b      	ldr	r3, [r3, #0]
 80020ec:	691b      	ldr	r3, [r3, #16]
 80020ee:	f003 0380 	and.w	r3, r3, #128	; 0x80
 80020f2:	2b80      	cmp	r3, #128	; 0x80
 80020f4:	d10e      	bne.n	8002114 <HAL_TIM_IRQHandler+0x1b0>
  {
    if (__HAL_TIM_GET_IT_SOURCE(htim, TIM_IT_BREAK) != RESET)
 80020f6:	687b      	ldr	r3, [r7, #4]
 80020f8:	681b      	ldr	r3, [r3, #0]
 80020fa:	68db      	ldr	r3, [r3, #12]
 80020fc:	f003 0380 	and.w	r3, r3, #128	; 0x80
 8002100:	2b80      	cmp	r3, #128	; 0x80
 8002102:	d107      	bne.n	8002114 <HAL_TIM_IRQHandler+0x1b0>
    {
      __HAL_TIM_CLEAR_IT(htim, TIM_IT_BREAK);
 8002104:	687b      	ldr	r3, [r7, #4]
 8002106:	681b      	ldr	r3, [r3, #0]
 8002108:	f06f 0280 	mvn.w	r2, #128	; 0x80
 800210c:	611a      	str	r2, [r3, #16]
#if (USE_HAL_TIM_REGISTER_CALLBACKS == 1)
      htim->BreakCallback(htim);
#else
      HAL_TIMEx_BreakCallback(htim);
 800210e:	6878      	ldr	r0, [r7, #4]
 8002110:	f000 fa6b 	bl	80025ea <HAL_TIMEx_BreakCallback>
#endif /* USE_HAL_TIM_REGISTER_CALLBACKS */
    }
  }
  /* TIM Trigger detection event */
  if (__HAL_TIM_GET_FLAG(htim, TIM_FLAG_TRIGGER) != RESET)
 8002114:	687b      	ldr	r3, [r7, #4]
 8002116:	681b      	ldr	r3, [r3, #0]
 8002118:	691b      	ldr	r3, [r3, #16]
 800211a:	f003 0340 	and.w	r3, r3, #64	; 0x40
 800211e:	2b40      	cmp	r3, #64	; 0x40
 8002120:	d10e      	bne.n	8002140 <HAL_TIM_IRQHandler+0x1dc>
  {
    if (__HAL_TIM_GET_IT_SOURCE(htim, TIM_IT_TRIGGER) != RESET)
 8002122:	687b      	ldr	r3, [r7, #4]
 8002124:	681b      	ldr	r3, [r3, #0]
 8002126:	68db      	ldr	r3, [r3, #12]
 8002128:	f003 0340 	and.w	r3, r3, #64	; 0x40
 800212c:	2b40      	cmp	r3, #64	; 0x40
 800212e:	d107      	bne.n	8002140 <HAL_TIM_IRQHandler+0x1dc>
    {
      __HAL_TIM_CLEAR_IT(htim, TIM_IT_TRIGGER);
 8002130:	687b      	ldr	r3, [r7, #4]
 8002132:	681b      	ldr	r3, [r3, #0]
 8002134:	f06f 0240 	mvn.w	r2, #64	; 0x40
 8002138:	611a      	str	r2, [r3, #16]
#if (USE_HAL_TIM_REGISTER_CALLBACKS == 1)
      htim->TriggerCallback(htim);
#else
      HAL_TIM_TriggerCallback(htim);
 800213a:	6878      	ldr	r0, [r7, #4]
 800213c:	f000 f8fc 	bl	8002338 <HAL_TIM_TriggerCallback>
#endif /* USE_HAL_TIM_REGISTER_CALLBACKS */
    }
  }
  /* TIM commutation event */
  if (__HAL_TIM_GET_FLAG(htim, TIM_FLAG_COM) != RESET)
 8002140:	687b      	ldr	r3, [r7, #4]
 8002142:	681b      	ldr	r3, [r3, #0]
 8002144:	691b      	ldr	r3, [r3, #16]
 8002146:	f003 0320 	and.w	r3, r3, #32
 800214a:	2b20      	cmp	r3, #32
 800214c:	d10e      	bne.n	800216c <HAL_TIM_IRQHandler+0x208>
  {
    if (__HAL_TIM_GET_IT_SOURCE(htim, TIM_IT_COM) != RESET)
 800214e:	687b      	ldr	r3, [r7, #4]
 8002150:	681b      	ldr	r3, [r3, #0]
 8002152:	68db      	ldr	r3, [r3, #12]
 8002154:	f003 0320 	and.w	r3, r3, #32
 8002158:	2b20      	cmp	r3, #32
 800215a:	d107      	bne.n	800216c <HAL_TIM_IRQHandler+0x208>
    {
      __HAL_TIM_CLEAR_IT(htim, TIM_FLAG_COM);
 800215c:	687b      	ldr	r3, [r7, #4]
 800215e:	681b      	ldr	r3, [r3, #0]
 8002160:	f06f 0220 	mvn.w	r2, #32
 8002164:	611a      	str	r2, [r3, #16]
#if (USE_HAL_TIM_REGISTER_CALLBACKS == 1)
      htim->CommutationCallback(htim);
#else
      HAL_TIMEx_CommutCallback(htim);
 8002166:	6878      	ldr	r0, [r7, #4]
 8002168:	f000 fa36 	bl	80025d8 <HAL_TIMEx_CommutCallback>
#endif /* USE_HAL_TIM_REGISTER_CALLBACKS */
    }
  }
}
 800216c:	bf00      	nop
 800216e:	3708      	adds	r7, #8
 8002170:	46bd      	mov	sp, r7
 8002172:	bd80      	pop	{r7, pc}

08002174 <HAL_TIM_ConfigClockSource>:
  * @param  sClockSourceConfig pointer to a TIM_ClockConfigTypeDef structure that
  *         contains the clock source information for the TIM peripheral.
  * @retval HAL status
  */
HAL_StatusTypeDef HAL_TIM_ConfigClockSource(TIM_HandleTypeDef *htim, const TIM_ClockConfigTypeDef *sClockSourceConfig)
{
 8002174:	b580      	push	{r7, lr}
 8002176:	b084      	sub	sp, #16
 8002178:	af00      	add	r7, sp, #0
 800217a:	6078      	str	r0, [r7, #4]
 800217c:	6039      	str	r1, [r7, #0]
  HAL_StatusTypeDef status = HAL_OK;
 800217e:	2300      	movs	r3, #0
 8002180:	73fb      	strb	r3, [r7, #15]
  uint32_t tmpsmcr;

  /* Process Locked */
  __HAL_LOCK(htim);
 8002182:	687b      	ldr	r3, [r7, #4]
 8002184:	f893 303c 	ldrb.w	r3, [r3, #60]	; 0x3c
 8002188:	2b01      	cmp	r3, #1
 800218a:	d101      	bne.n	8002190 <HAL_TIM_ConfigClockSource+0x1c>
 800218c:	2302      	movs	r3, #2
 800218e:	e0b4      	b.n	80022fa <HAL_TIM_ConfigClockSource+0x186>
 8002190:	687b      	ldr	r3, [r7, #4]
 8002192:	2201      	movs	r2, #1
 8002194:	f883 203c 	strb.w	r2, [r3, #60]	; 0x3c

  htim->State = HAL_TIM_STATE_BUSY;
 8002198:	687b      	ldr	r3, [r7, #4]
 800219a:	2202      	movs	r2, #2
 800219c:	f883 203d 	strb.w	r2, [r3, #61]	; 0x3d

  /* Check the parameters */
  assert_param(IS_TIM_CLOCKSOURCE(sClockSourceConfig->ClockSource));

  /* Reset the SMS, TS, ECE, ETPS and ETRF bits */
  tmpsmcr = htim->Instance->SMCR;
 80021a0:	687b      	ldr	r3, [r7, #4]
 80021a2:	681b      	ldr	r3, [r3, #0]
 80021a4:	689b      	ldr	r3, [r3, #8]
 80021a6:	60bb      	str	r3, [r7, #8]
  tmpsmcr &= ~(TIM_SMCR_SMS | TIM_SMCR_TS);
 80021a8:	68bb      	ldr	r3, [r7, #8]
 80021aa:	f023 0377 	bic.w	r3, r3, #119	; 0x77
 80021ae:	60bb      	str	r3, [r7, #8]
  tmpsmcr &= ~(TIM_SMCR_ETF | TIM_SMCR_ETPS | TIM_SMCR_ECE | TIM_SMCR_ETP);
 80021b0:	68bb      	ldr	r3, [r7, #8]
 80021b2:	f423 437f 	bic.w	r3, r3, #65280	; 0xff00
 80021b6:	60bb      	str	r3, [r7, #8]
  htim->Instance->SMCR = tmpsmcr;
 80021b8:	687b      	ldr	r3, [r7, #4]
 80021ba:	681b      	ldr	r3, [r3, #0]
 80021bc:	68ba      	ldr	r2, [r7, #8]
 80021be:	609a      	str	r2, [r3, #8]

  switch (sClockSourceConfig->ClockSource)
 80021c0:	683b      	ldr	r3, [r7, #0]
 80021c2:	681b      	ldr	r3, [r3, #0]
 80021c4:	f5b3 5f00 	cmp.w	r3, #8192	; 0x2000
 80021c8:	d03e      	beq.n	8002248 <HAL_TIM_ConfigClockSource+0xd4>
 80021ca:	f5b3 5f00 	cmp.w	r3, #8192	; 0x2000
 80021ce:	f200 8087 	bhi.w	80022e0 <HAL_TIM_ConfigClockSource+0x16c>
 80021d2:	f5b3 5f80 	cmp.w	r3, #4096	; 0x1000
 80021d6:	f000 8086 	beq.w	80022e6 <HAL_TIM_ConfigClockSource+0x172>
 80021da:	f5b3 5f80 	cmp.w	r3, #4096	; 0x1000
 80021de:	d87f      	bhi.n	80022e0 <HAL_TIM_ConfigClockSource+0x16c>
 80021e0:	2b70      	cmp	r3, #112	; 0x70
 80021e2:	d01a      	beq.n	800221a <HAL_TIM_ConfigClockSource+0xa6>
 80021e4:	2b70      	cmp	r3, #112	; 0x70
 80021e6:	d87b      	bhi.n	80022e0 <HAL_TIM_ConfigClockSource+0x16c>
 80021e8:	2b60      	cmp	r3, #96	; 0x60
 80021ea:	d050      	beq.n	800228e <HAL_TIM_ConfigClockSource+0x11a>
 80021ec:	2b60      	cmp	r3, #96	; 0x60
 80021ee:	d877      	bhi.n	80022e0 <HAL_TIM_ConfigClockSource+0x16c>
 80021f0:	2b50      	cmp	r3, #80	; 0x50
 80021f2:	d03c      	beq.n	800226e <HAL_TIM_ConfigClockSource+0xfa>
 80021f4:	2b50      	cmp	r3, #80	; 0x50
 80021f6:	d873      	bhi.n	80022e0 <HAL_TIM_ConfigClockSource+0x16c>
 80021f8:	2b40      	cmp	r3, #64	; 0x40
 80021fa:	d058      	beq.n	80022ae <HAL_TIM_ConfigClockSource+0x13a>
 80021fc:	2b40      	cmp	r3, #64	; 0x40
 80021fe:	d86f      	bhi.n	80022e0 <HAL_TIM_ConfigClockSource+0x16c>
 8002200:	2b30      	cmp	r3, #48	; 0x30
 8002202:	d064      	beq.n	80022ce <HAL_TIM_ConfigClockSource+0x15a>
 8002204:	2b30      	cmp	r3, #48	; 0x30
 8002206:	d86b      	bhi.n	80022e0 <HAL_TIM_ConfigClockSource+0x16c>
 8002208:	2b20      	cmp	r3, #32
 800220a:	d060      	beq.n	80022ce <HAL_TIM_ConfigClockSource+0x15a>
 800220c:	2b20      	cmp	r3, #32
 800220e:	d867      	bhi.n	80022e0 <HAL_TIM_ConfigClockSource+0x16c>
 8002210:	2b00      	cmp	r3, #0
 8002212:	d05c      	beq.n	80022ce <HAL_TIM_ConfigClockSource+0x15a>
 8002214:	2b10      	cmp	r3, #16
 8002216:	d05a      	beq.n	80022ce <HAL_TIM_ConfigClockSource+0x15a>
 8002218:	e062      	b.n	80022e0 <HAL_TIM_ConfigClockSource+0x16c>
      assert_param(IS_TIM_CLOCKPRESCALER(sClockSourceConfig->ClockPrescaler));
      assert_param(IS_TIM_CLOCKPOLARITY(sClockSourceConfig->ClockPolarity));
      assert_param(IS_TIM_CLOCKFILTER(sClockSourceConfig->ClockFilter));

      /* Configure the ETR Clock source */
      TIM_ETR_SetConfig(htim->Instance,
 800221a:	687b      	ldr	r3, [r7, #4]
 800221c:	6818      	ldr	r0, [r3, #0]
 800221e:	683b      	ldr	r3, [r7, #0]
 8002220:	6899      	ldr	r1, [r3, #8]
 8002222:	683b      	ldr	r3, [r7, #0]
 8002224:	685a      	ldr	r2, [r3, #4]
 8002226:	683b      	ldr	r3, [r7, #0]
 8002228:	68db      	ldr	r3, [r3, #12]
 800222a:	f000 f95e 	bl	80024ea <TIM_ETR_SetConfig>
                        sClockSourceConfig->ClockPrescaler,
                        sClockSourceConfig->ClockPolarity,
                        sClockSourceConfig->ClockFilter);

      /* Select the External clock mode1 and the ETRF trigger */
      tmpsmcr = htim->Instance->SMCR;
 800222e:	687b      	ldr	r3, [r7, #4]
 8002230:	681b      	ldr	r3, [r3, #0]
 8002232:	689b      	ldr	r3, [r3, #8]
 8002234:	60bb      	str	r3, [r7, #8]
      tmpsmcr |= (TIM_SLAVEMODE_EXTERNAL1 | TIM_CLOCKSOURCE_ETRMODE1);
 8002236:	68bb      	ldr	r3, [r7, #8]
 8002238:	f043 0377 	orr.w	r3, r3, #119	; 0x77
 800223c:	60bb      	str	r3, [r7, #8]
      /* Write to TIMx SMCR */
      htim->Instance->SMCR = tmpsmcr;
 800223e:	687b      	ldr	r3, [r7, #4]
 8002240:	681b      	ldr	r3, [r3, #0]
 8002242:	68ba      	ldr	r2, [r7, #8]
 8002244:	609a      	str	r2, [r3, #8]
      break;
 8002246:	e04f      	b.n	80022e8 <HAL_TIM_ConfigClockSource+0x174>
      assert_param(IS_TIM_CLOCKPRESCALER(sClockSourceConfig->ClockPrescaler));
      assert_param(IS_TIM_CLOCKPOLARITY(sClockSourceConfig->ClockPolarity));
      assert_param(IS_TIM_CLOCKFILTER(sClockSourceConfig->ClockFilter));

      /* Configure the ETR Clock source */
      TIM_ETR_SetConfig(htim->Instance,
 8002248:	687b      	ldr	r3, [r7, #4]
 800224a:	6818      	ldr	r0, [r3, #0]
 800224c:	683b      	ldr	r3, [r7, #0]
 800224e:	6899      	ldr	r1, [r3, #8]
 8002250:	683b      	ldr	r3, [r7, #0]
 8002252:	685a      	ldr	r2, [r3, #4]
 8002254:	683b      	ldr	r3, [r7, #0]
 8002256:	68db      	ldr	r3, [r3, #12]
 8002258:	f000 f947 	bl	80024ea <TIM_ETR_SetConfig>
                        sClockSourceConfig->ClockPrescaler,
                        sClockSourceConfig->ClockPolarity,
                        sClockSourceConfig->ClockFilter);
      /* Enable the External clock mode2 */
      htim->Instance->SMCR |= TIM_SMCR_ECE;
 800225c:	687b      	ldr	r3, [r7, #4]
 800225e:	681b      	ldr	r3, [r3, #0]
 8002260:	689a      	ldr	r2, [r3, #8]
 8002262:	687b      	ldr	r3, [r7, #4]
 8002264:	681b      	ldr	r3, [r3, #0]
 8002266:	f442 4280 	orr.w	r2, r2, #16384	; 0x4000
 800226a:	609a      	str	r2, [r3, #8]
      break;
 800226c:	e03c      	b.n	80022e8 <HAL_TIM_ConfigClockSource+0x174>

      /* Check TI1 input conditioning related parameters */
      assert_param(IS_TIM_CLOCKPOLARITY(sClockSourceConfig->ClockPolarity));
      assert_param(IS_TIM_CLOCKFILTER(sClockSourceConfig->ClockFilter));

      TIM_TI1_ConfigInputStage(htim->Instance,
 800226e:	687b      	ldr	r3, [r7, #4]
 8002270:	6818      	ldr	r0, [r3, #0]
 8002272:	683b      	ldr	r3, [r7, #0]
 8002274:	6859      	ldr	r1, [r3, #4]
 8002276:	683b      	ldr	r3, [r7, #0]
 8002278:	68db      	ldr	r3, [r3, #12]
 800227a:	461a      	mov	r2, r3
 800227c:	f000 f8be 	bl	80023fc <TIM_TI1_ConfigInputStage>
                               sClockSourceConfig->ClockPolarity,
                               sClockSourceConfig->ClockFilter);
      TIM_ITRx_SetConfig(htim->Instance, TIM_CLOCKSOURCE_TI1);
 8002280:	687b      	ldr	r3, [r7, #4]
 8002282:	681b      	ldr	r3, [r3, #0]
 8002284:	2150      	movs	r1, #80	; 0x50
 8002286:	4618      	mov	r0, r3
 8002288:	f000 f915 	bl	80024b6 <TIM_ITRx_SetConfig>
      break;
 800228c:	e02c      	b.n	80022e8 <HAL_TIM_ConfigClockSource+0x174>

      /* Check TI2 input conditioning related parameters */
      assert_param(IS_TIM_CLOCKPOLARITY(sClockSourceConfig->ClockPolarity));
      assert_param(IS_TIM_CLOCKFILTER(sClockSourceConfig->ClockFilter));

      TIM_TI2_ConfigInputStage(htim->Instance,
 800228e:	687b      	ldr	r3, [r7, #4]
 8002290:	6818      	ldr	r0, [r3, #0]
 8002292:	683b      	ldr	r3, [r7, #0]
 8002294:	6859      	ldr	r1, [r3, #4]
 8002296:	683b      	ldr	r3, [r7, #0]
 8002298:	68db      	ldr	r3, [r3, #12]
 800229a:	461a      	mov	r2, r3
 800229c:	f000 f8dc 	bl	8002458 <TIM_TI2_ConfigInputStage>
                               sClockSourceConfig->ClockPolarity,
                               sClockSourceConfig->ClockFilter);
      TIM_ITRx_SetConfig(htim->Instance, TIM_CLOCKSOURCE_TI2);
 80022a0:	687b      	ldr	r3, [r7, #4]
 80022a2:	681b      	ldr	r3, [r3, #0]
 80022a4:	2160      	movs	r1, #96	; 0x60
 80022a6:	4618      	mov	r0, r3
 80022a8:	f000 f905 	bl	80024b6 <TIM_ITRx_SetConfig>
      break;
 80022ac:	e01c      	b.n	80022e8 <HAL_TIM_ConfigClockSource+0x174>

      /* Check TI1 input conditioning related parameters */
      assert_param(IS_TIM_CLOCKPOLARITY(sClockSourceConfig->ClockPolarity));
      assert_param(IS_TIM_CLOCKFILTER(sClockSourceConfig->ClockFilter));

      TIM_TI1_ConfigInputStage(htim->Instance,
 80022ae:	687b      	ldr	r3, [r7, #4]
 80022b0:	6818      	ldr	r0, [r3, #0]
 80022b2:	683b      	ldr	r3, [r7, #0]
 80022b4:	6859      	ldr	r1, [r3, #4]
 80022b6:	683b      	ldr	r3, [r7, #0]
 80022b8:	68db      	ldr	r3, [r3, #12]
 80022ba:	461a      	mov	r2, r3
 80022bc:	f000 f89e 	bl	80023fc <TIM_TI1_ConfigInputStage>
                               sClockSourceConfig->ClockPolarity,
                               sClockSourceConfig->ClockFilter);
      TIM_ITRx_SetConfig(htim->Instance, TIM_CLOCKSOURCE_TI1ED);
 80022c0:	687b      	ldr	r3, [r7, #4]
 80022c2:	681b      	ldr	r3, [r3, #0]
 80022c4:	2140      	movs	r1, #64	; 0x40
 80022c6:	4618      	mov	r0, r3
 80022c8:	f000 f8f5 	bl	80024b6 <TIM_ITRx_SetConfig>
      break;
 80022cc:	e00c      	b.n	80022e8 <HAL_TIM_ConfigClockSource+0x174>
    case TIM_CLOCKSOURCE_ITR3:
    {
      /* Check whether or not the timer instance supports internal trigger input */
      assert_param(IS_TIM_CLOCKSOURCE_ITRX_INSTANCE(htim->Instance));

      TIM_ITRx_SetConfig(htim->Instance, sClockSourceConfig->ClockSource);
 80022ce:	687b      	ldr	r3, [r7, #4]
 80022d0:	681a      	ldr	r2, [r3, #0]
 80022d2:	683b      	ldr	r3, [r7, #0]
 80022d4:	681b      	ldr	r3, [r3, #0]
 80022d6:	4619      	mov	r1, r3
 80022d8:	4610      	mov	r0, r2
 80022da:	f000 f8ec 	bl	80024b6 <TIM_ITRx_SetConfig>
      break;
 80022de:	e003      	b.n	80022e8 <HAL_TIM_ConfigClockSource+0x174>
    }

    default:
      status = HAL_ERROR;
 80022e0:	2301      	movs	r3, #1
 80022e2:	73fb      	strb	r3, [r7, #15]
      break;
 80022e4:	e000      	b.n	80022e8 <HAL_TIM_ConfigClockSource+0x174>
      break;
 80022e6:	bf00      	nop
  }
  htim->State = HAL_TIM_STATE_READY;
 80022e8:	687b      	ldr	r3, [r7, #4]
 80022ea:	2201      	movs	r2, #1
 80022ec:	f883 203d 	strb.w	r2, [r3, #61]	; 0x3d

  __HAL_UNLOCK(htim);
 80022f0:	687b      	ldr	r3, [r7, #4]
 80022f2:	2200      	movs	r2, #0
 80022f4:	f883 203c 	strb.w	r2, [r3, #60]	; 0x3c

  return status;
 80022f8:	7bfb      	ldrb	r3, [r7, #15]
}
 80022fa:	4618      	mov	r0, r3
 80022fc:	3710      	adds	r7, #16
 80022fe:	46bd      	mov	sp, r7
 8002300:	bd80      	pop	{r7, pc}

08002302 <HAL_TIM_OC_DelayElapsedCallback>:
  * @brief  Output Compare callback in non-blocking mode
  * @param  htim TIM OC handle
  * @retval None
  */
__weak void HAL_TIM_OC_DelayElapsedCallback(TIM_HandleTypeDef *htim)
{
 8002302:	b480      	push	{r7}
 8002304:	b083      	sub	sp, #12
 8002306:	af00      	add	r7, sp, #0
 8002308:	6078      	str	r0, [r7, #4]
  UNUSED(htim);

  /* NOTE : This function should not be modified, when the callback is needed,
            the HAL_TIM_OC_DelayElapsedCallback could be implemented in the user file
   */
}
 800230a:	bf00      	nop
 800230c:	370c      	adds	r7, #12
 800230e:	46bd      	mov	sp, r7
 8002310:	bc80      	pop	{r7}
 8002312:	4770      	bx	lr

08002314 <HAL_TIM_IC_CaptureCallback>:
  * @brief  Input Capture callback in non-blocking mode
  * @param  htim TIM IC handle
  * @retval None
  */
__weak void HAL_TIM_IC_CaptureCallback(TIM_HandleTypeDef *htim)
{
 8002314:	b480      	push	{r7}
 8002316:	b083      	sub	sp, #12
 8002318:	af00      	add	r7, sp, #0
 800231a:	6078      	str	r0, [r7, #4]
  UNUSED(htim);

  /* NOTE : This function should not be modified, when the callback is needed,
            the HAL_TIM_IC_CaptureCallback could be implemented in the user file
   */
}
 800231c:	bf00      	nop
 800231e:	370c      	adds	r7, #12
 8002320:	46bd      	mov	sp, r7
 8002322:	bc80      	pop	{r7}
 8002324:	4770      	bx	lr

08002326 <HAL_TIM_PWM_PulseFinishedCallback>:
  * @brief  PWM Pulse finished callback in non-blocking mode
  * @param  htim TIM handle
  * @retval None
  */
__weak void HAL_TIM_PWM_PulseFinishedCallback(TIM_HandleTypeDef *htim)
{
 8002326:	b480      	push	{r7}
 8002328:	b083      	sub	sp, #12
 800232a:	af00      	add	r7, sp, #0
 800232c:	6078      	str	r0, [r7, #4]
  UNUSED(htim);

  /* NOTE : This function should not be modified, when the callback is needed,
            the HAL_TIM_PWM_PulseFinishedCallback could be implemented in the user file
   */
}
 800232e:	bf00      	nop
 8002330:	370c      	adds	r7, #12
 8002332:	46bd      	mov	sp, r7
 8002334:	bc80      	pop	{r7}
 8002336:	4770      	bx	lr

08002338 <HAL_TIM_TriggerCallback>:
  * @brief  Hall Trigger detection callback in non-blocking mode
  * @param  htim TIM handle
  * @retval None
  */
__weak void HAL_TIM_TriggerCallback(TIM_HandleTypeDef *htim)
{
 8002338:	b480      	push	{r7}
 800233a:	b083      	sub	sp, #12
 800233c:	af00      	add	r7, sp, #0
 800233e:	6078      	str	r0, [r7, #4]
  UNUSED(htim);

  /* NOTE : This function should not be modified, when the callback is needed,
            the HAL_TIM_TriggerCallback could be implemented in the user file
   */
}
 8002340:	bf00      	nop
 8002342:	370c      	adds	r7, #12
 8002344:	46bd      	mov	sp, r7
 8002346:	bc80      	pop	{r7}
 8002348:	4770      	bx	lr
	...

0800234c <TIM_Base_SetConfig>:
  * @param  TIMx TIM peripheral
  * @param  Structure TIM Base configuration structure
  * @retval None
  */
void TIM_Base_SetConfig(TIM_TypeDef *TIMx, const TIM_Base_InitTypeDef *Structure)
{
 800234c:	b480      	push	{r7}
 800234e:	b085      	sub	sp, #20
 8002350:	af00      	add	r7, sp, #0
 8002352:	6078      	str	r0, [r7, #4]
 8002354:	6039      	str	r1, [r7, #0]
  uint32_t tmpcr1;
  tmpcr1 = TIMx->CR1;
 8002356:	687b      	ldr	r3, [r7, #4]
 8002358:	681b      	ldr	r3, [r3, #0]
 800235a:	60fb      	str	r3, [r7, #12]

  /* Set TIM Time Base Unit parameters ---------------------------------------*/
  if (IS_TIM_COUNTER_MODE_SELECT_INSTANCE(TIMx))
 800235c:	687b      	ldr	r3, [r7, #4]
 800235e:	4a25      	ldr	r2, [pc, #148]	; (80023f4 <TIM_Base_SetConfig+0xa8>)
 8002360:	4293      	cmp	r3, r2
 8002362:	d007      	beq.n	8002374 <TIM_Base_SetConfig+0x28>
 8002364:	687b      	ldr	r3, [r7, #4]
 8002366:	f1b3 4f80 	cmp.w	r3, #1073741824	; 0x40000000
 800236a:	d003      	beq.n	8002374 <TIM_Base_SetConfig+0x28>
 800236c:	687b      	ldr	r3, [r7, #4]
 800236e:	4a22      	ldr	r2, [pc, #136]	; (80023f8 <TIM_Base_SetConfig+0xac>)
 8002370:	4293      	cmp	r3, r2
 8002372:	d108      	bne.n	8002386 <TIM_Base_SetConfig+0x3a>
  {
    /* Select the Counter Mode */
    tmpcr1 &= ~(TIM_CR1_DIR | TIM_CR1_CMS);
 8002374:	68fb      	ldr	r3, [r7, #12]
 8002376:	f023 0370 	bic.w	r3, r3, #112	; 0x70
 800237a:	60fb      	str	r3, [r7, #12]
    tmpcr1 |= Structure->CounterMode;
 800237c:	683b      	ldr	r3, [r7, #0]
 800237e:	685b      	ldr	r3, [r3, #4]
 8002380:	68fa      	ldr	r2, [r7, #12]
 8002382:	4313      	orrs	r3, r2
 8002384:	60fb      	str	r3, [r7, #12]
  }

  if (IS_TIM_CLOCK_DIVISION_INSTANCE(TIMx))
 8002386:	687b      	ldr	r3, [r7, #4]
 8002388:	4a1a      	ldr	r2, [pc, #104]	; (80023f4 <TIM_Base_SetConfig+0xa8>)
 800238a:	4293      	cmp	r3, r2
 800238c:	d007      	beq.n	800239e <TIM_Base_SetConfig+0x52>
 800238e:	687b      	ldr	r3, [r7, #4]
 8002390:	f1b3 4f80 	cmp.w	r3, #1073741824	; 0x40000000
 8002394:	d003      	beq.n	800239e <TIM_Base_SetConfig+0x52>
 8002396:	687b      	ldr	r3, [r7, #4]
 8002398:	4a17      	ldr	r2, [pc, #92]	; (80023f8 <TIM_Base_SetConfig+0xac>)
 800239a:	4293      	cmp	r3, r2
 800239c:	d108      	bne.n	80023b0 <TIM_Base_SetConfig+0x64>
  {
    /* Set the clock division */
    tmpcr1 &= ~TIM_CR1_CKD;
 800239e:	68fb      	ldr	r3, [r7, #12]
 80023a0:	f423 7340 	bic.w	r3, r3, #768	; 0x300
 80023a4:	60fb      	str	r3, [r7, #12]
    tmpcr1 |= (uint32_t)Structure->ClockDivision;
 80023a6:	683b      	ldr	r3, [r7, #0]
 80023a8:	68db      	ldr	r3, [r3, #12]
 80023aa:	68fa      	ldr	r2, [r7, #12]
 80023ac:	4313      	orrs	r3, r2
 80023ae:	60fb      	str	r3, [r7, #12]
  }

  /* Set the auto-reload preload */
  MODIFY_REG(tmpcr1, TIM_CR1_ARPE, Structure->AutoReloadPreload);
 80023b0:	68fb      	ldr	r3, [r7, #12]
 80023b2:	f023 0280 	bic.w	r2, r3, #128	; 0x80
 80023b6:	683b      	ldr	r3, [r7, #0]
 80023b8:	695b      	ldr	r3, [r3, #20]
 80023ba:	4313      	orrs	r3, r2
 80023bc:	60fb      	str	r3, [r7, #12]

  TIMx->CR1 = tmpcr1;
 80023be:	687b      	ldr	r3, [r7, #4]
 80023c0:	68fa      	ldr	r2, [r7, #12]
 80023c2:	601a      	str	r2, [r3, #0]

  /* Set the Autoreload value */
  TIMx->ARR = (uint32_t)Structure->Period ;
 80023c4:	683b      	ldr	r3, [r7, #0]
 80023c6:	689a      	ldr	r2, [r3, #8]
 80023c8:	687b      	ldr	r3, [r7, #4]
 80023ca:	62da      	str	r2, [r3, #44]	; 0x2c

  /* Set the Prescaler value */
  TIMx->PSC = Structure->Prescaler;
 80023cc:	683b      	ldr	r3, [r7, #0]
 80023ce:	681a      	ldr	r2, [r3, #0]
 80023d0:	687b      	ldr	r3, [r7, #4]
 80023d2:	629a      	str	r2, [r3, #40]	; 0x28

  if (IS_TIM_REPETITION_COUNTER_INSTANCE(TIMx))
 80023d4:	687b      	ldr	r3, [r7, #4]
 80023d6:	4a07      	ldr	r2, [pc, #28]	; (80023f4 <TIM_Base_SetConfig+0xa8>)
 80023d8:	4293      	cmp	r3, r2
 80023da:	d103      	bne.n	80023e4 <TIM_Base_SetConfig+0x98>
  {
    /* Set the Repetition Counter value */
    TIMx->RCR = Structure->RepetitionCounter;
 80023dc:	683b      	ldr	r3, [r7, #0]
 80023de:	691a      	ldr	r2, [r3, #16]
 80023e0:	687b      	ldr	r3, [r7, #4]
 80023e2:	631a      	str	r2, [r3, #48]	; 0x30
  }

  /* Generate an update event to reload the Prescaler
     and the repetition counter (only for advanced timer) value immediately */
  TIMx->EGR = TIM_EGR_UG;
 80023e4:	687b      	ldr	r3, [r7, #4]
 80023e6:	2201      	movs	r2, #1
 80023e8:	615a      	str	r2, [r3, #20]
}
 80023ea:	bf00      	nop
 80023ec:	3714      	adds	r7, #20
 80023ee:	46bd      	mov	sp, r7
 80023f0:	bc80      	pop	{r7}
 80023f2:	4770      	bx	lr
 80023f4:	40012c00 	.word	0x40012c00
 80023f8:	40000400 	.word	0x40000400

080023fc <TIM_TI1_ConfigInputStage>:
  * @param  TIM_ICFilter Specifies the Input Capture Filter.
  *          This parameter must be a value between 0x00 and 0x0F.
  * @retval None
  */
static void TIM_TI1_ConfigInputStage(TIM_TypeDef *TIMx, uint32_t TIM_ICPolarity, uint32_t TIM_ICFilter)
{
 80023fc:	b480      	push	{r7}
 80023fe:	b087      	sub	sp, #28
 8002400:	af00      	add	r7, sp, #0
 8002402:	60f8      	str	r0, [r7, #12]
 8002404:	60b9      	str	r1, [r7, #8]
 8002406:	607a      	str	r2, [r7, #4]
  uint32_t tmpccmr1;
  uint32_t tmpccer;

  /* Disable the Channel 1: Reset the CC1E Bit */
  tmpccer = TIMx->CCER;
 8002408:	68fb      	ldr	r3, [r7, #12]
 800240a:	6a1b      	ldr	r3, [r3, #32]
 800240c:	617b      	str	r3, [r7, #20]
  TIMx->CCER &= ~TIM_CCER_CC1E;
 800240e:	68fb      	ldr	r3, [r7, #12]
 8002410:	6a1b      	ldr	r3, [r3, #32]
 8002412:	f023 0201 	bic.w	r2, r3, #1
 8002416:	68fb      	ldr	r3, [r7, #12]
 8002418:	621a      	str	r2, [r3, #32]
  tmpccmr1 = TIMx->CCMR1;
 800241a:	68fb      	ldr	r3, [r7, #12]
 800241c:	699b      	ldr	r3, [r3, #24]
 800241e:	613b      	str	r3, [r7, #16]

  /* Set the filter */
  tmpccmr1 &= ~TIM_CCMR1_IC1F;
 8002420:	693b      	ldr	r3, [r7, #16]
 8002422:	f023 03f0 	bic.w	r3, r3, #240	; 0xf0
 8002426:	613b      	str	r3, [r7, #16]
  tmpccmr1 |= (TIM_ICFilter << 4U);
 8002428:	687b      	ldr	r3, [r7, #4]
 800242a:	011b      	lsls	r3, r3, #4
 800242c:	693a      	ldr	r2, [r7, #16]
 800242e:	4313      	orrs	r3, r2
 8002430:	613b      	str	r3, [r7, #16]

  /* Select the Polarity and set the CC1E Bit */
  tmpccer &= ~(TIM_CCER_CC1P | TIM_CCER_CC1NP);
 8002432:	697b      	ldr	r3, [r7, #20]
 8002434:	f023 030a 	bic.w	r3, r3, #10
 8002438:	617b      	str	r3, [r7, #20]
  tmpccer |= TIM_ICPolarity;
 800243a:	697a      	ldr	r2, [r7, #20]
 800243c:	68bb      	ldr	r3, [r7, #8]
 800243e:	4313      	orrs	r3, r2
 8002440:	617b      	str	r3, [r7, #20]

  /* Write to TIMx CCMR1 and CCER registers */
  TIMx->CCMR1 = tmpccmr1;
 8002442:	68fb      	ldr	r3, [r7, #12]
 8002444:	693a      	ldr	r2, [r7, #16]
 8002446:	619a      	str	r2, [r3, #24]
  TIMx->CCER = tmpccer;
 8002448:	68fb      	ldr	r3, [r7, #12]
 800244a:	697a      	ldr	r2, [r7, #20]
 800244c:	621a      	str	r2, [r3, #32]
}
 800244e:	bf00      	nop
 8002450:	371c      	adds	r7, #28
 8002452:	46bd      	mov	sp, r7
 8002454:	bc80      	pop	{r7}
 8002456:	4770      	bx	lr

08002458 <TIM_TI2_ConfigInputStage>:
  * @param  TIM_ICFilter Specifies the Input Capture Filter.
  *          This parameter must be a value between 0x00 and 0x0F.
  * @retval None
  */
static void TIM_TI2_ConfigInputStage(TIM_TypeDef *TIMx, uint32_t TIM_ICPolarity, uint32_t TIM_ICFilter)
{
 8002458:	b480      	push	{r7}
 800245a:	b087      	sub	sp, #28
 800245c:	af00      	add	r7, sp, #0
 800245e:	60f8      	str	r0, [r7, #12]
 8002460:	60b9      	str	r1, [r7, #8]
 8002462:	607a      	str	r2, [r7, #4]
  uint32_t tmpccmr1;
  uint32_t tmpccer;

  /* Disable the Channel 2: Reset the CC2E Bit */
  tmpccer = TIMx->CCER;
 8002464:	68fb      	ldr	r3, [r7, #12]
 8002466:	6a1b      	ldr	r3, [r3, #32]
 8002468:	617b      	str	r3, [r7, #20]
  TIMx->CCER &= ~TIM_CCER_CC2E;
 800246a:	68fb      	ldr	r3, [r7, #12]
 800246c:	6a1b      	ldr	r3, [r3, #32]
 800246e:	f023 0210 	bic.w	r2, r3, #16
 8002472:	68fb      	ldr	r3, [r7, #12]
 8002474:	621a      	str	r2, [r3, #32]
  tmpccmr1 = TIMx->CCMR1;
 8002476:	68fb      	ldr	r3, [r7, #12]
 8002478:	699b      	ldr	r3, [r3, #24]
 800247a:	613b      	str	r3, [r7, #16]

  /* Set the filter */
  tmpccmr1 &= ~TIM_CCMR1_IC2F;
 800247c:	693b      	ldr	r3, [r7, #16]
 800247e:	f423 4370 	bic.w	r3, r3, #61440	; 0xf000
 8002482:	613b      	str	r3, [r7, #16]
  tmpccmr1 |= (TIM_ICFilter << 12U);
 8002484:	687b      	ldr	r3, [r7, #4]
 8002486:	031b      	lsls	r3, r3, #12
 8002488:	693a      	ldr	r2, [r7, #16]
 800248a:	4313      	orrs	r3, r2
 800248c:	613b      	str	r3, [r7, #16]

  /* Select the Polarity and set the CC2E Bit */
  tmpccer &= ~(TIM_CCER_CC2P | TIM_CCER_CC2NP);
 800248e:	697b      	ldr	r3, [r7, #20]
 8002490:	f023 03a0 	bic.w	r3, r3, #160	; 0xa0
 8002494:	617b      	str	r3, [r7, #20]
  tmpccer |= (TIM_ICPolarity << 4U);
 8002496:	68bb      	ldr	r3, [r7, #8]
 8002498:	011b      	lsls	r3, r3, #4
 800249a:	697a      	ldr	r2, [r7, #20]
 800249c:	4313      	orrs	r3, r2
 800249e:	617b      	str	r3, [r7, #20]

  /* Write to TIMx CCMR1 and CCER registers */
  TIMx->CCMR1 = tmpccmr1 ;
 80024a0:	68fb      	ldr	r3, [r7, #12]
 80024a2:	693a      	ldr	r2, [r7, #16]
 80024a4:	619a      	str	r2, [r3, #24]
  TIMx->CCER = tmpccer;
 80024a6:	68fb      	ldr	r3, [r7, #12]
 80024a8:	697a      	ldr	r2, [r7, #20]
 80024aa:	621a      	str	r2, [r3, #32]
}
 80024ac:	bf00      	nop
 80024ae:	371c      	adds	r7, #28
 80024b0:	46bd      	mov	sp, r7
 80024b2:	bc80      	pop	{r7}
 80024b4:	4770      	bx	lr

080024b6 <TIM_ITRx_SetConfig>:
  *            @arg TIM_TS_TI2FP2: Filtered Timer Input 2
  *            @arg TIM_TS_ETRF: External Trigger input
  * @retval None
  */
static void TIM_ITRx_SetConfig(TIM_TypeDef *TIMx, uint32_t InputTriggerSource)
{
 80024b6:	b480      	push	{r7}
 80024b8:	b085      	sub	sp, #20
 80024ba:	af00      	add	r7, sp, #0
 80024bc:	6078      	str	r0, [r7, #4]
 80024be:	6039      	str	r1, [r7, #0]
  uint32_t tmpsmcr;

  /* Get the TIMx SMCR register value */
  tmpsmcr = TIMx->SMCR;
 80024c0:	687b      	ldr	r3, [r7, #4]
 80024c2:	689b      	ldr	r3, [r3, #8]
 80024c4:	60fb      	str	r3, [r7, #12]
  /* Reset the TS Bits */
  tmpsmcr &= ~TIM_SMCR_TS;
 80024c6:	68fb      	ldr	r3, [r7, #12]
 80024c8:	f023 0370 	bic.w	r3, r3, #112	; 0x70
 80024cc:	60fb      	str	r3, [r7, #12]
  /* Set the Input Trigger source and the slave mode*/
  tmpsmcr |= (InputTriggerSource | TIM_SLAVEMODE_EXTERNAL1);
 80024ce:	683a      	ldr	r2, [r7, #0]
 80024d0:	68fb      	ldr	r3, [r7, #12]
 80024d2:	4313      	orrs	r3, r2
 80024d4:	f043 0307 	orr.w	r3, r3, #7
 80024d8:	60fb      	str	r3, [r7, #12]
  /* Write to TIMx SMCR */
  TIMx->SMCR = tmpsmcr;
 80024da:	687b      	ldr	r3, [r7, #4]
 80024dc:	68fa      	ldr	r2, [r7, #12]
 80024de:	609a      	str	r2, [r3, #8]
}
 80024e0:	bf00      	nop
 80024e2:	3714      	adds	r7, #20
 80024e4:	46bd      	mov	sp, r7
 80024e6:	bc80      	pop	{r7}
 80024e8:	4770      	bx	lr

080024ea <TIM_ETR_SetConfig>:
  *          This parameter must be a value between 0x00 and 0x0F
  * @retval None
  */
void TIM_ETR_SetConfig(TIM_TypeDef *TIMx, uint32_t TIM_ExtTRGPrescaler,
                       uint32_t TIM_ExtTRGPolarity, uint32_t ExtTRGFilter)
{
 80024ea:	b480      	push	{r7}
 80024ec:	b087      	sub	sp, #28
 80024ee:	af00      	add	r7, sp, #0
 80024f0:	60f8      	str	r0, [r7, #12]
 80024f2:	60b9      	str	r1, [r7, #8]
 80024f4:	607a      	str	r2, [r7, #4]
 80024f6:	603b      	str	r3, [r7, #0]
  uint32_t tmpsmcr;

  tmpsmcr = TIMx->SMCR;
 80024f8:	68fb      	ldr	r3, [r7, #12]
 80024fa:	689b      	ldr	r3, [r3, #8]
 80024fc:	617b      	str	r3, [r7, #20]

  /* Reset the ETR Bits */
  tmpsmcr &= ~(TIM_SMCR_ETF | TIM_SMCR_ETPS | TIM_SMCR_ECE | TIM_SMCR_ETP);
 80024fe:	697b      	ldr	r3, [r7, #20]
 8002500:	f423 437f 	bic.w	r3, r3, #65280	; 0xff00
 8002504:	617b      	str	r3, [r7, #20]

  /* Set the Prescaler, the Filter value and the Polarity */
  tmpsmcr |= (uint32_t)(TIM_ExtTRGPrescaler | (TIM_ExtTRGPolarity | (ExtTRGFilter << 8U)));
 8002506:	683b      	ldr	r3, [r7, #0]
 8002508:	021a      	lsls	r2, r3, #8
 800250a:	687b      	ldr	r3, [r7, #4]
 800250c:	431a      	orrs	r2, r3
 800250e:	68bb      	ldr	r3, [r7, #8]
 8002510:	4313      	orrs	r3, r2
 8002512:	697a      	ldr	r2, [r7, #20]
 8002514:	4313      	orrs	r3, r2
 8002516:	617b      	str	r3, [r7, #20]

  /* Write to TIMx SMCR */
  TIMx->SMCR = tmpsmcr;
 8002518:	68fb      	ldr	r3, [r7, #12]
 800251a:	697a      	ldr	r2, [r7, #20]
 800251c:	609a      	str	r2, [r3, #8]
}
 800251e:	bf00      	nop
 8002520:	371c      	adds	r7, #28
 8002522:	46bd      	mov	sp, r7
 8002524:	bc80      	pop	{r7}
 8002526:	4770      	bx	lr

08002528 <HAL_TIMEx_MasterConfigSynchronization>:
  *         mode.
  * @retval HAL status
  */
HAL_StatusTypeDef HAL_TIMEx_MasterConfigSynchronization(TIM_HandleTypeDef *htim,
                                                        const TIM_MasterConfigTypeDef *sMasterConfig)
{
 8002528:	b480      	push	{r7}
 800252a:	b085      	sub	sp, #20
 800252c:	af00      	add	r7, sp, #0
 800252e:	6078      	str	r0, [r7, #4]
 8002530:	6039      	str	r1, [r7, #0]
  assert_param(IS_TIM_MASTER_INSTANCE(htim->Instance));
  assert_param(IS_TIM_TRGO_SOURCE(sMasterConfig->MasterOutputTrigger));
  assert_param(IS_TIM_MSM_STATE(sMasterConfig->MasterSlaveMode));

  /* Check input state */
  __HAL_LOCK(htim);
 8002532:	687b      	ldr	r3, [r7, #4]
 8002534:	f893 303c 	ldrb.w	r3, [r3, #60]	; 0x3c
 8002538:	2b01      	cmp	r3, #1
 800253a:	d101      	bne.n	8002540 <HAL_TIMEx_MasterConfigSynchronization+0x18>
 800253c:	2302      	movs	r3, #2
 800253e:	e041      	b.n	80025c4 <HAL_TIMEx_MasterConfigSynchronization+0x9c>
 8002540:	687b      	ldr	r3, [r7, #4]
 8002542:	2201      	movs	r2, #1
 8002544:	f883 203c 	strb.w	r2, [r3, #60]	; 0x3c

  /* Change the handler state */
  htim->State = HAL_TIM_STATE_BUSY;
 8002548:	687b      	ldr	r3, [r7, #4]
 800254a:	2202      	movs	r2, #2
 800254c:	f883 203d 	strb.w	r2, [r3, #61]	; 0x3d

  /* Get the TIMx CR2 register value */
  tmpcr2 = htim->Instance->CR2;
 8002550:	687b      	ldr	r3, [r7, #4]
 8002552:	681b      	ldr	r3, [r3, #0]
 8002554:	685b      	ldr	r3, [r3, #4]
 8002556:	60fb      	str	r3, [r7, #12]

  /* Get the TIMx SMCR register value */
  tmpsmcr = htim->Instance->SMCR;
 8002558:	687b      	ldr	r3, [r7, #4]
 800255a:	681b      	ldr	r3, [r3, #0]
 800255c:	689b      	ldr	r3, [r3, #8]
 800255e:	60bb      	str	r3, [r7, #8]

  /* Reset the MMS Bits */
  tmpcr2 &= ~TIM_CR2_MMS;
 8002560:	68fb      	ldr	r3, [r7, #12]
 8002562:	f023 0370 	bic.w	r3, r3, #112	; 0x70
 8002566:	60fb      	str	r3, [r7, #12]
  /* Select the TRGO source */
  tmpcr2 |=  sMasterConfig->MasterOutputTrigger;
 8002568:	683b      	ldr	r3, [r7, #0]
 800256a:	681b      	ldr	r3, [r3, #0]
 800256c:	68fa      	ldr	r2, [r7, #12]
 800256e:	4313      	orrs	r3, r2
 8002570:	60fb      	str	r3, [r7, #12]

  /* Update TIMx CR2 */
  htim->Instance->CR2 = tmpcr2;
 8002572:	687b      	ldr	r3, [r7, #4]
 8002574:	681b      	ldr	r3, [r3, #0]
 8002576:	68fa      	ldr	r2, [r7, #12]
 8002578:	605a      	str	r2, [r3, #4]

  if (IS_TIM_SLAVE_INSTANCE(htim->Instance))
 800257a:	687b      	ldr	r3, [r7, #4]
 800257c:	681b      	ldr	r3, [r3, #0]
 800257e:	4a14      	ldr	r2, [pc, #80]	; (80025d0 <HAL_TIMEx_MasterConfigSynchronization+0xa8>)
 8002580:	4293      	cmp	r3, r2
 8002582:	d009      	beq.n	8002598 <HAL_TIMEx_MasterConfigSynchronization+0x70>
 8002584:	687b      	ldr	r3, [r7, #4]
 8002586:	681b      	ldr	r3, [r3, #0]
 8002588:	f1b3 4f80 	cmp.w	r3, #1073741824	; 0x40000000
 800258c:	d004      	beq.n	8002598 <HAL_TIMEx_MasterConfigSynchronization+0x70>
 800258e:	687b      	ldr	r3, [r7, #4]
 8002590:	681b      	ldr	r3, [r3, #0]
 8002592:	4a10      	ldr	r2, [pc, #64]	; (80025d4 <HAL_TIMEx_MasterConfigSynchronization+0xac>)
 8002594:	4293      	cmp	r3, r2
 8002596:	d10c      	bne.n	80025b2 <HAL_TIMEx_MasterConfigSynchronization+0x8a>
  {
    /* Reset the MSM Bit */
    tmpsmcr &= ~TIM_SMCR_MSM;
 8002598:	68bb      	ldr	r3, [r7, #8]
 800259a:	f023 0380 	bic.w	r3, r3, #128	; 0x80
 800259e:	60bb      	str	r3, [r7, #8]
    /* Set master mode */
    tmpsmcr |= sMasterConfig->MasterSlaveMode;
 80025a0:	683b      	ldr	r3, [r7, #0]
 80025a2:	685b      	ldr	r3, [r3, #4]
 80025a4:	68ba      	ldr	r2, [r7, #8]
 80025a6:	4313      	orrs	r3, r2
 80025a8:	60bb      	str	r3, [r7, #8]

    /* Update TIMx SMCR */
    htim->Instance->SMCR = tmpsmcr;
 80025aa:	687b      	ldr	r3, [r7, #4]
 80025ac:	681b      	ldr	r3, [r3, #0]
 80025ae:	68ba      	ldr	r2, [r7, #8]
 80025b0:	609a      	str	r2, [r3, #8]
  }

  /* Change the htim state */
  htim->State = HAL_TIM_STATE_READY;
 80025b2:	687b      	ldr	r3, [r7, #4]
 80025b4:	2201      	movs	r2, #1
 80025b6:	f883 203d 	strb.w	r2, [r3, #61]	; 0x3d

  __HAL_UNLOCK(htim);
 80025ba:	687b      	ldr	r3, [r7, #4]
 80025bc:	2200      	movs	r2, #0
 80025be:	f883 203c 	strb.w	r2, [r3, #60]	; 0x3c

  return HAL_OK;
 80025c2:	2300      	movs	r3, #0
}
 80025c4:	4618      	mov	r0, r3
 80025c6:	3714      	adds	r7, #20
 80025c8:	46bd      	mov	sp, r7
 80025ca:	bc80      	pop	{r7}
 80025cc:	4770      	bx	lr
 80025ce:	bf00      	nop
 80025d0:	40012c00 	.word	0x40012c00
 80025d4:	40000400 	.word	0x40000400

080025d8 <HAL_TIMEx_CommutCallback>:
  * @brief  Hall commutation changed callback in non-blocking mode
  * @param  htim TIM handle
  * @retval None
  */
__weak void HAL_TIMEx_CommutCallback(TIM_HandleTypeDef *htim)
{
 80025d8:	b480      	push	{r7}
 80025da:	b083      	sub	sp, #12
 80025dc:	af00      	add	r7, sp, #0
 80025de:	6078      	str	r0, [r7, #4]
  UNUSED(htim);

  /* NOTE : This function should not be modified, when the callback is needed,
            the HAL_TIMEx_CommutCallback could be implemented in the user file
   */
}
 80025e0:	bf00      	nop
 80025e2:	370c      	adds	r7, #12
 80025e4:	46bd      	mov	sp, r7
 80025e6:	bc80      	pop	{r7}
 80025e8:	4770      	bx	lr

080025ea <HAL_TIMEx_BreakCallback>:
  * @brief  Hall Break detection callback in non-blocking mode
  * @param  htim TIM handle
  * @retval None
  */
__weak void HAL_TIMEx_BreakCallback(TIM_HandleTypeDef *htim)
{
 80025ea:	b480      	push	{r7}
 80025ec:	b083      	sub	sp, #12
 80025ee:	af00      	add	r7, sp, #0
 80025f0:	6078      	str	r0, [r7, #4]
  UNUSED(htim);

  /* NOTE : This function should not be modified, when the callback is needed,
            the HAL_TIMEx_BreakCallback could be implemented in the user file
   */
}
 80025f2:	bf00      	nop
 80025f4:	370c      	adds	r7, #12
 80025f6:	46bd      	mov	sp, r7
 80025f8:	bc80      	pop	{r7}
 80025fa:	4770      	bx	lr

080025fc <__libc_init_array>:
 80025fc:	b570      	push	{r4, r5, r6, lr}
 80025fe:	2600      	movs	r6, #0
 8002600:	4d0c      	ldr	r5, [pc, #48]	; (8002634 <__libc_init_array+0x38>)
 8002602:	4c0d      	ldr	r4, [pc, #52]	; (8002638 <__libc_init_array+0x3c>)
 8002604:	1b64      	subs	r4, r4, r5
 8002606:	10a4      	asrs	r4, r4, #2
 8002608:	42a6      	cmp	r6, r4
 800260a:	d109      	bne.n	8002620 <__libc_init_array+0x24>
 800260c:	f000 f822 	bl	8002654 <_init>
 8002610:	2600      	movs	r6, #0
 8002612:	4d0a      	ldr	r5, [pc, #40]	; (800263c <__libc_init_array+0x40>)
 8002614:	4c0a      	ldr	r4, [pc, #40]	; (8002640 <__libc_init_array+0x44>)
 8002616:	1b64      	subs	r4, r4, r5
 8002618:	10a4      	asrs	r4, r4, #2
 800261a:	42a6      	cmp	r6, r4
 800261c:	d105      	bne.n	800262a <__libc_init_array+0x2e>
 800261e:	bd70      	pop	{r4, r5, r6, pc}
 8002620:	f855 3b04 	ldr.w	r3, [r5], #4
 8002624:	4798      	blx	r3
 8002626:	3601      	adds	r6, #1
 8002628:	e7ee      	b.n	8002608 <__libc_init_array+0xc>
 800262a:	f855 3b04 	ldr.w	r3, [r5], #4
 800262e:	4798      	blx	r3
 8002630:	3601      	adds	r6, #1
 8002632:	e7f2      	b.n	800261a <__libc_init_array+0x1e>
 8002634:	08002694 	.word	0x08002694
 8002638:	08002694 	.word	0x08002694
 800263c:	08002694 	.word	0x08002694
 8002640:	08002698 	.word	0x08002698

08002644 <memset>:
 8002644:	4603      	mov	r3, r0
 8002646:	4402      	add	r2, r0
 8002648:	4293      	cmp	r3, r2
 800264a:	d100      	bne.n	800264e <memset+0xa>
 800264c:	4770      	bx	lr
 800264e:	f803 1b01 	strb.w	r1, [r3], #1
 8002652:	e7f9      	b.n	8002648 <memset+0x4>

08002654 <_init>:
 8002654:	b5f8      	push	{r3, r4, r5, r6, r7, lr}
 8002656:	bf00      	nop
 8002658:	bcf8      	pop	{r3, r4, r5, r6, r7}
 800265a:	bc08      	pop	{r3}
 800265c:	469e      	mov	lr, r3
 800265e:	4770      	bx	lr

08002660 <_fini>:
 8002660:	b5f8      	push	{r3, r4, r5, r6, r7, lr}
 8002662:	bf00      	nop
 8002664:	bcf8      	pop	{r3, r4, r5, r6, r7}
 8002666:	bc08      	pop	{r3}
 8002668:	469e      	mov	lr, r3
 800266a:	4770      	bx	lr
