
STM32ProjectForLab2.elf:     file format elf32-littlearm

Sections:
Idx Name          Size      VMA       LMA       File off  Algn
  0 .isr_vector   0000010c  08000000  08000000  00010000  2**0
                  CONTENTS, ALLOC, LOAD, READONLY, DATA
  1 .text         000023c0  0800010c  0800010c  0001010c  2**2
                  CONTENTS, ALLOC, LOAD, READONLY, CODE
  2 .rodata       00000024  080024cc  080024cc  000124cc  2**2
                  CONTENTS, ALLOC, LOAD, READONLY, DATA
  3 .ARM.extab    00000000  080024f0  080024f0  00020070  2**0
                  CONTENTS
  4 .ARM          00000000  080024f0  080024f0  00020070  2**0
                  CONTENTS
  5 .preinit_array 00000000  080024f0  080024f0  00020070  2**0
                  CONTENTS, ALLOC, LOAD, DATA
  6 .init_array   00000004  080024f0  080024f0  000124f0  2**2
                  CONTENTS, ALLOC, LOAD, DATA
  7 .fini_array   00000004  080024f4  080024f4  000124f4  2**2
                  CONTENTS, ALLOC, LOAD, DATA
  8 .data         00000070  20000000  080024f8  00020000  2**2
                  CONTENTS, ALLOC, LOAD, DATA
  9 .bss          00000098  20000070  08002568  00020070  2**2
                  ALLOC
 10 ._user_heap_stack 00000600  20000108  08002568  00020108  2**0
                  ALLOC
 11 .ARM.attributes 00000029  00000000  00000000  00020070  2**0
                  CONTENTS, READONLY
 12 .debug_info   00008937  00000000  00000000  00020099  2**0
                  CONTENTS, READONLY, DEBUGGING, OCTETS
 13 .debug_abbrev 00001962  00000000  00000000  000289d0  2**0
                  CONTENTS, READONLY, DEBUGGING, OCTETS
 14 .debug_aranges 00000a00  00000000  00000000  0002a338  2**3
                  CONTENTS, READONLY, DEBUGGING, OCTETS
 15 .debug_ranges 00000900  00000000  00000000  0002ad38  2**3
                  CONTENTS, READONLY, DEBUGGING, OCTETS
 16 .debug_macro  00017650  00000000  00000000  0002b638  2**0
                  CONTENTS, READONLY, DEBUGGING, OCTETS
 17 .debug_line   0000b389  00000000  00000000  00042c88  2**0
                  CONTENTS, READONLY, DEBUGGING, OCTETS
 18 .debug_str    0008542a  00000000  00000000  0004e011  2**0
                  CONTENTS, READONLY, DEBUGGING, OCTETS
 19 .comment      00000050  00000000  00000000  000d343b  2**0
                  CONTENTS, READONLY
 20 .debug_frame  000029c4  00000000  00000000  000d348c  2**2
                  CONTENTS, READONLY, DEBUGGING, OCTETS

Disassembly of section .text:

0800010c <__do_global_dtors_aux>:
 800010c:	b510      	push	{r4, lr}
 800010e:	4c05      	ldr	r4, [pc, #20]	; (8000124 <__do_global_dtors_aux+0x18>)
 8000110:	7823      	ldrb	r3, [r4, #0]
 8000112:	b933      	cbnz	r3, 8000122 <__do_global_dtors_aux+0x16>
 8000114:	4b04      	ldr	r3, [pc, #16]	; (8000128 <__do_global_dtors_aux+0x1c>)
 8000116:	b113      	cbz	r3, 800011e <__do_global_dtors_aux+0x12>
 8000118:	4804      	ldr	r0, [pc, #16]	; (800012c <__do_global_dtors_aux+0x20>)
 800011a:	f3af 8000 	nop.w
 800011e:	2301      	movs	r3, #1
 8000120:	7023      	strb	r3, [r4, #0]
 8000122:	bd10      	pop	{r4, pc}
 8000124:	20000070 	.word	0x20000070
 8000128:	00000000 	.word	0x00000000
 800012c:	080024b4 	.word	0x080024b4

08000130 <frame_dummy>:
 8000130:	b508      	push	{r3, lr}
 8000132:	4b03      	ldr	r3, [pc, #12]	; (8000140 <frame_dummy+0x10>)
 8000134:	b11b      	cbz	r3, 800013e <frame_dummy+0xe>
 8000136:	4903      	ldr	r1, [pc, #12]	; (8000144 <frame_dummy+0x14>)
 8000138:	4803      	ldr	r0, [pc, #12]	; (8000148 <frame_dummy+0x18>)
 800013a:	f3af 8000 	nop.w
 800013e:	bd08      	pop	{r3, pc}
 8000140:	00000000 	.word	0x00000000
 8000144:	20000074 	.word	0x20000074
 8000148:	080024b4 	.word	0x080024b4

0800014c <display7SEG>:
 *  Created on: Nov 2, 2023
 *      Author: Huy
 */
#include "7SegmentLed.h"

void display7SEG(int num){
 800014c:	b580      	push	{r7, lr}
 800014e:	b082      	sub	sp, #8
 8000150:	af00      	add	r7, sp, #0
 8000152:	6078      	str	r0, [r7, #4]
	if( num == 0)
 8000154:	687b      	ldr	r3, [r7, #4]
 8000156:	2b00      	cmp	r3, #0
 8000158:	d122      	bne.n	80001a0 <display7SEG+0x54>
	{
		HAL_GPIO_WritePin(SEG0_GPIO_Port, SEG0_Pin, GPIO_PIN_RESET);
 800015a:	2200      	movs	r2, #0
 800015c:	2101      	movs	r1, #1
 800015e:	48bd      	ldr	r0, [pc, #756]	; (8000454 <display7SEG+0x308>)
 8000160:	f001 f88e 	bl	8001280 <HAL_GPIO_WritePin>
		HAL_GPIO_WritePin(SEG1_GPIO_Port, SEG1_Pin, GPIO_PIN_RESET);
 8000164:	2200      	movs	r2, #0
 8000166:	2102      	movs	r1, #2
 8000168:	48ba      	ldr	r0, [pc, #744]	; (8000454 <display7SEG+0x308>)
 800016a:	f001 f889 	bl	8001280 <HAL_GPIO_WritePin>
		HAL_GPIO_WritePin(SEG2_GPIO_Port, SEG2_Pin, GPIO_PIN_RESET);
 800016e:	2200      	movs	r2, #0
 8000170:	2104      	movs	r1, #4
 8000172:	48b8      	ldr	r0, [pc, #736]	; (8000454 <display7SEG+0x308>)
 8000174:	f001 f884 	bl	8001280 <HAL_GPIO_WritePin>
		HAL_GPIO_WritePin(SEG3_GPIO_Port, SEG3_Pin, GPIO_PIN_RESET);
 8000178:	2200      	movs	r2, #0
 800017a:	2108      	movs	r1, #8
 800017c:	48b5      	ldr	r0, [pc, #724]	; (8000454 <display7SEG+0x308>)
 800017e:	f001 f87f 	bl	8001280 <HAL_GPIO_WritePin>
		HAL_GPIO_WritePin(SEG4_GPIO_Port, SEG4_Pin, GPIO_PIN_RESET);
 8000182:	2200      	movs	r2, #0
 8000184:	2110      	movs	r1, #16
 8000186:	48b3      	ldr	r0, [pc, #716]	; (8000454 <display7SEG+0x308>)
 8000188:	f001 f87a 	bl	8001280 <HAL_GPIO_WritePin>
		HAL_GPIO_WritePin(SEG5_GPIO_Port, SEG5_Pin, GPIO_PIN_RESET);
 800018c:	2200      	movs	r2, #0
 800018e:	2120      	movs	r1, #32
 8000190:	48b0      	ldr	r0, [pc, #704]	; (8000454 <display7SEG+0x308>)
 8000192:	f001 f875 	bl	8001280 <HAL_GPIO_WritePin>
		HAL_GPIO_WritePin(SEG6_GPIO_Port, SEG6_Pin, GPIO_PIN_SET);
 8000196:	2201      	movs	r2, #1
 8000198:	2140      	movs	r1, #64	; 0x40
 800019a:	48ae      	ldr	r0, [pc, #696]	; (8000454 <display7SEG+0x308>)
 800019c:	f001 f870 	bl	8001280 <HAL_GPIO_WritePin>
	}

	if(num == 1){
 80001a0:	687b      	ldr	r3, [r7, #4]
 80001a2:	2b01      	cmp	r3, #1
 80001a4:	d122      	bne.n	80001ec <display7SEG+0xa0>
		HAL_GPIO_WritePin(SEG0_GPIO_Port, SEG0_Pin, GPIO_PIN_SET);
 80001a6:	2201      	movs	r2, #1
 80001a8:	2101      	movs	r1, #1
 80001aa:	48aa      	ldr	r0, [pc, #680]	; (8000454 <display7SEG+0x308>)
 80001ac:	f001 f868 	bl	8001280 <HAL_GPIO_WritePin>
		HAL_GPIO_WritePin(SEG1_GPIO_Port, SEG1_Pin, GPIO_PIN_RESET);
 80001b0:	2200      	movs	r2, #0
 80001b2:	2102      	movs	r1, #2
 80001b4:	48a7      	ldr	r0, [pc, #668]	; (8000454 <display7SEG+0x308>)
 80001b6:	f001 f863 	bl	8001280 <HAL_GPIO_WritePin>
		HAL_GPIO_WritePin(SEG2_GPIO_Port, SEG2_Pin, GPIO_PIN_RESET);
 80001ba:	2200      	movs	r2, #0
 80001bc:	2104      	movs	r1, #4
 80001be:	48a5      	ldr	r0, [pc, #660]	; (8000454 <display7SEG+0x308>)
 80001c0:	f001 f85e 	bl	8001280 <HAL_GPIO_WritePin>
		HAL_GPIO_WritePin(SEG3_GPIO_Port, SEG3_Pin, GPIO_PIN_SET );
 80001c4:	2201      	movs	r2, #1
 80001c6:	2108      	movs	r1, #8
 80001c8:	48a2      	ldr	r0, [pc, #648]	; (8000454 <display7SEG+0x308>)
 80001ca:	f001 f859 	bl	8001280 <HAL_GPIO_WritePin>
		HAL_GPIO_WritePin(SEG4_GPIO_Port, SEG4_Pin, GPIO_PIN_SET);
 80001ce:	2201      	movs	r2, #1
 80001d0:	2110      	movs	r1, #16
 80001d2:	48a0      	ldr	r0, [pc, #640]	; (8000454 <display7SEG+0x308>)
 80001d4:	f001 f854 	bl	8001280 <HAL_GPIO_WritePin>
		HAL_GPIO_WritePin(SEG5_GPIO_Port, SEG5_Pin, GPIO_PIN_SET);
 80001d8:	2201      	movs	r2, #1
 80001da:	2120      	movs	r1, #32
 80001dc:	489d      	ldr	r0, [pc, #628]	; (8000454 <display7SEG+0x308>)
 80001de:	f001 f84f 	bl	8001280 <HAL_GPIO_WritePin>
		HAL_GPIO_WritePin(SEG6_GPIO_Port, SEG6_Pin, GPIO_PIN_SET);
 80001e2:	2201      	movs	r2, #1
 80001e4:	2140      	movs	r1, #64	; 0x40
 80001e6:	489b      	ldr	r0, [pc, #620]	; (8000454 <display7SEG+0x308>)
 80001e8:	f001 f84a 	bl	8001280 <HAL_GPIO_WritePin>
	}

	if(num == 2){
 80001ec:	687b      	ldr	r3, [r7, #4]
 80001ee:	2b02      	cmp	r3, #2
 80001f0:	d122      	bne.n	8000238 <display7SEG+0xec>
		HAL_GPIO_WritePin(SEG0_GPIO_Port, SEG0_Pin, GPIO_PIN_RESET);
 80001f2:	2200      	movs	r2, #0
 80001f4:	2101      	movs	r1, #1
 80001f6:	4897      	ldr	r0, [pc, #604]	; (8000454 <display7SEG+0x308>)
 80001f8:	f001 f842 	bl	8001280 <HAL_GPIO_WritePin>
		HAL_GPIO_WritePin(SEG1_GPIO_Port, SEG1_Pin, GPIO_PIN_RESET);
 80001fc:	2200      	movs	r2, #0
 80001fe:	2102      	movs	r1, #2
 8000200:	4894      	ldr	r0, [pc, #592]	; (8000454 <display7SEG+0x308>)
 8000202:	f001 f83d 	bl	8001280 <HAL_GPIO_WritePin>
		HAL_GPIO_WritePin(SEG2_GPIO_Port, SEG2_Pin, GPIO_PIN_SET);
 8000206:	2201      	movs	r2, #1
 8000208:	2104      	movs	r1, #4
 800020a:	4892      	ldr	r0, [pc, #584]	; (8000454 <display7SEG+0x308>)
 800020c:	f001 f838 	bl	8001280 <HAL_GPIO_WritePin>
		HAL_GPIO_WritePin(SEG3_GPIO_Port, SEG3_Pin, GPIO_PIN_RESET);
 8000210:	2200      	movs	r2, #0
 8000212:	2108      	movs	r1, #8
 8000214:	488f      	ldr	r0, [pc, #572]	; (8000454 <display7SEG+0x308>)
 8000216:	f001 f833 	bl	8001280 <HAL_GPIO_WritePin>
		HAL_GPIO_WritePin(SEG4_GPIO_Port, SEG4_Pin, GPIO_PIN_RESET);
 800021a:	2200      	movs	r2, #0
 800021c:	2110      	movs	r1, #16
 800021e:	488d      	ldr	r0, [pc, #564]	; (8000454 <display7SEG+0x308>)
 8000220:	f001 f82e 	bl	8001280 <HAL_GPIO_WritePin>
		HAL_GPIO_WritePin(SEG5_GPIO_Port, SEG5_Pin, GPIO_PIN_SET);
 8000224:	2201      	movs	r2, #1
 8000226:	2120      	movs	r1, #32
 8000228:	488a      	ldr	r0, [pc, #552]	; (8000454 <display7SEG+0x308>)
 800022a:	f001 f829 	bl	8001280 <HAL_GPIO_WritePin>
		HAL_GPIO_WritePin(SEG6_GPIO_Port, SEG6_Pin, GPIO_PIN_RESET);
 800022e:	2200      	movs	r2, #0
 8000230:	2140      	movs	r1, #64	; 0x40
 8000232:	4888      	ldr	r0, [pc, #544]	; (8000454 <display7SEG+0x308>)
 8000234:	f001 f824 	bl	8001280 <HAL_GPIO_WritePin>
	}

	if(num == 3){
 8000238:	687b      	ldr	r3, [r7, #4]
 800023a:	2b03      	cmp	r3, #3
 800023c:	d122      	bne.n	8000284 <display7SEG+0x138>
		HAL_GPIO_WritePin(SEG0_GPIO_Port, SEG0_Pin, GPIO_PIN_RESET);
 800023e:	2200      	movs	r2, #0
 8000240:	2101      	movs	r1, #1
 8000242:	4884      	ldr	r0, [pc, #528]	; (8000454 <display7SEG+0x308>)
 8000244:	f001 f81c 	bl	8001280 <HAL_GPIO_WritePin>
		HAL_GPIO_WritePin(SEG1_GPIO_Port, SEG1_Pin, GPIO_PIN_RESET);
 8000248:	2200      	movs	r2, #0
 800024a:	2102      	movs	r1, #2
 800024c:	4881      	ldr	r0, [pc, #516]	; (8000454 <display7SEG+0x308>)
 800024e:	f001 f817 	bl	8001280 <HAL_GPIO_WritePin>
		HAL_GPIO_WritePin(SEG2_GPIO_Port, SEG2_Pin, GPIO_PIN_RESET);
 8000252:	2200      	movs	r2, #0
 8000254:	2104      	movs	r1, #4
 8000256:	487f      	ldr	r0, [pc, #508]	; (8000454 <display7SEG+0x308>)
 8000258:	f001 f812 	bl	8001280 <HAL_GPIO_WritePin>
		HAL_GPIO_WritePin(SEG3_GPIO_Port, SEG3_Pin, GPIO_PIN_RESET);
 800025c:	2200      	movs	r2, #0
 800025e:	2108      	movs	r1, #8
 8000260:	487c      	ldr	r0, [pc, #496]	; (8000454 <display7SEG+0x308>)
 8000262:	f001 f80d 	bl	8001280 <HAL_GPIO_WritePin>
		HAL_GPIO_WritePin(SEG4_GPIO_Port, SEG4_Pin, GPIO_PIN_SET);
 8000266:	2201      	movs	r2, #1
 8000268:	2110      	movs	r1, #16
 800026a:	487a      	ldr	r0, [pc, #488]	; (8000454 <display7SEG+0x308>)
 800026c:	f001 f808 	bl	8001280 <HAL_GPIO_WritePin>
		HAL_GPIO_WritePin(SEG5_GPIO_Port, SEG5_Pin, GPIO_PIN_SET);
 8000270:	2201      	movs	r2, #1
 8000272:	2120      	movs	r1, #32
 8000274:	4877      	ldr	r0, [pc, #476]	; (8000454 <display7SEG+0x308>)
 8000276:	f001 f803 	bl	8001280 <HAL_GPIO_WritePin>
		HAL_GPIO_WritePin(SEG6_GPIO_Port, SEG6_Pin, GPIO_PIN_RESET);
 800027a:	2200      	movs	r2, #0
 800027c:	2140      	movs	r1, #64	; 0x40
 800027e:	4875      	ldr	r0, [pc, #468]	; (8000454 <display7SEG+0x308>)
 8000280:	f000 fffe 	bl	8001280 <HAL_GPIO_WritePin>
	}

	if(num == 4){
 8000284:	687b      	ldr	r3, [r7, #4]
 8000286:	2b04      	cmp	r3, #4
 8000288:	d122      	bne.n	80002d0 <display7SEG+0x184>
		HAL_GPIO_WritePin(SEG0_GPIO_Port, SEG0_Pin, GPIO_PIN_SET);
 800028a:	2201      	movs	r2, #1
 800028c:	2101      	movs	r1, #1
 800028e:	4871      	ldr	r0, [pc, #452]	; (8000454 <display7SEG+0x308>)
 8000290:	f000 fff6 	bl	8001280 <HAL_GPIO_WritePin>
		HAL_GPIO_WritePin(SEG1_GPIO_Port, SEG1_Pin, GPIO_PIN_RESET);
 8000294:	2200      	movs	r2, #0
 8000296:	2102      	movs	r1, #2
 8000298:	486e      	ldr	r0, [pc, #440]	; (8000454 <display7SEG+0x308>)
 800029a:	f000 fff1 	bl	8001280 <HAL_GPIO_WritePin>
		HAL_GPIO_WritePin(SEG2_GPIO_Port, SEG2_Pin, GPIO_PIN_RESET);
 800029e:	2200      	movs	r2, #0
 80002a0:	2104      	movs	r1, #4
 80002a2:	486c      	ldr	r0, [pc, #432]	; (8000454 <display7SEG+0x308>)
 80002a4:	f000 ffec 	bl	8001280 <HAL_GPIO_WritePin>
		HAL_GPIO_WritePin(SEG3_GPIO_Port, SEG3_Pin, GPIO_PIN_SET);
 80002a8:	2201      	movs	r2, #1
 80002aa:	2108      	movs	r1, #8
 80002ac:	4869      	ldr	r0, [pc, #420]	; (8000454 <display7SEG+0x308>)
 80002ae:	f000 ffe7 	bl	8001280 <HAL_GPIO_WritePin>
		HAL_GPIO_WritePin(SEG4_GPIO_Port, SEG4_Pin, GPIO_PIN_SET);
 80002b2:	2201      	movs	r2, #1
 80002b4:	2110      	movs	r1, #16
 80002b6:	4867      	ldr	r0, [pc, #412]	; (8000454 <display7SEG+0x308>)
 80002b8:	f000 ffe2 	bl	8001280 <HAL_GPIO_WritePin>
		HAL_GPIO_WritePin(SEG5_GPIO_Port, SEG5_Pin, GPIO_PIN_RESET);
 80002bc:	2200      	movs	r2, #0
 80002be:	2120      	movs	r1, #32
 80002c0:	4864      	ldr	r0, [pc, #400]	; (8000454 <display7SEG+0x308>)
 80002c2:	f000 ffdd 	bl	8001280 <HAL_GPIO_WritePin>
		HAL_GPIO_WritePin(SEG6_GPIO_Port, SEG6_Pin, GPIO_PIN_RESET);
 80002c6:	2200      	movs	r2, #0
 80002c8:	2140      	movs	r1, #64	; 0x40
 80002ca:	4862      	ldr	r0, [pc, #392]	; (8000454 <display7SEG+0x308>)
 80002cc:	f000 ffd8 	bl	8001280 <HAL_GPIO_WritePin>
	}

	if(num == 5){
 80002d0:	687b      	ldr	r3, [r7, #4]
 80002d2:	2b05      	cmp	r3, #5
 80002d4:	d122      	bne.n	800031c <display7SEG+0x1d0>
		HAL_GPIO_WritePin(SEG0_GPIO_Port, SEG0_Pin, GPIO_PIN_RESET);
 80002d6:	2200      	movs	r2, #0
 80002d8:	2101      	movs	r1, #1
 80002da:	485e      	ldr	r0, [pc, #376]	; (8000454 <display7SEG+0x308>)
 80002dc:	f000 ffd0 	bl	8001280 <HAL_GPIO_WritePin>
		HAL_GPIO_WritePin(SEG1_GPIO_Port, SEG1_Pin, GPIO_PIN_SET);
 80002e0:	2201      	movs	r2, #1
 80002e2:	2102      	movs	r1, #2
 80002e4:	485b      	ldr	r0, [pc, #364]	; (8000454 <display7SEG+0x308>)
 80002e6:	f000 ffcb 	bl	8001280 <HAL_GPIO_WritePin>
		HAL_GPIO_WritePin(SEG2_GPIO_Port, SEG2_Pin, GPIO_PIN_RESET);
 80002ea:	2200      	movs	r2, #0
 80002ec:	2104      	movs	r1, #4
 80002ee:	4859      	ldr	r0, [pc, #356]	; (8000454 <display7SEG+0x308>)
 80002f0:	f000 ffc6 	bl	8001280 <HAL_GPIO_WritePin>
		HAL_GPIO_WritePin(SEG3_GPIO_Port, SEG3_Pin, GPIO_PIN_RESET);
 80002f4:	2200      	movs	r2, #0
 80002f6:	2108      	movs	r1, #8
 80002f8:	4856      	ldr	r0, [pc, #344]	; (8000454 <display7SEG+0x308>)
 80002fa:	f000 ffc1 	bl	8001280 <HAL_GPIO_WritePin>
		HAL_GPIO_WritePin(SEG4_GPIO_Port, SEG4_Pin, GPIO_PIN_SET);
 80002fe:	2201      	movs	r2, #1
 8000300:	2110      	movs	r1, #16
 8000302:	4854      	ldr	r0, [pc, #336]	; (8000454 <display7SEG+0x308>)
 8000304:	f000 ffbc 	bl	8001280 <HAL_GPIO_WritePin>
		HAL_GPIO_WritePin(SEG5_GPIO_Port, SEG5_Pin, GPIO_PIN_RESET);
 8000308:	2200      	movs	r2, #0
 800030a:	2120      	movs	r1, #32
 800030c:	4851      	ldr	r0, [pc, #324]	; (8000454 <display7SEG+0x308>)
 800030e:	f000 ffb7 	bl	8001280 <HAL_GPIO_WritePin>
		HAL_GPIO_WritePin(SEG6_GPIO_Port, SEG6_Pin, GPIO_PIN_RESET);
 8000312:	2200      	movs	r2, #0
 8000314:	2140      	movs	r1, #64	; 0x40
 8000316:	484f      	ldr	r0, [pc, #316]	; (8000454 <display7SEG+0x308>)
 8000318:	f000 ffb2 	bl	8001280 <HAL_GPIO_WritePin>
	}

	if(num == 6){
 800031c:	687b      	ldr	r3, [r7, #4]
 800031e:	2b06      	cmp	r3, #6
 8000320:	d122      	bne.n	8000368 <display7SEG+0x21c>
		HAL_GPIO_WritePin(SEG0_GPIO_Port, SEG0_Pin, GPIO_PIN_RESET);
 8000322:	2200      	movs	r2, #0
 8000324:	2101      	movs	r1, #1
 8000326:	484b      	ldr	r0, [pc, #300]	; (8000454 <display7SEG+0x308>)
 8000328:	f000 ffaa 	bl	8001280 <HAL_GPIO_WritePin>
		HAL_GPIO_WritePin(SEG1_GPIO_Port, SEG1_Pin, GPIO_PIN_SET);
 800032c:	2201      	movs	r2, #1
 800032e:	2102      	movs	r1, #2
 8000330:	4848      	ldr	r0, [pc, #288]	; (8000454 <display7SEG+0x308>)
 8000332:	f000 ffa5 	bl	8001280 <HAL_GPIO_WritePin>
		HAL_GPIO_WritePin(SEG2_GPIO_Port, SEG2_Pin, GPIO_PIN_RESET);
 8000336:	2200      	movs	r2, #0
 8000338:	2104      	movs	r1, #4
 800033a:	4846      	ldr	r0, [pc, #280]	; (8000454 <display7SEG+0x308>)
 800033c:	f000 ffa0 	bl	8001280 <HAL_GPIO_WritePin>
		HAL_GPIO_WritePin(SEG3_GPIO_Port, SEG3_Pin, GPIO_PIN_RESET);
 8000340:	2200      	movs	r2, #0
 8000342:	2108      	movs	r1, #8
 8000344:	4843      	ldr	r0, [pc, #268]	; (8000454 <display7SEG+0x308>)
 8000346:	f000 ff9b 	bl	8001280 <HAL_GPIO_WritePin>
		HAL_GPIO_WritePin(SEG4_GPIO_Port, SEG4_Pin, GPIO_PIN_RESET);
 800034a:	2200      	movs	r2, #0
 800034c:	2110      	movs	r1, #16
 800034e:	4841      	ldr	r0, [pc, #260]	; (8000454 <display7SEG+0x308>)
 8000350:	f000 ff96 	bl	8001280 <HAL_GPIO_WritePin>
		HAL_GPIO_WritePin(SEG5_GPIO_Port, SEG5_Pin, GPIO_PIN_RESET);
 8000354:	2200      	movs	r2, #0
 8000356:	2120      	movs	r1, #32
 8000358:	483e      	ldr	r0, [pc, #248]	; (8000454 <display7SEG+0x308>)
 800035a:	f000 ff91 	bl	8001280 <HAL_GPIO_WritePin>
		HAL_GPIO_WritePin(SEG6_GPIO_Port, SEG6_Pin, GPIO_PIN_RESET);
 800035e:	2200      	movs	r2, #0
 8000360:	2140      	movs	r1, #64	; 0x40
 8000362:	483c      	ldr	r0, [pc, #240]	; (8000454 <display7SEG+0x308>)
 8000364:	f000 ff8c 	bl	8001280 <HAL_GPIO_WritePin>
	}

	if(num == 7){
 8000368:	687b      	ldr	r3, [r7, #4]
 800036a:	2b07      	cmp	r3, #7
 800036c:	d122      	bne.n	80003b4 <display7SEG+0x268>
		HAL_GPIO_WritePin(SEG0_GPIO_Port, SEG0_Pin, GPIO_PIN_RESET);
 800036e:	2200      	movs	r2, #0
 8000370:	2101      	movs	r1, #1
 8000372:	4838      	ldr	r0, [pc, #224]	; (8000454 <display7SEG+0x308>)
 8000374:	f000 ff84 	bl	8001280 <HAL_GPIO_WritePin>
		HAL_GPIO_WritePin(SEG1_GPIO_Port, SEG1_Pin, GPIO_PIN_RESET);
 8000378:	2200      	movs	r2, #0
 800037a:	2102      	movs	r1, #2
 800037c:	4835      	ldr	r0, [pc, #212]	; (8000454 <display7SEG+0x308>)
 800037e:	f000 ff7f 	bl	8001280 <HAL_GPIO_WritePin>
		HAL_GPIO_WritePin(SEG2_GPIO_Port, SEG2_Pin, GPIO_PIN_RESET);
 8000382:	2200      	movs	r2, #0
 8000384:	2104      	movs	r1, #4
 8000386:	4833      	ldr	r0, [pc, #204]	; (8000454 <display7SEG+0x308>)
 8000388:	f000 ff7a 	bl	8001280 <HAL_GPIO_WritePin>
		HAL_GPIO_WritePin(SEG3_GPIO_Port, SEG3_Pin, GPIO_PIN_SET);
 800038c:	2201      	movs	r2, #1
 800038e:	2108      	movs	r1, #8
 8000390:	4830      	ldr	r0, [pc, #192]	; (8000454 <display7SEG+0x308>)
 8000392:	f000 ff75 	bl	8001280 <HAL_GPIO_WritePin>
		HAL_GPIO_WritePin(SEG4_GPIO_Port, SEG4_Pin, GPIO_PIN_SET);
 8000396:	2201      	movs	r2, #1
 8000398:	2110      	movs	r1, #16
 800039a:	482e      	ldr	r0, [pc, #184]	; (8000454 <display7SEG+0x308>)
 800039c:	f000 ff70 	bl	8001280 <HAL_GPIO_WritePin>
		HAL_GPIO_WritePin(SEG5_GPIO_Port, SEG5_Pin, GPIO_PIN_SET);
 80003a0:	2201      	movs	r2, #1
 80003a2:	2120      	movs	r1, #32
 80003a4:	482b      	ldr	r0, [pc, #172]	; (8000454 <display7SEG+0x308>)
 80003a6:	f000 ff6b 	bl	8001280 <HAL_GPIO_WritePin>
		HAL_GPIO_WritePin(SEG6_GPIO_Port, SEG6_Pin, GPIO_PIN_SET);
 80003aa:	2201      	movs	r2, #1
 80003ac:	2140      	movs	r1, #64	; 0x40
 80003ae:	4829      	ldr	r0, [pc, #164]	; (8000454 <display7SEG+0x308>)
 80003b0:	f000 ff66 	bl	8001280 <HAL_GPIO_WritePin>
	}

	if(num == 8){
 80003b4:	687b      	ldr	r3, [r7, #4]
 80003b6:	2b08      	cmp	r3, #8
 80003b8:	d122      	bne.n	8000400 <display7SEG+0x2b4>
		HAL_GPIO_WritePin(SEG0_GPIO_Port, SEG0_Pin, GPIO_PIN_RESET);
 80003ba:	2200      	movs	r2, #0
 80003bc:	2101      	movs	r1, #1
 80003be:	4825      	ldr	r0, [pc, #148]	; (8000454 <display7SEG+0x308>)
 80003c0:	f000 ff5e 	bl	8001280 <HAL_GPIO_WritePin>
		HAL_GPIO_WritePin(SEG1_GPIO_Port, SEG1_Pin, GPIO_PIN_RESET);
 80003c4:	2200      	movs	r2, #0
 80003c6:	2102      	movs	r1, #2
 80003c8:	4822      	ldr	r0, [pc, #136]	; (8000454 <display7SEG+0x308>)
 80003ca:	f000 ff59 	bl	8001280 <HAL_GPIO_WritePin>
		HAL_GPIO_WritePin(SEG2_GPIO_Port, SEG2_Pin, GPIO_PIN_RESET);
 80003ce:	2200      	movs	r2, #0
 80003d0:	2104      	movs	r1, #4
 80003d2:	4820      	ldr	r0, [pc, #128]	; (8000454 <display7SEG+0x308>)
 80003d4:	f000 ff54 	bl	8001280 <HAL_GPIO_WritePin>
		HAL_GPIO_WritePin(SEG3_GPIO_Port, SEG3_Pin, GPIO_PIN_RESET);
 80003d8:	2200      	movs	r2, #0
 80003da:	2108      	movs	r1, #8
 80003dc:	481d      	ldr	r0, [pc, #116]	; (8000454 <display7SEG+0x308>)
 80003de:	f000 ff4f 	bl	8001280 <HAL_GPIO_WritePin>
		HAL_GPIO_WritePin(SEG4_GPIO_Port, SEG4_Pin, GPIO_PIN_RESET);
 80003e2:	2200      	movs	r2, #0
 80003e4:	2110      	movs	r1, #16
 80003e6:	481b      	ldr	r0, [pc, #108]	; (8000454 <display7SEG+0x308>)
 80003e8:	f000 ff4a 	bl	8001280 <HAL_GPIO_WritePin>
		HAL_GPIO_WritePin(SEG5_GPIO_Port, SEG5_Pin, GPIO_PIN_RESET);
 80003ec:	2200      	movs	r2, #0
 80003ee:	2120      	movs	r1, #32
 80003f0:	4818      	ldr	r0, [pc, #96]	; (8000454 <display7SEG+0x308>)
 80003f2:	f000 ff45 	bl	8001280 <HAL_GPIO_WritePin>
		HAL_GPIO_WritePin(SEG6_GPIO_Port, SEG6_Pin, GPIO_PIN_RESET);
 80003f6:	2200      	movs	r2, #0
 80003f8:	2140      	movs	r1, #64	; 0x40
 80003fa:	4816      	ldr	r0, [pc, #88]	; (8000454 <display7SEG+0x308>)
 80003fc:	f000 ff40 	bl	8001280 <HAL_GPIO_WritePin>
	}

	if(num == 9){
 8000400:	687b      	ldr	r3, [r7, #4]
 8000402:	2b09      	cmp	r3, #9
 8000404:	d122      	bne.n	800044c <display7SEG+0x300>
		HAL_GPIO_WritePin(SEG0_GPIO_Port, SEG0_Pin, GPIO_PIN_RESET);
 8000406:	2200      	movs	r2, #0
 8000408:	2101      	movs	r1, #1
 800040a:	4812      	ldr	r0, [pc, #72]	; (8000454 <display7SEG+0x308>)
 800040c:	f000 ff38 	bl	8001280 <HAL_GPIO_WritePin>
		HAL_GPIO_WritePin(SEG1_GPIO_Port, SEG1_Pin, GPIO_PIN_RESET);
 8000410:	2200      	movs	r2, #0
 8000412:	2102      	movs	r1, #2
 8000414:	480f      	ldr	r0, [pc, #60]	; (8000454 <display7SEG+0x308>)
 8000416:	f000 ff33 	bl	8001280 <HAL_GPIO_WritePin>
		HAL_GPIO_WritePin(SEG2_GPIO_Port, SEG2_Pin, GPIO_PIN_RESET);
 800041a:	2200      	movs	r2, #0
 800041c:	2104      	movs	r1, #4
 800041e:	480d      	ldr	r0, [pc, #52]	; (8000454 <display7SEG+0x308>)
 8000420:	f000 ff2e 	bl	8001280 <HAL_GPIO_WritePin>
		HAL_GPIO_WritePin(SEG3_GPIO_Port, SEG3_Pin, GPIO_PIN_RESET);
 8000424:	2200      	movs	r2, #0
 8000426:	2108      	movs	r1, #8
 8000428:	480a      	ldr	r0, [pc, #40]	; (8000454 <display7SEG+0x308>)
 800042a:	f000 ff29 	bl	8001280 <HAL_GPIO_WritePin>
		HAL_GPIO_WritePin(SEG4_GPIO_Port, SEG4_Pin, GPIO_PIN_SET);
 800042e:	2201      	movs	r2, #1
 8000430:	2110      	movs	r1, #16
 8000432:	4808      	ldr	r0, [pc, #32]	; (8000454 <display7SEG+0x308>)
 8000434:	f000 ff24 	bl	8001280 <HAL_GPIO_WritePin>
		HAL_GPIO_WritePin(SEG5_GPIO_Port, SEG5_Pin, GPIO_PIN_RESET);
 8000438:	2200      	movs	r2, #0
 800043a:	2120      	movs	r1, #32
 800043c:	4805      	ldr	r0, [pc, #20]	; (8000454 <display7SEG+0x308>)
 800043e:	f000 ff1f 	bl	8001280 <HAL_GPIO_WritePin>
		HAL_GPIO_WritePin(SEG6_GPIO_Port, SEG6_Pin, GPIO_PIN_RESET);
 8000442:	2200      	movs	r2, #0
 8000444:	2140      	movs	r1, #64	; 0x40
 8000446:	4803      	ldr	r0, [pc, #12]	; (8000454 <display7SEG+0x308>)
 8000448:	f000 ff1a 	bl	8001280 <HAL_GPIO_WritePin>
	}
}
 800044c:	bf00      	nop
 800044e:	3708      	adds	r7, #8
 8000450:	46bd      	mov	sp, r7
 8000452:	bd80      	pop	{r7, pc}
 8000454:	40010c00 	.word	0x40010c00

08000458 <TurnLed>:
 */
#include "fsm_automatic.h"

/* Function to display number on led*/
void TurnLed(int num, int num_to_display)
{
 8000458:	b580      	push	{r7, lr}
 800045a:	b082      	sub	sp, #8
 800045c:	af00      	add	r7, sp, #0
 800045e:	6078      	str	r0, [r7, #4]
 8000460:	6039      	str	r1, [r7, #0]

	switch(num)
 8000462:	687b      	ldr	r3, [r7, #4]
 8000464:	2b03      	cmp	r3, #3
 8000466:	d867      	bhi.n	8000538 <TurnLed+0xe0>
 8000468:	a201      	add	r2, pc, #4	; (adr r2, 8000470 <TurnLed+0x18>)
 800046a:	f852 f023 	ldr.w	pc, [r2, r3, lsl #2]
 800046e:	bf00      	nop
 8000470:	08000481 	.word	0x08000481
 8000474:	080004af 	.word	0x080004af
 8000478:	080004dd 	.word	0x080004dd
 800047c:	0800050b 	.word	0x0800050b
	{
	case 0:
		HAL_GPIO_WritePin(EN0_GPIO_Port, EN0_Pin, GPIO_PIN_RESET);
 8000480:	2200      	movs	r2, #0
 8000482:	2140      	movs	r1, #64	; 0x40
 8000484:	483b      	ldr	r0, [pc, #236]	; (8000574 <TurnLed+0x11c>)
 8000486:	f000 fefb 	bl	8001280 <HAL_GPIO_WritePin>
		HAL_GPIO_WritePin(EN1_GPIO_Port, EN1_Pin, GPIO_PIN_SET);
 800048a:	2201      	movs	r2, #1
 800048c:	2180      	movs	r1, #128	; 0x80
 800048e:	4839      	ldr	r0, [pc, #228]	; (8000574 <TurnLed+0x11c>)
 8000490:	f000 fef6 	bl	8001280 <HAL_GPIO_WritePin>
		HAL_GPIO_WritePin(EN2_GPIO_Port, EN2_Pin, GPIO_PIN_SET);
 8000494:	2201      	movs	r2, #1
 8000496:	f44f 7180 	mov.w	r1, #256	; 0x100
 800049a:	4836      	ldr	r0, [pc, #216]	; (8000574 <TurnLed+0x11c>)
 800049c:	f000 fef0 	bl	8001280 <HAL_GPIO_WritePin>
		HAL_GPIO_WritePin(EN3_GPIO_Port, EN3_Pin, GPIO_PIN_SET);
 80004a0:	2201      	movs	r2, #1
 80004a2:	f44f 7100 	mov.w	r1, #512	; 0x200
 80004a6:	4833      	ldr	r0, [pc, #204]	; (8000574 <TurnLed+0x11c>)
 80004a8:	f000 feea 	bl	8001280 <HAL_GPIO_WritePin>
		break;
 80004ac:	e05b      	b.n	8000566 <TurnLed+0x10e>
	case 1:
		HAL_GPIO_WritePin(EN0_GPIO_Port, EN0_Pin, GPIO_PIN_SET);
 80004ae:	2201      	movs	r2, #1
 80004b0:	2140      	movs	r1, #64	; 0x40
 80004b2:	4830      	ldr	r0, [pc, #192]	; (8000574 <TurnLed+0x11c>)
 80004b4:	f000 fee4 	bl	8001280 <HAL_GPIO_WritePin>
		HAL_GPIO_WritePin(EN1_GPIO_Port, EN1_Pin, GPIO_PIN_RESET);
 80004b8:	2200      	movs	r2, #0
 80004ba:	2180      	movs	r1, #128	; 0x80
 80004bc:	482d      	ldr	r0, [pc, #180]	; (8000574 <TurnLed+0x11c>)
 80004be:	f000 fedf 	bl	8001280 <HAL_GPIO_WritePin>
		HAL_GPIO_WritePin(EN2_GPIO_Port, EN2_Pin, GPIO_PIN_SET);
 80004c2:	2201      	movs	r2, #1
 80004c4:	f44f 7180 	mov.w	r1, #256	; 0x100
 80004c8:	482a      	ldr	r0, [pc, #168]	; (8000574 <TurnLed+0x11c>)
 80004ca:	f000 fed9 	bl	8001280 <HAL_GPIO_WritePin>
		HAL_GPIO_WritePin(EN3_GPIO_Port, EN3_Pin, GPIO_PIN_SET);
 80004ce:	2201      	movs	r2, #1
 80004d0:	f44f 7100 	mov.w	r1, #512	; 0x200
 80004d4:	4827      	ldr	r0, [pc, #156]	; (8000574 <TurnLed+0x11c>)
 80004d6:	f000 fed3 	bl	8001280 <HAL_GPIO_WritePin>
		break;
 80004da:	e044      	b.n	8000566 <TurnLed+0x10e>
	case 2:
		HAL_GPIO_WritePin(EN0_GPIO_Port, EN0_Pin, GPIO_PIN_SET);
 80004dc:	2201      	movs	r2, #1
 80004de:	2140      	movs	r1, #64	; 0x40
 80004e0:	4824      	ldr	r0, [pc, #144]	; (8000574 <TurnLed+0x11c>)
 80004e2:	f000 fecd 	bl	8001280 <HAL_GPIO_WritePin>
		HAL_GPIO_WritePin(EN1_GPIO_Port, EN1_Pin, GPIO_PIN_SET);
 80004e6:	2201      	movs	r2, #1
 80004e8:	2180      	movs	r1, #128	; 0x80
 80004ea:	4822      	ldr	r0, [pc, #136]	; (8000574 <TurnLed+0x11c>)
 80004ec:	f000 fec8 	bl	8001280 <HAL_GPIO_WritePin>
		HAL_GPIO_WritePin(EN2_GPIO_Port, EN2_Pin, GPIO_PIN_RESET);
 80004f0:	2200      	movs	r2, #0
 80004f2:	f44f 7180 	mov.w	r1, #256	; 0x100
 80004f6:	481f      	ldr	r0, [pc, #124]	; (8000574 <TurnLed+0x11c>)
 80004f8:	f000 fec2 	bl	8001280 <HAL_GPIO_WritePin>
		HAL_GPIO_WritePin(EN3_GPIO_Port, EN3_Pin, GPIO_PIN_SET);
 80004fc:	2201      	movs	r2, #1
 80004fe:	f44f 7100 	mov.w	r1, #512	; 0x200
 8000502:	481c      	ldr	r0, [pc, #112]	; (8000574 <TurnLed+0x11c>)
 8000504:	f000 febc 	bl	8001280 <HAL_GPIO_WritePin>
		break;
 8000508:	e02d      	b.n	8000566 <TurnLed+0x10e>
	case 3:
		HAL_GPIO_WritePin(EN0_GPIO_Port, EN0_Pin, GPIO_PIN_SET);
 800050a:	2201      	movs	r2, #1
 800050c:	2140      	movs	r1, #64	; 0x40
 800050e:	4819      	ldr	r0, [pc, #100]	; (8000574 <TurnLed+0x11c>)
 8000510:	f000 feb6 	bl	8001280 <HAL_GPIO_WritePin>
		HAL_GPIO_WritePin(EN1_GPIO_Port, EN1_Pin, GPIO_PIN_SET);
 8000514:	2201      	movs	r2, #1
 8000516:	2180      	movs	r1, #128	; 0x80
 8000518:	4816      	ldr	r0, [pc, #88]	; (8000574 <TurnLed+0x11c>)
 800051a:	f000 feb1 	bl	8001280 <HAL_GPIO_WritePin>
		HAL_GPIO_WritePin(EN2_GPIO_Port, EN2_Pin, GPIO_PIN_SET);
 800051e:	2201      	movs	r2, #1
 8000520:	f44f 7180 	mov.w	r1, #256	; 0x100
 8000524:	4813      	ldr	r0, [pc, #76]	; (8000574 <TurnLed+0x11c>)
 8000526:	f000 feab 	bl	8001280 <HAL_GPIO_WritePin>
		HAL_GPIO_WritePin(EN3_GPIO_Port, EN3_Pin, GPIO_PIN_RESET);
 800052a:	2200      	movs	r2, #0
 800052c:	f44f 7100 	mov.w	r1, #512	; 0x200
 8000530:	4810      	ldr	r0, [pc, #64]	; (8000574 <TurnLed+0x11c>)
 8000532:	f000 fea5 	bl	8001280 <HAL_GPIO_WritePin>
		break;
 8000536:	e016      	b.n	8000566 <TurnLed+0x10e>
	default:
		HAL_GPIO_WritePin(EN0_GPIO_Port, EN0_Pin, GPIO_PIN_SET);
 8000538:	2201      	movs	r2, #1
 800053a:	2140      	movs	r1, #64	; 0x40
 800053c:	480d      	ldr	r0, [pc, #52]	; (8000574 <TurnLed+0x11c>)
 800053e:	f000 fe9f 	bl	8001280 <HAL_GPIO_WritePin>
		HAL_GPIO_WritePin(EN1_GPIO_Port, EN1_Pin, GPIO_PIN_SET);
 8000542:	2201      	movs	r2, #1
 8000544:	2180      	movs	r1, #128	; 0x80
 8000546:	480b      	ldr	r0, [pc, #44]	; (8000574 <TurnLed+0x11c>)
 8000548:	f000 fe9a 	bl	8001280 <HAL_GPIO_WritePin>
		HAL_GPIO_WritePin(EN2_GPIO_Port, EN2_Pin, GPIO_PIN_SET);
 800054c:	2201      	movs	r2, #1
 800054e:	f44f 7180 	mov.w	r1, #256	; 0x100
 8000552:	4808      	ldr	r0, [pc, #32]	; (8000574 <TurnLed+0x11c>)
 8000554:	f000 fe94 	bl	8001280 <HAL_GPIO_WritePin>
		HAL_GPIO_WritePin(EN3_GPIO_Port, EN3_Pin, GPIO_PIN_SET);
 8000558:	2201      	movs	r2, #1
 800055a:	f44f 7100 	mov.w	r1, #512	; 0x200
 800055e:	4805      	ldr	r0, [pc, #20]	; (8000574 <TurnLed+0x11c>)
 8000560:	f000 fe8e 	bl	8001280 <HAL_GPIO_WritePin>
		break;
 8000564:	bf00      	nop
	}
	display7SEG(num_to_display);
 8000566:	6838      	ldr	r0, [r7, #0]
 8000568:	f7ff fdf0 	bl	800014c <display7SEG>
}
 800056c:	bf00      	nop
 800056e:	3708      	adds	r7, #8
 8000570:	46bd      	mov	sp, r7
 8000572:	bd80      	pop	{r7, pc}
 8000574:	40010800 	.word	0x40010800

08000578 <DisplayNumber>:

/* Function to get number and display them on led*/
void DisplayNumber(int LedOrder)
{
 8000578:	b580      	push	{r7, lr}
 800057a:	b084      	sub	sp, #16
 800057c:	af00      	add	r7, sp, #0
 800057e:	6078      	str	r0, [r7, #4]
	unsigned char* number_to_display = (unsigned char*) malloc(sizeof(unsigned char) * 4);
 8000580:	2004      	movs	r0, #4
 8000582:	f001 fe85 	bl	8002290 <malloc>
 8000586:	4603      	mov	r3, r0
 8000588:	60fb      	str	r3, [r7, #12]
	number_to_display[0] = NUM_0;
 800058a:	68fb      	ldr	r3, [r7, #12]
 800058c:	2201      	movs	r2, #1
 800058e:	701a      	strb	r2, [r3, #0]
	number_to_display[1] = NUM_1;
 8000590:	68fb      	ldr	r3, [r7, #12]
 8000592:	3301      	adds	r3, #1
 8000594:	2202      	movs	r2, #2
 8000596:	701a      	strb	r2, [r3, #0]
	number_to_display[2] = NUM_2;
 8000598:	68fb      	ldr	r3, [r7, #12]
 800059a:	3302      	adds	r3, #2
 800059c:	2203      	movs	r2, #3
 800059e:	701a      	strb	r2, [r3, #0]
	number_to_display[3] = NUM_3;
 80005a0:	68fb      	ldr	r3, [r7, #12]
 80005a2:	3303      	adds	r3, #3
 80005a4:	2200      	movs	r2, #0
 80005a6:	701a      	strb	r2, [r3, #0]
	TurnLed(LedOrder, number_to_display[LedOrder]);
 80005a8:	687b      	ldr	r3, [r7, #4]
 80005aa:	68fa      	ldr	r2, [r7, #12]
 80005ac:	4413      	add	r3, r2
 80005ae:	781b      	ldrb	r3, [r3, #0]
 80005b0:	4619      	mov	r1, r3
 80005b2:	6878      	ldr	r0, [r7, #4]
 80005b4:	f7ff ff50 	bl	8000458 <TurnLed>
	free(number_to_display);
 80005b8:	68f8      	ldr	r0, [r7, #12]
 80005ba:	f001 fe71 	bl	80022a0 <free>
}
 80005be:	bf00      	nop
 80005c0:	3710      	adds	r7, #16
 80005c2:	46bd      	mov	sp, r7
 80005c4:	bd80      	pop	{r7, pc}
	...

080005c8 <fsm_automatic_run>:

/* Function to turn each 7-segment led*/
void fsm_automatic_run(void)
{
 80005c8:	b580      	push	{r7, lr}
 80005ca:	af00      	add	r7, sp, #0
	switch(scan_led_status)
 80005cc:	4b31      	ldr	r3, [pc, #196]	; (8000694 <fsm_automatic_run+0xcc>)
 80005ce:	781b      	ldrb	r3, [r3, #0]
 80005d0:	2b04      	cmp	r3, #4
 80005d2:	d854      	bhi.n	800067e <fsm_automatic_run+0xb6>
 80005d4:	a201      	add	r2, pc, #4	; (adr r2, 80005dc <fsm_automatic_run+0x14>)
 80005d6:	f852 f023 	ldr.w	pc, [r2, r3, lsl #2]
 80005da:	bf00      	nop
 80005dc:	080005f1 	.word	0x080005f1
 80005e0:	08000607 	.word	0x08000607
 80005e4:	08000625 	.word	0x08000625
 80005e8:	08000643 	.word	0x08000643
 80005ec:	08000661 	.word	0x08000661
	{
	case INIT:
//		TurnLed(6, 0); /* Turn off all led*/
		DisplayNumber(0);
 80005f0:	2000      	movs	r0, #0
 80005f2:	f7ff ffc1 	bl	8000578 <DisplayNumber>
		scan_led_status = LED0;
 80005f6:	4b27      	ldr	r3, [pc, #156]	; (8000694 <fsm_automatic_run+0xcc>)
 80005f8:	2201      	movs	r2, #1
 80005fa:	701a      	strb	r2, [r3, #0]
		setTimer2(ON_TIME);
 80005fc:	f44f 70fa 	mov.w	r0, #500	; 0x1f4
 8000600:	f000 f9fe 	bl	8000a00 <setTimer2>
		break;
 8000604:	e044      	b.n	8000690 <fsm_automatic_run+0xc8>
	case LED0:
		DisplayNumber(0);
 8000606:	2000      	movs	r0, #0
 8000608:	f7ff ffb6 	bl	8000578 <DisplayNumber>
//		TurnLed(0, num_to_display[0]); /* Turn on LED 0*/
		if(timer2_flag == 1)
 800060c:	4b22      	ldr	r3, [pc, #136]	; (8000698 <fsm_automatic_run+0xd0>)
 800060e:	681b      	ldr	r3, [r3, #0]
 8000610:	2b01      	cmp	r3, #1
 8000612:	d136      	bne.n	8000682 <fsm_automatic_run+0xba>
		{
			setTimer2(ON_TIME);
 8000614:	f44f 70fa 	mov.w	r0, #500	; 0x1f4
 8000618:	f000 f9f2 	bl	8000a00 <setTimer2>
			scan_led_status = LED1;
 800061c:	4b1d      	ldr	r3, [pc, #116]	; (8000694 <fsm_automatic_run+0xcc>)
 800061e:	2202      	movs	r2, #2
 8000620:	701a      	strb	r2, [r3, #0]
		}
		break;
 8000622:	e02e      	b.n	8000682 <fsm_automatic_run+0xba>
	case LED1:
		DisplayNumber(1);
 8000624:	2001      	movs	r0, #1
 8000626:	f7ff ffa7 	bl	8000578 <DisplayNumber>
//		TurnLed(1, num_to_display[1]); /* Turn on LED 0*/
		if(timer2_flag == 1)
 800062a:	4b1b      	ldr	r3, [pc, #108]	; (8000698 <fsm_automatic_run+0xd0>)
 800062c:	681b      	ldr	r3, [r3, #0]
 800062e:	2b01      	cmp	r3, #1
 8000630:	d129      	bne.n	8000686 <fsm_automatic_run+0xbe>
		{
			setTimer2(ON_TIME);
 8000632:	f44f 70fa 	mov.w	r0, #500	; 0x1f4
 8000636:	f000 f9e3 	bl	8000a00 <setTimer2>
			scan_led_status = LED2;
 800063a:	4b16      	ldr	r3, [pc, #88]	; (8000694 <fsm_automatic_run+0xcc>)
 800063c:	2203      	movs	r2, #3
 800063e:	701a      	strb	r2, [r3, #0]
		}
		break;
 8000640:	e021      	b.n	8000686 <fsm_automatic_run+0xbe>
	case LED2:
		DisplayNumber(2);
 8000642:	2002      	movs	r0, #2
 8000644:	f7ff ff98 	bl	8000578 <DisplayNumber>
//		TurnLed(2, num_to_display[2]); /* Turn on LED 0*/
		if(timer2_flag == 1)
 8000648:	4b13      	ldr	r3, [pc, #76]	; (8000698 <fsm_automatic_run+0xd0>)
 800064a:	681b      	ldr	r3, [r3, #0]
 800064c:	2b01      	cmp	r3, #1
 800064e:	d11c      	bne.n	800068a <fsm_automatic_run+0xc2>
		{
			setTimer2(ON_TIME);
 8000650:	f44f 70fa 	mov.w	r0, #500	; 0x1f4
 8000654:	f000 f9d4 	bl	8000a00 <setTimer2>
			scan_led_status = LED3;
 8000658:	4b0e      	ldr	r3, [pc, #56]	; (8000694 <fsm_automatic_run+0xcc>)
 800065a:	2204      	movs	r2, #4
 800065c:	701a      	strb	r2, [r3, #0]
		}
		break;
 800065e:	e014      	b.n	800068a <fsm_automatic_run+0xc2>
	case LED3:
		DisplayNumber(3);
 8000660:	2003      	movs	r0, #3
 8000662:	f7ff ff89 	bl	8000578 <DisplayNumber>
//		TurnLed(3, num_to_display[3]); /* Turn on LED 0*/
		if(timer2_flag == 1)
 8000666:	4b0c      	ldr	r3, [pc, #48]	; (8000698 <fsm_automatic_run+0xd0>)
 8000668:	681b      	ldr	r3, [r3, #0]
 800066a:	2b01      	cmp	r3, #1
 800066c:	d10f      	bne.n	800068e <fsm_automatic_run+0xc6>
		{
			setTimer2(ON_TIME);
 800066e:	f44f 70fa 	mov.w	r0, #500	; 0x1f4
 8000672:	f000 f9c5 	bl	8000a00 <setTimer2>
			scan_led_status = LED0;
 8000676:	4b07      	ldr	r3, [pc, #28]	; (8000694 <fsm_automatic_run+0xcc>)
 8000678:	2201      	movs	r2, #1
 800067a:	701a      	strb	r2, [r3, #0]
		}
		break;
 800067c:	e007      	b.n	800068e <fsm_automatic_run+0xc6>
	default:
		break;
 800067e:	bf00      	nop
 8000680:	e006      	b.n	8000690 <fsm_automatic_run+0xc8>
		break;
 8000682:	bf00      	nop
 8000684:	e004      	b.n	8000690 <fsm_automatic_run+0xc8>
		break;
 8000686:	bf00      	nop
 8000688:	e002      	b.n	8000690 <fsm_automatic_run+0xc8>
		break;
 800068a:	bf00      	nop
 800068c:	e000      	b.n	8000690 <fsm_automatic_run+0xc8>
		break;
 800068e:	bf00      	nop
	}
}
 8000690:	bf00      	nop
 8000692:	bd80      	pop	{r7, pc}
 8000694:	2000008c 	.word	0x2000008c
 8000698:	200000e4 	.word	0x200000e4

0800069c <blink_led>:

/* Function to blink led red*/
void blink_led(void)
{
 800069c:	b580      	push	{r7, lr}
 800069e:	af00      	add	r7, sp, #0
	switch(blink_status)
 80006a0:	4b20      	ldr	r3, [pc, #128]	; (8000724 <blink_led+0x88>)
 80006a2:	781b      	ldrb	r3, [r3, #0]
 80006a4:	2b02      	cmp	r3, #2
 80006a6:	d024      	beq.n	80006f2 <blink_led+0x56>
 80006a8:	2b02      	cmp	r3, #2
 80006aa:	dc33      	bgt.n	8000714 <blink_led+0x78>
 80006ac:	2b00      	cmp	r3, #0
 80006ae:	d002      	beq.n	80006b6 <blink_led+0x1a>
 80006b0:	2b01      	cmp	r3, #1
 80006b2:	d00d      	beq.n	80006d0 <blink_led+0x34>
			setTimer1(BLINK_ON_TIME);
			blink_status = BLINK_ON;
		}
		break;
	default:
		break;
 80006b4:	e02e      	b.n	8000714 <blink_led+0x78>
		HAL_GPIO_WritePin(LED_RED_GPIO_Port, LED_RED_Pin, GPIO_PIN_SET); /* Turn off led red*/
 80006b6:	2201      	movs	r2, #1
 80006b8:	2120      	movs	r1, #32
 80006ba:	481b      	ldr	r0, [pc, #108]	; (8000728 <blink_led+0x8c>)
 80006bc:	f000 fde0 	bl	8001280 <HAL_GPIO_WritePin>
		blink_status = BLINK_ON;
 80006c0:	4b18      	ldr	r3, [pc, #96]	; (8000724 <blink_led+0x88>)
 80006c2:	2201      	movs	r2, #1
 80006c4:	701a      	strb	r2, [r3, #0]
		setTimer1(BLINK_ON_TIME);
 80006c6:	f44f 70fa 	mov.w	r0, #500	; 0x1f4
 80006ca:	f000 f97d 	bl	80009c8 <setTimer1>
		break;
 80006ce:	e026      	b.n	800071e <blink_led+0x82>
		HAL_GPIO_WritePin(LED_RED_GPIO_Port, LED_RED_Pin, GPIO_PIN_RESET);
 80006d0:	2200      	movs	r2, #0
 80006d2:	2120      	movs	r1, #32
 80006d4:	4814      	ldr	r0, [pc, #80]	; (8000728 <blink_led+0x8c>)
 80006d6:	f000 fdd3 	bl	8001280 <HAL_GPIO_WritePin>
		if(timer1_flag == 1)
 80006da:	4b14      	ldr	r3, [pc, #80]	; (800072c <blink_led+0x90>)
 80006dc:	681b      	ldr	r3, [r3, #0]
 80006de:	2b01      	cmp	r3, #1
 80006e0:	d11a      	bne.n	8000718 <blink_led+0x7c>
			setTimer1(BLINK_OFF_TIME);
 80006e2:	f44f 70fa 	mov.w	r0, #500	; 0x1f4
 80006e6:	f000 f96f 	bl	80009c8 <setTimer1>
			blink_status = BLINK_OFF;
 80006ea:	4b0e      	ldr	r3, [pc, #56]	; (8000724 <blink_led+0x88>)
 80006ec:	2202      	movs	r2, #2
 80006ee:	701a      	strb	r2, [r3, #0]
		break;
 80006f0:	e012      	b.n	8000718 <blink_led+0x7c>
		HAL_GPIO_WritePin(LED_RED_GPIO_Port, LED_RED_Pin, GPIO_PIN_SET);
 80006f2:	2201      	movs	r2, #1
 80006f4:	2120      	movs	r1, #32
 80006f6:	480c      	ldr	r0, [pc, #48]	; (8000728 <blink_led+0x8c>)
 80006f8:	f000 fdc2 	bl	8001280 <HAL_GPIO_WritePin>
		if(timer1_flag == 1)
 80006fc:	4b0b      	ldr	r3, [pc, #44]	; (800072c <blink_led+0x90>)
 80006fe:	681b      	ldr	r3, [r3, #0]
 8000700:	2b01      	cmp	r3, #1
 8000702:	d10b      	bne.n	800071c <blink_led+0x80>
			setTimer1(BLINK_ON_TIME);
 8000704:	f44f 70fa 	mov.w	r0, #500	; 0x1f4
 8000708:	f000 f95e 	bl	80009c8 <setTimer1>
			blink_status = BLINK_ON;
 800070c:	4b05      	ldr	r3, [pc, #20]	; (8000724 <blink_led+0x88>)
 800070e:	2201      	movs	r2, #1
 8000710:	701a      	strb	r2, [r3, #0]
		break;
 8000712:	e003      	b.n	800071c <blink_led+0x80>
		break;
 8000714:	bf00      	nop
 8000716:	e002      	b.n	800071e <blink_led+0x82>
		break;
 8000718:	bf00      	nop
 800071a:	e000      	b.n	800071e <blink_led+0x82>
		break;
 800071c:	bf00      	nop
	}
}
 800071e:	bf00      	nop
 8000720:	bd80      	pop	{r7, pc}
 8000722:	bf00      	nop
 8000724:	2000008d 	.word	0x2000008d
 8000728:	40010800 	.word	0x40010800
 800072c:	200000dc 	.word	0x200000dc

08000730 <blink_dot>:

/* Function to blink dot*/
void blink_dot(void)
{
 8000730:	b580      	push	{r7, lr}
 8000732:	af00      	add	r7, sp, #0
	switch(blink_dot_status)
 8000734:	4b20      	ldr	r3, [pc, #128]	; (80007b8 <blink_dot+0x88>)
 8000736:	781b      	ldrb	r3, [r3, #0]
 8000738:	2b02      	cmp	r3, #2
 800073a:	d024      	beq.n	8000786 <blink_dot+0x56>
 800073c:	2b02      	cmp	r3, #2
 800073e:	dc33      	bgt.n	80007a8 <blink_dot+0x78>
 8000740:	2b00      	cmp	r3, #0
 8000742:	d002      	beq.n	800074a <blink_dot+0x1a>
 8000744:	2b01      	cmp	r3, #1
 8000746:	d00d      	beq.n	8000764 <blink_dot+0x34>
			setTimer3(DOT_ON_TIME);
			blink_dot_status = DOT_ON;
		}
		break;
	default:
		break;
 8000748:	e02e      	b.n	80007a8 <blink_dot+0x78>
		HAL_GPIO_WritePin(DOT_GPIO_Port, DOT_Pin, GPIO_PIN_SET);
 800074a:	2201      	movs	r2, #1
 800074c:	2110      	movs	r1, #16
 800074e:	481b      	ldr	r0, [pc, #108]	; (80007bc <blink_dot+0x8c>)
 8000750:	f000 fd96 	bl	8001280 <HAL_GPIO_WritePin>
		blink_dot_status = DOT_ON;
 8000754:	4b18      	ldr	r3, [pc, #96]	; (80007b8 <blink_dot+0x88>)
 8000756:	2201      	movs	r2, #1
 8000758:	701a      	strb	r2, [r3, #0]
		setTimer3(DOT_ON_TIME);
 800075a:	f44f 707a 	mov.w	r0, #1000	; 0x3e8
 800075e:	f000 f96b 	bl	8000a38 <setTimer3>
		break;
 8000762:	e026      	b.n	80007b2 <blink_dot+0x82>
		HAL_GPIO_WritePin(DOT_GPIO_Port, DOT_Pin, GPIO_PIN_RESET);
 8000764:	2200      	movs	r2, #0
 8000766:	2110      	movs	r1, #16
 8000768:	4814      	ldr	r0, [pc, #80]	; (80007bc <blink_dot+0x8c>)
 800076a:	f000 fd89 	bl	8001280 <HAL_GPIO_WritePin>
		if(timer3_flag == 1)
 800076e:	4b14      	ldr	r3, [pc, #80]	; (80007c0 <blink_dot+0x90>)
 8000770:	681b      	ldr	r3, [r3, #0]
 8000772:	2b01      	cmp	r3, #1
 8000774:	d11a      	bne.n	80007ac <blink_dot+0x7c>
			setTimer3(DOT_OFF_TIME);
 8000776:	f44f 707a 	mov.w	r0, #1000	; 0x3e8
 800077a:	f000 f95d 	bl	8000a38 <setTimer3>
			blink_dot_status = DOT_OFF;
 800077e:	4b0e      	ldr	r3, [pc, #56]	; (80007b8 <blink_dot+0x88>)
 8000780:	2202      	movs	r2, #2
 8000782:	701a      	strb	r2, [r3, #0]
		break;
 8000784:	e012      	b.n	80007ac <blink_dot+0x7c>
		HAL_GPIO_WritePin(DOT_GPIO_Port, DOT_Pin, GPIO_PIN_SET);
 8000786:	2201      	movs	r2, #1
 8000788:	2110      	movs	r1, #16
 800078a:	480c      	ldr	r0, [pc, #48]	; (80007bc <blink_dot+0x8c>)
 800078c:	f000 fd78 	bl	8001280 <HAL_GPIO_WritePin>
		if(timer3_flag == 1)
 8000790:	4b0b      	ldr	r3, [pc, #44]	; (80007c0 <blink_dot+0x90>)
 8000792:	681b      	ldr	r3, [r3, #0]
 8000794:	2b01      	cmp	r3, #1
 8000796:	d10b      	bne.n	80007b0 <blink_dot+0x80>
			setTimer3(DOT_ON_TIME);
 8000798:	f44f 707a 	mov.w	r0, #1000	; 0x3e8
 800079c:	f000 f94c 	bl	8000a38 <setTimer3>
			blink_dot_status = DOT_ON;
 80007a0:	4b05      	ldr	r3, [pc, #20]	; (80007b8 <blink_dot+0x88>)
 80007a2:	2201      	movs	r2, #1
 80007a4:	701a      	strb	r2, [r3, #0]
		break;
 80007a6:	e003      	b.n	80007b0 <blink_dot+0x80>
		break;
 80007a8:	bf00      	nop
 80007aa:	e002      	b.n	80007b2 <blink_dot+0x82>
		break;
 80007ac:	bf00      	nop
 80007ae:	e000      	b.n	80007b2 <blink_dot+0x82>
		break;
 80007b0:	bf00      	nop

	}
}
 80007b2:	bf00      	nop
 80007b4:	bd80      	pop	{r7, pc}
 80007b6:	bf00      	nop
 80007b8:	2000008e 	.word	0x2000008e
 80007bc:	40010800 	.word	0x40010800
 80007c0:	200000ec 	.word	0x200000ec

080007c4 <main>:
/**
  * @brief  The application entry point.
  * @retval int
  */
int main(void)
{
 80007c4:	b580      	push	{r7, lr}
 80007c6:	af00      	add	r7, sp, #0
  /* USER CODE END 1 */

  /* MCU Configuration--------------------------------------------------------*/

  /* Reset of all peripherals, Initializes the Flash interface and the Systick. */
  HAL_Init();
 80007c8:	f000 fa6e 	bl	8000ca8 <HAL_Init>
  /* USER CODE BEGIN Init */

  /* USER CODE END Init */

  /* Configure the system clock */
  SystemClock_Config();
 80007cc:	f000 f810 	bl	80007f0 <SystemClock_Config>
  /* USER CODE BEGIN SysInit */

  /* USER CODE END SysInit */

  /* Initialize all configured peripherals */
  MX_GPIO_Init();
 80007d0:	f000 f896 	bl	8000900 <MX_GPIO_Init>
  MX_TIM2_Init();
 80007d4:	f000 f848 	bl	8000868 <MX_TIM2_Init>
  /* USER CODE BEGIN 2 */
  HAL_TIM_Base_Start_IT(& htim2); /*function to initialize the timer*/
 80007d8:	4804      	ldr	r0, [pc, #16]	; (80007ec <main+0x28>)
 80007da:	f001 f997 	bl	8001b0c <HAL_TIM_Base_Start_IT>
  /* Infinite loop */
  /* USER CODE BEGIN WHILE */

  while (1)
  {
	  blink_led();
 80007de:	f7ff ff5d 	bl	800069c <blink_led>
	  fsm_automatic_run();
 80007e2:	f7ff fef1 	bl	80005c8 <fsm_automatic_run>
	  blink_dot();
 80007e6:	f7ff ffa3 	bl	8000730 <blink_dot>
	  blink_led();
 80007ea:	e7f8      	b.n	80007de <main+0x1a>
 80007ec:	20000090 	.word	0x20000090

080007f0 <SystemClock_Config>:
/**
  * @brief System Clock Configuration
  * @retval None
  */
void SystemClock_Config(void)
{
 80007f0:	b580      	push	{r7, lr}
 80007f2:	b090      	sub	sp, #64	; 0x40
 80007f4:	af00      	add	r7, sp, #0
  RCC_OscInitTypeDef RCC_OscInitStruct = {0};
 80007f6:	f107 0318 	add.w	r3, r7, #24
 80007fa:	2228      	movs	r2, #40	; 0x28
 80007fc:	2100      	movs	r1, #0
 80007fe:	4618      	mov	r0, r3
 8000800:	f001 fd56 	bl	80022b0 <memset>
  RCC_ClkInitTypeDef RCC_ClkInitStruct = {0};
 8000804:	1d3b      	adds	r3, r7, #4
 8000806:	2200      	movs	r2, #0
 8000808:	601a      	str	r2, [r3, #0]
 800080a:	605a      	str	r2, [r3, #4]
 800080c:	609a      	str	r2, [r3, #8]
 800080e:	60da      	str	r2, [r3, #12]
 8000810:	611a      	str	r2, [r3, #16]

  /** Initializes the RCC Oscillators according to the specified parameters
  * in the RCC_OscInitTypeDef structure.
  */
  RCC_OscInitStruct.OscillatorType = RCC_OSCILLATORTYPE_HSI;
 8000812:	2302      	movs	r3, #2
 8000814:	61bb      	str	r3, [r7, #24]
  RCC_OscInitStruct.HSIState = RCC_HSI_ON;
 8000816:	2301      	movs	r3, #1
 8000818:	62bb      	str	r3, [r7, #40]	; 0x28
  RCC_OscInitStruct.HSICalibrationValue = RCC_HSICALIBRATION_DEFAULT;
 800081a:	2310      	movs	r3, #16
 800081c:	62fb      	str	r3, [r7, #44]	; 0x2c
  RCC_OscInitStruct.PLL.PLLState = RCC_PLL_NONE;
 800081e:	2300      	movs	r3, #0
 8000820:	637b      	str	r3, [r7, #52]	; 0x34
  if (HAL_RCC_OscConfig(&RCC_OscInitStruct) != HAL_OK)
 8000822:	f107 0318 	add.w	r3, r7, #24
 8000826:	4618      	mov	r0, r3
 8000828:	f000 fd42 	bl	80012b0 <HAL_RCC_OscConfig>
 800082c:	4603      	mov	r3, r0
 800082e:	2b00      	cmp	r3, #0
 8000830:	d001      	beq.n	8000836 <SystemClock_Config+0x46>
  {
    Error_Handler();
 8000832:	f000 f8c3 	bl	80009bc <Error_Handler>
  }

  /** Initializes the CPU, AHB and APB buses clocks
  */
  RCC_ClkInitStruct.ClockType = RCC_CLOCKTYPE_HCLK|RCC_CLOCKTYPE_SYSCLK
 8000836:	230f      	movs	r3, #15
 8000838:	607b      	str	r3, [r7, #4]
                              |RCC_CLOCKTYPE_PCLK1|RCC_CLOCKTYPE_PCLK2;
  RCC_ClkInitStruct.SYSCLKSource = RCC_SYSCLKSOURCE_HSI;
 800083a:	2300      	movs	r3, #0
 800083c:	60bb      	str	r3, [r7, #8]
  RCC_ClkInitStruct.AHBCLKDivider = RCC_SYSCLK_DIV1;
 800083e:	2300      	movs	r3, #0
 8000840:	60fb      	str	r3, [r7, #12]
  RCC_ClkInitStruct.APB1CLKDivider = RCC_HCLK_DIV1;
 8000842:	2300      	movs	r3, #0
 8000844:	613b      	str	r3, [r7, #16]
  RCC_ClkInitStruct.APB2CLKDivider = RCC_HCLK_DIV1;
 8000846:	2300      	movs	r3, #0
 8000848:	617b      	str	r3, [r7, #20]

  if (HAL_RCC_ClockConfig(&RCC_ClkInitStruct, FLASH_LATENCY_0) != HAL_OK)
 800084a:	1d3b      	adds	r3, r7, #4
 800084c:	2100      	movs	r1, #0
 800084e:	4618      	mov	r0, r3
 8000850:	f000 ffb0 	bl	80017b4 <HAL_RCC_ClockConfig>
 8000854:	4603      	mov	r3, r0
 8000856:	2b00      	cmp	r3, #0
 8000858:	d001      	beq.n	800085e <SystemClock_Config+0x6e>
  {
    Error_Handler();
 800085a:	f000 f8af 	bl	80009bc <Error_Handler>
  }
}
 800085e:	bf00      	nop
 8000860:	3740      	adds	r7, #64	; 0x40
 8000862:	46bd      	mov	sp, r7
 8000864:	bd80      	pop	{r7, pc}
	...

08000868 <MX_TIM2_Init>:
  * @brief TIM2 Initialization Function
  * @param None
  * @retval None
  */
static void MX_TIM2_Init(void)
{
 8000868:	b580      	push	{r7, lr}
 800086a:	b086      	sub	sp, #24
 800086c:	af00      	add	r7, sp, #0

  /* USER CODE BEGIN TIM2_Init 0 */

  /* USER CODE END TIM2_Init 0 */

  TIM_ClockConfigTypeDef sClockSourceConfig = {0};
 800086e:	f107 0308 	add.w	r3, r7, #8
 8000872:	2200      	movs	r2, #0
 8000874:	601a      	str	r2, [r3, #0]
 8000876:	605a      	str	r2, [r3, #4]
 8000878:	609a      	str	r2, [r3, #8]
 800087a:	60da      	str	r2, [r3, #12]
  TIM_MasterConfigTypeDef sMasterConfig = {0};
 800087c:	463b      	mov	r3, r7
 800087e:	2200      	movs	r2, #0
 8000880:	601a      	str	r2, [r3, #0]
 8000882:	605a      	str	r2, [r3, #4]

  /* USER CODE BEGIN TIM2_Init 1 */

  /* USER CODE END TIM2_Init 1 */
  htim2.Instance = TIM2;
 8000884:	4b1d      	ldr	r3, [pc, #116]	; (80008fc <MX_TIM2_Init+0x94>)
 8000886:	f04f 4280 	mov.w	r2, #1073741824	; 0x40000000
 800088a:	601a      	str	r2, [r3, #0]
  htim2.Init.Prescaler = 7999;
 800088c:	4b1b      	ldr	r3, [pc, #108]	; (80008fc <MX_TIM2_Init+0x94>)
 800088e:	f641 723f 	movw	r2, #7999	; 0x1f3f
 8000892:	605a      	str	r2, [r3, #4]
  htim2.Init.CounterMode = TIM_COUNTERMODE_UP;
 8000894:	4b19      	ldr	r3, [pc, #100]	; (80008fc <MX_TIM2_Init+0x94>)
 8000896:	2200      	movs	r2, #0
 8000898:	609a      	str	r2, [r3, #8]
  htim2.Init.Period = 9;
 800089a:	4b18      	ldr	r3, [pc, #96]	; (80008fc <MX_TIM2_Init+0x94>)
 800089c:	2209      	movs	r2, #9
 800089e:	60da      	str	r2, [r3, #12]
  htim2.Init.ClockDivision = TIM_CLOCKDIVISION_DIV1;
 80008a0:	4b16      	ldr	r3, [pc, #88]	; (80008fc <MX_TIM2_Init+0x94>)
 80008a2:	2200      	movs	r2, #0
 80008a4:	611a      	str	r2, [r3, #16]
  htim2.Init.AutoReloadPreload = TIM_AUTORELOAD_PRELOAD_DISABLE;
 80008a6:	4b15      	ldr	r3, [pc, #84]	; (80008fc <MX_TIM2_Init+0x94>)
 80008a8:	2200      	movs	r2, #0
 80008aa:	619a      	str	r2, [r3, #24]
  if (HAL_TIM_Base_Init(&htim2) != HAL_OK)
 80008ac:	4813      	ldr	r0, [pc, #76]	; (80008fc <MX_TIM2_Init+0x94>)
 80008ae:	f001 f8dd 	bl	8001a6c <HAL_TIM_Base_Init>
 80008b2:	4603      	mov	r3, r0
 80008b4:	2b00      	cmp	r3, #0
 80008b6:	d001      	beq.n	80008bc <MX_TIM2_Init+0x54>
  {
    Error_Handler();
 80008b8:	f000 f880 	bl	80009bc <Error_Handler>
  }
  sClockSourceConfig.ClockSource = TIM_CLOCKSOURCE_INTERNAL;
 80008bc:	f44f 5380 	mov.w	r3, #4096	; 0x1000
 80008c0:	60bb      	str	r3, [r7, #8]
  if (HAL_TIM_ConfigClockSource(&htim2, &sClockSourceConfig) != HAL_OK)
 80008c2:	f107 0308 	add.w	r3, r7, #8
 80008c6:	4619      	mov	r1, r3
 80008c8:	480c      	ldr	r0, [pc, #48]	; (80008fc <MX_TIM2_Init+0x94>)
 80008ca:	f001 fa73 	bl	8001db4 <HAL_TIM_ConfigClockSource>
 80008ce:	4603      	mov	r3, r0
 80008d0:	2b00      	cmp	r3, #0
 80008d2:	d001      	beq.n	80008d8 <MX_TIM2_Init+0x70>
  {
    Error_Handler();
 80008d4:	f000 f872 	bl	80009bc <Error_Handler>
  }
  sMasterConfig.MasterOutputTrigger = TIM_TRGO_RESET;
 80008d8:	2300      	movs	r3, #0
 80008da:	603b      	str	r3, [r7, #0]
  sMasterConfig.MasterSlaveMode = TIM_MASTERSLAVEMODE_DISABLE;
 80008dc:	2300      	movs	r3, #0
 80008de:	607b      	str	r3, [r7, #4]
  if (HAL_TIMEx_MasterConfigSynchronization(&htim2, &sMasterConfig) != HAL_OK)
 80008e0:	463b      	mov	r3, r7
 80008e2:	4619      	mov	r1, r3
 80008e4:	4805      	ldr	r0, [pc, #20]	; (80008fc <MX_TIM2_Init+0x94>)
 80008e6:	f001 fc3f 	bl	8002168 <HAL_TIMEx_MasterConfigSynchronization>
 80008ea:	4603      	mov	r3, r0
 80008ec:	2b00      	cmp	r3, #0
 80008ee:	d001      	beq.n	80008f4 <MX_TIM2_Init+0x8c>
  {
    Error_Handler();
 80008f0:	f000 f864 	bl	80009bc <Error_Handler>
  }
  /* USER CODE BEGIN TIM2_Init 2 */

  /* USER CODE END TIM2_Init 2 */

}
 80008f4:	bf00      	nop
 80008f6:	3718      	adds	r7, #24
 80008f8:	46bd      	mov	sp, r7
 80008fa:	bd80      	pop	{r7, pc}
 80008fc:	20000090 	.word	0x20000090

08000900 <MX_GPIO_Init>:
  * @brief GPIO Initialization Function
  * @param None
  * @retval None
  */
static void MX_GPIO_Init(void)
{
 8000900:	b580      	push	{r7, lr}
 8000902:	b086      	sub	sp, #24
 8000904:	af00      	add	r7, sp, #0
  GPIO_InitTypeDef GPIO_InitStruct = {0};
 8000906:	f107 0308 	add.w	r3, r7, #8
 800090a:	2200      	movs	r2, #0
 800090c:	601a      	str	r2, [r3, #0]
 800090e:	605a      	str	r2, [r3, #4]
 8000910:	609a      	str	r2, [r3, #8]
 8000912:	60da      	str	r2, [r3, #12]
/* USER CODE BEGIN MX_GPIO_Init_1 */
/* USER CODE END MX_GPIO_Init_1 */

  /* GPIO Ports Clock Enable */
  __HAL_RCC_GPIOA_CLK_ENABLE();
 8000914:	4b21      	ldr	r3, [pc, #132]	; (800099c <MX_GPIO_Init+0x9c>)
 8000916:	699b      	ldr	r3, [r3, #24]
 8000918:	4a20      	ldr	r2, [pc, #128]	; (800099c <MX_GPIO_Init+0x9c>)
 800091a:	f043 0304 	orr.w	r3, r3, #4
 800091e:	6193      	str	r3, [r2, #24]
 8000920:	4b1e      	ldr	r3, [pc, #120]	; (800099c <MX_GPIO_Init+0x9c>)
 8000922:	699b      	ldr	r3, [r3, #24]
 8000924:	f003 0304 	and.w	r3, r3, #4
 8000928:	607b      	str	r3, [r7, #4]
 800092a:	687b      	ldr	r3, [r7, #4]
  __HAL_RCC_GPIOB_CLK_ENABLE();
 800092c:	4b1b      	ldr	r3, [pc, #108]	; (800099c <MX_GPIO_Init+0x9c>)
 800092e:	699b      	ldr	r3, [r3, #24]
 8000930:	4a1a      	ldr	r2, [pc, #104]	; (800099c <MX_GPIO_Init+0x9c>)
 8000932:	f043 0308 	orr.w	r3, r3, #8
 8000936:	6193      	str	r3, [r2, #24]
 8000938:	4b18      	ldr	r3, [pc, #96]	; (800099c <MX_GPIO_Init+0x9c>)
 800093a:	699b      	ldr	r3, [r3, #24]
 800093c:	f003 0308 	and.w	r3, r3, #8
 8000940:	603b      	str	r3, [r7, #0]
 8000942:	683b      	ldr	r3, [r7, #0]

  /*Configure GPIO pin Output Level */
  HAL_GPIO_WritePin(GPIOA, DOT_Pin|LED_RED_Pin|EN0_Pin|EN1_Pin
 8000944:	2200      	movs	r2, #0
 8000946:	f44f 717c 	mov.w	r1, #1008	; 0x3f0
 800094a:	4815      	ldr	r0, [pc, #84]	; (80009a0 <MX_GPIO_Init+0xa0>)
 800094c:	f000 fc98 	bl	8001280 <HAL_GPIO_WritePin>
                          |EN2_Pin|EN3_Pin, GPIO_PIN_RESET);

  /*Configure GPIO pin Output Level */
  HAL_GPIO_WritePin(GPIOB, SEG0_Pin|SEG1_Pin|SEG2_Pin|SEG3_Pin
 8000950:	2200      	movs	r2, #0
 8000952:	217f      	movs	r1, #127	; 0x7f
 8000954:	4813      	ldr	r0, [pc, #76]	; (80009a4 <MX_GPIO_Init+0xa4>)
 8000956:	f000 fc93 	bl	8001280 <HAL_GPIO_WritePin>
                          |SEG4_Pin|SEG5_Pin|SEG6_Pin, GPIO_PIN_RESET);

  /*Configure GPIO pins : DOT_Pin LED_RED_Pin EN0_Pin EN1_Pin
                           EN2_Pin EN3_Pin */
  GPIO_InitStruct.Pin = DOT_Pin|LED_RED_Pin|EN0_Pin|EN1_Pin
 800095a:	f44f 737c 	mov.w	r3, #1008	; 0x3f0
 800095e:	60bb      	str	r3, [r7, #8]
                          |EN2_Pin|EN3_Pin;
  GPIO_InitStruct.Mode = GPIO_MODE_OUTPUT_PP;
 8000960:	2301      	movs	r3, #1
 8000962:	60fb      	str	r3, [r7, #12]
  GPIO_InitStruct.Pull = GPIO_NOPULL;
 8000964:	2300      	movs	r3, #0
 8000966:	613b      	str	r3, [r7, #16]
  GPIO_InitStruct.Speed = GPIO_SPEED_FREQ_LOW;
 8000968:	2302      	movs	r3, #2
 800096a:	617b      	str	r3, [r7, #20]
  HAL_GPIO_Init(GPIOA, &GPIO_InitStruct);
 800096c:	f107 0308 	add.w	r3, r7, #8
 8000970:	4619      	mov	r1, r3
 8000972:	480b      	ldr	r0, [pc, #44]	; (80009a0 <MX_GPIO_Init+0xa0>)
 8000974:	f000 fb08 	bl	8000f88 <HAL_GPIO_Init>

  /*Configure GPIO pins : SEG0_Pin SEG1_Pin SEG2_Pin SEG3_Pin
                           SEG4_Pin SEG5_Pin SEG6_Pin */
  GPIO_InitStruct.Pin = SEG0_Pin|SEG1_Pin|SEG2_Pin|SEG3_Pin
 8000978:	237f      	movs	r3, #127	; 0x7f
 800097a:	60bb      	str	r3, [r7, #8]
                          |SEG4_Pin|SEG5_Pin|SEG6_Pin;
  GPIO_InitStruct.Mode = GPIO_MODE_OUTPUT_PP;
 800097c:	2301      	movs	r3, #1
 800097e:	60fb      	str	r3, [r7, #12]
  GPIO_InitStruct.Pull = GPIO_NOPULL;
 8000980:	2300      	movs	r3, #0
 8000982:	613b      	str	r3, [r7, #16]
  GPIO_InitStruct.Speed = GPIO_SPEED_FREQ_LOW;
 8000984:	2302      	movs	r3, #2
 8000986:	617b      	str	r3, [r7, #20]
  HAL_GPIO_Init(GPIOB, &GPIO_InitStruct);
 8000988:	f107 0308 	add.w	r3, r7, #8
 800098c:	4619      	mov	r1, r3
 800098e:	4805      	ldr	r0, [pc, #20]	; (80009a4 <MX_GPIO_Init+0xa4>)
 8000990:	f000 fafa 	bl	8000f88 <HAL_GPIO_Init>

/* USER CODE BEGIN MX_GPIO_Init_2 */
/* USER CODE END MX_GPIO_Init_2 */
}
 8000994:	bf00      	nop
 8000996:	3718      	adds	r7, #24
 8000998:	46bd      	mov	sp, r7
 800099a:	bd80      	pop	{r7, pc}
 800099c:	40021000 	.word	0x40021000
 80009a0:	40010800 	.word	0x40010800
 80009a4:	40010c00 	.word	0x40010c00

080009a8 <HAL_TIM_PeriodElapsedCallback>:

/* USER CODE BEGIN 4 */
/*******************************************************
 Interrupt function is called every 10 ms
*******************************************************/
void HAL_TIM_PeriodElapsedCallback(TIM_HandleTypeDef *htim){
 80009a8:	b580      	push	{r7, lr}
 80009aa:	b082      	sub	sp, #8
 80009ac:	af00      	add	r7, sp, #0
 80009ae:	6078      	str	r0, [r7, #4]
	timerRun();
 80009b0:	f000 f85e 	bl	8000a70 <timerRun>
}
 80009b4:	bf00      	nop
 80009b6:	3708      	adds	r7, #8
 80009b8:	46bd      	mov	sp, r7
 80009ba:	bd80      	pop	{r7, pc}

080009bc <Error_Handler>:
/**
  * @brief  This function is executed in case of error occurrence.
  * @retval None
  */
void Error_Handler(void)
{
 80009bc:	b480      	push	{r7}
 80009be:	af00      	add	r7, sp, #0
  \details Disables IRQ interrupts by setting the I-bit in the CPSR.
           Can only be executed in Privileged modes.
 */
__STATIC_FORCEINLINE void __disable_irq(void)
{
  __ASM volatile ("cpsid i" : : : "memory");
 80009c0:	b672      	cpsid	i
}
 80009c2:	bf00      	nop
  /* USER CODE BEGIN Error_Handler_Debug */
  /* User can add his own implementation to report the HAL error return state */
  __disable_irq();
  while (1)
 80009c4:	e7fe      	b.n	80009c4 <Error_Handler+0x8>
	...

080009c8 <setTimer1>:
 */
#include "software_timer.h"
int timer1_counter = 0;
int timer1_flag = 0;

void setTimer1(int duration){
 80009c8:	b480      	push	{r7}
 80009ca:	b083      	sub	sp, #12
 80009cc:	af00      	add	r7, sp, #0
 80009ce:	6078      	str	r0, [r7, #4]
	timer1_counter = duration/TICK;
 80009d0:	687b      	ldr	r3, [r7, #4]
 80009d2:	4a08      	ldr	r2, [pc, #32]	; (80009f4 <setTimer1+0x2c>)
 80009d4:	fb82 1203 	smull	r1, r2, r2, r3
 80009d8:	1092      	asrs	r2, r2, #2
 80009da:	17db      	asrs	r3, r3, #31
 80009dc:	1ad3      	subs	r3, r2, r3
 80009de:	4a06      	ldr	r2, [pc, #24]	; (80009f8 <setTimer1+0x30>)
 80009e0:	6013      	str	r3, [r2, #0]
	timer1_flag = 0;
 80009e2:	4b06      	ldr	r3, [pc, #24]	; (80009fc <setTimer1+0x34>)
 80009e4:	2200      	movs	r2, #0
 80009e6:	601a      	str	r2, [r3, #0]
}
 80009e8:	bf00      	nop
 80009ea:	370c      	adds	r7, #12
 80009ec:	46bd      	mov	sp, r7
 80009ee:	bc80      	pop	{r7}
 80009f0:	4770      	bx	lr
 80009f2:	bf00      	nop
 80009f4:	66666667 	.word	0x66666667
 80009f8:	200000d8 	.word	0x200000d8
 80009fc:	200000dc 	.word	0x200000dc

08000a00 <setTimer2>:

int timer2_counter = 0;
int timer2_flag = 0;
void setTimer2(int duration)
{
 8000a00:	b480      	push	{r7}
 8000a02:	b083      	sub	sp, #12
 8000a04:	af00      	add	r7, sp, #0
 8000a06:	6078      	str	r0, [r7, #4]
	timer2_counter = duration/TICK;
 8000a08:	687b      	ldr	r3, [r7, #4]
 8000a0a:	4a08      	ldr	r2, [pc, #32]	; (8000a2c <setTimer2+0x2c>)
 8000a0c:	fb82 1203 	smull	r1, r2, r2, r3
 8000a10:	1092      	asrs	r2, r2, #2
 8000a12:	17db      	asrs	r3, r3, #31
 8000a14:	1ad3      	subs	r3, r2, r3
 8000a16:	4a06      	ldr	r2, [pc, #24]	; (8000a30 <setTimer2+0x30>)
 8000a18:	6013      	str	r3, [r2, #0]
	timer2_flag = 0;
 8000a1a:	4b06      	ldr	r3, [pc, #24]	; (8000a34 <setTimer2+0x34>)
 8000a1c:	2200      	movs	r2, #0
 8000a1e:	601a      	str	r2, [r3, #0]
}
 8000a20:	bf00      	nop
 8000a22:	370c      	adds	r7, #12
 8000a24:	46bd      	mov	sp, r7
 8000a26:	bc80      	pop	{r7}
 8000a28:	4770      	bx	lr
 8000a2a:	bf00      	nop
 8000a2c:	66666667 	.word	0x66666667
 8000a30:	200000e0 	.word	0x200000e0
 8000a34:	200000e4 	.word	0x200000e4

08000a38 <setTimer3>:

int timer3_counter = 0;
int timer3_flag = 0;
void setTimer3(int duration)
{
 8000a38:	b480      	push	{r7}
 8000a3a:	b083      	sub	sp, #12
 8000a3c:	af00      	add	r7, sp, #0
 8000a3e:	6078      	str	r0, [r7, #4]
	timer3_counter = duration/TICK;
 8000a40:	687b      	ldr	r3, [r7, #4]
 8000a42:	4a08      	ldr	r2, [pc, #32]	; (8000a64 <setTimer3+0x2c>)
 8000a44:	fb82 1203 	smull	r1, r2, r2, r3
 8000a48:	1092      	asrs	r2, r2, #2
 8000a4a:	17db      	asrs	r3, r3, #31
 8000a4c:	1ad3      	subs	r3, r2, r3
 8000a4e:	4a06      	ldr	r2, [pc, #24]	; (8000a68 <setTimer3+0x30>)
 8000a50:	6013      	str	r3, [r2, #0]
	timer3_flag = 0;
 8000a52:	4b06      	ldr	r3, [pc, #24]	; (8000a6c <setTimer3+0x34>)
 8000a54:	2200      	movs	r2, #0
 8000a56:	601a      	str	r2, [r3, #0]
}
 8000a58:	bf00      	nop
 8000a5a:	370c      	adds	r7, #12
 8000a5c:	46bd      	mov	sp, r7
 8000a5e:	bc80      	pop	{r7}
 8000a60:	4770      	bx	lr
 8000a62:	bf00      	nop
 8000a64:	66666667 	.word	0x66666667
 8000a68:	200000e8 	.word	0x200000e8
 8000a6c:	200000ec 	.word	0x200000ec

08000a70 <timerRun>:

void timerRun(){
 8000a70:	b480      	push	{r7}
 8000a72:	af00      	add	r7, sp, #0
	if(timer1_counter > 0){
 8000a74:	4b19      	ldr	r3, [pc, #100]	; (8000adc <timerRun+0x6c>)
 8000a76:	681b      	ldr	r3, [r3, #0]
 8000a78:	2b00      	cmp	r3, #0
 8000a7a:	dd0b      	ble.n	8000a94 <timerRun+0x24>
		timer1_counter--;
 8000a7c:	4b17      	ldr	r3, [pc, #92]	; (8000adc <timerRun+0x6c>)
 8000a7e:	681b      	ldr	r3, [r3, #0]
 8000a80:	3b01      	subs	r3, #1
 8000a82:	4a16      	ldr	r2, [pc, #88]	; (8000adc <timerRun+0x6c>)
 8000a84:	6013      	str	r3, [r2, #0]
		if(timer1_counter <= 0){
 8000a86:	4b15      	ldr	r3, [pc, #84]	; (8000adc <timerRun+0x6c>)
 8000a88:	681b      	ldr	r3, [r3, #0]
 8000a8a:	2b00      	cmp	r3, #0
 8000a8c:	dc02      	bgt.n	8000a94 <timerRun+0x24>
			timer1_flag = 1;
 8000a8e:	4b14      	ldr	r3, [pc, #80]	; (8000ae0 <timerRun+0x70>)
 8000a90:	2201      	movs	r2, #1
 8000a92:	601a      	str	r2, [r3, #0]
		}
	}
	if(timer2_counter > 0)
 8000a94:	4b13      	ldr	r3, [pc, #76]	; (8000ae4 <timerRun+0x74>)
 8000a96:	681b      	ldr	r3, [r3, #0]
 8000a98:	2b00      	cmp	r3, #0
 8000a9a:	dd0b      	ble.n	8000ab4 <timerRun+0x44>
	{
		timer2_counter--;
 8000a9c:	4b11      	ldr	r3, [pc, #68]	; (8000ae4 <timerRun+0x74>)
 8000a9e:	681b      	ldr	r3, [r3, #0]
 8000aa0:	3b01      	subs	r3, #1
 8000aa2:	4a10      	ldr	r2, [pc, #64]	; (8000ae4 <timerRun+0x74>)
 8000aa4:	6013      	str	r3, [r2, #0]
		if(timer2_counter <= 0)
 8000aa6:	4b0f      	ldr	r3, [pc, #60]	; (8000ae4 <timerRun+0x74>)
 8000aa8:	681b      	ldr	r3, [r3, #0]
 8000aaa:	2b00      	cmp	r3, #0
 8000aac:	dc02      	bgt.n	8000ab4 <timerRun+0x44>
		{
			timer2_flag = 1;
 8000aae:	4b0e      	ldr	r3, [pc, #56]	; (8000ae8 <timerRun+0x78>)
 8000ab0:	2201      	movs	r2, #1
 8000ab2:	601a      	str	r2, [r3, #0]
		}
	}
	if(timer3_counter > 0)
 8000ab4:	4b0d      	ldr	r3, [pc, #52]	; (8000aec <timerRun+0x7c>)
 8000ab6:	681b      	ldr	r3, [r3, #0]
 8000ab8:	2b00      	cmp	r3, #0
 8000aba:	dd0b      	ble.n	8000ad4 <timerRun+0x64>
	{
		timer3_counter--;
 8000abc:	4b0b      	ldr	r3, [pc, #44]	; (8000aec <timerRun+0x7c>)
 8000abe:	681b      	ldr	r3, [r3, #0]
 8000ac0:	3b01      	subs	r3, #1
 8000ac2:	4a0a      	ldr	r2, [pc, #40]	; (8000aec <timerRun+0x7c>)
 8000ac4:	6013      	str	r3, [r2, #0]
		if(timer3_counter <= 0)
 8000ac6:	4b09      	ldr	r3, [pc, #36]	; (8000aec <timerRun+0x7c>)
 8000ac8:	681b      	ldr	r3, [r3, #0]
 8000aca:	2b00      	cmp	r3, #0
 8000acc:	dc02      	bgt.n	8000ad4 <timerRun+0x64>
		{
			timer3_flag = 1;
 8000ace:	4b08      	ldr	r3, [pc, #32]	; (8000af0 <timerRun+0x80>)
 8000ad0:	2201      	movs	r2, #1
 8000ad2:	601a      	str	r2, [r3, #0]
		}
	}
}
 8000ad4:	bf00      	nop
 8000ad6:	46bd      	mov	sp, r7
 8000ad8:	bc80      	pop	{r7}
 8000ada:	4770      	bx	lr
 8000adc:	200000d8 	.word	0x200000d8
 8000ae0:	200000dc 	.word	0x200000dc
 8000ae4:	200000e0 	.word	0x200000e0
 8000ae8:	200000e4 	.word	0x200000e4
 8000aec:	200000e8 	.word	0x200000e8
 8000af0:	200000ec 	.word	0x200000ec

08000af4 <HAL_MspInit>:
/* USER CODE END 0 */
/**
  * Initializes the Global MSP.
  */
void HAL_MspInit(void)
{
 8000af4:	b480      	push	{r7}
 8000af6:	b083      	sub	sp, #12
 8000af8:	af00      	add	r7, sp, #0
  /* USER CODE BEGIN MspInit 0 */

  /* USER CODE END MspInit 0 */

  __HAL_RCC_AFIO_CLK_ENABLE();
 8000afa:	4b0e      	ldr	r3, [pc, #56]	; (8000b34 <HAL_MspInit+0x40>)
 8000afc:	699b      	ldr	r3, [r3, #24]
 8000afe:	4a0d      	ldr	r2, [pc, #52]	; (8000b34 <HAL_MspInit+0x40>)
 8000b00:	f043 0301 	orr.w	r3, r3, #1
 8000b04:	6193      	str	r3, [r2, #24]
 8000b06:	4b0b      	ldr	r3, [pc, #44]	; (8000b34 <HAL_MspInit+0x40>)
 8000b08:	699b      	ldr	r3, [r3, #24]
 8000b0a:	f003 0301 	and.w	r3, r3, #1
 8000b0e:	607b      	str	r3, [r7, #4]
 8000b10:	687b      	ldr	r3, [r7, #4]
  __HAL_RCC_PWR_CLK_ENABLE();
 8000b12:	4b08      	ldr	r3, [pc, #32]	; (8000b34 <HAL_MspInit+0x40>)
 8000b14:	69db      	ldr	r3, [r3, #28]
 8000b16:	4a07      	ldr	r2, [pc, #28]	; (8000b34 <HAL_MspInit+0x40>)
 8000b18:	f043 5380 	orr.w	r3, r3, #268435456	; 0x10000000
 8000b1c:	61d3      	str	r3, [r2, #28]
 8000b1e:	4b05      	ldr	r3, [pc, #20]	; (8000b34 <HAL_MspInit+0x40>)
 8000b20:	69db      	ldr	r3, [r3, #28]
 8000b22:	f003 5380 	and.w	r3, r3, #268435456	; 0x10000000
 8000b26:	603b      	str	r3, [r7, #0]
 8000b28:	683b      	ldr	r3, [r7, #0]
  /* System interrupt init*/

  /* USER CODE BEGIN MspInit 1 */

  /* USER CODE END MspInit 1 */
}
 8000b2a:	bf00      	nop
 8000b2c:	370c      	adds	r7, #12
 8000b2e:	46bd      	mov	sp, r7
 8000b30:	bc80      	pop	{r7}
 8000b32:	4770      	bx	lr
 8000b34:	40021000 	.word	0x40021000

08000b38 <HAL_TIM_Base_MspInit>:
* This function configures the hardware resources used in this example
* @param htim_base: TIM_Base handle pointer
* @retval None
*/
void HAL_TIM_Base_MspInit(TIM_HandleTypeDef* htim_base)
{
 8000b38:	b580      	push	{r7, lr}
 8000b3a:	b084      	sub	sp, #16
 8000b3c:	af00      	add	r7, sp, #0
 8000b3e:	6078      	str	r0, [r7, #4]
  if(htim_base->Instance==TIM2)
 8000b40:	687b      	ldr	r3, [r7, #4]
 8000b42:	681b      	ldr	r3, [r3, #0]
 8000b44:	f1b3 4f80 	cmp.w	r3, #1073741824	; 0x40000000
 8000b48:	d113      	bne.n	8000b72 <HAL_TIM_Base_MspInit+0x3a>
  {
  /* USER CODE BEGIN TIM2_MspInit 0 */

  /* USER CODE END TIM2_MspInit 0 */
    /* Peripheral clock enable */
    __HAL_RCC_TIM2_CLK_ENABLE();
 8000b4a:	4b0c      	ldr	r3, [pc, #48]	; (8000b7c <HAL_TIM_Base_MspInit+0x44>)
 8000b4c:	69db      	ldr	r3, [r3, #28]
 8000b4e:	4a0b      	ldr	r2, [pc, #44]	; (8000b7c <HAL_TIM_Base_MspInit+0x44>)
 8000b50:	f043 0301 	orr.w	r3, r3, #1
 8000b54:	61d3      	str	r3, [r2, #28]
 8000b56:	4b09      	ldr	r3, [pc, #36]	; (8000b7c <HAL_TIM_Base_MspInit+0x44>)
 8000b58:	69db      	ldr	r3, [r3, #28]
 8000b5a:	f003 0301 	and.w	r3, r3, #1
 8000b5e:	60fb      	str	r3, [r7, #12]
 8000b60:	68fb      	ldr	r3, [r7, #12]
    /* TIM2 interrupt Init */
    HAL_NVIC_SetPriority(TIM2_IRQn, 0, 0);
 8000b62:	2200      	movs	r2, #0
 8000b64:	2100      	movs	r1, #0
 8000b66:	201c      	movs	r0, #28
 8000b68:	f000 f9d7 	bl	8000f1a <HAL_NVIC_SetPriority>
    HAL_NVIC_EnableIRQ(TIM2_IRQn);
 8000b6c:	201c      	movs	r0, #28
 8000b6e:	f000 f9f0 	bl	8000f52 <HAL_NVIC_EnableIRQ>
  /* USER CODE BEGIN TIM2_MspInit 1 */

  /* USER CODE END TIM2_MspInit 1 */
  }

}
 8000b72:	bf00      	nop
 8000b74:	3710      	adds	r7, #16
 8000b76:	46bd      	mov	sp, r7
 8000b78:	bd80      	pop	{r7, pc}
 8000b7a:	bf00      	nop
 8000b7c:	40021000 	.word	0x40021000

08000b80 <NMI_Handler>:
/******************************************************************************/
/**
  * @brief This function handles Non maskable interrupt.
  */
void NMI_Handler(void)
{
 8000b80:	b480      	push	{r7}
 8000b82:	af00      	add	r7, sp, #0
  /* USER CODE BEGIN NonMaskableInt_IRQn 0 */

  /* USER CODE END NonMaskableInt_IRQn 0 */
  /* USER CODE BEGIN NonMaskableInt_IRQn 1 */
  while (1)
 8000b84:	e7fe      	b.n	8000b84 <NMI_Handler+0x4>

08000b86 <HardFault_Handler>:

/**
  * @brief This function handles Hard fault interrupt.
  */
void HardFault_Handler(void)
{
 8000b86:	b480      	push	{r7}
 8000b88:	af00      	add	r7, sp, #0
  /* USER CODE BEGIN HardFault_IRQn 0 */

  /* USER CODE END HardFault_IRQn 0 */
  while (1)
 8000b8a:	e7fe      	b.n	8000b8a <HardFault_Handler+0x4>

08000b8c <MemManage_Handler>:

/**
  * @brief This function handles Memory management fault.
  */
void MemManage_Handler(void)
{
 8000b8c:	b480      	push	{r7}
 8000b8e:	af00      	add	r7, sp, #0
  /* USER CODE BEGIN MemoryManagement_IRQn 0 */

  /* USER CODE END MemoryManagement_IRQn 0 */
  while (1)
 8000b90:	e7fe      	b.n	8000b90 <MemManage_Handler+0x4>

08000b92 <BusFault_Handler>:

/**
  * @brief This function handles Prefetch fault, memory access fault.
  */
void BusFault_Handler(void)
{
 8000b92:	b480      	push	{r7}
 8000b94:	af00      	add	r7, sp, #0
  /* USER CODE BEGIN BusFault_IRQn 0 */

  /* USER CODE END BusFault_IRQn 0 */
  while (1)
 8000b96:	e7fe      	b.n	8000b96 <BusFault_Handler+0x4>

08000b98 <UsageFault_Handler>:

/**
  * @brief This function handles Undefined instruction or illegal state.
  */
void UsageFault_Handler(void)
{
 8000b98:	b480      	push	{r7}
 8000b9a:	af00      	add	r7, sp, #0
  /* USER CODE BEGIN UsageFault_IRQn 0 */

  /* USER CODE END UsageFault_IRQn 0 */
  while (1)
 8000b9c:	e7fe      	b.n	8000b9c <UsageFault_Handler+0x4>

08000b9e <SVC_Handler>:

/**
  * @brief This function handles System service call via SWI instruction.
  */
void SVC_Handler(void)
{
 8000b9e:	b480      	push	{r7}
 8000ba0:	af00      	add	r7, sp, #0

  /* USER CODE END SVCall_IRQn 0 */
  /* USER CODE BEGIN SVCall_IRQn 1 */

  /* USER CODE END SVCall_IRQn 1 */
}
 8000ba2:	bf00      	nop
 8000ba4:	46bd      	mov	sp, r7
 8000ba6:	bc80      	pop	{r7}
 8000ba8:	4770      	bx	lr

08000baa <DebugMon_Handler>:

/**
  * @brief This function handles Debug monitor.
  */
void DebugMon_Handler(void)
{
 8000baa:	b480      	push	{r7}
 8000bac:	af00      	add	r7, sp, #0

  /* USER CODE END DebugMonitor_IRQn 0 */
  /* USER CODE BEGIN DebugMonitor_IRQn 1 */

  /* USER CODE END DebugMonitor_IRQn 1 */
}
 8000bae:	bf00      	nop
 8000bb0:	46bd      	mov	sp, r7
 8000bb2:	bc80      	pop	{r7}
 8000bb4:	4770      	bx	lr

08000bb6 <PendSV_Handler>:

/**
  * @brief This function handles Pendable request for system service.
  */
void PendSV_Handler(void)
{
 8000bb6:	b480      	push	{r7}
 8000bb8:	af00      	add	r7, sp, #0

  /* USER CODE END PendSV_IRQn 0 */
  /* USER CODE BEGIN PendSV_IRQn 1 */

  /* USER CODE END PendSV_IRQn 1 */
}
 8000bba:	bf00      	nop
 8000bbc:	46bd      	mov	sp, r7
 8000bbe:	bc80      	pop	{r7}
 8000bc0:	4770      	bx	lr

08000bc2 <SysTick_Handler>:

/**
  * @brief This function handles System tick timer.
  */
void SysTick_Handler(void)
{
 8000bc2:	b580      	push	{r7, lr}
 8000bc4:	af00      	add	r7, sp, #0
  /* USER CODE BEGIN SysTick_IRQn 0 */

  /* USER CODE END SysTick_IRQn 0 */
  HAL_IncTick();
 8000bc6:	f000 f8b5 	bl	8000d34 <HAL_IncTick>
  /* USER CODE BEGIN SysTick_IRQn 1 */

  /* USER CODE END SysTick_IRQn 1 */
}
 8000bca:	bf00      	nop
 8000bcc:	bd80      	pop	{r7, pc}
	...

08000bd0 <TIM2_IRQHandler>:

/**
  * @brief This function handles TIM2 global interrupt.
  */
void TIM2_IRQHandler(void)
{
 8000bd0:	b580      	push	{r7, lr}
 8000bd2:	af00      	add	r7, sp, #0
  /* USER CODE BEGIN TIM2_IRQn 0 */

  /* USER CODE END TIM2_IRQn 0 */
  HAL_TIM_IRQHandler(&htim2);
 8000bd4:	4802      	ldr	r0, [pc, #8]	; (8000be0 <TIM2_IRQHandler+0x10>)
 8000bd6:	f000 ffe5 	bl	8001ba4 <HAL_TIM_IRQHandler>
  /* USER CODE BEGIN TIM2_IRQn 1 */

  /* USER CODE END TIM2_IRQn 1 */
}
 8000bda:	bf00      	nop
 8000bdc:	bd80      	pop	{r7, pc}
 8000bde:	bf00      	nop
 8000be0:	20000090 	.word	0x20000090

08000be4 <_sbrk>:
 *
 * @param incr Memory size
 * @return Pointer to allocated memory
 */
void *_sbrk(ptrdiff_t incr)
{
 8000be4:	b580      	push	{r7, lr}
 8000be6:	b086      	sub	sp, #24
 8000be8:	af00      	add	r7, sp, #0
 8000bea:	6078      	str	r0, [r7, #4]
  extern uint8_t _end; /* Symbol defined in the linker script */
  extern uint8_t _estack; /* Symbol defined in the linker script */
  extern uint32_t _Min_Stack_Size; /* Symbol defined in the linker script */
  const uint32_t stack_limit = (uint32_t)&_estack - (uint32_t)&_Min_Stack_Size;
 8000bec:	4a14      	ldr	r2, [pc, #80]	; (8000c40 <_sbrk+0x5c>)
 8000bee:	4b15      	ldr	r3, [pc, #84]	; (8000c44 <_sbrk+0x60>)
 8000bf0:	1ad3      	subs	r3, r2, r3
 8000bf2:	617b      	str	r3, [r7, #20]
  const uint8_t *max_heap = (uint8_t *)stack_limit;
 8000bf4:	697b      	ldr	r3, [r7, #20]
 8000bf6:	613b      	str	r3, [r7, #16]
  uint8_t *prev_heap_end;

  /* Initialize heap end at first call */
  if (NULL == __sbrk_heap_end)
 8000bf8:	4b13      	ldr	r3, [pc, #76]	; (8000c48 <_sbrk+0x64>)
 8000bfa:	681b      	ldr	r3, [r3, #0]
 8000bfc:	2b00      	cmp	r3, #0
 8000bfe:	d102      	bne.n	8000c06 <_sbrk+0x22>
  {
    __sbrk_heap_end = &_end;
 8000c00:	4b11      	ldr	r3, [pc, #68]	; (8000c48 <_sbrk+0x64>)
 8000c02:	4a12      	ldr	r2, [pc, #72]	; (8000c4c <_sbrk+0x68>)
 8000c04:	601a      	str	r2, [r3, #0]
  }

  /* Protect heap from growing into the reserved MSP stack */
  if (__sbrk_heap_end + incr > max_heap)
 8000c06:	4b10      	ldr	r3, [pc, #64]	; (8000c48 <_sbrk+0x64>)
 8000c08:	681a      	ldr	r2, [r3, #0]
 8000c0a:	687b      	ldr	r3, [r7, #4]
 8000c0c:	4413      	add	r3, r2
 8000c0e:	693a      	ldr	r2, [r7, #16]
 8000c10:	429a      	cmp	r2, r3
 8000c12:	d207      	bcs.n	8000c24 <_sbrk+0x40>
  {
    errno = ENOMEM;
 8000c14:	f001 fb12 	bl	800223c <__errno>
 8000c18:	4603      	mov	r3, r0
 8000c1a:	220c      	movs	r2, #12
 8000c1c:	601a      	str	r2, [r3, #0]
    return (void *)-1;
 8000c1e:	f04f 33ff 	mov.w	r3, #4294967295
 8000c22:	e009      	b.n	8000c38 <_sbrk+0x54>
  }

  prev_heap_end = __sbrk_heap_end;
 8000c24:	4b08      	ldr	r3, [pc, #32]	; (8000c48 <_sbrk+0x64>)
 8000c26:	681b      	ldr	r3, [r3, #0]
 8000c28:	60fb      	str	r3, [r7, #12]
  __sbrk_heap_end += incr;
 8000c2a:	4b07      	ldr	r3, [pc, #28]	; (8000c48 <_sbrk+0x64>)
 8000c2c:	681a      	ldr	r2, [r3, #0]
 8000c2e:	687b      	ldr	r3, [r7, #4]
 8000c30:	4413      	add	r3, r2
 8000c32:	4a05      	ldr	r2, [pc, #20]	; (8000c48 <_sbrk+0x64>)
 8000c34:	6013      	str	r3, [r2, #0]

  return (void *)prev_heap_end;
 8000c36:	68fb      	ldr	r3, [r7, #12]
}
 8000c38:	4618      	mov	r0, r3
 8000c3a:	3718      	adds	r7, #24
 8000c3c:	46bd      	mov	sp, r7
 8000c3e:	bd80      	pop	{r7, pc}
 8000c40:	20002800 	.word	0x20002800
 8000c44:	00000400 	.word	0x00000400
 8000c48:	200000f0 	.word	0x200000f0
 8000c4c:	20000108 	.word	0x20000108

08000c50 <SystemInit>:
  * @note   This function should be used only after reset.
  * @param  None
  * @retval None
  */
void SystemInit (void)
{
 8000c50:	b480      	push	{r7}
 8000c52:	af00      	add	r7, sp, #0

  /* Configure the Vector Table location -------------------------------------*/
#if defined(USER_VECT_TAB_ADDRESS)
  SCB->VTOR = VECT_TAB_BASE_ADDRESS | VECT_TAB_OFFSET; /* Vector Table Relocation in Internal SRAM. */
#endif /* USER_VECT_TAB_ADDRESS */
}
 8000c54:	bf00      	nop
 8000c56:	46bd      	mov	sp, r7
 8000c58:	bc80      	pop	{r7}
 8000c5a:	4770      	bx	lr

08000c5c <Reset_Handler>:
  .weak Reset_Handler
  .type Reset_Handler, %function
Reset_Handler:

/* Call the clock system initialization function.*/
    bl  SystemInit
 8000c5c:	f7ff fff8 	bl	8000c50 <SystemInit>

/* Copy the data segment initializers from flash to SRAM */
  ldr r0, =_sdata
 8000c60:	480b      	ldr	r0, [pc, #44]	; (8000c90 <LoopFillZerobss+0xe>)
  ldr r1, =_edata
 8000c62:	490c      	ldr	r1, [pc, #48]	; (8000c94 <LoopFillZerobss+0x12>)
  ldr r2, =_sidata
 8000c64:	4a0c      	ldr	r2, [pc, #48]	; (8000c98 <LoopFillZerobss+0x16>)
  movs r3, #0
 8000c66:	2300      	movs	r3, #0
  b LoopCopyDataInit
 8000c68:	e002      	b.n	8000c70 <LoopCopyDataInit>

08000c6a <CopyDataInit>:

CopyDataInit:
  ldr r4, [r2, r3]
 8000c6a:	58d4      	ldr	r4, [r2, r3]
  str r4, [r0, r3]
 8000c6c:	50c4      	str	r4, [r0, r3]
  adds r3, r3, #4
 8000c6e:	3304      	adds	r3, #4

08000c70 <LoopCopyDataInit>:

LoopCopyDataInit:
  adds r4, r0, r3
 8000c70:	18c4      	adds	r4, r0, r3
  cmp r4, r1
 8000c72:	428c      	cmp	r4, r1
  bcc CopyDataInit
 8000c74:	d3f9      	bcc.n	8000c6a <CopyDataInit>
  
/* Zero fill the bss segment. */
  ldr r2, =_sbss
 8000c76:	4a09      	ldr	r2, [pc, #36]	; (8000c9c <LoopFillZerobss+0x1a>)
  ldr r4, =_ebss
 8000c78:	4c09      	ldr	r4, [pc, #36]	; (8000ca0 <LoopFillZerobss+0x1e>)
  movs r3, #0
 8000c7a:	2300      	movs	r3, #0
  b LoopFillZerobss
 8000c7c:	e001      	b.n	8000c82 <LoopFillZerobss>

08000c7e <FillZerobss>:

FillZerobss:
  str  r3, [r2]
 8000c7e:	6013      	str	r3, [r2, #0]
  adds r2, r2, #4
 8000c80:	3204      	adds	r2, #4

08000c82 <LoopFillZerobss>:

LoopFillZerobss:
  cmp r2, r4
 8000c82:	42a2      	cmp	r2, r4
  bcc FillZerobss
 8000c84:	d3fb      	bcc.n	8000c7e <FillZerobss>

/* Call static constructors */
    bl __libc_init_array
 8000c86:	f001 fadf 	bl	8002248 <__libc_init_array>
/* Call the application's entry point.*/
  bl main
 8000c8a:	f7ff fd9b 	bl	80007c4 <main>
  bx lr
 8000c8e:	4770      	bx	lr
  ldr r0, =_sdata
 8000c90:	20000000 	.word	0x20000000
  ldr r1, =_edata
 8000c94:	20000070 	.word	0x20000070
  ldr r2, =_sidata
 8000c98:	080024f8 	.word	0x080024f8
  ldr r2, =_sbss
 8000c9c:	20000070 	.word	0x20000070
  ldr r4, =_ebss
 8000ca0:	20000108 	.word	0x20000108

08000ca4 <ADC1_2_IRQHandler>:
 * @retval : None
*/
    .section .text.Default_Handler,"ax",%progbits
Default_Handler:
Infinite_Loop:
  b Infinite_Loop
 8000ca4:	e7fe      	b.n	8000ca4 <ADC1_2_IRQHandler>
	...

08000ca8 <HAL_Init>:
  *         need to ensure that the SysTick time base is always set to 1 millisecond
  *         to have correct HAL operation.
  * @retval HAL status
  */
HAL_StatusTypeDef HAL_Init(void)
{
 8000ca8:	b580      	push	{r7, lr}
 8000caa:	af00      	add	r7, sp, #0
    defined(STM32F102x6) || defined(STM32F102xB) || \
    defined(STM32F103x6) || defined(STM32F103xB) || defined(STM32F103xE) || defined(STM32F103xG) || \
    defined(STM32F105xC) || defined(STM32F107xC)

  /* Prefetch buffer is not available on value line devices */
  __HAL_FLASH_PREFETCH_BUFFER_ENABLE();
 8000cac:	4b08      	ldr	r3, [pc, #32]	; (8000cd0 <HAL_Init+0x28>)
 8000cae:	681b      	ldr	r3, [r3, #0]
 8000cb0:	4a07      	ldr	r2, [pc, #28]	; (8000cd0 <HAL_Init+0x28>)
 8000cb2:	f043 0310 	orr.w	r3, r3, #16
 8000cb6:	6013      	str	r3, [r2, #0]
#endif
#endif /* PREFETCH_ENABLE */

  /* Set Interrupt Group Priority */
  HAL_NVIC_SetPriorityGrouping(NVIC_PRIORITYGROUP_4);
 8000cb8:	2003      	movs	r0, #3
 8000cba:	f000 f923 	bl	8000f04 <HAL_NVIC_SetPriorityGrouping>

  /* Use systick as time base source and configure 1ms tick (default clock after Reset is HSI) */
  HAL_InitTick(TICK_INT_PRIORITY);
 8000cbe:	200f      	movs	r0, #15
 8000cc0:	f000 f808 	bl	8000cd4 <HAL_InitTick>

  /* Init the low level hardware */
  HAL_MspInit();
 8000cc4:	f7ff ff16 	bl	8000af4 <HAL_MspInit>

  /* Return function status */
  return HAL_OK;
 8000cc8:	2300      	movs	r3, #0
}
 8000cca:	4618      	mov	r0, r3
 8000ccc:	bd80      	pop	{r7, pc}
 8000cce:	bf00      	nop
 8000cd0:	40022000 	.word	0x40022000

08000cd4 <HAL_InitTick>:
  *       implementation  in user file.
  * @param TickPriority Tick interrupt priority.
  * @retval HAL status
  */
__weak HAL_StatusTypeDef HAL_InitTick(uint32_t TickPriority)
{
 8000cd4:	b580      	push	{r7, lr}
 8000cd6:	b082      	sub	sp, #8
 8000cd8:	af00      	add	r7, sp, #0
 8000cda:	6078      	str	r0, [r7, #4]
  /* Configure the SysTick to have interrupt in 1ms time basis*/
  if (HAL_SYSTICK_Config(SystemCoreClock / (1000U / uwTickFreq)) > 0U)
 8000cdc:	4b12      	ldr	r3, [pc, #72]	; (8000d28 <HAL_InitTick+0x54>)
 8000cde:	681a      	ldr	r2, [r3, #0]
 8000ce0:	4b12      	ldr	r3, [pc, #72]	; (8000d2c <HAL_InitTick+0x58>)
 8000ce2:	781b      	ldrb	r3, [r3, #0]
 8000ce4:	4619      	mov	r1, r3
 8000ce6:	f44f 737a 	mov.w	r3, #1000	; 0x3e8
 8000cea:	fbb3 f3f1 	udiv	r3, r3, r1
 8000cee:	fbb2 f3f3 	udiv	r3, r2, r3
 8000cf2:	4618      	mov	r0, r3
 8000cf4:	f000 f93b 	bl	8000f6e <HAL_SYSTICK_Config>
 8000cf8:	4603      	mov	r3, r0
 8000cfa:	2b00      	cmp	r3, #0
 8000cfc:	d001      	beq.n	8000d02 <HAL_InitTick+0x2e>
  {
    return HAL_ERROR;
 8000cfe:	2301      	movs	r3, #1
 8000d00:	e00e      	b.n	8000d20 <HAL_InitTick+0x4c>
  }

  /* Configure the SysTick IRQ priority */
  if (TickPriority < (1UL << __NVIC_PRIO_BITS))
 8000d02:	687b      	ldr	r3, [r7, #4]
 8000d04:	2b0f      	cmp	r3, #15
 8000d06:	d80a      	bhi.n	8000d1e <HAL_InitTick+0x4a>
  {
    HAL_NVIC_SetPriority(SysTick_IRQn, TickPriority, 0U);
 8000d08:	2200      	movs	r2, #0
 8000d0a:	6879      	ldr	r1, [r7, #4]
 8000d0c:	f04f 30ff 	mov.w	r0, #4294967295
 8000d10:	f000 f903 	bl	8000f1a <HAL_NVIC_SetPriority>
    uwTickPrio = TickPriority;
 8000d14:	4a06      	ldr	r2, [pc, #24]	; (8000d30 <HAL_InitTick+0x5c>)
 8000d16:	687b      	ldr	r3, [r7, #4]
 8000d18:	6013      	str	r3, [r2, #0]
  {
    return HAL_ERROR;
  }

  /* Return function status */
  return HAL_OK;
 8000d1a:	2300      	movs	r3, #0
 8000d1c:	e000      	b.n	8000d20 <HAL_InitTick+0x4c>
    return HAL_ERROR;
 8000d1e:	2301      	movs	r3, #1
}
 8000d20:	4618      	mov	r0, r3
 8000d22:	3708      	adds	r7, #8
 8000d24:	46bd      	mov	sp, r7
 8000d26:	bd80      	pop	{r7, pc}
 8000d28:	20000000 	.word	0x20000000
 8000d2c:	20000008 	.word	0x20000008
 8000d30:	20000004 	.word	0x20000004

08000d34 <HAL_IncTick>:
  * @note This function is declared as __weak to be overwritten in case of other
  *      implementations in user file.
  * @retval None
  */
__weak void HAL_IncTick(void)
{
 8000d34:	b480      	push	{r7}
 8000d36:	af00      	add	r7, sp, #0
  uwTick += uwTickFreq;
 8000d38:	4b05      	ldr	r3, [pc, #20]	; (8000d50 <HAL_IncTick+0x1c>)
 8000d3a:	781b      	ldrb	r3, [r3, #0]
 8000d3c:	461a      	mov	r2, r3
 8000d3e:	4b05      	ldr	r3, [pc, #20]	; (8000d54 <HAL_IncTick+0x20>)
 8000d40:	681b      	ldr	r3, [r3, #0]
 8000d42:	4413      	add	r3, r2
 8000d44:	4a03      	ldr	r2, [pc, #12]	; (8000d54 <HAL_IncTick+0x20>)
 8000d46:	6013      	str	r3, [r2, #0]
}
 8000d48:	bf00      	nop
 8000d4a:	46bd      	mov	sp, r7
 8000d4c:	bc80      	pop	{r7}
 8000d4e:	4770      	bx	lr
 8000d50:	20000008 	.word	0x20000008
 8000d54:	200000f4 	.word	0x200000f4

08000d58 <HAL_GetTick>:
  * @note  This function is declared as __weak to be overwritten in case of other
  *       implementations in user file.
  * @retval tick value
  */
__weak uint32_t HAL_GetTick(void)
{
 8000d58:	b480      	push	{r7}
 8000d5a:	af00      	add	r7, sp, #0
  return uwTick;
 8000d5c:	4b02      	ldr	r3, [pc, #8]	; (8000d68 <HAL_GetTick+0x10>)
 8000d5e:	681b      	ldr	r3, [r3, #0]
}
 8000d60:	4618      	mov	r0, r3
 8000d62:	46bd      	mov	sp, r7
 8000d64:	bc80      	pop	{r7}
 8000d66:	4770      	bx	lr
 8000d68:	200000f4 	.word	0x200000f4

08000d6c <__NVIC_SetPriorityGrouping>:
           In case of a conflict between priority grouping and available
           priority bits (__NVIC_PRIO_BITS), the smallest possible priority group is set.
  \param [in]      PriorityGroup  Priority grouping field.
 */
__STATIC_INLINE void __NVIC_SetPriorityGrouping(uint32_t PriorityGroup)
{
 8000d6c:	b480      	push	{r7}
 8000d6e:	b085      	sub	sp, #20
 8000d70:	af00      	add	r7, sp, #0
 8000d72:	6078      	str	r0, [r7, #4]
  uint32_t reg_value;
  uint32_t PriorityGroupTmp = (PriorityGroup & (uint32_t)0x07UL);             /* only values 0..7 are used          */
 8000d74:	687b      	ldr	r3, [r7, #4]
 8000d76:	f003 0307 	and.w	r3, r3, #7
 8000d7a:	60fb      	str	r3, [r7, #12]

  reg_value  =  SCB->AIRCR;                                                   /* read old register configuration    */
 8000d7c:	4b0c      	ldr	r3, [pc, #48]	; (8000db0 <__NVIC_SetPriorityGrouping+0x44>)
 8000d7e:	68db      	ldr	r3, [r3, #12]
 8000d80:	60bb      	str	r3, [r7, #8]
  reg_value &= ~((uint32_t)(SCB_AIRCR_VECTKEY_Msk | SCB_AIRCR_PRIGROUP_Msk)); /* clear bits to change               */
 8000d82:	68ba      	ldr	r2, [r7, #8]
 8000d84:	f64f 03ff 	movw	r3, #63743	; 0xf8ff
 8000d88:	4013      	ands	r3, r2
 8000d8a:	60bb      	str	r3, [r7, #8]
  reg_value  =  (reg_value                                   |
                ((uint32_t)0x5FAUL << SCB_AIRCR_VECTKEY_Pos) |
                (PriorityGroupTmp << SCB_AIRCR_PRIGROUP_Pos) );               /* Insert write key and priority group */
 8000d8c:	68fb      	ldr	r3, [r7, #12]
 8000d8e:	021a      	lsls	r2, r3, #8
                ((uint32_t)0x5FAUL << SCB_AIRCR_VECTKEY_Pos) |
 8000d90:	68bb      	ldr	r3, [r7, #8]
 8000d92:	4313      	orrs	r3, r2
  reg_value  =  (reg_value                                   |
 8000d94:	f043 63bf 	orr.w	r3, r3, #100139008	; 0x5f80000
 8000d98:	f443 3300 	orr.w	r3, r3, #131072	; 0x20000
 8000d9c:	60bb      	str	r3, [r7, #8]
  SCB->AIRCR =  reg_value;
 8000d9e:	4a04      	ldr	r2, [pc, #16]	; (8000db0 <__NVIC_SetPriorityGrouping+0x44>)
 8000da0:	68bb      	ldr	r3, [r7, #8]
 8000da2:	60d3      	str	r3, [r2, #12]
}
 8000da4:	bf00      	nop
 8000da6:	3714      	adds	r7, #20
 8000da8:	46bd      	mov	sp, r7
 8000daa:	bc80      	pop	{r7}
 8000dac:	4770      	bx	lr
 8000dae:	bf00      	nop
 8000db0:	e000ed00 	.word	0xe000ed00

08000db4 <__NVIC_GetPriorityGrouping>:
  \brief   Get Priority Grouping
  \details Reads the priority grouping field from the NVIC Interrupt Controller.
  \return                Priority grouping field (SCB->AIRCR [10:8] PRIGROUP field).
 */
__STATIC_INLINE uint32_t __NVIC_GetPriorityGrouping(void)
{
 8000db4:	b480      	push	{r7}
 8000db6:	af00      	add	r7, sp, #0
  return ((uint32_t)((SCB->AIRCR & SCB_AIRCR_PRIGROUP_Msk) >> SCB_AIRCR_PRIGROUP_Pos));
 8000db8:	4b04      	ldr	r3, [pc, #16]	; (8000dcc <__NVIC_GetPriorityGrouping+0x18>)
 8000dba:	68db      	ldr	r3, [r3, #12]
 8000dbc:	0a1b      	lsrs	r3, r3, #8
 8000dbe:	f003 0307 	and.w	r3, r3, #7
}
 8000dc2:	4618      	mov	r0, r3
 8000dc4:	46bd      	mov	sp, r7
 8000dc6:	bc80      	pop	{r7}
 8000dc8:	4770      	bx	lr
 8000dca:	bf00      	nop
 8000dcc:	e000ed00 	.word	0xe000ed00

08000dd0 <__NVIC_EnableIRQ>:
  \details Enables a device specific interrupt in the NVIC interrupt controller.
  \param [in]      IRQn  Device specific interrupt number.
  \note    IRQn must not be negative.
 */
__STATIC_INLINE void __NVIC_EnableIRQ(IRQn_Type IRQn)
{
 8000dd0:	b480      	push	{r7}
 8000dd2:	b083      	sub	sp, #12
 8000dd4:	af00      	add	r7, sp, #0
 8000dd6:	4603      	mov	r3, r0
 8000dd8:	71fb      	strb	r3, [r7, #7]
  if ((int32_t)(IRQn) >= 0)
 8000dda:	f997 3007 	ldrsb.w	r3, [r7, #7]
 8000dde:	2b00      	cmp	r3, #0
 8000de0:	db0b      	blt.n	8000dfa <__NVIC_EnableIRQ+0x2a>
  {
    NVIC->ISER[(((uint32_t)IRQn) >> 5UL)] = (uint32_t)(1UL << (((uint32_t)IRQn) & 0x1FUL));
 8000de2:	79fb      	ldrb	r3, [r7, #7]
 8000de4:	f003 021f 	and.w	r2, r3, #31
 8000de8:	4906      	ldr	r1, [pc, #24]	; (8000e04 <__NVIC_EnableIRQ+0x34>)
 8000dea:	f997 3007 	ldrsb.w	r3, [r7, #7]
 8000dee:	095b      	lsrs	r3, r3, #5
 8000df0:	2001      	movs	r0, #1
 8000df2:	fa00 f202 	lsl.w	r2, r0, r2
 8000df6:	f841 2023 	str.w	r2, [r1, r3, lsl #2]
  }
}
 8000dfa:	bf00      	nop
 8000dfc:	370c      	adds	r7, #12
 8000dfe:	46bd      	mov	sp, r7
 8000e00:	bc80      	pop	{r7}
 8000e02:	4770      	bx	lr
 8000e04:	e000e100 	.word	0xe000e100

08000e08 <__NVIC_SetPriority>:
  \param [in]      IRQn  Interrupt number.
  \param [in]  priority  Priority to set.
  \note    The priority cannot be set for every processor exception.
 */
__STATIC_INLINE void __NVIC_SetPriority(IRQn_Type IRQn, uint32_t priority)
{
 8000e08:	b480      	push	{r7}
 8000e0a:	b083      	sub	sp, #12
 8000e0c:	af00      	add	r7, sp, #0
 8000e0e:	4603      	mov	r3, r0
 8000e10:	6039      	str	r1, [r7, #0]
 8000e12:	71fb      	strb	r3, [r7, #7]
  if ((int32_t)(IRQn) >= 0)
 8000e14:	f997 3007 	ldrsb.w	r3, [r7, #7]
 8000e18:	2b00      	cmp	r3, #0
 8000e1a:	db0a      	blt.n	8000e32 <__NVIC_SetPriority+0x2a>
  {
    NVIC->IP[((uint32_t)IRQn)]               = (uint8_t)((priority << (8U - __NVIC_PRIO_BITS)) & (uint32_t)0xFFUL);
 8000e1c:	683b      	ldr	r3, [r7, #0]
 8000e1e:	b2da      	uxtb	r2, r3
 8000e20:	490c      	ldr	r1, [pc, #48]	; (8000e54 <__NVIC_SetPriority+0x4c>)
 8000e22:	f997 3007 	ldrsb.w	r3, [r7, #7]
 8000e26:	0112      	lsls	r2, r2, #4
 8000e28:	b2d2      	uxtb	r2, r2
 8000e2a:	440b      	add	r3, r1
 8000e2c:	f883 2300 	strb.w	r2, [r3, #768]	; 0x300
  }
  else
  {
    SCB->SHP[(((uint32_t)IRQn) & 0xFUL)-4UL] = (uint8_t)((priority << (8U - __NVIC_PRIO_BITS)) & (uint32_t)0xFFUL);
  }
}
 8000e30:	e00a      	b.n	8000e48 <__NVIC_SetPriority+0x40>
    SCB->SHP[(((uint32_t)IRQn) & 0xFUL)-4UL] = (uint8_t)((priority << (8U - __NVIC_PRIO_BITS)) & (uint32_t)0xFFUL);
 8000e32:	683b      	ldr	r3, [r7, #0]
 8000e34:	b2da      	uxtb	r2, r3
 8000e36:	4908      	ldr	r1, [pc, #32]	; (8000e58 <__NVIC_SetPriority+0x50>)
 8000e38:	79fb      	ldrb	r3, [r7, #7]
 8000e3a:	f003 030f 	and.w	r3, r3, #15
 8000e3e:	3b04      	subs	r3, #4
 8000e40:	0112      	lsls	r2, r2, #4
 8000e42:	b2d2      	uxtb	r2, r2
 8000e44:	440b      	add	r3, r1
 8000e46:	761a      	strb	r2, [r3, #24]
}
 8000e48:	bf00      	nop
 8000e4a:	370c      	adds	r7, #12
 8000e4c:	46bd      	mov	sp, r7
 8000e4e:	bc80      	pop	{r7}
 8000e50:	4770      	bx	lr
 8000e52:	bf00      	nop
 8000e54:	e000e100 	.word	0xe000e100
 8000e58:	e000ed00 	.word	0xe000ed00

08000e5c <NVIC_EncodePriority>:
  \param [in]   PreemptPriority  Preemptive priority value (starting from 0).
  \param [in]       SubPriority  Subpriority value (starting from 0).
  \return                        Encoded priority. Value can be used in the function \ref NVIC_SetPriority().
 */
__STATIC_INLINE uint32_t NVIC_EncodePriority (uint32_t PriorityGroup, uint32_t PreemptPriority, uint32_t SubPriority)
{
 8000e5c:	b480      	push	{r7}
 8000e5e:	b089      	sub	sp, #36	; 0x24
 8000e60:	af00      	add	r7, sp, #0
 8000e62:	60f8      	str	r0, [r7, #12]
 8000e64:	60b9      	str	r1, [r7, #8]
 8000e66:	607a      	str	r2, [r7, #4]
  uint32_t PriorityGroupTmp = (PriorityGroup & (uint32_t)0x07UL);   /* only values 0..7 are used          */
 8000e68:	68fb      	ldr	r3, [r7, #12]
 8000e6a:	f003 0307 	and.w	r3, r3, #7
 8000e6e:	61fb      	str	r3, [r7, #28]
  uint32_t PreemptPriorityBits;
  uint32_t SubPriorityBits;

  PreemptPriorityBits = ((7UL - PriorityGroupTmp) > (uint32_t)(__NVIC_PRIO_BITS)) ? (uint32_t)(__NVIC_PRIO_BITS) : (uint32_t)(7UL - PriorityGroupTmp);
 8000e70:	69fb      	ldr	r3, [r7, #28]
 8000e72:	f1c3 0307 	rsb	r3, r3, #7
 8000e76:	2b04      	cmp	r3, #4
 8000e78:	bf28      	it	cs
 8000e7a:	2304      	movcs	r3, #4
 8000e7c:	61bb      	str	r3, [r7, #24]
  SubPriorityBits     = ((PriorityGroupTmp + (uint32_t)(__NVIC_PRIO_BITS)) < (uint32_t)7UL) ? (uint32_t)0UL : (uint32_t)((PriorityGroupTmp - 7UL) + (uint32_t)(__NVIC_PRIO_BITS));
 8000e7e:	69fb      	ldr	r3, [r7, #28]
 8000e80:	3304      	adds	r3, #4
 8000e82:	2b06      	cmp	r3, #6
 8000e84:	d902      	bls.n	8000e8c <NVIC_EncodePriority+0x30>
 8000e86:	69fb      	ldr	r3, [r7, #28]
 8000e88:	3b03      	subs	r3, #3
 8000e8a:	e000      	b.n	8000e8e <NVIC_EncodePriority+0x32>
 8000e8c:	2300      	movs	r3, #0
 8000e8e:	617b      	str	r3, [r7, #20]

  return (
           ((PreemptPriority & (uint32_t)((1UL << (PreemptPriorityBits)) - 1UL)) << SubPriorityBits) |
 8000e90:	f04f 32ff 	mov.w	r2, #4294967295
 8000e94:	69bb      	ldr	r3, [r7, #24]
 8000e96:	fa02 f303 	lsl.w	r3, r2, r3
 8000e9a:	43da      	mvns	r2, r3
 8000e9c:	68bb      	ldr	r3, [r7, #8]
 8000e9e:	401a      	ands	r2, r3
 8000ea0:	697b      	ldr	r3, [r7, #20]
 8000ea2:	409a      	lsls	r2, r3
           ((SubPriority     & (uint32_t)((1UL << (SubPriorityBits    )) - 1UL)))
 8000ea4:	f04f 31ff 	mov.w	r1, #4294967295
 8000ea8:	697b      	ldr	r3, [r7, #20]
 8000eaa:	fa01 f303 	lsl.w	r3, r1, r3
 8000eae:	43d9      	mvns	r1, r3
 8000eb0:	687b      	ldr	r3, [r7, #4]
 8000eb2:	400b      	ands	r3, r1
           ((PreemptPriority & (uint32_t)((1UL << (PreemptPriorityBits)) - 1UL)) << SubPriorityBits) |
 8000eb4:	4313      	orrs	r3, r2
         );
}
 8000eb6:	4618      	mov	r0, r3
 8000eb8:	3724      	adds	r7, #36	; 0x24
 8000eba:	46bd      	mov	sp, r7
 8000ebc:	bc80      	pop	{r7}
 8000ebe:	4770      	bx	lr

08000ec0 <SysTick_Config>:
  \note    When the variable <b>__Vendor_SysTickConfig</b> is set to 1, then the
           function <b>SysTick_Config</b> is not included. In this case, the file <b><i>device</i>.h</b>
           must contain a vendor-specific implementation of this function.
 */
__STATIC_INLINE uint32_t SysTick_Config(uint32_t ticks)
{
 8000ec0:	b580      	push	{r7, lr}
 8000ec2:	b082      	sub	sp, #8
 8000ec4:	af00      	add	r7, sp, #0
 8000ec6:	6078      	str	r0, [r7, #4]
  if ((ticks - 1UL) > SysTick_LOAD_RELOAD_Msk)
 8000ec8:	687b      	ldr	r3, [r7, #4]
 8000eca:	3b01      	subs	r3, #1
 8000ecc:	f1b3 7f80 	cmp.w	r3, #16777216	; 0x1000000
 8000ed0:	d301      	bcc.n	8000ed6 <SysTick_Config+0x16>
  {
    return (1UL);                                                   /* Reload value impossible */
 8000ed2:	2301      	movs	r3, #1
 8000ed4:	e00f      	b.n	8000ef6 <SysTick_Config+0x36>
  }

  SysTick->LOAD  = (uint32_t)(ticks - 1UL);                         /* set reload register */
 8000ed6:	4a0a      	ldr	r2, [pc, #40]	; (8000f00 <SysTick_Config+0x40>)
 8000ed8:	687b      	ldr	r3, [r7, #4]
 8000eda:	3b01      	subs	r3, #1
 8000edc:	6053      	str	r3, [r2, #4]
  NVIC_SetPriority (SysTick_IRQn, (1UL << __NVIC_PRIO_BITS) - 1UL); /* set Priority for Systick Interrupt */
 8000ede:	210f      	movs	r1, #15
 8000ee0:	f04f 30ff 	mov.w	r0, #4294967295
 8000ee4:	f7ff ff90 	bl	8000e08 <__NVIC_SetPriority>
  SysTick->VAL   = 0UL;                                             /* Load the SysTick Counter Value */
 8000ee8:	4b05      	ldr	r3, [pc, #20]	; (8000f00 <SysTick_Config+0x40>)
 8000eea:	2200      	movs	r2, #0
 8000eec:	609a      	str	r2, [r3, #8]
  SysTick->CTRL  = SysTick_CTRL_CLKSOURCE_Msk |
 8000eee:	4b04      	ldr	r3, [pc, #16]	; (8000f00 <SysTick_Config+0x40>)
 8000ef0:	2207      	movs	r2, #7
 8000ef2:	601a      	str	r2, [r3, #0]
                   SysTick_CTRL_TICKINT_Msk   |
                   SysTick_CTRL_ENABLE_Msk;                         /* Enable SysTick IRQ and SysTick Timer */
  return (0UL);                                                     /* Function successful */
 8000ef4:	2300      	movs	r3, #0
}
 8000ef6:	4618      	mov	r0, r3
 8000ef8:	3708      	adds	r7, #8
 8000efa:	46bd      	mov	sp, r7
 8000efc:	bd80      	pop	{r7, pc}
 8000efe:	bf00      	nop
 8000f00:	e000e010 	.word	0xe000e010

08000f04 <HAL_NVIC_SetPriorityGrouping>:
  * @note   When the NVIC_PriorityGroup_0 is selected, IRQ preemption is no more possible. 
  *         The pending IRQ priority will be managed only by the subpriority. 
  * @retval None
  */
void HAL_NVIC_SetPriorityGrouping(uint32_t PriorityGroup)
{
 8000f04:	b580      	push	{r7, lr}
 8000f06:	b082      	sub	sp, #8
 8000f08:	af00      	add	r7, sp, #0
 8000f0a:	6078      	str	r0, [r7, #4]
  /* Check the parameters */
  assert_param(IS_NVIC_PRIORITY_GROUP(PriorityGroup));
  
  /* Set the PRIGROUP[10:8] bits according to the PriorityGroup parameter value */
  NVIC_SetPriorityGrouping(PriorityGroup);
 8000f0c:	6878      	ldr	r0, [r7, #4]
 8000f0e:	f7ff ff2d 	bl	8000d6c <__NVIC_SetPriorityGrouping>
}
 8000f12:	bf00      	nop
 8000f14:	3708      	adds	r7, #8
 8000f16:	46bd      	mov	sp, r7
 8000f18:	bd80      	pop	{r7, pc}

08000f1a <HAL_NVIC_SetPriority>:
  *         This parameter can be a value between 0 and 15
  *         A lower priority value indicates a higher priority.          
  * @retval None
  */
void HAL_NVIC_SetPriority(IRQn_Type IRQn, uint32_t PreemptPriority, uint32_t SubPriority)
{ 
 8000f1a:	b580      	push	{r7, lr}
 8000f1c:	b086      	sub	sp, #24
 8000f1e:	af00      	add	r7, sp, #0
 8000f20:	4603      	mov	r3, r0
 8000f22:	60b9      	str	r1, [r7, #8]
 8000f24:	607a      	str	r2, [r7, #4]
 8000f26:	73fb      	strb	r3, [r7, #15]
  uint32_t prioritygroup = 0x00U;
 8000f28:	2300      	movs	r3, #0
 8000f2a:	617b      	str	r3, [r7, #20]
  
  /* Check the parameters */
  assert_param(IS_NVIC_SUB_PRIORITY(SubPriority));
  assert_param(IS_NVIC_PREEMPTION_PRIORITY(PreemptPriority));
  
  prioritygroup = NVIC_GetPriorityGrouping();
 8000f2c:	f7ff ff42 	bl	8000db4 <__NVIC_GetPriorityGrouping>
 8000f30:	6178      	str	r0, [r7, #20]
  
  NVIC_SetPriority(IRQn, NVIC_EncodePriority(prioritygroup, PreemptPriority, SubPriority));
 8000f32:	687a      	ldr	r2, [r7, #4]
 8000f34:	68b9      	ldr	r1, [r7, #8]
 8000f36:	6978      	ldr	r0, [r7, #20]
 8000f38:	f7ff ff90 	bl	8000e5c <NVIC_EncodePriority>
 8000f3c:	4602      	mov	r2, r0
 8000f3e:	f997 300f 	ldrsb.w	r3, [r7, #15]
 8000f42:	4611      	mov	r1, r2
 8000f44:	4618      	mov	r0, r3
 8000f46:	f7ff ff5f 	bl	8000e08 <__NVIC_SetPriority>
}
 8000f4a:	bf00      	nop
 8000f4c:	3718      	adds	r7, #24
 8000f4e:	46bd      	mov	sp, r7
 8000f50:	bd80      	pop	{r7, pc}

08000f52 <HAL_NVIC_EnableIRQ>:
  *         This parameter can be an enumerator of IRQn_Type enumeration
  *         (For the complete STM32 Devices IRQ Channels list, please refer to the appropriate CMSIS device file (stm32f10xxx.h))
  * @retval None
  */
void HAL_NVIC_EnableIRQ(IRQn_Type IRQn)
{
 8000f52:	b580      	push	{r7, lr}
 8000f54:	b082      	sub	sp, #8
 8000f56:	af00      	add	r7, sp, #0
 8000f58:	4603      	mov	r3, r0
 8000f5a:	71fb      	strb	r3, [r7, #7]
  /* Check the parameters */
  assert_param(IS_NVIC_DEVICE_IRQ(IRQn));

  /* Enable interrupt */
  NVIC_EnableIRQ(IRQn);
 8000f5c:	f997 3007 	ldrsb.w	r3, [r7, #7]
 8000f60:	4618      	mov	r0, r3
 8000f62:	f7ff ff35 	bl	8000dd0 <__NVIC_EnableIRQ>
}
 8000f66:	bf00      	nop
 8000f68:	3708      	adds	r7, #8
 8000f6a:	46bd      	mov	sp, r7
 8000f6c:	bd80      	pop	{r7, pc}

08000f6e <HAL_SYSTICK_Config>:
  * @param  TicksNumb: Specifies the ticks Number of ticks between two interrupts.
  * @retval status:  - 0  Function succeeded.
  *                  - 1  Function failed.
  */
uint32_t HAL_SYSTICK_Config(uint32_t TicksNumb)
{
 8000f6e:	b580      	push	{r7, lr}
 8000f70:	b082      	sub	sp, #8
 8000f72:	af00      	add	r7, sp, #0
 8000f74:	6078      	str	r0, [r7, #4]
   return SysTick_Config(TicksNumb);
 8000f76:	6878      	ldr	r0, [r7, #4]
 8000f78:	f7ff ffa2 	bl	8000ec0 <SysTick_Config>
 8000f7c:	4603      	mov	r3, r0
}
 8000f7e:	4618      	mov	r0, r3
 8000f80:	3708      	adds	r7, #8
 8000f82:	46bd      	mov	sp, r7
 8000f84:	bd80      	pop	{r7, pc}
	...

08000f88 <HAL_GPIO_Init>:
  * @param  GPIO_Init: pointer to a GPIO_InitTypeDef structure that contains
  *         the configuration information for the specified GPIO peripheral.
  * @retval None
  */
void HAL_GPIO_Init(GPIO_TypeDef  *GPIOx, GPIO_InitTypeDef *GPIO_Init)
{
 8000f88:	b480      	push	{r7}
 8000f8a:	b08b      	sub	sp, #44	; 0x2c
 8000f8c:	af00      	add	r7, sp, #0
 8000f8e:	6078      	str	r0, [r7, #4]
 8000f90:	6039      	str	r1, [r7, #0]
  uint32_t position = 0x00u;
 8000f92:	2300      	movs	r3, #0
 8000f94:	627b      	str	r3, [r7, #36]	; 0x24
  uint32_t ioposition;
  uint32_t iocurrent;
  uint32_t temp;
  uint32_t config = 0x00u;
 8000f96:	2300      	movs	r3, #0
 8000f98:	623b      	str	r3, [r7, #32]
  assert_param(IS_GPIO_ALL_INSTANCE(GPIOx));
  assert_param(IS_GPIO_PIN(GPIO_Init->Pin));
  assert_param(IS_GPIO_MODE(GPIO_Init->Mode));

  /* Configure the port pins */
  while (((GPIO_Init->Pin) >> position) != 0x00u)
 8000f9a:	e161      	b.n	8001260 <HAL_GPIO_Init+0x2d8>
  {
    /* Get the IO position */
    ioposition = (0x01uL << position);
 8000f9c:	2201      	movs	r2, #1
 8000f9e:	6a7b      	ldr	r3, [r7, #36]	; 0x24
 8000fa0:	fa02 f303 	lsl.w	r3, r2, r3
 8000fa4:	61fb      	str	r3, [r7, #28]

    /* Get the current IO position */
    iocurrent = (uint32_t)(GPIO_Init->Pin) & ioposition;
 8000fa6:	683b      	ldr	r3, [r7, #0]
 8000fa8:	681b      	ldr	r3, [r3, #0]
 8000faa:	69fa      	ldr	r2, [r7, #28]
 8000fac:	4013      	ands	r3, r2
 8000fae:	61bb      	str	r3, [r7, #24]

    if (iocurrent == ioposition)
 8000fb0:	69ba      	ldr	r2, [r7, #24]
 8000fb2:	69fb      	ldr	r3, [r7, #28]
 8000fb4:	429a      	cmp	r2, r3
 8000fb6:	f040 8150 	bne.w	800125a <HAL_GPIO_Init+0x2d2>
    {
      /* Check the Alternate function parameters */
      assert_param(IS_GPIO_AF_INSTANCE(GPIOx));

      /* Based on the required mode, filling config variable with MODEy[1:0] and CNFy[3:2] corresponding bits */
      switch (GPIO_Init->Mode)
 8000fba:	683b      	ldr	r3, [r7, #0]
 8000fbc:	685b      	ldr	r3, [r3, #4]
 8000fbe:	4a97      	ldr	r2, [pc, #604]	; (800121c <HAL_GPIO_Init+0x294>)
 8000fc0:	4293      	cmp	r3, r2
 8000fc2:	d05e      	beq.n	8001082 <HAL_GPIO_Init+0xfa>
 8000fc4:	4a95      	ldr	r2, [pc, #596]	; (800121c <HAL_GPIO_Init+0x294>)
 8000fc6:	4293      	cmp	r3, r2
 8000fc8:	d875      	bhi.n	80010b6 <HAL_GPIO_Init+0x12e>
 8000fca:	4a95      	ldr	r2, [pc, #596]	; (8001220 <HAL_GPIO_Init+0x298>)
 8000fcc:	4293      	cmp	r3, r2
 8000fce:	d058      	beq.n	8001082 <HAL_GPIO_Init+0xfa>
 8000fd0:	4a93      	ldr	r2, [pc, #588]	; (8001220 <HAL_GPIO_Init+0x298>)
 8000fd2:	4293      	cmp	r3, r2
 8000fd4:	d86f      	bhi.n	80010b6 <HAL_GPIO_Init+0x12e>
 8000fd6:	4a93      	ldr	r2, [pc, #588]	; (8001224 <HAL_GPIO_Init+0x29c>)
 8000fd8:	4293      	cmp	r3, r2
 8000fda:	d052      	beq.n	8001082 <HAL_GPIO_Init+0xfa>
 8000fdc:	4a91      	ldr	r2, [pc, #580]	; (8001224 <HAL_GPIO_Init+0x29c>)
 8000fde:	4293      	cmp	r3, r2
 8000fe0:	d869      	bhi.n	80010b6 <HAL_GPIO_Init+0x12e>
 8000fe2:	4a91      	ldr	r2, [pc, #580]	; (8001228 <HAL_GPIO_Init+0x2a0>)
 8000fe4:	4293      	cmp	r3, r2
 8000fe6:	d04c      	beq.n	8001082 <HAL_GPIO_Init+0xfa>
 8000fe8:	4a8f      	ldr	r2, [pc, #572]	; (8001228 <HAL_GPIO_Init+0x2a0>)
 8000fea:	4293      	cmp	r3, r2
 8000fec:	d863      	bhi.n	80010b6 <HAL_GPIO_Init+0x12e>
 8000fee:	4a8f      	ldr	r2, [pc, #572]	; (800122c <HAL_GPIO_Init+0x2a4>)
 8000ff0:	4293      	cmp	r3, r2
 8000ff2:	d046      	beq.n	8001082 <HAL_GPIO_Init+0xfa>
 8000ff4:	4a8d      	ldr	r2, [pc, #564]	; (800122c <HAL_GPIO_Init+0x2a4>)
 8000ff6:	4293      	cmp	r3, r2
 8000ff8:	d85d      	bhi.n	80010b6 <HAL_GPIO_Init+0x12e>
 8000ffa:	2b12      	cmp	r3, #18
 8000ffc:	d82a      	bhi.n	8001054 <HAL_GPIO_Init+0xcc>
 8000ffe:	2b12      	cmp	r3, #18
 8001000:	d859      	bhi.n	80010b6 <HAL_GPIO_Init+0x12e>
 8001002:	a201      	add	r2, pc, #4	; (adr r2, 8001008 <HAL_GPIO_Init+0x80>)
 8001004:	f852 f023 	ldr.w	pc, [r2, r3, lsl #2]
 8001008:	08001083 	.word	0x08001083
 800100c:	0800105d 	.word	0x0800105d
 8001010:	0800106f 	.word	0x0800106f
 8001014:	080010b1 	.word	0x080010b1
 8001018:	080010b7 	.word	0x080010b7
 800101c:	080010b7 	.word	0x080010b7
 8001020:	080010b7 	.word	0x080010b7
 8001024:	080010b7 	.word	0x080010b7
 8001028:	080010b7 	.word	0x080010b7
 800102c:	080010b7 	.word	0x080010b7
 8001030:	080010b7 	.word	0x080010b7
 8001034:	080010b7 	.word	0x080010b7
 8001038:	080010b7 	.word	0x080010b7
 800103c:	080010b7 	.word	0x080010b7
 8001040:	080010b7 	.word	0x080010b7
 8001044:	080010b7 	.word	0x080010b7
 8001048:	080010b7 	.word	0x080010b7
 800104c:	08001065 	.word	0x08001065
 8001050:	08001079 	.word	0x08001079
 8001054:	4a76      	ldr	r2, [pc, #472]	; (8001230 <HAL_GPIO_Init+0x2a8>)
 8001056:	4293      	cmp	r3, r2
 8001058:	d013      	beq.n	8001082 <HAL_GPIO_Init+0xfa>
          config = GPIO_CR_MODE_INPUT + GPIO_CR_CNF_ANALOG;
          break;

        /* Parameters are checked with assert_param */
        default:
          break;
 800105a:	e02c      	b.n	80010b6 <HAL_GPIO_Init+0x12e>
          config = GPIO_Init->Speed + GPIO_CR_CNF_GP_OUTPUT_PP;
 800105c:	683b      	ldr	r3, [r7, #0]
 800105e:	68db      	ldr	r3, [r3, #12]
 8001060:	623b      	str	r3, [r7, #32]
          break;
 8001062:	e029      	b.n	80010b8 <HAL_GPIO_Init+0x130>
          config = GPIO_Init->Speed + GPIO_CR_CNF_GP_OUTPUT_OD;
 8001064:	683b      	ldr	r3, [r7, #0]
 8001066:	68db      	ldr	r3, [r3, #12]
 8001068:	3304      	adds	r3, #4
 800106a:	623b      	str	r3, [r7, #32]
          break;
 800106c:	e024      	b.n	80010b8 <HAL_GPIO_Init+0x130>
          config = GPIO_Init->Speed + GPIO_CR_CNF_AF_OUTPUT_PP;
 800106e:	683b      	ldr	r3, [r7, #0]
 8001070:	68db      	ldr	r3, [r3, #12]
 8001072:	3308      	adds	r3, #8
 8001074:	623b      	str	r3, [r7, #32]
          break;
 8001076:	e01f      	b.n	80010b8 <HAL_GPIO_Init+0x130>
          config = GPIO_Init->Speed + GPIO_CR_CNF_AF_OUTPUT_OD;
 8001078:	683b      	ldr	r3, [r7, #0]
 800107a:	68db      	ldr	r3, [r3, #12]
 800107c:	330c      	adds	r3, #12
 800107e:	623b      	str	r3, [r7, #32]
          break;
 8001080:	e01a      	b.n	80010b8 <HAL_GPIO_Init+0x130>
          if (GPIO_Init->Pull == GPIO_NOPULL)
 8001082:	683b      	ldr	r3, [r7, #0]
 8001084:	689b      	ldr	r3, [r3, #8]
 8001086:	2b00      	cmp	r3, #0
 8001088:	d102      	bne.n	8001090 <HAL_GPIO_Init+0x108>
            config = GPIO_CR_MODE_INPUT + GPIO_CR_CNF_INPUT_FLOATING;
 800108a:	2304      	movs	r3, #4
 800108c:	623b      	str	r3, [r7, #32]
          break;
 800108e:	e013      	b.n	80010b8 <HAL_GPIO_Init+0x130>
          else if (GPIO_Init->Pull == GPIO_PULLUP)
 8001090:	683b      	ldr	r3, [r7, #0]
 8001092:	689b      	ldr	r3, [r3, #8]
 8001094:	2b01      	cmp	r3, #1
 8001096:	d105      	bne.n	80010a4 <HAL_GPIO_Init+0x11c>
            config = GPIO_CR_MODE_INPUT + GPIO_CR_CNF_INPUT_PU_PD;
 8001098:	2308      	movs	r3, #8
 800109a:	623b      	str	r3, [r7, #32]
            GPIOx->BSRR = ioposition;
 800109c:	687b      	ldr	r3, [r7, #4]
 800109e:	69fa      	ldr	r2, [r7, #28]
 80010a0:	611a      	str	r2, [r3, #16]
          break;
 80010a2:	e009      	b.n	80010b8 <HAL_GPIO_Init+0x130>
            config = GPIO_CR_MODE_INPUT + GPIO_CR_CNF_INPUT_PU_PD;
 80010a4:	2308      	movs	r3, #8
 80010a6:	623b      	str	r3, [r7, #32]
            GPIOx->BRR = ioposition;
 80010a8:	687b      	ldr	r3, [r7, #4]
 80010aa:	69fa      	ldr	r2, [r7, #28]
 80010ac:	615a      	str	r2, [r3, #20]
          break;
 80010ae:	e003      	b.n	80010b8 <HAL_GPIO_Init+0x130>
          config = GPIO_CR_MODE_INPUT + GPIO_CR_CNF_ANALOG;
 80010b0:	2300      	movs	r3, #0
 80010b2:	623b      	str	r3, [r7, #32]
          break;
 80010b4:	e000      	b.n	80010b8 <HAL_GPIO_Init+0x130>
          break;
 80010b6:	bf00      	nop
      }

      /* Check if the current bit belongs to first half or last half of the pin count number
       in order to address CRH or CRL register*/
      configregister = (iocurrent < GPIO_PIN_8) ? &GPIOx->CRL     : &GPIOx->CRH;
 80010b8:	69bb      	ldr	r3, [r7, #24]
 80010ba:	2bff      	cmp	r3, #255	; 0xff
 80010bc:	d801      	bhi.n	80010c2 <HAL_GPIO_Init+0x13a>
 80010be:	687b      	ldr	r3, [r7, #4]
 80010c0:	e001      	b.n	80010c6 <HAL_GPIO_Init+0x13e>
 80010c2:	687b      	ldr	r3, [r7, #4]
 80010c4:	3304      	adds	r3, #4
 80010c6:	617b      	str	r3, [r7, #20]
      registeroffset = (iocurrent < GPIO_PIN_8) ? (position << 2u) : ((position - 8u) << 2u);
 80010c8:	69bb      	ldr	r3, [r7, #24]
 80010ca:	2bff      	cmp	r3, #255	; 0xff
 80010cc:	d802      	bhi.n	80010d4 <HAL_GPIO_Init+0x14c>
 80010ce:	6a7b      	ldr	r3, [r7, #36]	; 0x24
 80010d0:	009b      	lsls	r3, r3, #2
 80010d2:	e002      	b.n	80010da <HAL_GPIO_Init+0x152>
 80010d4:	6a7b      	ldr	r3, [r7, #36]	; 0x24
 80010d6:	3b08      	subs	r3, #8
 80010d8:	009b      	lsls	r3, r3, #2
 80010da:	613b      	str	r3, [r7, #16]

      /* Apply the new configuration of the pin to the register */
      MODIFY_REG((*configregister), ((GPIO_CRL_MODE0 | GPIO_CRL_CNF0) << registeroffset), (config << registeroffset));
 80010dc:	697b      	ldr	r3, [r7, #20]
 80010de:	681a      	ldr	r2, [r3, #0]
 80010e0:	210f      	movs	r1, #15
 80010e2:	693b      	ldr	r3, [r7, #16]
 80010e4:	fa01 f303 	lsl.w	r3, r1, r3
 80010e8:	43db      	mvns	r3, r3
 80010ea:	401a      	ands	r2, r3
 80010ec:	6a39      	ldr	r1, [r7, #32]
 80010ee:	693b      	ldr	r3, [r7, #16]
 80010f0:	fa01 f303 	lsl.w	r3, r1, r3
 80010f4:	431a      	orrs	r2, r3
 80010f6:	697b      	ldr	r3, [r7, #20]
 80010f8:	601a      	str	r2, [r3, #0]

      /*--------------------- EXTI Mode Configuration ------------------------*/
      /* Configure the External Interrupt or event for the current IO */
      if ((GPIO_Init->Mode & EXTI_MODE) == EXTI_MODE)
 80010fa:	683b      	ldr	r3, [r7, #0]
 80010fc:	685b      	ldr	r3, [r3, #4]
 80010fe:	f003 5380 	and.w	r3, r3, #268435456	; 0x10000000
 8001102:	2b00      	cmp	r3, #0
 8001104:	f000 80a9 	beq.w	800125a <HAL_GPIO_Init+0x2d2>
      {
        /* Enable AFIO Clock */
        __HAL_RCC_AFIO_CLK_ENABLE();
 8001108:	4b4a      	ldr	r3, [pc, #296]	; (8001234 <HAL_GPIO_Init+0x2ac>)
 800110a:	699b      	ldr	r3, [r3, #24]
 800110c:	4a49      	ldr	r2, [pc, #292]	; (8001234 <HAL_GPIO_Init+0x2ac>)
 800110e:	f043 0301 	orr.w	r3, r3, #1
 8001112:	6193      	str	r3, [r2, #24]
 8001114:	4b47      	ldr	r3, [pc, #284]	; (8001234 <HAL_GPIO_Init+0x2ac>)
 8001116:	699b      	ldr	r3, [r3, #24]
 8001118:	f003 0301 	and.w	r3, r3, #1
 800111c:	60bb      	str	r3, [r7, #8]
 800111e:	68bb      	ldr	r3, [r7, #8]
        temp = AFIO->EXTICR[position >> 2u];
 8001120:	4a45      	ldr	r2, [pc, #276]	; (8001238 <HAL_GPIO_Init+0x2b0>)
 8001122:	6a7b      	ldr	r3, [r7, #36]	; 0x24
 8001124:	089b      	lsrs	r3, r3, #2
 8001126:	3302      	adds	r3, #2
 8001128:	f852 3023 	ldr.w	r3, [r2, r3, lsl #2]
 800112c:	60fb      	str	r3, [r7, #12]
        CLEAR_BIT(temp, (0x0Fu) << (4u * (position & 0x03u)));
 800112e:	6a7b      	ldr	r3, [r7, #36]	; 0x24
 8001130:	f003 0303 	and.w	r3, r3, #3
 8001134:	009b      	lsls	r3, r3, #2
 8001136:	220f      	movs	r2, #15
 8001138:	fa02 f303 	lsl.w	r3, r2, r3
 800113c:	43db      	mvns	r3, r3
 800113e:	68fa      	ldr	r2, [r7, #12]
 8001140:	4013      	ands	r3, r2
 8001142:	60fb      	str	r3, [r7, #12]
        SET_BIT(temp, (GPIO_GET_INDEX(GPIOx)) << (4u * (position & 0x03u)));
 8001144:	687b      	ldr	r3, [r7, #4]
 8001146:	4a3d      	ldr	r2, [pc, #244]	; (800123c <HAL_GPIO_Init+0x2b4>)
 8001148:	4293      	cmp	r3, r2
 800114a:	d00d      	beq.n	8001168 <HAL_GPIO_Init+0x1e0>
 800114c:	687b      	ldr	r3, [r7, #4]
 800114e:	4a3c      	ldr	r2, [pc, #240]	; (8001240 <HAL_GPIO_Init+0x2b8>)
 8001150:	4293      	cmp	r3, r2
 8001152:	d007      	beq.n	8001164 <HAL_GPIO_Init+0x1dc>
 8001154:	687b      	ldr	r3, [r7, #4]
 8001156:	4a3b      	ldr	r2, [pc, #236]	; (8001244 <HAL_GPIO_Init+0x2bc>)
 8001158:	4293      	cmp	r3, r2
 800115a:	d101      	bne.n	8001160 <HAL_GPIO_Init+0x1d8>
 800115c:	2302      	movs	r3, #2
 800115e:	e004      	b.n	800116a <HAL_GPIO_Init+0x1e2>
 8001160:	2303      	movs	r3, #3
 8001162:	e002      	b.n	800116a <HAL_GPIO_Init+0x1e2>
 8001164:	2301      	movs	r3, #1
 8001166:	e000      	b.n	800116a <HAL_GPIO_Init+0x1e2>
 8001168:	2300      	movs	r3, #0
 800116a:	6a7a      	ldr	r2, [r7, #36]	; 0x24
 800116c:	f002 0203 	and.w	r2, r2, #3
 8001170:	0092      	lsls	r2, r2, #2
 8001172:	4093      	lsls	r3, r2
 8001174:	68fa      	ldr	r2, [r7, #12]
 8001176:	4313      	orrs	r3, r2
 8001178:	60fb      	str	r3, [r7, #12]
        AFIO->EXTICR[position >> 2u] = temp;
 800117a:	492f      	ldr	r1, [pc, #188]	; (8001238 <HAL_GPIO_Init+0x2b0>)
 800117c:	6a7b      	ldr	r3, [r7, #36]	; 0x24
 800117e:	089b      	lsrs	r3, r3, #2
 8001180:	3302      	adds	r3, #2
 8001182:	68fa      	ldr	r2, [r7, #12]
 8001184:	f841 2023 	str.w	r2, [r1, r3, lsl #2]


        /* Enable or disable the rising trigger */
        if ((GPIO_Init->Mode & RISING_EDGE) == RISING_EDGE)
 8001188:	683b      	ldr	r3, [r7, #0]
 800118a:	685b      	ldr	r3, [r3, #4]
 800118c:	f403 1380 	and.w	r3, r3, #1048576	; 0x100000
 8001190:	2b00      	cmp	r3, #0
 8001192:	d006      	beq.n	80011a2 <HAL_GPIO_Init+0x21a>
        {
          SET_BIT(EXTI->RTSR, iocurrent);
 8001194:	4b2c      	ldr	r3, [pc, #176]	; (8001248 <HAL_GPIO_Init+0x2c0>)
 8001196:	689a      	ldr	r2, [r3, #8]
 8001198:	492b      	ldr	r1, [pc, #172]	; (8001248 <HAL_GPIO_Init+0x2c0>)
 800119a:	69bb      	ldr	r3, [r7, #24]
 800119c:	4313      	orrs	r3, r2
 800119e:	608b      	str	r3, [r1, #8]
 80011a0:	e006      	b.n	80011b0 <HAL_GPIO_Init+0x228>
        }
        else
        {
          CLEAR_BIT(EXTI->RTSR, iocurrent);
 80011a2:	4b29      	ldr	r3, [pc, #164]	; (8001248 <HAL_GPIO_Init+0x2c0>)
 80011a4:	689a      	ldr	r2, [r3, #8]
 80011a6:	69bb      	ldr	r3, [r7, #24]
 80011a8:	43db      	mvns	r3, r3
 80011aa:	4927      	ldr	r1, [pc, #156]	; (8001248 <HAL_GPIO_Init+0x2c0>)
 80011ac:	4013      	ands	r3, r2
 80011ae:	608b      	str	r3, [r1, #8]
        }

        /* Enable or disable the falling trigger */
        if ((GPIO_Init->Mode & FALLING_EDGE) == FALLING_EDGE)
 80011b0:	683b      	ldr	r3, [r7, #0]
 80011b2:	685b      	ldr	r3, [r3, #4]
 80011b4:	f403 1300 	and.w	r3, r3, #2097152	; 0x200000
 80011b8:	2b00      	cmp	r3, #0
 80011ba:	d006      	beq.n	80011ca <HAL_GPIO_Init+0x242>
        {
          SET_BIT(EXTI->FTSR, iocurrent);
 80011bc:	4b22      	ldr	r3, [pc, #136]	; (8001248 <HAL_GPIO_Init+0x2c0>)
 80011be:	68da      	ldr	r2, [r3, #12]
 80011c0:	4921      	ldr	r1, [pc, #132]	; (8001248 <HAL_GPIO_Init+0x2c0>)
 80011c2:	69bb      	ldr	r3, [r7, #24]
 80011c4:	4313      	orrs	r3, r2
 80011c6:	60cb      	str	r3, [r1, #12]
 80011c8:	e006      	b.n	80011d8 <HAL_GPIO_Init+0x250>
        }
        else
        {
          CLEAR_BIT(EXTI->FTSR, iocurrent);
 80011ca:	4b1f      	ldr	r3, [pc, #124]	; (8001248 <HAL_GPIO_Init+0x2c0>)
 80011cc:	68da      	ldr	r2, [r3, #12]
 80011ce:	69bb      	ldr	r3, [r7, #24]
 80011d0:	43db      	mvns	r3, r3
 80011d2:	491d      	ldr	r1, [pc, #116]	; (8001248 <HAL_GPIO_Init+0x2c0>)
 80011d4:	4013      	ands	r3, r2
 80011d6:	60cb      	str	r3, [r1, #12]
        }

        /* Configure the event mask */
        if ((GPIO_Init->Mode & GPIO_MODE_EVT) == GPIO_MODE_EVT)
 80011d8:	683b      	ldr	r3, [r7, #0]
 80011da:	685b      	ldr	r3, [r3, #4]
 80011dc:	f403 3300 	and.w	r3, r3, #131072	; 0x20000
 80011e0:	2b00      	cmp	r3, #0
 80011e2:	d006      	beq.n	80011f2 <HAL_GPIO_Init+0x26a>
        {
          SET_BIT(EXTI->EMR, iocurrent);
 80011e4:	4b18      	ldr	r3, [pc, #96]	; (8001248 <HAL_GPIO_Init+0x2c0>)
 80011e6:	685a      	ldr	r2, [r3, #4]
 80011e8:	4917      	ldr	r1, [pc, #92]	; (8001248 <HAL_GPIO_Init+0x2c0>)
 80011ea:	69bb      	ldr	r3, [r7, #24]
 80011ec:	4313      	orrs	r3, r2
 80011ee:	604b      	str	r3, [r1, #4]
 80011f0:	e006      	b.n	8001200 <HAL_GPIO_Init+0x278>
        }
        else
        {
          CLEAR_BIT(EXTI->EMR, iocurrent);
 80011f2:	4b15      	ldr	r3, [pc, #84]	; (8001248 <HAL_GPIO_Init+0x2c0>)
 80011f4:	685a      	ldr	r2, [r3, #4]
 80011f6:	69bb      	ldr	r3, [r7, #24]
 80011f8:	43db      	mvns	r3, r3
 80011fa:	4913      	ldr	r1, [pc, #76]	; (8001248 <HAL_GPIO_Init+0x2c0>)
 80011fc:	4013      	ands	r3, r2
 80011fe:	604b      	str	r3, [r1, #4]
        }

        /* Configure the interrupt mask */
        if ((GPIO_Init->Mode & GPIO_MODE_IT) == GPIO_MODE_IT)
 8001200:	683b      	ldr	r3, [r7, #0]
 8001202:	685b      	ldr	r3, [r3, #4]
 8001204:	f403 3380 	and.w	r3, r3, #65536	; 0x10000
 8001208:	2b00      	cmp	r3, #0
 800120a:	d01f      	beq.n	800124c <HAL_GPIO_Init+0x2c4>
        {
          SET_BIT(EXTI->IMR, iocurrent);
 800120c:	4b0e      	ldr	r3, [pc, #56]	; (8001248 <HAL_GPIO_Init+0x2c0>)
 800120e:	681a      	ldr	r2, [r3, #0]
 8001210:	490d      	ldr	r1, [pc, #52]	; (8001248 <HAL_GPIO_Init+0x2c0>)
 8001212:	69bb      	ldr	r3, [r7, #24]
 8001214:	4313      	orrs	r3, r2
 8001216:	600b      	str	r3, [r1, #0]
 8001218:	e01f      	b.n	800125a <HAL_GPIO_Init+0x2d2>
 800121a:	bf00      	nop
 800121c:	10320000 	.word	0x10320000
 8001220:	10310000 	.word	0x10310000
 8001224:	10220000 	.word	0x10220000
 8001228:	10210000 	.word	0x10210000
 800122c:	10120000 	.word	0x10120000
 8001230:	10110000 	.word	0x10110000
 8001234:	40021000 	.word	0x40021000
 8001238:	40010000 	.word	0x40010000
 800123c:	40010800 	.word	0x40010800
 8001240:	40010c00 	.word	0x40010c00
 8001244:	40011000 	.word	0x40011000
 8001248:	40010400 	.word	0x40010400
        }
        else
        {
          CLEAR_BIT(EXTI->IMR, iocurrent);
 800124c:	4b0b      	ldr	r3, [pc, #44]	; (800127c <HAL_GPIO_Init+0x2f4>)
 800124e:	681a      	ldr	r2, [r3, #0]
 8001250:	69bb      	ldr	r3, [r7, #24]
 8001252:	43db      	mvns	r3, r3
 8001254:	4909      	ldr	r1, [pc, #36]	; (800127c <HAL_GPIO_Init+0x2f4>)
 8001256:	4013      	ands	r3, r2
 8001258:	600b      	str	r3, [r1, #0]
        }
      }
    }

	position++;
 800125a:	6a7b      	ldr	r3, [r7, #36]	; 0x24
 800125c:	3301      	adds	r3, #1
 800125e:	627b      	str	r3, [r7, #36]	; 0x24
  while (((GPIO_Init->Pin) >> position) != 0x00u)
 8001260:	683b      	ldr	r3, [r7, #0]
 8001262:	681a      	ldr	r2, [r3, #0]
 8001264:	6a7b      	ldr	r3, [r7, #36]	; 0x24
 8001266:	fa22 f303 	lsr.w	r3, r2, r3
 800126a:	2b00      	cmp	r3, #0
 800126c:	f47f ae96 	bne.w	8000f9c <HAL_GPIO_Init+0x14>
  }
}
 8001270:	bf00      	nop
 8001272:	bf00      	nop
 8001274:	372c      	adds	r7, #44	; 0x2c
 8001276:	46bd      	mov	sp, r7
 8001278:	bc80      	pop	{r7}
 800127a:	4770      	bx	lr
 800127c:	40010400 	.word	0x40010400

08001280 <HAL_GPIO_WritePin>:
  *            @arg GPIO_PIN_RESET: to clear the port pin
  *            @arg GPIO_PIN_SET: to set the port pin
  * @retval None
  */
void HAL_GPIO_WritePin(GPIO_TypeDef *GPIOx, uint16_t GPIO_Pin, GPIO_PinState PinState)
{
 8001280:	b480      	push	{r7}
 8001282:	b083      	sub	sp, #12
 8001284:	af00      	add	r7, sp, #0
 8001286:	6078      	str	r0, [r7, #4]
 8001288:	460b      	mov	r3, r1
 800128a:	807b      	strh	r3, [r7, #2]
 800128c:	4613      	mov	r3, r2
 800128e:	707b      	strb	r3, [r7, #1]
  /* Check the parameters */
  assert_param(IS_GPIO_PIN(GPIO_Pin));
  assert_param(IS_GPIO_PIN_ACTION(PinState));

  if (PinState != GPIO_PIN_RESET)
 8001290:	787b      	ldrb	r3, [r7, #1]
 8001292:	2b00      	cmp	r3, #0
 8001294:	d003      	beq.n	800129e <HAL_GPIO_WritePin+0x1e>
  {
    GPIOx->BSRR = GPIO_Pin;
 8001296:	887a      	ldrh	r2, [r7, #2]
 8001298:	687b      	ldr	r3, [r7, #4]
 800129a:	611a      	str	r2, [r3, #16]
  }
  else
  {
    GPIOx->BSRR = (uint32_t)GPIO_Pin << 16u;
  }
}
 800129c:	e003      	b.n	80012a6 <HAL_GPIO_WritePin+0x26>
    GPIOx->BSRR = (uint32_t)GPIO_Pin << 16u;
 800129e:	887b      	ldrh	r3, [r7, #2]
 80012a0:	041a      	lsls	r2, r3, #16
 80012a2:	687b      	ldr	r3, [r7, #4]
 80012a4:	611a      	str	r2, [r3, #16]
}
 80012a6:	bf00      	nop
 80012a8:	370c      	adds	r7, #12
 80012aa:	46bd      	mov	sp, r7
 80012ac:	bc80      	pop	{r7}
 80012ae:	4770      	bx	lr

080012b0 <HAL_RCC_OscConfig>:
  *         supported by this macro. User should request a transition to HSE Off
  *         first and then HSE On or HSE Bypass.
  * @retval HAL status
  */
HAL_StatusTypeDef HAL_RCC_OscConfig(RCC_OscInitTypeDef  *RCC_OscInitStruct)
{
 80012b0:	b580      	push	{r7, lr}
 80012b2:	b086      	sub	sp, #24
 80012b4:	af00      	add	r7, sp, #0
 80012b6:	6078      	str	r0, [r7, #4]
  uint32_t tickstart;
  uint32_t pll_config;

  /* Check Null pointer */
  if (RCC_OscInitStruct == NULL)
 80012b8:	687b      	ldr	r3, [r7, #4]
 80012ba:	2b00      	cmp	r3, #0
 80012bc:	d101      	bne.n	80012c2 <HAL_RCC_OscConfig+0x12>
  {
    return HAL_ERROR;
 80012be:	2301      	movs	r3, #1
 80012c0:	e272      	b.n	80017a8 <HAL_RCC_OscConfig+0x4f8>

  /* Check the parameters */
  assert_param(IS_RCC_OSCILLATORTYPE(RCC_OscInitStruct->OscillatorType));

  /*------------------------------- HSE Configuration ------------------------*/
  if (((RCC_OscInitStruct->OscillatorType) & RCC_OSCILLATORTYPE_HSE) == RCC_OSCILLATORTYPE_HSE)
 80012c2:	687b      	ldr	r3, [r7, #4]
 80012c4:	681b      	ldr	r3, [r3, #0]
 80012c6:	f003 0301 	and.w	r3, r3, #1
 80012ca:	2b00      	cmp	r3, #0
 80012cc:	f000 8087 	beq.w	80013de <HAL_RCC_OscConfig+0x12e>
  {
    /* Check the parameters */
    assert_param(IS_RCC_HSE(RCC_OscInitStruct->HSEState));

    /* When the HSE is used as system clock or clock source for PLL in these cases it is not allowed to be disabled */
    if ((__HAL_RCC_GET_SYSCLK_SOURCE() == RCC_SYSCLKSOURCE_STATUS_HSE)
 80012d0:	4b92      	ldr	r3, [pc, #584]	; (800151c <HAL_RCC_OscConfig+0x26c>)
 80012d2:	685b      	ldr	r3, [r3, #4]
 80012d4:	f003 030c 	and.w	r3, r3, #12
 80012d8:	2b04      	cmp	r3, #4
 80012da:	d00c      	beq.n	80012f6 <HAL_RCC_OscConfig+0x46>
        || ((__HAL_RCC_GET_SYSCLK_SOURCE() == RCC_SYSCLKSOURCE_STATUS_PLLCLK) && (__HAL_RCC_GET_PLL_OSCSOURCE() == RCC_PLLSOURCE_HSE)))
 80012dc:	4b8f      	ldr	r3, [pc, #572]	; (800151c <HAL_RCC_OscConfig+0x26c>)
 80012de:	685b      	ldr	r3, [r3, #4]
 80012e0:	f003 030c 	and.w	r3, r3, #12
 80012e4:	2b08      	cmp	r3, #8
 80012e6:	d112      	bne.n	800130e <HAL_RCC_OscConfig+0x5e>
 80012e8:	4b8c      	ldr	r3, [pc, #560]	; (800151c <HAL_RCC_OscConfig+0x26c>)
 80012ea:	685b      	ldr	r3, [r3, #4]
 80012ec:	f403 3380 	and.w	r3, r3, #65536	; 0x10000
 80012f0:	f5b3 3f80 	cmp.w	r3, #65536	; 0x10000
 80012f4:	d10b      	bne.n	800130e <HAL_RCC_OscConfig+0x5e>
    {
      if ((__HAL_RCC_GET_FLAG(RCC_FLAG_HSERDY) != RESET) && (RCC_OscInitStruct->HSEState == RCC_HSE_OFF))
 80012f6:	4b89      	ldr	r3, [pc, #548]	; (800151c <HAL_RCC_OscConfig+0x26c>)
 80012f8:	681b      	ldr	r3, [r3, #0]
 80012fa:	f403 3300 	and.w	r3, r3, #131072	; 0x20000
 80012fe:	2b00      	cmp	r3, #0
 8001300:	d06c      	beq.n	80013dc <HAL_RCC_OscConfig+0x12c>
 8001302:	687b      	ldr	r3, [r7, #4]
 8001304:	685b      	ldr	r3, [r3, #4]
 8001306:	2b00      	cmp	r3, #0
 8001308:	d168      	bne.n	80013dc <HAL_RCC_OscConfig+0x12c>
      {
        return HAL_ERROR;
 800130a:	2301      	movs	r3, #1
 800130c:	e24c      	b.n	80017a8 <HAL_RCC_OscConfig+0x4f8>
      }
    }
    else
    {
      /* Set the new HSE configuration ---------------------------------------*/
      __HAL_RCC_HSE_CONFIG(RCC_OscInitStruct->HSEState);
 800130e:	687b      	ldr	r3, [r7, #4]
 8001310:	685b      	ldr	r3, [r3, #4]
 8001312:	f5b3 3f80 	cmp.w	r3, #65536	; 0x10000
 8001316:	d106      	bne.n	8001326 <HAL_RCC_OscConfig+0x76>
 8001318:	4b80      	ldr	r3, [pc, #512]	; (800151c <HAL_RCC_OscConfig+0x26c>)
 800131a:	681b      	ldr	r3, [r3, #0]
 800131c:	4a7f      	ldr	r2, [pc, #508]	; (800151c <HAL_RCC_OscConfig+0x26c>)
 800131e:	f443 3380 	orr.w	r3, r3, #65536	; 0x10000
 8001322:	6013      	str	r3, [r2, #0]
 8001324:	e02e      	b.n	8001384 <HAL_RCC_OscConfig+0xd4>
 8001326:	687b      	ldr	r3, [r7, #4]
 8001328:	685b      	ldr	r3, [r3, #4]
 800132a:	2b00      	cmp	r3, #0
 800132c:	d10c      	bne.n	8001348 <HAL_RCC_OscConfig+0x98>
 800132e:	4b7b      	ldr	r3, [pc, #492]	; (800151c <HAL_RCC_OscConfig+0x26c>)
 8001330:	681b      	ldr	r3, [r3, #0]
 8001332:	4a7a      	ldr	r2, [pc, #488]	; (800151c <HAL_RCC_OscConfig+0x26c>)
 8001334:	f423 3380 	bic.w	r3, r3, #65536	; 0x10000
 8001338:	6013      	str	r3, [r2, #0]
 800133a:	4b78      	ldr	r3, [pc, #480]	; (800151c <HAL_RCC_OscConfig+0x26c>)
 800133c:	681b      	ldr	r3, [r3, #0]
 800133e:	4a77      	ldr	r2, [pc, #476]	; (800151c <HAL_RCC_OscConfig+0x26c>)
 8001340:	f423 2380 	bic.w	r3, r3, #262144	; 0x40000
 8001344:	6013      	str	r3, [r2, #0]
 8001346:	e01d      	b.n	8001384 <HAL_RCC_OscConfig+0xd4>
 8001348:	687b      	ldr	r3, [r7, #4]
 800134a:	685b      	ldr	r3, [r3, #4]
 800134c:	f5b3 2fa0 	cmp.w	r3, #327680	; 0x50000
 8001350:	d10c      	bne.n	800136c <HAL_RCC_OscConfig+0xbc>
 8001352:	4b72      	ldr	r3, [pc, #456]	; (800151c <HAL_RCC_OscConfig+0x26c>)
 8001354:	681b      	ldr	r3, [r3, #0]
 8001356:	4a71      	ldr	r2, [pc, #452]	; (800151c <HAL_RCC_OscConfig+0x26c>)
 8001358:	f443 2380 	orr.w	r3, r3, #262144	; 0x40000
 800135c:	6013      	str	r3, [r2, #0]
 800135e:	4b6f      	ldr	r3, [pc, #444]	; (800151c <HAL_RCC_OscConfig+0x26c>)
 8001360:	681b      	ldr	r3, [r3, #0]
 8001362:	4a6e      	ldr	r2, [pc, #440]	; (800151c <HAL_RCC_OscConfig+0x26c>)
 8001364:	f443 3380 	orr.w	r3, r3, #65536	; 0x10000
 8001368:	6013      	str	r3, [r2, #0]
 800136a:	e00b      	b.n	8001384 <HAL_RCC_OscConfig+0xd4>
 800136c:	4b6b      	ldr	r3, [pc, #428]	; (800151c <HAL_RCC_OscConfig+0x26c>)
 800136e:	681b      	ldr	r3, [r3, #0]
 8001370:	4a6a      	ldr	r2, [pc, #424]	; (800151c <HAL_RCC_OscConfig+0x26c>)
 8001372:	f423 3380 	bic.w	r3, r3, #65536	; 0x10000
 8001376:	6013      	str	r3, [r2, #0]
 8001378:	4b68      	ldr	r3, [pc, #416]	; (800151c <HAL_RCC_OscConfig+0x26c>)
 800137a:	681b      	ldr	r3, [r3, #0]
 800137c:	4a67      	ldr	r2, [pc, #412]	; (800151c <HAL_RCC_OscConfig+0x26c>)
 800137e:	f423 2380 	bic.w	r3, r3, #262144	; 0x40000
 8001382:	6013      	str	r3, [r2, #0]


      /* Check the HSE State */
      if (RCC_OscInitStruct->HSEState != RCC_HSE_OFF)
 8001384:	687b      	ldr	r3, [r7, #4]
 8001386:	685b      	ldr	r3, [r3, #4]
 8001388:	2b00      	cmp	r3, #0
 800138a:	d013      	beq.n	80013b4 <HAL_RCC_OscConfig+0x104>
      {
        /* Get Start Tick */
        tickstart = HAL_GetTick();
 800138c:	f7ff fce4 	bl	8000d58 <HAL_GetTick>
 8001390:	6138      	str	r0, [r7, #16]

        /* Wait till HSE is ready */
        while (__HAL_RCC_GET_FLAG(RCC_FLAG_HSERDY) == RESET)
 8001392:	e008      	b.n	80013a6 <HAL_RCC_OscConfig+0xf6>
        {
          if ((HAL_GetTick() - tickstart) > HSE_TIMEOUT_VALUE)
 8001394:	f7ff fce0 	bl	8000d58 <HAL_GetTick>
 8001398:	4602      	mov	r2, r0
 800139a:	693b      	ldr	r3, [r7, #16]
 800139c:	1ad3      	subs	r3, r2, r3
 800139e:	2b64      	cmp	r3, #100	; 0x64
 80013a0:	d901      	bls.n	80013a6 <HAL_RCC_OscConfig+0xf6>
          {
            return HAL_TIMEOUT;
 80013a2:	2303      	movs	r3, #3
 80013a4:	e200      	b.n	80017a8 <HAL_RCC_OscConfig+0x4f8>
        while (__HAL_RCC_GET_FLAG(RCC_FLAG_HSERDY) == RESET)
 80013a6:	4b5d      	ldr	r3, [pc, #372]	; (800151c <HAL_RCC_OscConfig+0x26c>)
 80013a8:	681b      	ldr	r3, [r3, #0]
 80013aa:	f403 3300 	and.w	r3, r3, #131072	; 0x20000
 80013ae:	2b00      	cmp	r3, #0
 80013b0:	d0f0      	beq.n	8001394 <HAL_RCC_OscConfig+0xe4>
 80013b2:	e014      	b.n	80013de <HAL_RCC_OscConfig+0x12e>
        }
      }
      else
      {
        /* Get Start Tick */
        tickstart = HAL_GetTick();
 80013b4:	f7ff fcd0 	bl	8000d58 <HAL_GetTick>
 80013b8:	6138      	str	r0, [r7, #16]

        /* Wait till HSE is disabled */
        while (__HAL_RCC_GET_FLAG(RCC_FLAG_HSERDY) != RESET)
 80013ba:	e008      	b.n	80013ce <HAL_RCC_OscConfig+0x11e>
        {
          if ((HAL_GetTick() - tickstart) > HSE_TIMEOUT_VALUE)
 80013bc:	f7ff fccc 	bl	8000d58 <HAL_GetTick>
 80013c0:	4602      	mov	r2, r0
 80013c2:	693b      	ldr	r3, [r7, #16]
 80013c4:	1ad3      	subs	r3, r2, r3
 80013c6:	2b64      	cmp	r3, #100	; 0x64
 80013c8:	d901      	bls.n	80013ce <HAL_RCC_OscConfig+0x11e>
          {
            return HAL_TIMEOUT;
 80013ca:	2303      	movs	r3, #3
 80013cc:	e1ec      	b.n	80017a8 <HAL_RCC_OscConfig+0x4f8>
        while (__HAL_RCC_GET_FLAG(RCC_FLAG_HSERDY) != RESET)
 80013ce:	4b53      	ldr	r3, [pc, #332]	; (800151c <HAL_RCC_OscConfig+0x26c>)
 80013d0:	681b      	ldr	r3, [r3, #0]
 80013d2:	f403 3300 	and.w	r3, r3, #131072	; 0x20000
 80013d6:	2b00      	cmp	r3, #0
 80013d8:	d1f0      	bne.n	80013bc <HAL_RCC_OscConfig+0x10c>
 80013da:	e000      	b.n	80013de <HAL_RCC_OscConfig+0x12e>
      if ((__HAL_RCC_GET_FLAG(RCC_FLAG_HSERDY) != RESET) && (RCC_OscInitStruct->HSEState == RCC_HSE_OFF))
 80013dc:	bf00      	nop
        }
      }
    }
  }
  /*----------------------------- HSI Configuration --------------------------*/
  if (((RCC_OscInitStruct->OscillatorType) & RCC_OSCILLATORTYPE_HSI) == RCC_OSCILLATORTYPE_HSI)
 80013de:	687b      	ldr	r3, [r7, #4]
 80013e0:	681b      	ldr	r3, [r3, #0]
 80013e2:	f003 0302 	and.w	r3, r3, #2
 80013e6:	2b00      	cmp	r3, #0
 80013e8:	d063      	beq.n	80014b2 <HAL_RCC_OscConfig+0x202>
    /* Check the parameters */
    assert_param(IS_RCC_HSI(RCC_OscInitStruct->HSIState));
    assert_param(IS_RCC_CALIBRATION_VALUE(RCC_OscInitStruct->HSICalibrationValue));

    /* Check if HSI is used as system clock or as PLL source when PLL is selected as system clock */
    if ((__HAL_RCC_GET_SYSCLK_SOURCE() == RCC_SYSCLKSOURCE_STATUS_HSI)
 80013ea:	4b4c      	ldr	r3, [pc, #304]	; (800151c <HAL_RCC_OscConfig+0x26c>)
 80013ec:	685b      	ldr	r3, [r3, #4]
 80013ee:	f003 030c 	and.w	r3, r3, #12
 80013f2:	2b00      	cmp	r3, #0
 80013f4:	d00b      	beq.n	800140e <HAL_RCC_OscConfig+0x15e>
        || ((__HAL_RCC_GET_SYSCLK_SOURCE() == RCC_SYSCLKSOURCE_STATUS_PLLCLK) && (__HAL_RCC_GET_PLL_OSCSOURCE() == RCC_PLLSOURCE_HSI_DIV2)))
 80013f6:	4b49      	ldr	r3, [pc, #292]	; (800151c <HAL_RCC_OscConfig+0x26c>)
 80013f8:	685b      	ldr	r3, [r3, #4]
 80013fa:	f003 030c 	and.w	r3, r3, #12
 80013fe:	2b08      	cmp	r3, #8
 8001400:	d11c      	bne.n	800143c <HAL_RCC_OscConfig+0x18c>
 8001402:	4b46      	ldr	r3, [pc, #280]	; (800151c <HAL_RCC_OscConfig+0x26c>)
 8001404:	685b      	ldr	r3, [r3, #4]
 8001406:	f403 3380 	and.w	r3, r3, #65536	; 0x10000
 800140a:	2b00      	cmp	r3, #0
 800140c:	d116      	bne.n	800143c <HAL_RCC_OscConfig+0x18c>
    {
      /* When HSI is used as system clock it will not disabled */
      if ((__HAL_RCC_GET_FLAG(RCC_FLAG_HSIRDY) != RESET) && (RCC_OscInitStruct->HSIState != RCC_HSI_ON))
 800140e:	4b43      	ldr	r3, [pc, #268]	; (800151c <HAL_RCC_OscConfig+0x26c>)
 8001410:	681b      	ldr	r3, [r3, #0]
 8001412:	f003 0302 	and.w	r3, r3, #2
 8001416:	2b00      	cmp	r3, #0
 8001418:	d005      	beq.n	8001426 <HAL_RCC_OscConfig+0x176>
 800141a:	687b      	ldr	r3, [r7, #4]
 800141c:	691b      	ldr	r3, [r3, #16]
 800141e:	2b01      	cmp	r3, #1
 8001420:	d001      	beq.n	8001426 <HAL_RCC_OscConfig+0x176>
      {
        return HAL_ERROR;
 8001422:	2301      	movs	r3, #1
 8001424:	e1c0      	b.n	80017a8 <HAL_RCC_OscConfig+0x4f8>
      }
      /* Otherwise, just the calibration is allowed */
      else
      {
        /* Adjusts the Internal High Speed oscillator (HSI) calibration value.*/
        __HAL_RCC_HSI_CALIBRATIONVALUE_ADJUST(RCC_OscInitStruct->HSICalibrationValue);
 8001426:	4b3d      	ldr	r3, [pc, #244]	; (800151c <HAL_RCC_OscConfig+0x26c>)
 8001428:	681b      	ldr	r3, [r3, #0]
 800142a:	f023 02f8 	bic.w	r2, r3, #248	; 0xf8
 800142e:	687b      	ldr	r3, [r7, #4]
 8001430:	695b      	ldr	r3, [r3, #20]
 8001432:	00db      	lsls	r3, r3, #3
 8001434:	4939      	ldr	r1, [pc, #228]	; (800151c <HAL_RCC_OscConfig+0x26c>)
 8001436:	4313      	orrs	r3, r2
 8001438:	600b      	str	r3, [r1, #0]
      if ((__HAL_RCC_GET_FLAG(RCC_FLAG_HSIRDY) != RESET) && (RCC_OscInitStruct->HSIState != RCC_HSI_ON))
 800143a:	e03a      	b.n	80014b2 <HAL_RCC_OscConfig+0x202>
      }
    }
    else
    {
      /* Check the HSI State */
      if (RCC_OscInitStruct->HSIState != RCC_HSI_OFF)
 800143c:	687b      	ldr	r3, [r7, #4]
 800143e:	691b      	ldr	r3, [r3, #16]
 8001440:	2b00      	cmp	r3, #0
 8001442:	d020      	beq.n	8001486 <HAL_RCC_OscConfig+0x1d6>
      {
        /* Enable the Internal High Speed oscillator (HSI). */
        __HAL_RCC_HSI_ENABLE();
 8001444:	4b36      	ldr	r3, [pc, #216]	; (8001520 <HAL_RCC_OscConfig+0x270>)
 8001446:	2201      	movs	r2, #1
 8001448:	601a      	str	r2, [r3, #0]

        /* Get Start Tick */
        tickstart = HAL_GetTick();
 800144a:	f7ff fc85 	bl	8000d58 <HAL_GetTick>
 800144e:	6138      	str	r0, [r7, #16]

        /* Wait till HSI is ready */
        while (__HAL_RCC_GET_FLAG(RCC_FLAG_HSIRDY) == RESET)
 8001450:	e008      	b.n	8001464 <HAL_RCC_OscConfig+0x1b4>
        {
          if ((HAL_GetTick() - tickstart) > HSI_TIMEOUT_VALUE)
 8001452:	f7ff fc81 	bl	8000d58 <HAL_GetTick>
 8001456:	4602      	mov	r2, r0
 8001458:	693b      	ldr	r3, [r7, #16]
 800145a:	1ad3      	subs	r3, r2, r3
 800145c:	2b02      	cmp	r3, #2
 800145e:	d901      	bls.n	8001464 <HAL_RCC_OscConfig+0x1b4>
          {
            return HAL_TIMEOUT;
 8001460:	2303      	movs	r3, #3
 8001462:	e1a1      	b.n	80017a8 <HAL_RCC_OscConfig+0x4f8>
        while (__HAL_RCC_GET_FLAG(RCC_FLAG_HSIRDY) == RESET)
 8001464:	4b2d      	ldr	r3, [pc, #180]	; (800151c <HAL_RCC_OscConfig+0x26c>)
 8001466:	681b      	ldr	r3, [r3, #0]
 8001468:	f003 0302 	and.w	r3, r3, #2
 800146c:	2b00      	cmp	r3, #0
 800146e:	d0f0      	beq.n	8001452 <HAL_RCC_OscConfig+0x1a2>
          }
        }

        /* Adjusts the Internal High Speed oscillator (HSI) calibration value.*/
        __HAL_RCC_HSI_CALIBRATIONVALUE_ADJUST(RCC_OscInitStruct->HSICalibrationValue);
 8001470:	4b2a      	ldr	r3, [pc, #168]	; (800151c <HAL_RCC_OscConfig+0x26c>)
 8001472:	681b      	ldr	r3, [r3, #0]
 8001474:	f023 02f8 	bic.w	r2, r3, #248	; 0xf8
 8001478:	687b      	ldr	r3, [r7, #4]
 800147a:	695b      	ldr	r3, [r3, #20]
 800147c:	00db      	lsls	r3, r3, #3
 800147e:	4927      	ldr	r1, [pc, #156]	; (800151c <HAL_RCC_OscConfig+0x26c>)
 8001480:	4313      	orrs	r3, r2
 8001482:	600b      	str	r3, [r1, #0]
 8001484:	e015      	b.n	80014b2 <HAL_RCC_OscConfig+0x202>
      }
      else
      {
        /* Disable the Internal High Speed oscillator (HSI). */
        __HAL_RCC_HSI_DISABLE();
 8001486:	4b26      	ldr	r3, [pc, #152]	; (8001520 <HAL_RCC_OscConfig+0x270>)
 8001488:	2200      	movs	r2, #0
 800148a:	601a      	str	r2, [r3, #0]

        /* Get Start Tick */
        tickstart = HAL_GetTick();
 800148c:	f7ff fc64 	bl	8000d58 <HAL_GetTick>
 8001490:	6138      	str	r0, [r7, #16]

        /* Wait till HSI is disabled */
        while (__HAL_RCC_GET_FLAG(RCC_FLAG_HSIRDY) != RESET)
 8001492:	e008      	b.n	80014a6 <HAL_RCC_OscConfig+0x1f6>
        {
          if ((HAL_GetTick() - tickstart) > HSI_TIMEOUT_VALUE)
 8001494:	f7ff fc60 	bl	8000d58 <HAL_GetTick>
 8001498:	4602      	mov	r2, r0
 800149a:	693b      	ldr	r3, [r7, #16]
 800149c:	1ad3      	subs	r3, r2, r3
 800149e:	2b02      	cmp	r3, #2
 80014a0:	d901      	bls.n	80014a6 <HAL_RCC_OscConfig+0x1f6>
          {
            return HAL_TIMEOUT;
 80014a2:	2303      	movs	r3, #3
 80014a4:	e180      	b.n	80017a8 <HAL_RCC_OscConfig+0x4f8>
        while (__HAL_RCC_GET_FLAG(RCC_FLAG_HSIRDY) != RESET)
 80014a6:	4b1d      	ldr	r3, [pc, #116]	; (800151c <HAL_RCC_OscConfig+0x26c>)
 80014a8:	681b      	ldr	r3, [r3, #0]
 80014aa:	f003 0302 	and.w	r3, r3, #2
 80014ae:	2b00      	cmp	r3, #0
 80014b0:	d1f0      	bne.n	8001494 <HAL_RCC_OscConfig+0x1e4>
        }
      }
    }
  }
  /*------------------------------ LSI Configuration -------------------------*/
  if (((RCC_OscInitStruct->OscillatorType) & RCC_OSCILLATORTYPE_LSI) == RCC_OSCILLATORTYPE_LSI)
 80014b2:	687b      	ldr	r3, [r7, #4]
 80014b4:	681b      	ldr	r3, [r3, #0]
 80014b6:	f003 0308 	and.w	r3, r3, #8
 80014ba:	2b00      	cmp	r3, #0
 80014bc:	d03a      	beq.n	8001534 <HAL_RCC_OscConfig+0x284>
  {
    /* Check the parameters */
    assert_param(IS_RCC_LSI(RCC_OscInitStruct->LSIState));

    /* Check the LSI State */
    if (RCC_OscInitStruct->LSIState != RCC_LSI_OFF)
 80014be:	687b      	ldr	r3, [r7, #4]
 80014c0:	699b      	ldr	r3, [r3, #24]
 80014c2:	2b00      	cmp	r3, #0
 80014c4:	d019      	beq.n	80014fa <HAL_RCC_OscConfig+0x24a>
    {
      /* Enable the Internal Low Speed oscillator (LSI). */
      __HAL_RCC_LSI_ENABLE();
 80014c6:	4b17      	ldr	r3, [pc, #92]	; (8001524 <HAL_RCC_OscConfig+0x274>)
 80014c8:	2201      	movs	r2, #1
 80014ca:	601a      	str	r2, [r3, #0]

      /* Get Start Tick */
      tickstart = HAL_GetTick();
 80014cc:	f7ff fc44 	bl	8000d58 <HAL_GetTick>
 80014d0:	6138      	str	r0, [r7, #16]

      /* Wait till LSI is ready */
      while (__HAL_RCC_GET_FLAG(RCC_FLAG_LSIRDY) == RESET)
 80014d2:	e008      	b.n	80014e6 <HAL_RCC_OscConfig+0x236>
      {
        if ((HAL_GetTick() - tickstart) > LSI_TIMEOUT_VALUE)
 80014d4:	f7ff fc40 	bl	8000d58 <HAL_GetTick>
 80014d8:	4602      	mov	r2, r0
 80014da:	693b      	ldr	r3, [r7, #16]
 80014dc:	1ad3      	subs	r3, r2, r3
 80014de:	2b02      	cmp	r3, #2
 80014e0:	d901      	bls.n	80014e6 <HAL_RCC_OscConfig+0x236>
        {
          return HAL_TIMEOUT;
 80014e2:	2303      	movs	r3, #3
 80014e4:	e160      	b.n	80017a8 <HAL_RCC_OscConfig+0x4f8>
      while (__HAL_RCC_GET_FLAG(RCC_FLAG_LSIRDY) == RESET)
 80014e6:	4b0d      	ldr	r3, [pc, #52]	; (800151c <HAL_RCC_OscConfig+0x26c>)
 80014e8:	6a5b      	ldr	r3, [r3, #36]	; 0x24
 80014ea:	f003 0302 	and.w	r3, r3, #2
 80014ee:	2b00      	cmp	r3, #0
 80014f0:	d0f0      	beq.n	80014d4 <HAL_RCC_OscConfig+0x224>
        }
      }
      /*  To have a fully stabilized clock in the specified range, a software delay of 1ms
          should be added.*/
      RCC_Delay(1);
 80014f2:	2001      	movs	r0, #1
 80014f4:	f000 fa9c 	bl	8001a30 <RCC_Delay>
 80014f8:	e01c      	b.n	8001534 <HAL_RCC_OscConfig+0x284>
    }
    else
    {
      /* Disable the Internal Low Speed oscillator (LSI). */
      __HAL_RCC_LSI_DISABLE();
 80014fa:	4b0a      	ldr	r3, [pc, #40]	; (8001524 <HAL_RCC_OscConfig+0x274>)
 80014fc:	2200      	movs	r2, #0
 80014fe:	601a      	str	r2, [r3, #0]

      /* Get Start Tick */
      tickstart = HAL_GetTick();
 8001500:	f7ff fc2a 	bl	8000d58 <HAL_GetTick>
 8001504:	6138      	str	r0, [r7, #16]

      /* Wait till LSI is disabled */
      while (__HAL_RCC_GET_FLAG(RCC_FLAG_LSIRDY) != RESET)
 8001506:	e00f      	b.n	8001528 <HAL_RCC_OscConfig+0x278>
      {
        if ((HAL_GetTick() - tickstart) > LSI_TIMEOUT_VALUE)
 8001508:	f7ff fc26 	bl	8000d58 <HAL_GetTick>
 800150c:	4602      	mov	r2, r0
 800150e:	693b      	ldr	r3, [r7, #16]
 8001510:	1ad3      	subs	r3, r2, r3
 8001512:	2b02      	cmp	r3, #2
 8001514:	d908      	bls.n	8001528 <HAL_RCC_OscConfig+0x278>
        {
          return HAL_TIMEOUT;
 8001516:	2303      	movs	r3, #3
 8001518:	e146      	b.n	80017a8 <HAL_RCC_OscConfig+0x4f8>
 800151a:	bf00      	nop
 800151c:	40021000 	.word	0x40021000
 8001520:	42420000 	.word	0x42420000
 8001524:	42420480 	.word	0x42420480
      while (__HAL_RCC_GET_FLAG(RCC_FLAG_LSIRDY) != RESET)
 8001528:	4b92      	ldr	r3, [pc, #584]	; (8001774 <HAL_RCC_OscConfig+0x4c4>)
 800152a:	6a5b      	ldr	r3, [r3, #36]	; 0x24
 800152c:	f003 0302 	and.w	r3, r3, #2
 8001530:	2b00      	cmp	r3, #0
 8001532:	d1e9      	bne.n	8001508 <HAL_RCC_OscConfig+0x258>
        }
      }
    }
  }
  /*------------------------------ LSE Configuration -------------------------*/
  if (((RCC_OscInitStruct->OscillatorType) & RCC_OSCILLATORTYPE_LSE) == RCC_OSCILLATORTYPE_LSE)
 8001534:	687b      	ldr	r3, [r7, #4]
 8001536:	681b      	ldr	r3, [r3, #0]
 8001538:	f003 0304 	and.w	r3, r3, #4
 800153c:	2b00      	cmp	r3, #0
 800153e:	f000 80a6 	beq.w	800168e <HAL_RCC_OscConfig+0x3de>
  {
    FlagStatus       pwrclkchanged = RESET;
 8001542:	2300      	movs	r3, #0
 8001544:	75fb      	strb	r3, [r7, #23]
    /* Check the parameters */
    assert_param(IS_RCC_LSE(RCC_OscInitStruct->LSEState));

    /* Update LSE configuration in Backup Domain control register    */
    /* Requires to enable write access to Backup Domain of necessary */
    if (__HAL_RCC_PWR_IS_CLK_DISABLED())
 8001546:	4b8b      	ldr	r3, [pc, #556]	; (8001774 <HAL_RCC_OscConfig+0x4c4>)
 8001548:	69db      	ldr	r3, [r3, #28]
 800154a:	f003 5380 	and.w	r3, r3, #268435456	; 0x10000000
 800154e:	2b00      	cmp	r3, #0
 8001550:	d10d      	bne.n	800156e <HAL_RCC_OscConfig+0x2be>
    {
      __HAL_RCC_PWR_CLK_ENABLE();
 8001552:	4b88      	ldr	r3, [pc, #544]	; (8001774 <HAL_RCC_OscConfig+0x4c4>)
 8001554:	69db      	ldr	r3, [r3, #28]
 8001556:	4a87      	ldr	r2, [pc, #540]	; (8001774 <HAL_RCC_OscConfig+0x4c4>)
 8001558:	f043 5380 	orr.w	r3, r3, #268435456	; 0x10000000
 800155c:	61d3      	str	r3, [r2, #28]
 800155e:	4b85      	ldr	r3, [pc, #532]	; (8001774 <HAL_RCC_OscConfig+0x4c4>)
 8001560:	69db      	ldr	r3, [r3, #28]
 8001562:	f003 5380 	and.w	r3, r3, #268435456	; 0x10000000
 8001566:	60bb      	str	r3, [r7, #8]
 8001568:	68bb      	ldr	r3, [r7, #8]
      pwrclkchanged = SET;
 800156a:	2301      	movs	r3, #1
 800156c:	75fb      	strb	r3, [r7, #23]
    }

    if (HAL_IS_BIT_CLR(PWR->CR, PWR_CR_DBP))
 800156e:	4b82      	ldr	r3, [pc, #520]	; (8001778 <HAL_RCC_OscConfig+0x4c8>)
 8001570:	681b      	ldr	r3, [r3, #0]
 8001572:	f403 7380 	and.w	r3, r3, #256	; 0x100
 8001576:	2b00      	cmp	r3, #0
 8001578:	d118      	bne.n	80015ac <HAL_RCC_OscConfig+0x2fc>
    {
      /* Enable write access to Backup domain */
      SET_BIT(PWR->CR, PWR_CR_DBP);
 800157a:	4b7f      	ldr	r3, [pc, #508]	; (8001778 <HAL_RCC_OscConfig+0x4c8>)
 800157c:	681b      	ldr	r3, [r3, #0]
 800157e:	4a7e      	ldr	r2, [pc, #504]	; (8001778 <HAL_RCC_OscConfig+0x4c8>)
 8001580:	f443 7380 	orr.w	r3, r3, #256	; 0x100
 8001584:	6013      	str	r3, [r2, #0]

      /* Wait for Backup domain Write protection disable */
      tickstart = HAL_GetTick();
 8001586:	f7ff fbe7 	bl	8000d58 <HAL_GetTick>
 800158a:	6138      	str	r0, [r7, #16]

      while (HAL_IS_BIT_CLR(PWR->CR, PWR_CR_DBP))
 800158c:	e008      	b.n	80015a0 <HAL_RCC_OscConfig+0x2f0>
      {
        if ((HAL_GetTick() - tickstart) > RCC_DBP_TIMEOUT_VALUE)
 800158e:	f7ff fbe3 	bl	8000d58 <HAL_GetTick>
 8001592:	4602      	mov	r2, r0
 8001594:	693b      	ldr	r3, [r7, #16]
 8001596:	1ad3      	subs	r3, r2, r3
 8001598:	2b64      	cmp	r3, #100	; 0x64
 800159a:	d901      	bls.n	80015a0 <HAL_RCC_OscConfig+0x2f0>
        {
          return HAL_TIMEOUT;
 800159c:	2303      	movs	r3, #3
 800159e:	e103      	b.n	80017a8 <HAL_RCC_OscConfig+0x4f8>
      while (HAL_IS_BIT_CLR(PWR->CR, PWR_CR_DBP))
 80015a0:	4b75      	ldr	r3, [pc, #468]	; (8001778 <HAL_RCC_OscConfig+0x4c8>)
 80015a2:	681b      	ldr	r3, [r3, #0]
 80015a4:	f403 7380 	and.w	r3, r3, #256	; 0x100
 80015a8:	2b00      	cmp	r3, #0
 80015aa:	d0f0      	beq.n	800158e <HAL_RCC_OscConfig+0x2de>
        }
      }
    }

    /* Set the new LSE configuration -----------------------------------------*/
    __HAL_RCC_LSE_CONFIG(RCC_OscInitStruct->LSEState);
 80015ac:	687b      	ldr	r3, [r7, #4]
 80015ae:	68db      	ldr	r3, [r3, #12]
 80015b0:	2b01      	cmp	r3, #1
 80015b2:	d106      	bne.n	80015c2 <HAL_RCC_OscConfig+0x312>
 80015b4:	4b6f      	ldr	r3, [pc, #444]	; (8001774 <HAL_RCC_OscConfig+0x4c4>)
 80015b6:	6a1b      	ldr	r3, [r3, #32]
 80015b8:	4a6e      	ldr	r2, [pc, #440]	; (8001774 <HAL_RCC_OscConfig+0x4c4>)
 80015ba:	f043 0301 	orr.w	r3, r3, #1
 80015be:	6213      	str	r3, [r2, #32]
 80015c0:	e02d      	b.n	800161e <HAL_RCC_OscConfig+0x36e>
 80015c2:	687b      	ldr	r3, [r7, #4]
 80015c4:	68db      	ldr	r3, [r3, #12]
 80015c6:	2b00      	cmp	r3, #0
 80015c8:	d10c      	bne.n	80015e4 <HAL_RCC_OscConfig+0x334>
 80015ca:	4b6a      	ldr	r3, [pc, #424]	; (8001774 <HAL_RCC_OscConfig+0x4c4>)
 80015cc:	6a1b      	ldr	r3, [r3, #32]
 80015ce:	4a69      	ldr	r2, [pc, #420]	; (8001774 <HAL_RCC_OscConfig+0x4c4>)
 80015d0:	f023 0301 	bic.w	r3, r3, #1
 80015d4:	6213      	str	r3, [r2, #32]
 80015d6:	4b67      	ldr	r3, [pc, #412]	; (8001774 <HAL_RCC_OscConfig+0x4c4>)
 80015d8:	6a1b      	ldr	r3, [r3, #32]
 80015da:	4a66      	ldr	r2, [pc, #408]	; (8001774 <HAL_RCC_OscConfig+0x4c4>)
 80015dc:	f023 0304 	bic.w	r3, r3, #4
 80015e0:	6213      	str	r3, [r2, #32]
 80015e2:	e01c      	b.n	800161e <HAL_RCC_OscConfig+0x36e>
 80015e4:	687b      	ldr	r3, [r7, #4]
 80015e6:	68db      	ldr	r3, [r3, #12]
 80015e8:	2b05      	cmp	r3, #5
 80015ea:	d10c      	bne.n	8001606 <HAL_RCC_OscConfig+0x356>
 80015ec:	4b61      	ldr	r3, [pc, #388]	; (8001774 <HAL_RCC_OscConfig+0x4c4>)
 80015ee:	6a1b      	ldr	r3, [r3, #32]
 80015f0:	4a60      	ldr	r2, [pc, #384]	; (8001774 <HAL_RCC_OscConfig+0x4c4>)
 80015f2:	f043 0304 	orr.w	r3, r3, #4
 80015f6:	6213      	str	r3, [r2, #32]
 80015f8:	4b5e      	ldr	r3, [pc, #376]	; (8001774 <HAL_RCC_OscConfig+0x4c4>)
 80015fa:	6a1b      	ldr	r3, [r3, #32]
 80015fc:	4a5d      	ldr	r2, [pc, #372]	; (8001774 <HAL_RCC_OscConfig+0x4c4>)
 80015fe:	f043 0301 	orr.w	r3, r3, #1
 8001602:	6213      	str	r3, [r2, #32]
 8001604:	e00b      	b.n	800161e <HAL_RCC_OscConfig+0x36e>
 8001606:	4b5b      	ldr	r3, [pc, #364]	; (8001774 <HAL_RCC_OscConfig+0x4c4>)
 8001608:	6a1b      	ldr	r3, [r3, #32]
 800160a:	4a5a      	ldr	r2, [pc, #360]	; (8001774 <HAL_RCC_OscConfig+0x4c4>)
 800160c:	f023 0301 	bic.w	r3, r3, #1
 8001610:	6213      	str	r3, [r2, #32]
 8001612:	4b58      	ldr	r3, [pc, #352]	; (8001774 <HAL_RCC_OscConfig+0x4c4>)
 8001614:	6a1b      	ldr	r3, [r3, #32]
 8001616:	4a57      	ldr	r2, [pc, #348]	; (8001774 <HAL_RCC_OscConfig+0x4c4>)
 8001618:	f023 0304 	bic.w	r3, r3, #4
 800161c:	6213      	str	r3, [r2, #32]
    /* Check the LSE State */
    if (RCC_OscInitStruct->LSEState != RCC_LSE_OFF)
 800161e:	687b      	ldr	r3, [r7, #4]
 8001620:	68db      	ldr	r3, [r3, #12]
 8001622:	2b00      	cmp	r3, #0
 8001624:	d015      	beq.n	8001652 <HAL_RCC_OscConfig+0x3a2>
    {
      /* Get Start Tick */
      tickstart = HAL_GetTick();
 8001626:	f7ff fb97 	bl	8000d58 <HAL_GetTick>
 800162a:	6138      	str	r0, [r7, #16]

      /* Wait till LSE is ready */
      while (__HAL_RCC_GET_FLAG(RCC_FLAG_LSERDY) == RESET)
 800162c:	e00a      	b.n	8001644 <HAL_RCC_OscConfig+0x394>
      {
        if ((HAL_GetTick() - tickstart) > RCC_LSE_TIMEOUT_VALUE)
 800162e:	f7ff fb93 	bl	8000d58 <HAL_GetTick>
 8001632:	4602      	mov	r2, r0
 8001634:	693b      	ldr	r3, [r7, #16]
 8001636:	1ad3      	subs	r3, r2, r3
 8001638:	f241 3288 	movw	r2, #5000	; 0x1388
 800163c:	4293      	cmp	r3, r2
 800163e:	d901      	bls.n	8001644 <HAL_RCC_OscConfig+0x394>
        {
          return HAL_TIMEOUT;
 8001640:	2303      	movs	r3, #3
 8001642:	e0b1      	b.n	80017a8 <HAL_RCC_OscConfig+0x4f8>
      while (__HAL_RCC_GET_FLAG(RCC_FLAG_LSERDY) == RESET)
 8001644:	4b4b      	ldr	r3, [pc, #300]	; (8001774 <HAL_RCC_OscConfig+0x4c4>)
 8001646:	6a1b      	ldr	r3, [r3, #32]
 8001648:	f003 0302 	and.w	r3, r3, #2
 800164c:	2b00      	cmp	r3, #0
 800164e:	d0ee      	beq.n	800162e <HAL_RCC_OscConfig+0x37e>
 8001650:	e014      	b.n	800167c <HAL_RCC_OscConfig+0x3cc>
      }
    }
    else
    {
      /* Get Start Tick */
      tickstart = HAL_GetTick();
 8001652:	f7ff fb81 	bl	8000d58 <HAL_GetTick>
 8001656:	6138      	str	r0, [r7, #16]

      /* Wait till LSE is disabled */
      while (__HAL_RCC_GET_FLAG(RCC_FLAG_LSERDY) != RESET)
 8001658:	e00a      	b.n	8001670 <HAL_RCC_OscConfig+0x3c0>
      {
        if ((HAL_GetTick() - tickstart) > RCC_LSE_TIMEOUT_VALUE)
 800165a:	f7ff fb7d 	bl	8000d58 <HAL_GetTick>
 800165e:	4602      	mov	r2, r0
 8001660:	693b      	ldr	r3, [r7, #16]
 8001662:	1ad3      	subs	r3, r2, r3
 8001664:	f241 3288 	movw	r2, #5000	; 0x1388
 8001668:	4293      	cmp	r3, r2
 800166a:	d901      	bls.n	8001670 <HAL_RCC_OscConfig+0x3c0>
        {
          return HAL_TIMEOUT;
 800166c:	2303      	movs	r3, #3
 800166e:	e09b      	b.n	80017a8 <HAL_RCC_OscConfig+0x4f8>
      while (__HAL_RCC_GET_FLAG(RCC_FLAG_LSERDY) != RESET)
 8001670:	4b40      	ldr	r3, [pc, #256]	; (8001774 <HAL_RCC_OscConfig+0x4c4>)
 8001672:	6a1b      	ldr	r3, [r3, #32]
 8001674:	f003 0302 	and.w	r3, r3, #2
 8001678:	2b00      	cmp	r3, #0
 800167a:	d1ee      	bne.n	800165a <HAL_RCC_OscConfig+0x3aa>
        }
      }
    }

    /* Require to disable power clock if necessary */
    if (pwrclkchanged == SET)
 800167c:	7dfb      	ldrb	r3, [r7, #23]
 800167e:	2b01      	cmp	r3, #1
 8001680:	d105      	bne.n	800168e <HAL_RCC_OscConfig+0x3de>
    {
      __HAL_RCC_PWR_CLK_DISABLE();
 8001682:	4b3c      	ldr	r3, [pc, #240]	; (8001774 <HAL_RCC_OscConfig+0x4c4>)
 8001684:	69db      	ldr	r3, [r3, #28]
 8001686:	4a3b      	ldr	r2, [pc, #236]	; (8001774 <HAL_RCC_OscConfig+0x4c4>)
 8001688:	f023 5380 	bic.w	r3, r3, #268435456	; 0x10000000
 800168c:	61d3      	str	r3, [r2, #28]

#endif /* RCC_CR_PLL2ON */
  /*-------------------------------- PLL Configuration -----------------------*/
  /* Check the parameters */
  assert_param(IS_RCC_PLL(RCC_OscInitStruct->PLL.PLLState));
  if ((RCC_OscInitStruct->PLL.PLLState) != RCC_PLL_NONE)
 800168e:	687b      	ldr	r3, [r7, #4]
 8001690:	69db      	ldr	r3, [r3, #28]
 8001692:	2b00      	cmp	r3, #0
 8001694:	f000 8087 	beq.w	80017a6 <HAL_RCC_OscConfig+0x4f6>
  {
    /* Check if the PLL is used as system clock or not */
    if (__HAL_RCC_GET_SYSCLK_SOURCE() != RCC_SYSCLKSOURCE_STATUS_PLLCLK)
 8001698:	4b36      	ldr	r3, [pc, #216]	; (8001774 <HAL_RCC_OscConfig+0x4c4>)
 800169a:	685b      	ldr	r3, [r3, #4]
 800169c:	f003 030c 	and.w	r3, r3, #12
 80016a0:	2b08      	cmp	r3, #8
 80016a2:	d061      	beq.n	8001768 <HAL_RCC_OscConfig+0x4b8>
    {
      if ((RCC_OscInitStruct->PLL.PLLState) == RCC_PLL_ON)
 80016a4:	687b      	ldr	r3, [r7, #4]
 80016a6:	69db      	ldr	r3, [r3, #28]
 80016a8:	2b02      	cmp	r3, #2
 80016aa:	d146      	bne.n	800173a <HAL_RCC_OscConfig+0x48a>
        /* Check the parameters */
        assert_param(IS_RCC_PLLSOURCE(RCC_OscInitStruct->PLL.PLLSource));
        assert_param(IS_RCC_PLL_MUL(RCC_OscInitStruct->PLL.PLLMUL));

        /* Disable the main PLL. */
        __HAL_RCC_PLL_DISABLE();
 80016ac:	4b33      	ldr	r3, [pc, #204]	; (800177c <HAL_RCC_OscConfig+0x4cc>)
 80016ae:	2200      	movs	r2, #0
 80016b0:	601a      	str	r2, [r3, #0]

        /* Get Start Tick */
        tickstart = HAL_GetTick();
 80016b2:	f7ff fb51 	bl	8000d58 <HAL_GetTick>
 80016b6:	6138      	str	r0, [r7, #16]

        /* Wait till PLL is disabled */
        while (__HAL_RCC_GET_FLAG(RCC_FLAG_PLLRDY)  != RESET)
 80016b8:	e008      	b.n	80016cc <HAL_RCC_OscConfig+0x41c>
        {
          if ((HAL_GetTick() - tickstart) > PLL_TIMEOUT_VALUE)
 80016ba:	f7ff fb4d 	bl	8000d58 <HAL_GetTick>
 80016be:	4602      	mov	r2, r0
 80016c0:	693b      	ldr	r3, [r7, #16]
 80016c2:	1ad3      	subs	r3, r2, r3
 80016c4:	2b02      	cmp	r3, #2
 80016c6:	d901      	bls.n	80016cc <HAL_RCC_OscConfig+0x41c>
          {
            return HAL_TIMEOUT;
 80016c8:	2303      	movs	r3, #3
 80016ca:	e06d      	b.n	80017a8 <HAL_RCC_OscConfig+0x4f8>
        while (__HAL_RCC_GET_FLAG(RCC_FLAG_PLLRDY)  != RESET)
 80016cc:	4b29      	ldr	r3, [pc, #164]	; (8001774 <HAL_RCC_OscConfig+0x4c4>)
 80016ce:	681b      	ldr	r3, [r3, #0]
 80016d0:	f003 7300 	and.w	r3, r3, #33554432	; 0x2000000
 80016d4:	2b00      	cmp	r3, #0
 80016d6:	d1f0      	bne.n	80016ba <HAL_RCC_OscConfig+0x40a>
          }
        }

        /* Configure the HSE prediv factor --------------------------------*/
        /* It can be written only when the PLL is disabled. Not used in PLL source is different than HSE */
        if (RCC_OscInitStruct->PLL.PLLSource == RCC_PLLSOURCE_HSE)
 80016d8:	687b      	ldr	r3, [r7, #4]
 80016da:	6a1b      	ldr	r3, [r3, #32]
 80016dc:	f5b3 3f80 	cmp.w	r3, #65536	; 0x10000
 80016e0:	d108      	bne.n	80016f4 <HAL_RCC_OscConfig+0x444>
          /* Set PREDIV1 source */
          SET_BIT(RCC->CFGR2, RCC_OscInitStruct->Prediv1Source);
#endif /* RCC_CFGR2_PREDIV1SRC */

          /* Set PREDIV1 Value */
          __HAL_RCC_HSE_PREDIV_CONFIG(RCC_OscInitStruct->HSEPredivValue);
 80016e2:	4b24      	ldr	r3, [pc, #144]	; (8001774 <HAL_RCC_OscConfig+0x4c4>)
 80016e4:	685b      	ldr	r3, [r3, #4]
 80016e6:	f423 3200 	bic.w	r2, r3, #131072	; 0x20000
 80016ea:	687b      	ldr	r3, [r7, #4]
 80016ec:	689b      	ldr	r3, [r3, #8]
 80016ee:	4921      	ldr	r1, [pc, #132]	; (8001774 <HAL_RCC_OscConfig+0x4c4>)
 80016f0:	4313      	orrs	r3, r2
 80016f2:	604b      	str	r3, [r1, #4]
        }

        /* Configure the main PLL clock source and multiplication factors. */
        __HAL_RCC_PLL_CONFIG(RCC_OscInitStruct->PLL.PLLSource,
 80016f4:	4b1f      	ldr	r3, [pc, #124]	; (8001774 <HAL_RCC_OscConfig+0x4c4>)
 80016f6:	685b      	ldr	r3, [r3, #4]
 80016f8:	f423 1274 	bic.w	r2, r3, #3997696	; 0x3d0000
 80016fc:	687b      	ldr	r3, [r7, #4]
 80016fe:	6a19      	ldr	r1, [r3, #32]
 8001700:	687b      	ldr	r3, [r7, #4]
 8001702:	6a5b      	ldr	r3, [r3, #36]	; 0x24
 8001704:	430b      	orrs	r3, r1
 8001706:	491b      	ldr	r1, [pc, #108]	; (8001774 <HAL_RCC_OscConfig+0x4c4>)
 8001708:	4313      	orrs	r3, r2
 800170a:	604b      	str	r3, [r1, #4]
                             RCC_OscInitStruct->PLL.PLLMUL);
        /* Enable the main PLL. */
        __HAL_RCC_PLL_ENABLE();
 800170c:	4b1b      	ldr	r3, [pc, #108]	; (800177c <HAL_RCC_OscConfig+0x4cc>)
 800170e:	2201      	movs	r2, #1
 8001710:	601a      	str	r2, [r3, #0]

        /* Get Start Tick */
        tickstart = HAL_GetTick();
 8001712:	f7ff fb21 	bl	8000d58 <HAL_GetTick>
 8001716:	6138      	str	r0, [r7, #16]

        /* Wait till PLL is ready */
        while (__HAL_RCC_GET_FLAG(RCC_FLAG_PLLRDY)  == RESET)
 8001718:	e008      	b.n	800172c <HAL_RCC_OscConfig+0x47c>
        {
          if ((HAL_GetTick() - tickstart) > PLL_TIMEOUT_VALUE)
 800171a:	f7ff fb1d 	bl	8000d58 <HAL_GetTick>
 800171e:	4602      	mov	r2, r0
 8001720:	693b      	ldr	r3, [r7, #16]
 8001722:	1ad3      	subs	r3, r2, r3
 8001724:	2b02      	cmp	r3, #2
 8001726:	d901      	bls.n	800172c <HAL_RCC_OscConfig+0x47c>
          {
            return HAL_TIMEOUT;
 8001728:	2303      	movs	r3, #3
 800172a:	e03d      	b.n	80017a8 <HAL_RCC_OscConfig+0x4f8>
        while (__HAL_RCC_GET_FLAG(RCC_FLAG_PLLRDY)  == RESET)
 800172c:	4b11      	ldr	r3, [pc, #68]	; (8001774 <HAL_RCC_OscConfig+0x4c4>)
 800172e:	681b      	ldr	r3, [r3, #0]
 8001730:	f003 7300 	and.w	r3, r3, #33554432	; 0x2000000
 8001734:	2b00      	cmp	r3, #0
 8001736:	d0f0      	beq.n	800171a <HAL_RCC_OscConfig+0x46a>
 8001738:	e035      	b.n	80017a6 <HAL_RCC_OscConfig+0x4f6>
        }
      }
      else
      {
        /* Disable the main PLL. */
        __HAL_RCC_PLL_DISABLE();
 800173a:	4b10      	ldr	r3, [pc, #64]	; (800177c <HAL_RCC_OscConfig+0x4cc>)
 800173c:	2200      	movs	r2, #0
 800173e:	601a      	str	r2, [r3, #0]

        /* Get Start Tick */
        tickstart = HAL_GetTick();
 8001740:	f7ff fb0a 	bl	8000d58 <HAL_GetTick>
 8001744:	6138      	str	r0, [r7, #16]

        /* Wait till PLL is disabled */
        while (__HAL_RCC_GET_FLAG(RCC_FLAG_PLLRDY)  != RESET)
 8001746:	e008      	b.n	800175a <HAL_RCC_OscConfig+0x4aa>
        {
          if ((HAL_GetTick() - tickstart) > PLL_TIMEOUT_VALUE)
 8001748:	f7ff fb06 	bl	8000d58 <HAL_GetTick>
 800174c:	4602      	mov	r2, r0
 800174e:	693b      	ldr	r3, [r7, #16]
 8001750:	1ad3      	subs	r3, r2, r3
 8001752:	2b02      	cmp	r3, #2
 8001754:	d901      	bls.n	800175a <HAL_RCC_OscConfig+0x4aa>
          {
            return HAL_TIMEOUT;
 8001756:	2303      	movs	r3, #3
 8001758:	e026      	b.n	80017a8 <HAL_RCC_OscConfig+0x4f8>
        while (__HAL_RCC_GET_FLAG(RCC_FLAG_PLLRDY)  != RESET)
 800175a:	4b06      	ldr	r3, [pc, #24]	; (8001774 <HAL_RCC_OscConfig+0x4c4>)
 800175c:	681b      	ldr	r3, [r3, #0]
 800175e:	f003 7300 	and.w	r3, r3, #33554432	; 0x2000000
 8001762:	2b00      	cmp	r3, #0
 8001764:	d1f0      	bne.n	8001748 <HAL_RCC_OscConfig+0x498>
 8001766:	e01e      	b.n	80017a6 <HAL_RCC_OscConfig+0x4f6>
      }
    }
    else
    {
      /* Check if there is a request to disable the PLL used as System clock source */
      if ((RCC_OscInitStruct->PLL.PLLState) == RCC_PLL_OFF)
 8001768:	687b      	ldr	r3, [r7, #4]
 800176a:	69db      	ldr	r3, [r3, #28]
 800176c:	2b01      	cmp	r3, #1
 800176e:	d107      	bne.n	8001780 <HAL_RCC_OscConfig+0x4d0>
      {
        return HAL_ERROR;
 8001770:	2301      	movs	r3, #1
 8001772:	e019      	b.n	80017a8 <HAL_RCC_OscConfig+0x4f8>
 8001774:	40021000 	.word	0x40021000
 8001778:	40007000 	.word	0x40007000
 800177c:	42420060 	.word	0x42420060
      }
      else
      {
        /* Do not return HAL_ERROR if request repeats the current configuration */
        pll_config = RCC->CFGR;
 8001780:	4b0b      	ldr	r3, [pc, #44]	; (80017b0 <HAL_RCC_OscConfig+0x500>)
 8001782:	685b      	ldr	r3, [r3, #4]
 8001784:	60fb      	str	r3, [r7, #12]
        if ((READ_BIT(pll_config, RCC_CFGR_PLLSRC) != RCC_OscInitStruct->PLL.PLLSource) ||
 8001786:	68fb      	ldr	r3, [r7, #12]
 8001788:	f403 3280 	and.w	r2, r3, #65536	; 0x10000
 800178c:	687b      	ldr	r3, [r7, #4]
 800178e:	6a1b      	ldr	r3, [r3, #32]
 8001790:	429a      	cmp	r2, r3
 8001792:	d106      	bne.n	80017a2 <HAL_RCC_OscConfig+0x4f2>
            (READ_BIT(pll_config, RCC_CFGR_PLLMULL) != RCC_OscInitStruct->PLL.PLLMUL))
 8001794:	68fb      	ldr	r3, [r7, #12]
 8001796:	f403 1270 	and.w	r2, r3, #3932160	; 0x3c0000
 800179a:	687b      	ldr	r3, [r7, #4]
 800179c:	6a5b      	ldr	r3, [r3, #36]	; 0x24
        if ((READ_BIT(pll_config, RCC_CFGR_PLLSRC) != RCC_OscInitStruct->PLL.PLLSource) ||
 800179e:	429a      	cmp	r2, r3
 80017a0:	d001      	beq.n	80017a6 <HAL_RCC_OscConfig+0x4f6>
        {
          return HAL_ERROR;
 80017a2:	2301      	movs	r3, #1
 80017a4:	e000      	b.n	80017a8 <HAL_RCC_OscConfig+0x4f8>
        }
      }
    }
  }

  return HAL_OK;
 80017a6:	2300      	movs	r3, #0
}
 80017a8:	4618      	mov	r0, r3
 80017aa:	3718      	adds	r7, #24
 80017ac:	46bd      	mov	sp, r7
 80017ae:	bd80      	pop	{r7, pc}
 80017b0:	40021000 	.word	0x40021000

080017b4 <HAL_RCC_ClockConfig>:
  *         You can use @ref HAL_RCC_GetClockConfig() function to know which clock is
  *         currently used as system clock source.
  * @retval HAL status
  */
HAL_StatusTypeDef HAL_RCC_ClockConfig(RCC_ClkInitTypeDef  *RCC_ClkInitStruct, uint32_t FLatency)
{
 80017b4:	b580      	push	{r7, lr}
 80017b6:	b084      	sub	sp, #16
 80017b8:	af00      	add	r7, sp, #0
 80017ba:	6078      	str	r0, [r7, #4]
 80017bc:	6039      	str	r1, [r7, #0]
  uint32_t tickstart;

  /* Check Null pointer */
  if (RCC_ClkInitStruct == NULL)
 80017be:	687b      	ldr	r3, [r7, #4]
 80017c0:	2b00      	cmp	r3, #0
 80017c2:	d101      	bne.n	80017c8 <HAL_RCC_ClockConfig+0x14>
  {
    return HAL_ERROR;
 80017c4:	2301      	movs	r3, #1
 80017c6:	e0d0      	b.n	800196a <HAL_RCC_ClockConfig+0x1b6>
  must be correctly programmed according to the frequency of the CPU clock
    (HCLK) of the device. */

#if defined(FLASH_ACR_LATENCY)
  /* Increasing the number of wait states because of higher CPU frequency */
  if (FLatency > __HAL_FLASH_GET_LATENCY())
 80017c8:	4b6a      	ldr	r3, [pc, #424]	; (8001974 <HAL_RCC_ClockConfig+0x1c0>)
 80017ca:	681b      	ldr	r3, [r3, #0]
 80017cc:	f003 0307 	and.w	r3, r3, #7
 80017d0:	683a      	ldr	r2, [r7, #0]
 80017d2:	429a      	cmp	r2, r3
 80017d4:	d910      	bls.n	80017f8 <HAL_RCC_ClockConfig+0x44>
  {
    /* Program the new number of wait states to the LATENCY bits in the FLASH_ACR register */
    __HAL_FLASH_SET_LATENCY(FLatency);
 80017d6:	4b67      	ldr	r3, [pc, #412]	; (8001974 <HAL_RCC_ClockConfig+0x1c0>)
 80017d8:	681b      	ldr	r3, [r3, #0]
 80017da:	f023 0207 	bic.w	r2, r3, #7
 80017de:	4965      	ldr	r1, [pc, #404]	; (8001974 <HAL_RCC_ClockConfig+0x1c0>)
 80017e0:	683b      	ldr	r3, [r7, #0]
 80017e2:	4313      	orrs	r3, r2
 80017e4:	600b      	str	r3, [r1, #0]

    /* Check that the new number of wait states is taken into account to access the Flash
    memory by reading the FLASH_ACR register */
    if (__HAL_FLASH_GET_LATENCY() != FLatency)
 80017e6:	4b63      	ldr	r3, [pc, #396]	; (8001974 <HAL_RCC_ClockConfig+0x1c0>)
 80017e8:	681b      	ldr	r3, [r3, #0]
 80017ea:	f003 0307 	and.w	r3, r3, #7
 80017ee:	683a      	ldr	r2, [r7, #0]
 80017f0:	429a      	cmp	r2, r3
 80017f2:	d001      	beq.n	80017f8 <HAL_RCC_ClockConfig+0x44>
  {
    return HAL_ERROR;
 80017f4:	2301      	movs	r3, #1
 80017f6:	e0b8      	b.n	800196a <HAL_RCC_ClockConfig+0x1b6>
  }
}

#endif /* FLASH_ACR_LATENCY */
/*-------------------------- HCLK Configuration --------------------------*/
if (((RCC_ClkInitStruct->ClockType) & RCC_CLOCKTYPE_HCLK) == RCC_CLOCKTYPE_HCLK)
 80017f8:	687b      	ldr	r3, [r7, #4]
 80017fa:	681b      	ldr	r3, [r3, #0]
 80017fc:	f003 0302 	and.w	r3, r3, #2
 8001800:	2b00      	cmp	r3, #0
 8001802:	d020      	beq.n	8001846 <HAL_RCC_ClockConfig+0x92>
  {
    /* Set the highest APBx dividers in order to ensure that we do not go through
    a non-spec phase whatever we decrease or increase HCLK. */
    if (((RCC_ClkInitStruct->ClockType) & RCC_CLOCKTYPE_PCLK1) == RCC_CLOCKTYPE_PCLK1)
 8001804:	687b      	ldr	r3, [r7, #4]
 8001806:	681b      	ldr	r3, [r3, #0]
 8001808:	f003 0304 	and.w	r3, r3, #4
 800180c:	2b00      	cmp	r3, #0
 800180e:	d005      	beq.n	800181c <HAL_RCC_ClockConfig+0x68>
    {
      MODIFY_REG(RCC->CFGR, RCC_CFGR_PPRE1, RCC_HCLK_DIV16);
 8001810:	4b59      	ldr	r3, [pc, #356]	; (8001978 <HAL_RCC_ClockConfig+0x1c4>)
 8001812:	685b      	ldr	r3, [r3, #4]
 8001814:	4a58      	ldr	r2, [pc, #352]	; (8001978 <HAL_RCC_ClockConfig+0x1c4>)
 8001816:	f443 63e0 	orr.w	r3, r3, #1792	; 0x700
 800181a:	6053      	str	r3, [r2, #4]
    }

    if (((RCC_ClkInitStruct->ClockType) & RCC_CLOCKTYPE_PCLK2) == RCC_CLOCKTYPE_PCLK2)
 800181c:	687b      	ldr	r3, [r7, #4]
 800181e:	681b      	ldr	r3, [r3, #0]
 8001820:	f003 0308 	and.w	r3, r3, #8
 8001824:	2b00      	cmp	r3, #0
 8001826:	d005      	beq.n	8001834 <HAL_RCC_ClockConfig+0x80>
    {
      MODIFY_REG(RCC->CFGR, RCC_CFGR_PPRE2, (RCC_HCLK_DIV16 << 3));
 8001828:	4b53      	ldr	r3, [pc, #332]	; (8001978 <HAL_RCC_ClockConfig+0x1c4>)
 800182a:	685b      	ldr	r3, [r3, #4]
 800182c:	4a52      	ldr	r2, [pc, #328]	; (8001978 <HAL_RCC_ClockConfig+0x1c4>)
 800182e:	f443 5360 	orr.w	r3, r3, #14336	; 0x3800
 8001832:	6053      	str	r3, [r2, #4]
    }

    /* Set the new HCLK clock divider */
    assert_param(IS_RCC_HCLK(RCC_ClkInitStruct->AHBCLKDivider));
    MODIFY_REG(RCC->CFGR, RCC_CFGR_HPRE, RCC_ClkInitStruct->AHBCLKDivider);
 8001834:	4b50      	ldr	r3, [pc, #320]	; (8001978 <HAL_RCC_ClockConfig+0x1c4>)
 8001836:	685b      	ldr	r3, [r3, #4]
 8001838:	f023 02f0 	bic.w	r2, r3, #240	; 0xf0
 800183c:	687b      	ldr	r3, [r7, #4]
 800183e:	689b      	ldr	r3, [r3, #8]
 8001840:	494d      	ldr	r1, [pc, #308]	; (8001978 <HAL_RCC_ClockConfig+0x1c4>)
 8001842:	4313      	orrs	r3, r2
 8001844:	604b      	str	r3, [r1, #4]
  }

  /*------------------------- SYSCLK Configuration ---------------------------*/
  if (((RCC_ClkInitStruct->ClockType) & RCC_CLOCKTYPE_SYSCLK) == RCC_CLOCKTYPE_SYSCLK)
 8001846:	687b      	ldr	r3, [r7, #4]
 8001848:	681b      	ldr	r3, [r3, #0]
 800184a:	f003 0301 	and.w	r3, r3, #1
 800184e:	2b00      	cmp	r3, #0
 8001850:	d040      	beq.n	80018d4 <HAL_RCC_ClockConfig+0x120>
  {
    assert_param(IS_RCC_SYSCLKSOURCE(RCC_ClkInitStruct->SYSCLKSource));

    /* HSE is selected as System Clock Source */
    if (RCC_ClkInitStruct->SYSCLKSource == RCC_SYSCLKSOURCE_HSE)
 8001852:	687b      	ldr	r3, [r7, #4]
 8001854:	685b      	ldr	r3, [r3, #4]
 8001856:	2b01      	cmp	r3, #1
 8001858:	d107      	bne.n	800186a <HAL_RCC_ClockConfig+0xb6>
    {
      /* Check the HSE ready flag */
      if (__HAL_RCC_GET_FLAG(RCC_FLAG_HSERDY) == RESET)
 800185a:	4b47      	ldr	r3, [pc, #284]	; (8001978 <HAL_RCC_ClockConfig+0x1c4>)
 800185c:	681b      	ldr	r3, [r3, #0]
 800185e:	f403 3300 	and.w	r3, r3, #131072	; 0x20000
 8001862:	2b00      	cmp	r3, #0
 8001864:	d115      	bne.n	8001892 <HAL_RCC_ClockConfig+0xde>
      {
        return HAL_ERROR;
 8001866:	2301      	movs	r3, #1
 8001868:	e07f      	b.n	800196a <HAL_RCC_ClockConfig+0x1b6>
      }
    }
    /* PLL is selected as System Clock Source */
    else if (RCC_ClkInitStruct->SYSCLKSource == RCC_SYSCLKSOURCE_PLLCLK)
 800186a:	687b      	ldr	r3, [r7, #4]
 800186c:	685b      	ldr	r3, [r3, #4]
 800186e:	2b02      	cmp	r3, #2
 8001870:	d107      	bne.n	8001882 <HAL_RCC_ClockConfig+0xce>
    {
      /* Check the PLL ready flag */
      if (__HAL_RCC_GET_FLAG(RCC_FLAG_PLLRDY) == RESET)
 8001872:	4b41      	ldr	r3, [pc, #260]	; (8001978 <HAL_RCC_ClockConfig+0x1c4>)
 8001874:	681b      	ldr	r3, [r3, #0]
 8001876:	f003 7300 	and.w	r3, r3, #33554432	; 0x2000000
 800187a:	2b00      	cmp	r3, #0
 800187c:	d109      	bne.n	8001892 <HAL_RCC_ClockConfig+0xde>
      {
        return HAL_ERROR;
 800187e:	2301      	movs	r3, #1
 8001880:	e073      	b.n	800196a <HAL_RCC_ClockConfig+0x1b6>
    }
    /* HSI is selected as System Clock Source */
    else
    {
      /* Check the HSI ready flag */
      if (__HAL_RCC_GET_FLAG(RCC_FLAG_HSIRDY) == RESET)
 8001882:	4b3d      	ldr	r3, [pc, #244]	; (8001978 <HAL_RCC_ClockConfig+0x1c4>)
 8001884:	681b      	ldr	r3, [r3, #0]
 8001886:	f003 0302 	and.w	r3, r3, #2
 800188a:	2b00      	cmp	r3, #0
 800188c:	d101      	bne.n	8001892 <HAL_RCC_ClockConfig+0xde>
      {
        return HAL_ERROR;
 800188e:	2301      	movs	r3, #1
 8001890:	e06b      	b.n	800196a <HAL_RCC_ClockConfig+0x1b6>
      }
    }
    __HAL_RCC_SYSCLK_CONFIG(RCC_ClkInitStruct->SYSCLKSource);
 8001892:	4b39      	ldr	r3, [pc, #228]	; (8001978 <HAL_RCC_ClockConfig+0x1c4>)
 8001894:	685b      	ldr	r3, [r3, #4]
 8001896:	f023 0203 	bic.w	r2, r3, #3
 800189a:	687b      	ldr	r3, [r7, #4]
 800189c:	685b      	ldr	r3, [r3, #4]
 800189e:	4936      	ldr	r1, [pc, #216]	; (8001978 <HAL_RCC_ClockConfig+0x1c4>)
 80018a0:	4313      	orrs	r3, r2
 80018a2:	604b      	str	r3, [r1, #4]

    /* Get Start Tick */
    tickstart = HAL_GetTick();
 80018a4:	f7ff fa58 	bl	8000d58 <HAL_GetTick>
 80018a8:	60f8      	str	r0, [r7, #12]

    while (__HAL_RCC_GET_SYSCLK_SOURCE() != (RCC_ClkInitStruct->SYSCLKSource << RCC_CFGR_SWS_Pos))
 80018aa:	e00a      	b.n	80018c2 <HAL_RCC_ClockConfig+0x10e>
    {
      if ((HAL_GetTick() - tickstart) > CLOCKSWITCH_TIMEOUT_VALUE)
 80018ac:	f7ff fa54 	bl	8000d58 <HAL_GetTick>
 80018b0:	4602      	mov	r2, r0
 80018b2:	68fb      	ldr	r3, [r7, #12]
 80018b4:	1ad3      	subs	r3, r2, r3
 80018b6:	f241 3288 	movw	r2, #5000	; 0x1388
 80018ba:	4293      	cmp	r3, r2
 80018bc:	d901      	bls.n	80018c2 <HAL_RCC_ClockConfig+0x10e>
      {
        return HAL_TIMEOUT;
 80018be:	2303      	movs	r3, #3
 80018c0:	e053      	b.n	800196a <HAL_RCC_ClockConfig+0x1b6>
    while (__HAL_RCC_GET_SYSCLK_SOURCE() != (RCC_ClkInitStruct->SYSCLKSource << RCC_CFGR_SWS_Pos))
 80018c2:	4b2d      	ldr	r3, [pc, #180]	; (8001978 <HAL_RCC_ClockConfig+0x1c4>)
 80018c4:	685b      	ldr	r3, [r3, #4]
 80018c6:	f003 020c 	and.w	r2, r3, #12
 80018ca:	687b      	ldr	r3, [r7, #4]
 80018cc:	685b      	ldr	r3, [r3, #4]
 80018ce:	009b      	lsls	r3, r3, #2
 80018d0:	429a      	cmp	r2, r3
 80018d2:	d1eb      	bne.n	80018ac <HAL_RCC_ClockConfig+0xf8>
    }
  }

#if defined(FLASH_ACR_LATENCY)
  /* Decreasing the number of wait states because of lower CPU frequency */
  if (FLatency < __HAL_FLASH_GET_LATENCY())
 80018d4:	4b27      	ldr	r3, [pc, #156]	; (8001974 <HAL_RCC_ClockConfig+0x1c0>)
 80018d6:	681b      	ldr	r3, [r3, #0]
 80018d8:	f003 0307 	and.w	r3, r3, #7
 80018dc:	683a      	ldr	r2, [r7, #0]
 80018de:	429a      	cmp	r2, r3
 80018e0:	d210      	bcs.n	8001904 <HAL_RCC_ClockConfig+0x150>
  {
    /* Program the new number of wait states to the LATENCY bits in the FLASH_ACR register */
    __HAL_FLASH_SET_LATENCY(FLatency);
 80018e2:	4b24      	ldr	r3, [pc, #144]	; (8001974 <HAL_RCC_ClockConfig+0x1c0>)
 80018e4:	681b      	ldr	r3, [r3, #0]
 80018e6:	f023 0207 	bic.w	r2, r3, #7
 80018ea:	4922      	ldr	r1, [pc, #136]	; (8001974 <HAL_RCC_ClockConfig+0x1c0>)
 80018ec:	683b      	ldr	r3, [r7, #0]
 80018ee:	4313      	orrs	r3, r2
 80018f0:	600b      	str	r3, [r1, #0]

    /* Check that the new number of wait states is taken into account to access the Flash
    memory by reading the FLASH_ACR register */
    if (__HAL_FLASH_GET_LATENCY() != FLatency)
 80018f2:	4b20      	ldr	r3, [pc, #128]	; (8001974 <HAL_RCC_ClockConfig+0x1c0>)
 80018f4:	681b      	ldr	r3, [r3, #0]
 80018f6:	f003 0307 	and.w	r3, r3, #7
 80018fa:	683a      	ldr	r2, [r7, #0]
 80018fc:	429a      	cmp	r2, r3
 80018fe:	d001      	beq.n	8001904 <HAL_RCC_ClockConfig+0x150>
  {
    return HAL_ERROR;
 8001900:	2301      	movs	r3, #1
 8001902:	e032      	b.n	800196a <HAL_RCC_ClockConfig+0x1b6>
  }
}
#endif /* FLASH_ACR_LATENCY */

/*-------------------------- PCLK1 Configuration ---------------------------*/
if (((RCC_ClkInitStruct->ClockType) & RCC_CLOCKTYPE_PCLK1) == RCC_CLOCKTYPE_PCLK1)
 8001904:	687b      	ldr	r3, [r7, #4]
 8001906:	681b      	ldr	r3, [r3, #0]
 8001908:	f003 0304 	and.w	r3, r3, #4
 800190c:	2b00      	cmp	r3, #0
 800190e:	d008      	beq.n	8001922 <HAL_RCC_ClockConfig+0x16e>
  {
    assert_param(IS_RCC_PCLK(RCC_ClkInitStruct->APB1CLKDivider));
    MODIFY_REG(RCC->CFGR, RCC_CFGR_PPRE1, RCC_ClkInitStruct->APB1CLKDivider);
 8001910:	4b19      	ldr	r3, [pc, #100]	; (8001978 <HAL_RCC_ClockConfig+0x1c4>)
 8001912:	685b      	ldr	r3, [r3, #4]
 8001914:	f423 62e0 	bic.w	r2, r3, #1792	; 0x700
 8001918:	687b      	ldr	r3, [r7, #4]
 800191a:	68db      	ldr	r3, [r3, #12]
 800191c:	4916      	ldr	r1, [pc, #88]	; (8001978 <HAL_RCC_ClockConfig+0x1c4>)
 800191e:	4313      	orrs	r3, r2
 8001920:	604b      	str	r3, [r1, #4]
  }

  /*-------------------------- PCLK2 Configuration ---------------------------*/
  if (((RCC_ClkInitStruct->ClockType) & RCC_CLOCKTYPE_PCLK2) == RCC_CLOCKTYPE_PCLK2)
 8001922:	687b      	ldr	r3, [r7, #4]
 8001924:	681b      	ldr	r3, [r3, #0]
 8001926:	f003 0308 	and.w	r3, r3, #8
 800192a:	2b00      	cmp	r3, #0
 800192c:	d009      	beq.n	8001942 <HAL_RCC_ClockConfig+0x18e>
  {
    assert_param(IS_RCC_PCLK(RCC_ClkInitStruct->APB2CLKDivider));
    MODIFY_REG(RCC->CFGR, RCC_CFGR_PPRE2, ((RCC_ClkInitStruct->APB2CLKDivider) << 3));
 800192e:	4b12      	ldr	r3, [pc, #72]	; (8001978 <HAL_RCC_ClockConfig+0x1c4>)
 8001930:	685b      	ldr	r3, [r3, #4]
 8001932:	f423 5260 	bic.w	r2, r3, #14336	; 0x3800
 8001936:	687b      	ldr	r3, [r7, #4]
 8001938:	691b      	ldr	r3, [r3, #16]
 800193a:	00db      	lsls	r3, r3, #3
 800193c:	490e      	ldr	r1, [pc, #56]	; (8001978 <HAL_RCC_ClockConfig+0x1c4>)
 800193e:	4313      	orrs	r3, r2
 8001940:	604b      	str	r3, [r1, #4]
  }

  /* Update the SystemCoreClock global variable */
  SystemCoreClock = HAL_RCC_GetSysClockFreq() >> AHBPrescTable[(RCC->CFGR & RCC_CFGR_HPRE) >> RCC_CFGR_HPRE_Pos];
 8001942:	f000 f821 	bl	8001988 <HAL_RCC_GetSysClockFreq>
 8001946:	4602      	mov	r2, r0
 8001948:	4b0b      	ldr	r3, [pc, #44]	; (8001978 <HAL_RCC_ClockConfig+0x1c4>)
 800194a:	685b      	ldr	r3, [r3, #4]
 800194c:	091b      	lsrs	r3, r3, #4
 800194e:	f003 030f 	and.w	r3, r3, #15
 8001952:	490a      	ldr	r1, [pc, #40]	; (800197c <HAL_RCC_ClockConfig+0x1c8>)
 8001954:	5ccb      	ldrb	r3, [r1, r3]
 8001956:	fa22 f303 	lsr.w	r3, r2, r3
 800195a:	4a09      	ldr	r2, [pc, #36]	; (8001980 <HAL_RCC_ClockConfig+0x1cc>)
 800195c:	6013      	str	r3, [r2, #0]

  /* Configure the source of time base considering new system clocks settings*/
  HAL_InitTick(uwTickPrio);
 800195e:	4b09      	ldr	r3, [pc, #36]	; (8001984 <HAL_RCC_ClockConfig+0x1d0>)
 8001960:	681b      	ldr	r3, [r3, #0]
 8001962:	4618      	mov	r0, r3
 8001964:	f7ff f9b6 	bl	8000cd4 <HAL_InitTick>

  return HAL_OK;
 8001968:	2300      	movs	r3, #0
}
 800196a:	4618      	mov	r0, r3
 800196c:	3710      	adds	r7, #16
 800196e:	46bd      	mov	sp, r7
 8001970:	bd80      	pop	{r7, pc}
 8001972:	bf00      	nop
 8001974:	40022000 	.word	0x40022000
 8001978:	40021000 	.word	0x40021000
 800197c:	080024cc 	.word	0x080024cc
 8001980:	20000000 	.word	0x20000000
 8001984:	20000004 	.word	0x20000004

08001988 <HAL_RCC_GetSysClockFreq>:
  *         right SYSCLK value. Otherwise, any configuration based on this function will be incorrect.
  *
  * @retval SYSCLK frequency
  */
uint32_t HAL_RCC_GetSysClockFreq(void)
{
 8001988:	b480      	push	{r7}
 800198a:	b087      	sub	sp, #28
 800198c:	af00      	add	r7, sp, #0
#else
  static const uint8_t aPredivFactorTable[2U] = {1, 2};
#endif /*RCC_CFGR2_PREDIV1*/

#endif
  uint32_t tmpreg = 0U, prediv = 0U, pllclk = 0U, pllmul = 0U;
 800198e:	2300      	movs	r3, #0
 8001990:	60fb      	str	r3, [r7, #12]
 8001992:	2300      	movs	r3, #0
 8001994:	60bb      	str	r3, [r7, #8]
 8001996:	2300      	movs	r3, #0
 8001998:	617b      	str	r3, [r7, #20]
 800199a:	2300      	movs	r3, #0
 800199c:	607b      	str	r3, [r7, #4]
  uint32_t sysclockfreq = 0U;
 800199e:	2300      	movs	r3, #0
 80019a0:	613b      	str	r3, [r7, #16]
#if defined(RCC_CFGR2_PREDIV1SRC)
  uint32_t prediv2 = 0U, pll2mul = 0U;
#endif /*RCC_CFGR2_PREDIV1SRC*/

  tmpreg = RCC->CFGR;
 80019a2:	4b1e      	ldr	r3, [pc, #120]	; (8001a1c <HAL_RCC_GetSysClockFreq+0x94>)
 80019a4:	685b      	ldr	r3, [r3, #4]
 80019a6:	60fb      	str	r3, [r7, #12]

  /* Get SYSCLK source -------------------------------------------------------*/
  switch (tmpreg & RCC_CFGR_SWS)
 80019a8:	68fb      	ldr	r3, [r7, #12]
 80019aa:	f003 030c 	and.w	r3, r3, #12
 80019ae:	2b04      	cmp	r3, #4
 80019b0:	d002      	beq.n	80019b8 <HAL_RCC_GetSysClockFreq+0x30>
 80019b2:	2b08      	cmp	r3, #8
 80019b4:	d003      	beq.n	80019be <HAL_RCC_GetSysClockFreq+0x36>
 80019b6:	e027      	b.n	8001a08 <HAL_RCC_GetSysClockFreq+0x80>
  {
    case RCC_SYSCLKSOURCE_STATUS_HSE:  /* HSE used as system clock */
    {
      sysclockfreq = HSE_VALUE;
 80019b8:	4b19      	ldr	r3, [pc, #100]	; (8001a20 <HAL_RCC_GetSysClockFreq+0x98>)
 80019ba:	613b      	str	r3, [r7, #16]
      break;
 80019bc:	e027      	b.n	8001a0e <HAL_RCC_GetSysClockFreq+0x86>
    }
    case RCC_SYSCLKSOURCE_STATUS_PLLCLK:  /* PLL used as system clock */
    {
      pllmul = aPLLMULFactorTable[(uint32_t)(tmpreg & RCC_CFGR_PLLMULL) >> RCC_CFGR_PLLMULL_Pos];
 80019be:	68fb      	ldr	r3, [r7, #12]
 80019c0:	0c9b      	lsrs	r3, r3, #18
 80019c2:	f003 030f 	and.w	r3, r3, #15
 80019c6:	4a17      	ldr	r2, [pc, #92]	; (8001a24 <HAL_RCC_GetSysClockFreq+0x9c>)
 80019c8:	5cd3      	ldrb	r3, [r2, r3]
 80019ca:	607b      	str	r3, [r7, #4]
      if ((tmpreg & RCC_CFGR_PLLSRC) != RCC_PLLSOURCE_HSI_DIV2)
 80019cc:	68fb      	ldr	r3, [r7, #12]
 80019ce:	f403 3380 	and.w	r3, r3, #65536	; 0x10000
 80019d2:	2b00      	cmp	r3, #0
 80019d4:	d010      	beq.n	80019f8 <HAL_RCC_GetSysClockFreq+0x70>
      {
#if defined(RCC_CFGR2_PREDIV1)
        prediv = aPredivFactorTable[(uint32_t)(RCC->CFGR2 & RCC_CFGR2_PREDIV1) >> RCC_CFGR2_PREDIV1_Pos];
#else
        prediv = aPredivFactorTable[(uint32_t)(RCC->CFGR & RCC_CFGR_PLLXTPRE) >> RCC_CFGR_PLLXTPRE_Pos];
 80019d6:	4b11      	ldr	r3, [pc, #68]	; (8001a1c <HAL_RCC_GetSysClockFreq+0x94>)
 80019d8:	685b      	ldr	r3, [r3, #4]
 80019da:	0c5b      	lsrs	r3, r3, #17
 80019dc:	f003 0301 	and.w	r3, r3, #1
 80019e0:	4a11      	ldr	r2, [pc, #68]	; (8001a28 <HAL_RCC_GetSysClockFreq+0xa0>)
 80019e2:	5cd3      	ldrb	r3, [r2, r3]
 80019e4:	60bb      	str	r3, [r7, #8]
        {
          pllclk = pllclk / 2;
        }
#else
        /* HSE used as PLL clock source : PLLCLK = HSE/PREDIV1 * PLLMUL */
        pllclk = (uint32_t)((HSE_VALUE  * pllmul) / prediv);
 80019e6:	687b      	ldr	r3, [r7, #4]
 80019e8:	4a0d      	ldr	r2, [pc, #52]	; (8001a20 <HAL_RCC_GetSysClockFreq+0x98>)
 80019ea:	fb03 f202 	mul.w	r2, r3, r2
 80019ee:	68bb      	ldr	r3, [r7, #8]
 80019f0:	fbb2 f3f3 	udiv	r3, r2, r3
 80019f4:	617b      	str	r3, [r7, #20]
 80019f6:	e004      	b.n	8001a02 <HAL_RCC_GetSysClockFreq+0x7a>
#endif /*RCC_CFGR2_PREDIV1SRC*/
      }
      else
      {
        /* HSI used as PLL clock source : PLLCLK = HSI/2 * PLLMUL */
        pllclk = (uint32_t)((HSI_VALUE >> 1) * pllmul);
 80019f8:	687b      	ldr	r3, [r7, #4]
 80019fa:	4a0c      	ldr	r2, [pc, #48]	; (8001a2c <HAL_RCC_GetSysClockFreq+0xa4>)
 80019fc:	fb02 f303 	mul.w	r3, r2, r3
 8001a00:	617b      	str	r3, [r7, #20]
      }
      sysclockfreq = pllclk;
 8001a02:	697b      	ldr	r3, [r7, #20]
 8001a04:	613b      	str	r3, [r7, #16]
      break;
 8001a06:	e002      	b.n	8001a0e <HAL_RCC_GetSysClockFreq+0x86>
    }
    case RCC_SYSCLKSOURCE_STATUS_HSI:  /* HSI used as system clock source */
    default: /* HSI used as system clock */
    {
      sysclockfreq = HSI_VALUE;
 8001a08:	4b05      	ldr	r3, [pc, #20]	; (8001a20 <HAL_RCC_GetSysClockFreq+0x98>)
 8001a0a:	613b      	str	r3, [r7, #16]
      break;
 8001a0c:	bf00      	nop
    }
  }
  return sysclockfreq;
 8001a0e:	693b      	ldr	r3, [r7, #16]
}
 8001a10:	4618      	mov	r0, r3
 8001a12:	371c      	adds	r7, #28
 8001a14:	46bd      	mov	sp, r7
 8001a16:	bc80      	pop	{r7}
 8001a18:	4770      	bx	lr
 8001a1a:	bf00      	nop
 8001a1c:	40021000 	.word	0x40021000
 8001a20:	007a1200 	.word	0x007a1200
 8001a24:	080024dc 	.word	0x080024dc
 8001a28:	080024ec 	.word	0x080024ec
 8001a2c:	003d0900 	.word	0x003d0900

08001a30 <RCC_Delay>:
  * @brief  This function provides delay (in milliseconds) based on CPU cycles method.
  * @param  mdelay: specifies the delay time length, in milliseconds.
  * @retval None
  */
static void RCC_Delay(uint32_t mdelay)
{
 8001a30:	b480      	push	{r7}
 8001a32:	b085      	sub	sp, #20
 8001a34:	af00      	add	r7, sp, #0
 8001a36:	6078      	str	r0, [r7, #4]
  __IO uint32_t Delay = mdelay * (SystemCoreClock / 8U / 1000U);
 8001a38:	4b0a      	ldr	r3, [pc, #40]	; (8001a64 <RCC_Delay+0x34>)
 8001a3a:	681b      	ldr	r3, [r3, #0]
 8001a3c:	4a0a      	ldr	r2, [pc, #40]	; (8001a68 <RCC_Delay+0x38>)
 8001a3e:	fba2 2303 	umull	r2, r3, r2, r3
 8001a42:	0a5b      	lsrs	r3, r3, #9
 8001a44:	687a      	ldr	r2, [r7, #4]
 8001a46:	fb02 f303 	mul.w	r3, r2, r3
 8001a4a:	60fb      	str	r3, [r7, #12]
  do
  {
    __NOP();
 8001a4c:	bf00      	nop
  }
  while (Delay --);
 8001a4e:	68fb      	ldr	r3, [r7, #12]
 8001a50:	1e5a      	subs	r2, r3, #1
 8001a52:	60fa      	str	r2, [r7, #12]
 8001a54:	2b00      	cmp	r3, #0
 8001a56:	d1f9      	bne.n	8001a4c <RCC_Delay+0x1c>
}
 8001a58:	bf00      	nop
 8001a5a:	bf00      	nop
 8001a5c:	3714      	adds	r7, #20
 8001a5e:	46bd      	mov	sp, r7
 8001a60:	bc80      	pop	{r7}
 8001a62:	4770      	bx	lr
 8001a64:	20000000 	.word	0x20000000
 8001a68:	10624dd3 	.word	0x10624dd3

08001a6c <HAL_TIM_Base_Init>:
  *         Ex: call @ref HAL_TIM_Base_DeInit() before HAL_TIM_Base_Init()
  * @param  htim TIM Base handle
  * @retval HAL status
  */
HAL_StatusTypeDef HAL_TIM_Base_Init(TIM_HandleTypeDef *htim)
{
 8001a6c:	b580      	push	{r7, lr}
 8001a6e:	b082      	sub	sp, #8
 8001a70:	af00      	add	r7, sp, #0
 8001a72:	6078      	str	r0, [r7, #4]
  /* Check the TIM handle allocation */
  if (htim == NULL)
 8001a74:	687b      	ldr	r3, [r7, #4]
 8001a76:	2b00      	cmp	r3, #0
 8001a78:	d101      	bne.n	8001a7e <HAL_TIM_Base_Init+0x12>
  {
    return HAL_ERROR;
 8001a7a:	2301      	movs	r3, #1
 8001a7c:	e041      	b.n	8001b02 <HAL_TIM_Base_Init+0x96>
  assert_param(IS_TIM_COUNTER_MODE(htim->Init.CounterMode));
  assert_param(IS_TIM_CLOCKDIVISION_DIV(htim->Init.ClockDivision));
  assert_param(IS_TIM_PERIOD(htim->Init.Period));
  assert_param(IS_TIM_AUTORELOAD_PRELOAD(htim->Init.AutoReloadPreload));

  if (htim->State == HAL_TIM_STATE_RESET)
 8001a7e:	687b      	ldr	r3, [r7, #4]
 8001a80:	f893 303d 	ldrb.w	r3, [r3, #61]	; 0x3d
 8001a84:	b2db      	uxtb	r3, r3
 8001a86:	2b00      	cmp	r3, #0
 8001a88:	d106      	bne.n	8001a98 <HAL_TIM_Base_Init+0x2c>
  {
    /* Allocate lock resource and initialize it */
    htim->Lock = HAL_UNLOCKED;
 8001a8a:	687b      	ldr	r3, [r7, #4]
 8001a8c:	2200      	movs	r2, #0
 8001a8e:	f883 203c 	strb.w	r2, [r3, #60]	; 0x3c
    }
    /* Init the low level hardware : GPIO, CLOCK, NVIC */
    htim->Base_MspInitCallback(htim);
#else
    /* Init the low level hardware : GPIO, CLOCK, NVIC */
    HAL_TIM_Base_MspInit(htim);
 8001a92:	6878      	ldr	r0, [r7, #4]
 8001a94:	f7ff f850 	bl	8000b38 <HAL_TIM_Base_MspInit>
#endif /* USE_HAL_TIM_REGISTER_CALLBACKS */
  }

  /* Set the TIM state */
  htim->State = HAL_TIM_STATE_BUSY;
 8001a98:	687b      	ldr	r3, [r7, #4]
 8001a9a:	2202      	movs	r2, #2
 8001a9c:	f883 203d 	strb.w	r2, [r3, #61]	; 0x3d

  /* Set the Time Base configuration */
  TIM_Base_SetConfig(htim->Instance, &htim->Init);
 8001aa0:	687b      	ldr	r3, [r7, #4]
 8001aa2:	681a      	ldr	r2, [r3, #0]
 8001aa4:	687b      	ldr	r3, [r7, #4]
 8001aa6:	3304      	adds	r3, #4
 8001aa8:	4619      	mov	r1, r3
 8001aaa:	4610      	mov	r0, r2
 8001aac:	f000 fa6e 	bl	8001f8c <TIM_Base_SetConfig>

  /* Initialize the DMA burst operation state */
  htim->DMABurstState = HAL_DMA_BURST_STATE_READY;
 8001ab0:	687b      	ldr	r3, [r7, #4]
 8001ab2:	2201      	movs	r2, #1
 8001ab4:	f883 2046 	strb.w	r2, [r3, #70]	; 0x46

  /* Initialize the TIM channels state */
  TIM_CHANNEL_STATE_SET_ALL(htim, HAL_TIM_CHANNEL_STATE_READY);
 8001ab8:	687b      	ldr	r3, [r7, #4]
 8001aba:	2201      	movs	r2, #1
 8001abc:	f883 203e 	strb.w	r2, [r3, #62]	; 0x3e
 8001ac0:	687b      	ldr	r3, [r7, #4]
 8001ac2:	2201      	movs	r2, #1
 8001ac4:	f883 203f 	strb.w	r2, [r3, #63]	; 0x3f
 8001ac8:	687b      	ldr	r3, [r7, #4]
 8001aca:	2201      	movs	r2, #1
 8001acc:	f883 2040 	strb.w	r2, [r3, #64]	; 0x40
 8001ad0:	687b      	ldr	r3, [r7, #4]
 8001ad2:	2201      	movs	r2, #1
 8001ad4:	f883 2041 	strb.w	r2, [r3, #65]	; 0x41
  TIM_CHANNEL_N_STATE_SET_ALL(htim, HAL_TIM_CHANNEL_STATE_READY);
 8001ad8:	687b      	ldr	r3, [r7, #4]
 8001ada:	2201      	movs	r2, #1
 8001adc:	f883 2042 	strb.w	r2, [r3, #66]	; 0x42
 8001ae0:	687b      	ldr	r3, [r7, #4]
 8001ae2:	2201      	movs	r2, #1
 8001ae4:	f883 2043 	strb.w	r2, [r3, #67]	; 0x43
 8001ae8:	687b      	ldr	r3, [r7, #4]
 8001aea:	2201      	movs	r2, #1
 8001aec:	f883 2044 	strb.w	r2, [r3, #68]	; 0x44
 8001af0:	687b      	ldr	r3, [r7, #4]
 8001af2:	2201      	movs	r2, #1
 8001af4:	f883 2045 	strb.w	r2, [r3, #69]	; 0x45

  /* Initialize the TIM state*/
  htim->State = HAL_TIM_STATE_READY;
 8001af8:	687b      	ldr	r3, [r7, #4]
 8001afa:	2201      	movs	r2, #1
 8001afc:	f883 203d 	strb.w	r2, [r3, #61]	; 0x3d

  return HAL_OK;
 8001b00:	2300      	movs	r3, #0
}
 8001b02:	4618      	mov	r0, r3
 8001b04:	3708      	adds	r7, #8
 8001b06:	46bd      	mov	sp, r7
 8001b08:	bd80      	pop	{r7, pc}
	...

08001b0c <HAL_TIM_Base_Start_IT>:
  * @brief  Starts the TIM Base generation in interrupt mode.
  * @param  htim TIM Base handle
  * @retval HAL status
  */
HAL_StatusTypeDef HAL_TIM_Base_Start_IT(TIM_HandleTypeDef *htim)
{
 8001b0c:	b480      	push	{r7}
 8001b0e:	b085      	sub	sp, #20
 8001b10:	af00      	add	r7, sp, #0
 8001b12:	6078      	str	r0, [r7, #4]

  /* Check the parameters */
  assert_param(IS_TIM_INSTANCE(htim->Instance));

  /* Check the TIM state */
  if (htim->State != HAL_TIM_STATE_READY)
 8001b14:	687b      	ldr	r3, [r7, #4]
 8001b16:	f893 303d 	ldrb.w	r3, [r3, #61]	; 0x3d
 8001b1a:	b2db      	uxtb	r3, r3
 8001b1c:	2b01      	cmp	r3, #1
 8001b1e:	d001      	beq.n	8001b24 <HAL_TIM_Base_Start_IT+0x18>
  {
    return HAL_ERROR;
 8001b20:	2301      	movs	r3, #1
 8001b22:	e035      	b.n	8001b90 <HAL_TIM_Base_Start_IT+0x84>
  }

  /* Set the TIM state */
  htim->State = HAL_TIM_STATE_BUSY;
 8001b24:	687b      	ldr	r3, [r7, #4]
 8001b26:	2202      	movs	r2, #2
 8001b28:	f883 203d 	strb.w	r2, [r3, #61]	; 0x3d

  /* Enable the TIM Update interrupt */
  __HAL_TIM_ENABLE_IT(htim, TIM_IT_UPDATE);
 8001b2c:	687b      	ldr	r3, [r7, #4]
 8001b2e:	681b      	ldr	r3, [r3, #0]
 8001b30:	68da      	ldr	r2, [r3, #12]
 8001b32:	687b      	ldr	r3, [r7, #4]
 8001b34:	681b      	ldr	r3, [r3, #0]
 8001b36:	f042 0201 	orr.w	r2, r2, #1
 8001b3a:	60da      	str	r2, [r3, #12]

  /* Enable the Peripheral, except in trigger mode where enable is automatically done with trigger */
  if (IS_TIM_SLAVE_INSTANCE(htim->Instance))
 8001b3c:	687b      	ldr	r3, [r7, #4]
 8001b3e:	681b      	ldr	r3, [r3, #0]
 8001b40:	4a16      	ldr	r2, [pc, #88]	; (8001b9c <HAL_TIM_Base_Start_IT+0x90>)
 8001b42:	4293      	cmp	r3, r2
 8001b44:	d009      	beq.n	8001b5a <HAL_TIM_Base_Start_IT+0x4e>
 8001b46:	687b      	ldr	r3, [r7, #4]
 8001b48:	681b      	ldr	r3, [r3, #0]
 8001b4a:	f1b3 4f80 	cmp.w	r3, #1073741824	; 0x40000000
 8001b4e:	d004      	beq.n	8001b5a <HAL_TIM_Base_Start_IT+0x4e>
 8001b50:	687b      	ldr	r3, [r7, #4]
 8001b52:	681b      	ldr	r3, [r3, #0]
 8001b54:	4a12      	ldr	r2, [pc, #72]	; (8001ba0 <HAL_TIM_Base_Start_IT+0x94>)
 8001b56:	4293      	cmp	r3, r2
 8001b58:	d111      	bne.n	8001b7e <HAL_TIM_Base_Start_IT+0x72>
  {
    tmpsmcr = htim->Instance->SMCR & TIM_SMCR_SMS;
 8001b5a:	687b      	ldr	r3, [r7, #4]
 8001b5c:	681b      	ldr	r3, [r3, #0]
 8001b5e:	689b      	ldr	r3, [r3, #8]
 8001b60:	f003 0307 	and.w	r3, r3, #7
 8001b64:	60fb      	str	r3, [r7, #12]
    if (!IS_TIM_SLAVEMODE_TRIGGER_ENABLED(tmpsmcr))
 8001b66:	68fb      	ldr	r3, [r7, #12]
 8001b68:	2b06      	cmp	r3, #6
 8001b6a:	d010      	beq.n	8001b8e <HAL_TIM_Base_Start_IT+0x82>
    {
      __HAL_TIM_ENABLE(htim);
 8001b6c:	687b      	ldr	r3, [r7, #4]
 8001b6e:	681b      	ldr	r3, [r3, #0]
 8001b70:	681a      	ldr	r2, [r3, #0]
 8001b72:	687b      	ldr	r3, [r7, #4]
 8001b74:	681b      	ldr	r3, [r3, #0]
 8001b76:	f042 0201 	orr.w	r2, r2, #1
 8001b7a:	601a      	str	r2, [r3, #0]
    if (!IS_TIM_SLAVEMODE_TRIGGER_ENABLED(tmpsmcr))
 8001b7c:	e007      	b.n	8001b8e <HAL_TIM_Base_Start_IT+0x82>
    }
  }
  else
  {
    __HAL_TIM_ENABLE(htim);
 8001b7e:	687b      	ldr	r3, [r7, #4]
 8001b80:	681b      	ldr	r3, [r3, #0]
 8001b82:	681a      	ldr	r2, [r3, #0]
 8001b84:	687b      	ldr	r3, [r7, #4]
 8001b86:	681b      	ldr	r3, [r3, #0]
 8001b88:	f042 0201 	orr.w	r2, r2, #1
 8001b8c:	601a      	str	r2, [r3, #0]
  }

  /* Return function status */
  return HAL_OK;
 8001b8e:	2300      	movs	r3, #0
}
 8001b90:	4618      	mov	r0, r3
 8001b92:	3714      	adds	r7, #20
 8001b94:	46bd      	mov	sp, r7
 8001b96:	bc80      	pop	{r7}
 8001b98:	4770      	bx	lr
 8001b9a:	bf00      	nop
 8001b9c:	40012c00 	.word	0x40012c00
 8001ba0:	40000400 	.word	0x40000400

08001ba4 <HAL_TIM_IRQHandler>:
  * @brief  This function handles TIM interrupts requests.
  * @param  htim TIM  handle
  * @retval None
  */
void HAL_TIM_IRQHandler(TIM_HandleTypeDef *htim)
{
 8001ba4:	b580      	push	{r7, lr}
 8001ba6:	b082      	sub	sp, #8
 8001ba8:	af00      	add	r7, sp, #0
 8001baa:	6078      	str	r0, [r7, #4]
  /* Capture compare 1 event */
  if (__HAL_TIM_GET_FLAG(htim, TIM_FLAG_CC1) != RESET)
 8001bac:	687b      	ldr	r3, [r7, #4]
 8001bae:	681b      	ldr	r3, [r3, #0]
 8001bb0:	691b      	ldr	r3, [r3, #16]
 8001bb2:	f003 0302 	and.w	r3, r3, #2
 8001bb6:	2b02      	cmp	r3, #2
 8001bb8:	d122      	bne.n	8001c00 <HAL_TIM_IRQHandler+0x5c>
  {
    if (__HAL_TIM_GET_IT_SOURCE(htim, TIM_IT_CC1) != RESET)
 8001bba:	687b      	ldr	r3, [r7, #4]
 8001bbc:	681b      	ldr	r3, [r3, #0]
 8001bbe:	68db      	ldr	r3, [r3, #12]
 8001bc0:	f003 0302 	and.w	r3, r3, #2
 8001bc4:	2b02      	cmp	r3, #2
 8001bc6:	d11b      	bne.n	8001c00 <HAL_TIM_IRQHandler+0x5c>
    {
      {
        __HAL_TIM_CLEAR_IT(htim, TIM_IT_CC1);
 8001bc8:	687b      	ldr	r3, [r7, #4]
 8001bca:	681b      	ldr	r3, [r3, #0]
 8001bcc:	f06f 0202 	mvn.w	r2, #2
 8001bd0:	611a      	str	r2, [r3, #16]
        htim->Channel = HAL_TIM_ACTIVE_CHANNEL_1;
 8001bd2:	687b      	ldr	r3, [r7, #4]
 8001bd4:	2201      	movs	r2, #1
 8001bd6:	771a      	strb	r2, [r3, #28]

        /* Input capture event */
        if ((htim->Instance->CCMR1 & TIM_CCMR1_CC1S) != 0x00U)
 8001bd8:	687b      	ldr	r3, [r7, #4]
 8001bda:	681b      	ldr	r3, [r3, #0]
 8001bdc:	699b      	ldr	r3, [r3, #24]
 8001bde:	f003 0303 	and.w	r3, r3, #3
 8001be2:	2b00      	cmp	r3, #0
 8001be4:	d003      	beq.n	8001bee <HAL_TIM_IRQHandler+0x4a>
        {
#if (USE_HAL_TIM_REGISTER_CALLBACKS == 1)
          htim->IC_CaptureCallback(htim);
#else
          HAL_TIM_IC_CaptureCallback(htim);
 8001be6:	6878      	ldr	r0, [r7, #4]
 8001be8:	f000 f9b4 	bl	8001f54 <HAL_TIM_IC_CaptureCallback>
 8001bec:	e005      	b.n	8001bfa <HAL_TIM_IRQHandler+0x56>
        {
#if (USE_HAL_TIM_REGISTER_CALLBACKS == 1)
          htim->OC_DelayElapsedCallback(htim);
          htim->PWM_PulseFinishedCallback(htim);
#else
          HAL_TIM_OC_DelayElapsedCallback(htim);
 8001bee:	6878      	ldr	r0, [r7, #4]
 8001bf0:	f000 f9a7 	bl	8001f42 <HAL_TIM_OC_DelayElapsedCallback>
          HAL_TIM_PWM_PulseFinishedCallback(htim);
 8001bf4:	6878      	ldr	r0, [r7, #4]
 8001bf6:	f000 f9b6 	bl	8001f66 <HAL_TIM_PWM_PulseFinishedCallback>
#endif /* USE_HAL_TIM_REGISTER_CALLBACKS */
        }
        htim->Channel = HAL_TIM_ACTIVE_CHANNEL_CLEARED;
 8001bfa:	687b      	ldr	r3, [r7, #4]
 8001bfc:	2200      	movs	r2, #0
 8001bfe:	771a      	strb	r2, [r3, #28]
      }
    }
  }
  /* Capture compare 2 event */
  if (__HAL_TIM_GET_FLAG(htim, TIM_FLAG_CC2) != RESET)
 8001c00:	687b      	ldr	r3, [r7, #4]
 8001c02:	681b      	ldr	r3, [r3, #0]
 8001c04:	691b      	ldr	r3, [r3, #16]
 8001c06:	f003 0304 	and.w	r3, r3, #4
 8001c0a:	2b04      	cmp	r3, #4
 8001c0c:	d122      	bne.n	8001c54 <HAL_TIM_IRQHandler+0xb0>
  {
    if (__HAL_TIM_GET_IT_SOURCE(htim, TIM_IT_CC2) != RESET)
 8001c0e:	687b      	ldr	r3, [r7, #4]
 8001c10:	681b      	ldr	r3, [r3, #0]
 8001c12:	68db      	ldr	r3, [r3, #12]
 8001c14:	f003 0304 	and.w	r3, r3, #4
 8001c18:	2b04      	cmp	r3, #4
 8001c1a:	d11b      	bne.n	8001c54 <HAL_TIM_IRQHandler+0xb0>
    {
      __HAL_TIM_CLEAR_IT(htim, TIM_IT_CC2);
 8001c1c:	687b      	ldr	r3, [r7, #4]
 8001c1e:	681b      	ldr	r3, [r3, #0]
 8001c20:	f06f 0204 	mvn.w	r2, #4
 8001c24:	611a      	str	r2, [r3, #16]
      htim->Channel = HAL_TIM_ACTIVE_CHANNEL_2;
 8001c26:	687b      	ldr	r3, [r7, #4]
 8001c28:	2202      	movs	r2, #2
 8001c2a:	771a      	strb	r2, [r3, #28]
      /* Input capture event */
      if ((htim->Instance->CCMR1 & TIM_CCMR1_CC2S) != 0x00U)
 8001c2c:	687b      	ldr	r3, [r7, #4]
 8001c2e:	681b      	ldr	r3, [r3, #0]
 8001c30:	699b      	ldr	r3, [r3, #24]
 8001c32:	f403 7340 	and.w	r3, r3, #768	; 0x300
 8001c36:	2b00      	cmp	r3, #0
 8001c38:	d003      	beq.n	8001c42 <HAL_TIM_IRQHandler+0x9e>
      {
#if (USE_HAL_TIM_REGISTER_CALLBACKS == 1)
        htim->IC_CaptureCallback(htim);
#else
        HAL_TIM_IC_CaptureCallback(htim);
 8001c3a:	6878      	ldr	r0, [r7, #4]
 8001c3c:	f000 f98a 	bl	8001f54 <HAL_TIM_IC_CaptureCallback>
 8001c40:	e005      	b.n	8001c4e <HAL_TIM_IRQHandler+0xaa>
      {
#if (USE_HAL_TIM_REGISTER_CALLBACKS == 1)
        htim->OC_DelayElapsedCallback(htim);
        htim->PWM_PulseFinishedCallback(htim);
#else
        HAL_TIM_OC_DelayElapsedCallback(htim);
 8001c42:	6878      	ldr	r0, [r7, #4]
 8001c44:	f000 f97d 	bl	8001f42 <HAL_TIM_OC_DelayElapsedCallback>
        HAL_TIM_PWM_PulseFinishedCallback(htim);
 8001c48:	6878      	ldr	r0, [r7, #4]
 8001c4a:	f000 f98c 	bl	8001f66 <HAL_TIM_PWM_PulseFinishedCallback>
#endif /* USE_HAL_TIM_REGISTER_CALLBACKS */
      }
      htim->Channel = HAL_TIM_ACTIVE_CHANNEL_CLEARED;
 8001c4e:	687b      	ldr	r3, [r7, #4]
 8001c50:	2200      	movs	r2, #0
 8001c52:	771a      	strb	r2, [r3, #28]
    }
  }
  /* Capture compare 3 event */
  if (__HAL_TIM_GET_FLAG(htim, TIM_FLAG_CC3) != RESET)
 8001c54:	687b      	ldr	r3, [r7, #4]
 8001c56:	681b      	ldr	r3, [r3, #0]
 8001c58:	691b      	ldr	r3, [r3, #16]
 8001c5a:	f003 0308 	and.w	r3, r3, #8
 8001c5e:	2b08      	cmp	r3, #8
 8001c60:	d122      	bne.n	8001ca8 <HAL_TIM_IRQHandler+0x104>
  {
    if (__HAL_TIM_GET_IT_SOURCE(htim, TIM_IT_CC3) != RESET)
 8001c62:	687b      	ldr	r3, [r7, #4]
 8001c64:	681b      	ldr	r3, [r3, #0]
 8001c66:	68db      	ldr	r3, [r3, #12]
 8001c68:	f003 0308 	and.w	r3, r3, #8
 8001c6c:	2b08      	cmp	r3, #8
 8001c6e:	d11b      	bne.n	8001ca8 <HAL_TIM_IRQHandler+0x104>
    {
      __HAL_TIM_CLEAR_IT(htim, TIM_IT_CC3);
 8001c70:	687b      	ldr	r3, [r7, #4]
 8001c72:	681b      	ldr	r3, [r3, #0]
 8001c74:	f06f 0208 	mvn.w	r2, #8
 8001c78:	611a      	str	r2, [r3, #16]
      htim->Channel = HAL_TIM_ACTIVE_CHANNEL_3;
 8001c7a:	687b      	ldr	r3, [r7, #4]
 8001c7c:	2204      	movs	r2, #4
 8001c7e:	771a      	strb	r2, [r3, #28]
      /* Input capture event */
      if ((htim->Instance->CCMR2 & TIM_CCMR2_CC3S) != 0x00U)
 8001c80:	687b      	ldr	r3, [r7, #4]
 8001c82:	681b      	ldr	r3, [r3, #0]
 8001c84:	69db      	ldr	r3, [r3, #28]
 8001c86:	f003 0303 	and.w	r3, r3, #3
 8001c8a:	2b00      	cmp	r3, #0
 8001c8c:	d003      	beq.n	8001c96 <HAL_TIM_IRQHandler+0xf2>
      {
#if (USE_HAL_TIM_REGISTER_CALLBACKS == 1)
        htim->IC_CaptureCallback(htim);
#else
        HAL_TIM_IC_CaptureCallback(htim);
 8001c8e:	6878      	ldr	r0, [r7, #4]
 8001c90:	f000 f960 	bl	8001f54 <HAL_TIM_IC_CaptureCallback>
 8001c94:	e005      	b.n	8001ca2 <HAL_TIM_IRQHandler+0xfe>
      {
#if (USE_HAL_TIM_REGISTER_CALLBACKS == 1)
        htim->OC_DelayElapsedCallback(htim);
        htim->PWM_PulseFinishedCallback(htim);
#else
        HAL_TIM_OC_DelayElapsedCallback(htim);
 8001c96:	6878      	ldr	r0, [r7, #4]
 8001c98:	f000 f953 	bl	8001f42 <HAL_TIM_OC_DelayElapsedCallback>
        HAL_TIM_PWM_PulseFinishedCallback(htim);
 8001c9c:	6878      	ldr	r0, [r7, #4]
 8001c9e:	f000 f962 	bl	8001f66 <HAL_TIM_PWM_PulseFinishedCallback>
#endif /* USE_HAL_TIM_REGISTER_CALLBACKS */
      }
      htim->Channel = HAL_TIM_ACTIVE_CHANNEL_CLEARED;
 8001ca2:	687b      	ldr	r3, [r7, #4]
 8001ca4:	2200      	movs	r2, #0
 8001ca6:	771a      	strb	r2, [r3, #28]
    }
  }
  /* Capture compare 4 event */
  if (__HAL_TIM_GET_FLAG(htim, TIM_FLAG_CC4) != RESET)
 8001ca8:	687b      	ldr	r3, [r7, #4]
 8001caa:	681b      	ldr	r3, [r3, #0]
 8001cac:	691b      	ldr	r3, [r3, #16]
 8001cae:	f003 0310 	and.w	r3, r3, #16
 8001cb2:	2b10      	cmp	r3, #16
 8001cb4:	d122      	bne.n	8001cfc <HAL_TIM_IRQHandler+0x158>
  {
    if (__HAL_TIM_GET_IT_SOURCE(htim, TIM_IT_CC4) != RESET)
 8001cb6:	687b      	ldr	r3, [r7, #4]
 8001cb8:	681b      	ldr	r3, [r3, #0]
 8001cba:	68db      	ldr	r3, [r3, #12]
 8001cbc:	f003 0310 	and.w	r3, r3, #16
 8001cc0:	2b10      	cmp	r3, #16
 8001cc2:	d11b      	bne.n	8001cfc <HAL_TIM_IRQHandler+0x158>
    {
      __HAL_TIM_CLEAR_IT(htim, TIM_IT_CC4);
 8001cc4:	687b      	ldr	r3, [r7, #4]
 8001cc6:	681b      	ldr	r3, [r3, #0]
 8001cc8:	f06f 0210 	mvn.w	r2, #16
 8001ccc:	611a      	str	r2, [r3, #16]
      htim->Channel = HAL_TIM_ACTIVE_CHANNEL_4;
 8001cce:	687b      	ldr	r3, [r7, #4]
 8001cd0:	2208      	movs	r2, #8
 8001cd2:	771a      	strb	r2, [r3, #28]
      /* Input capture event */
      if ((htim->Instance->CCMR2 & TIM_CCMR2_CC4S) != 0x00U)
 8001cd4:	687b      	ldr	r3, [r7, #4]
 8001cd6:	681b      	ldr	r3, [r3, #0]
 8001cd8:	69db      	ldr	r3, [r3, #28]
 8001cda:	f403 7340 	and.w	r3, r3, #768	; 0x300
 8001cde:	2b00      	cmp	r3, #0
 8001ce0:	d003      	beq.n	8001cea <HAL_TIM_IRQHandler+0x146>
      {
#if (USE_HAL_TIM_REGISTER_CALLBACKS == 1)
        htim->IC_CaptureCallback(htim);
#else
        HAL_TIM_IC_CaptureCallback(htim);
 8001ce2:	6878      	ldr	r0, [r7, #4]
 8001ce4:	f000 f936 	bl	8001f54 <HAL_TIM_IC_CaptureCallback>
 8001ce8:	e005      	b.n	8001cf6 <HAL_TIM_IRQHandler+0x152>
      {
#if (USE_HAL_TIM_REGISTER_CALLBACKS == 1)
        htim->OC_DelayElapsedCallback(htim);
        htim->PWM_PulseFinishedCallback(htim);
#else
        HAL_TIM_OC_DelayElapsedCallback(htim);
 8001cea:	6878      	ldr	r0, [r7, #4]
 8001cec:	f000 f929 	bl	8001f42 <HAL_TIM_OC_DelayElapsedCallback>
        HAL_TIM_PWM_PulseFinishedCallback(htim);
 8001cf0:	6878      	ldr	r0, [r7, #4]
 8001cf2:	f000 f938 	bl	8001f66 <HAL_TIM_PWM_PulseFinishedCallback>
#endif /* USE_HAL_TIM_REGISTER_CALLBACKS */
      }
      htim->Channel = HAL_TIM_ACTIVE_CHANNEL_CLEARED;
 8001cf6:	687b      	ldr	r3, [r7, #4]
 8001cf8:	2200      	movs	r2, #0
 8001cfa:	771a      	strb	r2, [r3, #28]
    }
  }
  /* TIM Update event */
  if (__HAL_TIM_GET_FLAG(htim, TIM_FLAG_UPDATE) != RESET)
 8001cfc:	687b      	ldr	r3, [r7, #4]
 8001cfe:	681b      	ldr	r3, [r3, #0]
 8001d00:	691b      	ldr	r3, [r3, #16]
 8001d02:	f003 0301 	and.w	r3, r3, #1
 8001d06:	2b01      	cmp	r3, #1
 8001d08:	d10e      	bne.n	8001d28 <HAL_TIM_IRQHandler+0x184>
  {
    if (__HAL_TIM_GET_IT_SOURCE(htim, TIM_IT_UPDATE) != RESET)
 8001d0a:	687b      	ldr	r3, [r7, #4]
 8001d0c:	681b      	ldr	r3, [r3, #0]
 8001d0e:	68db      	ldr	r3, [r3, #12]
 8001d10:	f003 0301 	and.w	r3, r3, #1
 8001d14:	2b01      	cmp	r3, #1
 8001d16:	d107      	bne.n	8001d28 <HAL_TIM_IRQHandler+0x184>
    {
      __HAL_TIM_CLEAR_IT(htim, TIM_IT_UPDATE);
 8001d18:	687b      	ldr	r3, [r7, #4]
 8001d1a:	681b      	ldr	r3, [r3, #0]
 8001d1c:	f06f 0201 	mvn.w	r2, #1
 8001d20:	611a      	str	r2, [r3, #16]
#if (USE_HAL_TIM_REGISTER_CALLBACKS == 1)
      htim->PeriodElapsedCallback(htim);
#else
      HAL_TIM_PeriodElapsedCallback(htim);
 8001d22:	6878      	ldr	r0, [r7, #4]
 8001d24:	f7fe fe40 	bl	80009a8 <HAL_TIM_PeriodElapsedCallback>
#endif /* USE_HAL_TIM_REGISTER_CALLBACKS */
    }
  }
  /* TIM Break input event */
  if (__HAL_TIM_GET_FLAG(htim, TIM_FLAG_BREAK) != RESET)
 8001d28:	687b      	ldr	r3, [r7, #4]
 8001d2a:	681b      	ldr	r3, [r3, #0]
 8001d2c:	691b      	ldr	r3, [r3, #16]
 8001d2e:	f003 0380 	and.w	r3, r3, #128	; 0x80
 8001d32:	2b80      	cmp	r3, #128	; 0x80
 8001d34:	d10e      	bne.n	8001d54 <HAL_TIM_IRQHandler+0x1b0>
  {
    if (__HAL_TIM_GET_IT_SOURCE(htim, TIM_IT_BREAK) != RESET)
 8001d36:	687b      	ldr	r3, [r7, #4]
 8001d38:	681b      	ldr	r3, [r3, #0]
 8001d3a:	68db      	ldr	r3, [r3, #12]
 8001d3c:	f003 0380 	and.w	r3, r3, #128	; 0x80
 8001d40:	2b80      	cmp	r3, #128	; 0x80
 8001d42:	d107      	bne.n	8001d54 <HAL_TIM_IRQHandler+0x1b0>
    {
      __HAL_TIM_CLEAR_IT(htim, TIM_IT_BREAK);
 8001d44:	687b      	ldr	r3, [r7, #4]
 8001d46:	681b      	ldr	r3, [r3, #0]
 8001d48:	f06f 0280 	mvn.w	r2, #128	; 0x80
 8001d4c:	611a      	str	r2, [r3, #16]
#if (USE_HAL_TIM_REGISTER_CALLBACKS == 1)
      htim->BreakCallback(htim);
#else
      HAL_TIMEx_BreakCallback(htim);
 8001d4e:	6878      	ldr	r0, [r7, #4]
 8001d50:	f000 fa6b 	bl	800222a <HAL_TIMEx_BreakCallback>
#endif /* USE_HAL_TIM_REGISTER_CALLBACKS */
    }
  }
  /* TIM Trigger detection event */
  if (__HAL_TIM_GET_FLAG(htim, TIM_FLAG_TRIGGER) != RESET)
 8001d54:	687b      	ldr	r3, [r7, #4]
 8001d56:	681b      	ldr	r3, [r3, #0]
 8001d58:	691b      	ldr	r3, [r3, #16]
 8001d5a:	f003 0340 	and.w	r3, r3, #64	; 0x40
 8001d5e:	2b40      	cmp	r3, #64	; 0x40
 8001d60:	d10e      	bne.n	8001d80 <HAL_TIM_IRQHandler+0x1dc>
  {
    if (__HAL_TIM_GET_IT_SOURCE(htim, TIM_IT_TRIGGER) != RESET)
 8001d62:	687b      	ldr	r3, [r7, #4]
 8001d64:	681b      	ldr	r3, [r3, #0]
 8001d66:	68db      	ldr	r3, [r3, #12]
 8001d68:	f003 0340 	and.w	r3, r3, #64	; 0x40
 8001d6c:	2b40      	cmp	r3, #64	; 0x40
 8001d6e:	d107      	bne.n	8001d80 <HAL_TIM_IRQHandler+0x1dc>
    {
      __HAL_TIM_CLEAR_IT(htim, TIM_IT_TRIGGER);
 8001d70:	687b      	ldr	r3, [r7, #4]
 8001d72:	681b      	ldr	r3, [r3, #0]
 8001d74:	f06f 0240 	mvn.w	r2, #64	; 0x40
 8001d78:	611a      	str	r2, [r3, #16]
#if (USE_HAL_TIM_REGISTER_CALLBACKS == 1)
      htim->TriggerCallback(htim);
#else
      HAL_TIM_TriggerCallback(htim);
 8001d7a:	6878      	ldr	r0, [r7, #4]
 8001d7c:	f000 f8fc 	bl	8001f78 <HAL_TIM_TriggerCallback>
#endif /* USE_HAL_TIM_REGISTER_CALLBACKS */
    }
  }
  /* TIM commutation event */
  if (__HAL_TIM_GET_FLAG(htim, TIM_FLAG_COM) != RESET)
 8001d80:	687b      	ldr	r3, [r7, #4]
 8001d82:	681b      	ldr	r3, [r3, #0]
 8001d84:	691b      	ldr	r3, [r3, #16]
 8001d86:	f003 0320 	and.w	r3, r3, #32
 8001d8a:	2b20      	cmp	r3, #32
 8001d8c:	d10e      	bne.n	8001dac <HAL_TIM_IRQHandler+0x208>
  {
    if (__HAL_TIM_GET_IT_SOURCE(htim, TIM_IT_COM) != RESET)
 8001d8e:	687b      	ldr	r3, [r7, #4]
 8001d90:	681b      	ldr	r3, [r3, #0]
 8001d92:	68db      	ldr	r3, [r3, #12]
 8001d94:	f003 0320 	and.w	r3, r3, #32
 8001d98:	2b20      	cmp	r3, #32
 8001d9a:	d107      	bne.n	8001dac <HAL_TIM_IRQHandler+0x208>
    {
      __HAL_TIM_CLEAR_IT(htim, TIM_FLAG_COM);
 8001d9c:	687b      	ldr	r3, [r7, #4]
 8001d9e:	681b      	ldr	r3, [r3, #0]
 8001da0:	f06f 0220 	mvn.w	r2, #32
 8001da4:	611a      	str	r2, [r3, #16]
#if (USE_HAL_TIM_REGISTER_CALLBACKS == 1)
      htim->CommutationCallback(htim);
#else
      HAL_TIMEx_CommutCallback(htim);
 8001da6:	6878      	ldr	r0, [r7, #4]
 8001da8:	f000 fa36 	bl	8002218 <HAL_TIMEx_CommutCallback>
#endif /* USE_HAL_TIM_REGISTER_CALLBACKS */
    }
  }
}
 8001dac:	bf00      	nop
 8001dae:	3708      	adds	r7, #8
 8001db0:	46bd      	mov	sp, r7
 8001db2:	bd80      	pop	{r7, pc}

08001db4 <HAL_TIM_ConfigClockSource>:
  * @param  sClockSourceConfig pointer to a TIM_ClockConfigTypeDef structure that
  *         contains the clock source information for the TIM peripheral.
  * @retval HAL status
  */
HAL_StatusTypeDef HAL_TIM_ConfigClockSource(TIM_HandleTypeDef *htim, const TIM_ClockConfigTypeDef *sClockSourceConfig)
{
 8001db4:	b580      	push	{r7, lr}
 8001db6:	b084      	sub	sp, #16
 8001db8:	af00      	add	r7, sp, #0
 8001dba:	6078      	str	r0, [r7, #4]
 8001dbc:	6039      	str	r1, [r7, #0]
  HAL_StatusTypeDef status = HAL_OK;
 8001dbe:	2300      	movs	r3, #0
 8001dc0:	73fb      	strb	r3, [r7, #15]
  uint32_t tmpsmcr;

  /* Process Locked */
  __HAL_LOCK(htim);
 8001dc2:	687b      	ldr	r3, [r7, #4]
 8001dc4:	f893 303c 	ldrb.w	r3, [r3, #60]	; 0x3c
 8001dc8:	2b01      	cmp	r3, #1
 8001dca:	d101      	bne.n	8001dd0 <HAL_TIM_ConfigClockSource+0x1c>
 8001dcc:	2302      	movs	r3, #2
 8001dce:	e0b4      	b.n	8001f3a <HAL_TIM_ConfigClockSource+0x186>
 8001dd0:	687b      	ldr	r3, [r7, #4]
 8001dd2:	2201      	movs	r2, #1
 8001dd4:	f883 203c 	strb.w	r2, [r3, #60]	; 0x3c

  htim->State = HAL_TIM_STATE_BUSY;
 8001dd8:	687b      	ldr	r3, [r7, #4]
 8001dda:	2202      	movs	r2, #2
 8001ddc:	f883 203d 	strb.w	r2, [r3, #61]	; 0x3d

  /* Check the parameters */
  assert_param(IS_TIM_CLOCKSOURCE(sClockSourceConfig->ClockSource));

  /* Reset the SMS, TS, ECE, ETPS and ETRF bits */
  tmpsmcr = htim->Instance->SMCR;
 8001de0:	687b      	ldr	r3, [r7, #4]
 8001de2:	681b      	ldr	r3, [r3, #0]
 8001de4:	689b      	ldr	r3, [r3, #8]
 8001de6:	60bb      	str	r3, [r7, #8]
  tmpsmcr &= ~(TIM_SMCR_SMS | TIM_SMCR_TS);
 8001de8:	68bb      	ldr	r3, [r7, #8]
 8001dea:	f023 0377 	bic.w	r3, r3, #119	; 0x77
 8001dee:	60bb      	str	r3, [r7, #8]
  tmpsmcr &= ~(TIM_SMCR_ETF | TIM_SMCR_ETPS | TIM_SMCR_ECE | TIM_SMCR_ETP);
 8001df0:	68bb      	ldr	r3, [r7, #8]
 8001df2:	f423 437f 	bic.w	r3, r3, #65280	; 0xff00
 8001df6:	60bb      	str	r3, [r7, #8]
  htim->Instance->SMCR = tmpsmcr;
 8001df8:	687b      	ldr	r3, [r7, #4]
 8001dfa:	681b      	ldr	r3, [r3, #0]
 8001dfc:	68ba      	ldr	r2, [r7, #8]
 8001dfe:	609a      	str	r2, [r3, #8]

  switch (sClockSourceConfig->ClockSource)
 8001e00:	683b      	ldr	r3, [r7, #0]
 8001e02:	681b      	ldr	r3, [r3, #0]
 8001e04:	f5b3 5f00 	cmp.w	r3, #8192	; 0x2000
 8001e08:	d03e      	beq.n	8001e88 <HAL_TIM_ConfigClockSource+0xd4>
 8001e0a:	f5b3 5f00 	cmp.w	r3, #8192	; 0x2000
 8001e0e:	f200 8087 	bhi.w	8001f20 <HAL_TIM_ConfigClockSource+0x16c>
 8001e12:	f5b3 5f80 	cmp.w	r3, #4096	; 0x1000
 8001e16:	f000 8086 	beq.w	8001f26 <HAL_TIM_ConfigClockSource+0x172>
 8001e1a:	f5b3 5f80 	cmp.w	r3, #4096	; 0x1000
 8001e1e:	d87f      	bhi.n	8001f20 <HAL_TIM_ConfigClockSource+0x16c>
 8001e20:	2b70      	cmp	r3, #112	; 0x70
 8001e22:	d01a      	beq.n	8001e5a <HAL_TIM_ConfigClockSource+0xa6>
 8001e24:	2b70      	cmp	r3, #112	; 0x70
 8001e26:	d87b      	bhi.n	8001f20 <HAL_TIM_ConfigClockSource+0x16c>
 8001e28:	2b60      	cmp	r3, #96	; 0x60
 8001e2a:	d050      	beq.n	8001ece <HAL_TIM_ConfigClockSource+0x11a>
 8001e2c:	2b60      	cmp	r3, #96	; 0x60
 8001e2e:	d877      	bhi.n	8001f20 <HAL_TIM_ConfigClockSource+0x16c>
 8001e30:	2b50      	cmp	r3, #80	; 0x50
 8001e32:	d03c      	beq.n	8001eae <HAL_TIM_ConfigClockSource+0xfa>
 8001e34:	2b50      	cmp	r3, #80	; 0x50
 8001e36:	d873      	bhi.n	8001f20 <HAL_TIM_ConfigClockSource+0x16c>
 8001e38:	2b40      	cmp	r3, #64	; 0x40
 8001e3a:	d058      	beq.n	8001eee <HAL_TIM_ConfigClockSource+0x13a>
 8001e3c:	2b40      	cmp	r3, #64	; 0x40
 8001e3e:	d86f      	bhi.n	8001f20 <HAL_TIM_ConfigClockSource+0x16c>
 8001e40:	2b30      	cmp	r3, #48	; 0x30
 8001e42:	d064      	beq.n	8001f0e <HAL_TIM_ConfigClockSource+0x15a>
 8001e44:	2b30      	cmp	r3, #48	; 0x30
 8001e46:	d86b      	bhi.n	8001f20 <HAL_TIM_ConfigClockSource+0x16c>
 8001e48:	2b20      	cmp	r3, #32
 8001e4a:	d060      	beq.n	8001f0e <HAL_TIM_ConfigClockSource+0x15a>
 8001e4c:	2b20      	cmp	r3, #32
 8001e4e:	d867      	bhi.n	8001f20 <HAL_TIM_ConfigClockSource+0x16c>
 8001e50:	2b00      	cmp	r3, #0
 8001e52:	d05c      	beq.n	8001f0e <HAL_TIM_ConfigClockSource+0x15a>
 8001e54:	2b10      	cmp	r3, #16
 8001e56:	d05a      	beq.n	8001f0e <HAL_TIM_ConfigClockSource+0x15a>
 8001e58:	e062      	b.n	8001f20 <HAL_TIM_ConfigClockSource+0x16c>
      assert_param(IS_TIM_CLOCKPRESCALER(sClockSourceConfig->ClockPrescaler));
      assert_param(IS_TIM_CLOCKPOLARITY(sClockSourceConfig->ClockPolarity));
      assert_param(IS_TIM_CLOCKFILTER(sClockSourceConfig->ClockFilter));

      /* Configure the ETR Clock source */
      TIM_ETR_SetConfig(htim->Instance,
 8001e5a:	687b      	ldr	r3, [r7, #4]
 8001e5c:	6818      	ldr	r0, [r3, #0]
 8001e5e:	683b      	ldr	r3, [r7, #0]
 8001e60:	6899      	ldr	r1, [r3, #8]
 8001e62:	683b      	ldr	r3, [r7, #0]
 8001e64:	685a      	ldr	r2, [r3, #4]
 8001e66:	683b      	ldr	r3, [r7, #0]
 8001e68:	68db      	ldr	r3, [r3, #12]
 8001e6a:	f000 f95e 	bl	800212a <TIM_ETR_SetConfig>
                        sClockSourceConfig->ClockPrescaler,
                        sClockSourceConfig->ClockPolarity,
                        sClockSourceConfig->ClockFilter);

      /* Select the External clock mode1 and the ETRF trigger */
      tmpsmcr = htim->Instance->SMCR;
 8001e6e:	687b      	ldr	r3, [r7, #4]
 8001e70:	681b      	ldr	r3, [r3, #0]
 8001e72:	689b      	ldr	r3, [r3, #8]
 8001e74:	60bb      	str	r3, [r7, #8]
      tmpsmcr |= (TIM_SLAVEMODE_EXTERNAL1 | TIM_CLOCKSOURCE_ETRMODE1);
 8001e76:	68bb      	ldr	r3, [r7, #8]
 8001e78:	f043 0377 	orr.w	r3, r3, #119	; 0x77
 8001e7c:	60bb      	str	r3, [r7, #8]
      /* Write to TIMx SMCR */
      htim->Instance->SMCR = tmpsmcr;
 8001e7e:	687b      	ldr	r3, [r7, #4]
 8001e80:	681b      	ldr	r3, [r3, #0]
 8001e82:	68ba      	ldr	r2, [r7, #8]
 8001e84:	609a      	str	r2, [r3, #8]
      break;
 8001e86:	e04f      	b.n	8001f28 <HAL_TIM_ConfigClockSource+0x174>
      assert_param(IS_TIM_CLOCKPRESCALER(sClockSourceConfig->ClockPrescaler));
      assert_param(IS_TIM_CLOCKPOLARITY(sClockSourceConfig->ClockPolarity));
      assert_param(IS_TIM_CLOCKFILTER(sClockSourceConfig->ClockFilter));

      /* Configure the ETR Clock source */
      TIM_ETR_SetConfig(htim->Instance,
 8001e88:	687b      	ldr	r3, [r7, #4]
 8001e8a:	6818      	ldr	r0, [r3, #0]
 8001e8c:	683b      	ldr	r3, [r7, #0]
 8001e8e:	6899      	ldr	r1, [r3, #8]
 8001e90:	683b      	ldr	r3, [r7, #0]
 8001e92:	685a      	ldr	r2, [r3, #4]
 8001e94:	683b      	ldr	r3, [r7, #0]
 8001e96:	68db      	ldr	r3, [r3, #12]
 8001e98:	f000 f947 	bl	800212a <TIM_ETR_SetConfig>
                        sClockSourceConfig->ClockPrescaler,
                        sClockSourceConfig->ClockPolarity,
                        sClockSourceConfig->ClockFilter);
      /* Enable the External clock mode2 */
      htim->Instance->SMCR |= TIM_SMCR_ECE;
 8001e9c:	687b      	ldr	r3, [r7, #4]
 8001e9e:	681b      	ldr	r3, [r3, #0]
 8001ea0:	689a      	ldr	r2, [r3, #8]
 8001ea2:	687b      	ldr	r3, [r7, #4]
 8001ea4:	681b      	ldr	r3, [r3, #0]
 8001ea6:	f442 4280 	orr.w	r2, r2, #16384	; 0x4000
 8001eaa:	609a      	str	r2, [r3, #8]
      break;
 8001eac:	e03c      	b.n	8001f28 <HAL_TIM_ConfigClockSource+0x174>

      /* Check TI1 input conditioning related parameters */
      assert_param(IS_TIM_CLOCKPOLARITY(sClockSourceConfig->ClockPolarity));
      assert_param(IS_TIM_CLOCKFILTER(sClockSourceConfig->ClockFilter));

      TIM_TI1_ConfigInputStage(htim->Instance,
 8001eae:	687b      	ldr	r3, [r7, #4]
 8001eb0:	6818      	ldr	r0, [r3, #0]
 8001eb2:	683b      	ldr	r3, [r7, #0]
 8001eb4:	6859      	ldr	r1, [r3, #4]
 8001eb6:	683b      	ldr	r3, [r7, #0]
 8001eb8:	68db      	ldr	r3, [r3, #12]
 8001eba:	461a      	mov	r2, r3
 8001ebc:	f000 f8be 	bl	800203c <TIM_TI1_ConfigInputStage>
                               sClockSourceConfig->ClockPolarity,
                               sClockSourceConfig->ClockFilter);
      TIM_ITRx_SetConfig(htim->Instance, TIM_CLOCKSOURCE_TI1);
 8001ec0:	687b      	ldr	r3, [r7, #4]
 8001ec2:	681b      	ldr	r3, [r3, #0]
 8001ec4:	2150      	movs	r1, #80	; 0x50
 8001ec6:	4618      	mov	r0, r3
 8001ec8:	f000 f915 	bl	80020f6 <TIM_ITRx_SetConfig>
      break;
 8001ecc:	e02c      	b.n	8001f28 <HAL_TIM_ConfigClockSource+0x174>

      /* Check TI2 input conditioning related parameters */
      assert_param(IS_TIM_CLOCKPOLARITY(sClockSourceConfig->ClockPolarity));
      assert_param(IS_TIM_CLOCKFILTER(sClockSourceConfig->ClockFilter));

      TIM_TI2_ConfigInputStage(htim->Instance,
 8001ece:	687b      	ldr	r3, [r7, #4]
 8001ed0:	6818      	ldr	r0, [r3, #0]
 8001ed2:	683b      	ldr	r3, [r7, #0]
 8001ed4:	6859      	ldr	r1, [r3, #4]
 8001ed6:	683b      	ldr	r3, [r7, #0]
 8001ed8:	68db      	ldr	r3, [r3, #12]
 8001eda:	461a      	mov	r2, r3
 8001edc:	f000 f8dc 	bl	8002098 <TIM_TI2_ConfigInputStage>
                               sClockSourceConfig->ClockPolarity,
                               sClockSourceConfig->ClockFilter);
      TIM_ITRx_SetConfig(htim->Instance, TIM_CLOCKSOURCE_TI2);
 8001ee0:	687b      	ldr	r3, [r7, #4]
 8001ee2:	681b      	ldr	r3, [r3, #0]
 8001ee4:	2160      	movs	r1, #96	; 0x60
 8001ee6:	4618      	mov	r0, r3
 8001ee8:	f000 f905 	bl	80020f6 <TIM_ITRx_SetConfig>
      break;
 8001eec:	e01c      	b.n	8001f28 <HAL_TIM_ConfigClockSource+0x174>

      /* Check TI1 input conditioning related parameters */
      assert_param(IS_TIM_CLOCKPOLARITY(sClockSourceConfig->ClockPolarity));
      assert_param(IS_TIM_CLOCKFILTER(sClockSourceConfig->ClockFilter));

      TIM_TI1_ConfigInputStage(htim->Instance,
 8001eee:	687b      	ldr	r3, [r7, #4]
 8001ef0:	6818      	ldr	r0, [r3, #0]
 8001ef2:	683b      	ldr	r3, [r7, #0]
 8001ef4:	6859      	ldr	r1, [r3, #4]
 8001ef6:	683b      	ldr	r3, [r7, #0]
 8001ef8:	68db      	ldr	r3, [r3, #12]
 8001efa:	461a      	mov	r2, r3
 8001efc:	f000 f89e 	bl	800203c <TIM_TI1_ConfigInputStage>
                               sClockSourceConfig->ClockPolarity,
                               sClockSourceConfig->ClockFilter);
      TIM_ITRx_SetConfig(htim->Instance, TIM_CLOCKSOURCE_TI1ED);
 8001f00:	687b      	ldr	r3, [r7, #4]
 8001f02:	681b      	ldr	r3, [r3, #0]
 8001f04:	2140      	movs	r1, #64	; 0x40
 8001f06:	4618      	mov	r0, r3
 8001f08:	f000 f8f5 	bl	80020f6 <TIM_ITRx_SetConfig>
      break;
 8001f0c:	e00c      	b.n	8001f28 <HAL_TIM_ConfigClockSource+0x174>
    case TIM_CLOCKSOURCE_ITR3:
    {
      /* Check whether or not the timer instance supports internal trigger input */
      assert_param(IS_TIM_CLOCKSOURCE_ITRX_INSTANCE(htim->Instance));

      TIM_ITRx_SetConfig(htim->Instance, sClockSourceConfig->ClockSource);
 8001f0e:	687b      	ldr	r3, [r7, #4]
 8001f10:	681a      	ldr	r2, [r3, #0]
 8001f12:	683b      	ldr	r3, [r7, #0]
 8001f14:	681b      	ldr	r3, [r3, #0]
 8001f16:	4619      	mov	r1, r3
 8001f18:	4610      	mov	r0, r2
 8001f1a:	f000 f8ec 	bl	80020f6 <TIM_ITRx_SetConfig>
      break;
 8001f1e:	e003      	b.n	8001f28 <HAL_TIM_ConfigClockSource+0x174>
    }

    default:
      status = HAL_ERROR;
 8001f20:	2301      	movs	r3, #1
 8001f22:	73fb      	strb	r3, [r7, #15]
      break;
 8001f24:	e000      	b.n	8001f28 <HAL_TIM_ConfigClockSource+0x174>
      break;
 8001f26:	bf00      	nop
  }
  htim->State = HAL_TIM_STATE_READY;
 8001f28:	687b      	ldr	r3, [r7, #4]
 8001f2a:	2201      	movs	r2, #1
 8001f2c:	f883 203d 	strb.w	r2, [r3, #61]	; 0x3d

  __HAL_UNLOCK(htim);
 8001f30:	687b      	ldr	r3, [r7, #4]
 8001f32:	2200      	movs	r2, #0
 8001f34:	f883 203c 	strb.w	r2, [r3, #60]	; 0x3c

  return status;
 8001f38:	7bfb      	ldrb	r3, [r7, #15]
}
 8001f3a:	4618      	mov	r0, r3
 8001f3c:	3710      	adds	r7, #16
 8001f3e:	46bd      	mov	sp, r7
 8001f40:	bd80      	pop	{r7, pc}

08001f42 <HAL_TIM_OC_DelayElapsedCallback>:
  * @brief  Output Compare callback in non-blocking mode
  * @param  htim TIM OC handle
  * @retval None
  */
__weak void HAL_TIM_OC_DelayElapsedCallback(TIM_HandleTypeDef *htim)
{
 8001f42:	b480      	push	{r7}
 8001f44:	b083      	sub	sp, #12
 8001f46:	af00      	add	r7, sp, #0
 8001f48:	6078      	str	r0, [r7, #4]
  UNUSED(htim);

  /* NOTE : This function should not be modified, when the callback is needed,
            the HAL_TIM_OC_DelayElapsedCallback could be implemented in the user file
   */
}
 8001f4a:	bf00      	nop
 8001f4c:	370c      	adds	r7, #12
 8001f4e:	46bd      	mov	sp, r7
 8001f50:	bc80      	pop	{r7}
 8001f52:	4770      	bx	lr

08001f54 <HAL_TIM_IC_CaptureCallback>:
  * @brief  Input Capture callback in non-blocking mode
  * @param  htim TIM IC handle
  * @retval None
  */
__weak void HAL_TIM_IC_CaptureCallback(TIM_HandleTypeDef *htim)
{
 8001f54:	b480      	push	{r7}
 8001f56:	b083      	sub	sp, #12
 8001f58:	af00      	add	r7, sp, #0
 8001f5a:	6078      	str	r0, [r7, #4]
  UNUSED(htim);

  /* NOTE : This function should not be modified, when the callback is needed,
            the HAL_TIM_IC_CaptureCallback could be implemented in the user file
   */
}
 8001f5c:	bf00      	nop
 8001f5e:	370c      	adds	r7, #12
 8001f60:	46bd      	mov	sp, r7
 8001f62:	bc80      	pop	{r7}
 8001f64:	4770      	bx	lr

08001f66 <HAL_TIM_PWM_PulseFinishedCallback>:
  * @brief  PWM Pulse finished callback in non-blocking mode
  * @param  htim TIM handle
  * @retval None
  */
__weak void HAL_TIM_PWM_PulseFinishedCallback(TIM_HandleTypeDef *htim)
{
 8001f66:	b480      	push	{r7}
 8001f68:	b083      	sub	sp, #12
 8001f6a:	af00      	add	r7, sp, #0
 8001f6c:	6078      	str	r0, [r7, #4]
  UNUSED(htim);

  /* NOTE : This function should not be modified, when the callback is needed,
            the HAL_TIM_PWM_PulseFinishedCallback could be implemented in the user file
   */
}
 8001f6e:	bf00      	nop
 8001f70:	370c      	adds	r7, #12
 8001f72:	46bd      	mov	sp, r7
 8001f74:	bc80      	pop	{r7}
 8001f76:	4770      	bx	lr

08001f78 <HAL_TIM_TriggerCallback>:
  * @brief  Hall Trigger detection callback in non-blocking mode
  * @param  htim TIM handle
  * @retval None
  */
__weak void HAL_TIM_TriggerCallback(TIM_HandleTypeDef *htim)
{
 8001f78:	b480      	push	{r7}
 8001f7a:	b083      	sub	sp, #12
 8001f7c:	af00      	add	r7, sp, #0
 8001f7e:	6078      	str	r0, [r7, #4]
  UNUSED(htim);

  /* NOTE : This function should not be modified, when the callback is needed,
            the HAL_TIM_TriggerCallback could be implemented in the user file
   */
}
 8001f80:	bf00      	nop
 8001f82:	370c      	adds	r7, #12
 8001f84:	46bd      	mov	sp, r7
 8001f86:	bc80      	pop	{r7}
 8001f88:	4770      	bx	lr
	...

08001f8c <TIM_Base_SetConfig>:
  * @param  TIMx TIM peripheral
  * @param  Structure TIM Base configuration structure
  * @retval None
  */
void TIM_Base_SetConfig(TIM_TypeDef *TIMx, const TIM_Base_InitTypeDef *Structure)
{
 8001f8c:	b480      	push	{r7}
 8001f8e:	b085      	sub	sp, #20
 8001f90:	af00      	add	r7, sp, #0
 8001f92:	6078      	str	r0, [r7, #4]
 8001f94:	6039      	str	r1, [r7, #0]
  uint32_t tmpcr1;
  tmpcr1 = TIMx->CR1;
 8001f96:	687b      	ldr	r3, [r7, #4]
 8001f98:	681b      	ldr	r3, [r3, #0]
 8001f9a:	60fb      	str	r3, [r7, #12]

  /* Set TIM Time Base Unit parameters ---------------------------------------*/
  if (IS_TIM_COUNTER_MODE_SELECT_INSTANCE(TIMx))
 8001f9c:	687b      	ldr	r3, [r7, #4]
 8001f9e:	4a25      	ldr	r2, [pc, #148]	; (8002034 <TIM_Base_SetConfig+0xa8>)
 8001fa0:	4293      	cmp	r3, r2
 8001fa2:	d007      	beq.n	8001fb4 <TIM_Base_SetConfig+0x28>
 8001fa4:	687b      	ldr	r3, [r7, #4]
 8001fa6:	f1b3 4f80 	cmp.w	r3, #1073741824	; 0x40000000
 8001faa:	d003      	beq.n	8001fb4 <TIM_Base_SetConfig+0x28>
 8001fac:	687b      	ldr	r3, [r7, #4]
 8001fae:	4a22      	ldr	r2, [pc, #136]	; (8002038 <TIM_Base_SetConfig+0xac>)
 8001fb0:	4293      	cmp	r3, r2
 8001fb2:	d108      	bne.n	8001fc6 <TIM_Base_SetConfig+0x3a>
  {
    /* Select the Counter Mode */
    tmpcr1 &= ~(TIM_CR1_DIR | TIM_CR1_CMS);
 8001fb4:	68fb      	ldr	r3, [r7, #12]
 8001fb6:	f023 0370 	bic.w	r3, r3, #112	; 0x70
 8001fba:	60fb      	str	r3, [r7, #12]
    tmpcr1 |= Structure->CounterMode;
 8001fbc:	683b      	ldr	r3, [r7, #0]
 8001fbe:	685b      	ldr	r3, [r3, #4]
 8001fc0:	68fa      	ldr	r2, [r7, #12]
 8001fc2:	4313      	orrs	r3, r2
 8001fc4:	60fb      	str	r3, [r7, #12]
  }

  if (IS_TIM_CLOCK_DIVISION_INSTANCE(TIMx))
 8001fc6:	687b      	ldr	r3, [r7, #4]
 8001fc8:	4a1a      	ldr	r2, [pc, #104]	; (8002034 <TIM_Base_SetConfig+0xa8>)
 8001fca:	4293      	cmp	r3, r2
 8001fcc:	d007      	beq.n	8001fde <TIM_Base_SetConfig+0x52>
 8001fce:	687b      	ldr	r3, [r7, #4]
 8001fd0:	f1b3 4f80 	cmp.w	r3, #1073741824	; 0x40000000
 8001fd4:	d003      	beq.n	8001fde <TIM_Base_SetConfig+0x52>
 8001fd6:	687b      	ldr	r3, [r7, #4]
 8001fd8:	4a17      	ldr	r2, [pc, #92]	; (8002038 <TIM_Base_SetConfig+0xac>)
 8001fda:	4293      	cmp	r3, r2
 8001fdc:	d108      	bne.n	8001ff0 <TIM_Base_SetConfig+0x64>
  {
    /* Set the clock division */
    tmpcr1 &= ~TIM_CR1_CKD;
 8001fde:	68fb      	ldr	r3, [r7, #12]
 8001fe0:	f423 7340 	bic.w	r3, r3, #768	; 0x300
 8001fe4:	60fb      	str	r3, [r7, #12]
    tmpcr1 |= (uint32_t)Structure->ClockDivision;
 8001fe6:	683b      	ldr	r3, [r7, #0]
 8001fe8:	68db      	ldr	r3, [r3, #12]
 8001fea:	68fa      	ldr	r2, [r7, #12]
 8001fec:	4313      	orrs	r3, r2
 8001fee:	60fb      	str	r3, [r7, #12]
  }

  /* Set the auto-reload preload */
  MODIFY_REG(tmpcr1, TIM_CR1_ARPE, Structure->AutoReloadPreload);
 8001ff0:	68fb      	ldr	r3, [r7, #12]
 8001ff2:	f023 0280 	bic.w	r2, r3, #128	; 0x80
 8001ff6:	683b      	ldr	r3, [r7, #0]
 8001ff8:	695b      	ldr	r3, [r3, #20]
 8001ffa:	4313      	orrs	r3, r2
 8001ffc:	60fb      	str	r3, [r7, #12]

  TIMx->CR1 = tmpcr1;
 8001ffe:	687b      	ldr	r3, [r7, #4]
 8002000:	68fa      	ldr	r2, [r7, #12]
 8002002:	601a      	str	r2, [r3, #0]

  /* Set the Autoreload value */
  TIMx->ARR = (uint32_t)Structure->Period ;
 8002004:	683b      	ldr	r3, [r7, #0]
 8002006:	689a      	ldr	r2, [r3, #8]
 8002008:	687b      	ldr	r3, [r7, #4]
 800200a:	62da      	str	r2, [r3, #44]	; 0x2c

  /* Set the Prescaler value */
  TIMx->PSC = Structure->Prescaler;
 800200c:	683b      	ldr	r3, [r7, #0]
 800200e:	681a      	ldr	r2, [r3, #0]
 8002010:	687b      	ldr	r3, [r7, #4]
 8002012:	629a      	str	r2, [r3, #40]	; 0x28

  if (IS_TIM_REPETITION_COUNTER_INSTANCE(TIMx))
 8002014:	687b      	ldr	r3, [r7, #4]
 8002016:	4a07      	ldr	r2, [pc, #28]	; (8002034 <TIM_Base_SetConfig+0xa8>)
 8002018:	4293      	cmp	r3, r2
 800201a:	d103      	bne.n	8002024 <TIM_Base_SetConfig+0x98>
  {
    /* Set the Repetition Counter value */
    TIMx->RCR = Structure->RepetitionCounter;
 800201c:	683b      	ldr	r3, [r7, #0]
 800201e:	691a      	ldr	r2, [r3, #16]
 8002020:	687b      	ldr	r3, [r7, #4]
 8002022:	631a      	str	r2, [r3, #48]	; 0x30
  }

  /* Generate an update event to reload the Prescaler
     and the repetition counter (only for advanced timer) value immediately */
  TIMx->EGR = TIM_EGR_UG;
 8002024:	687b      	ldr	r3, [r7, #4]
 8002026:	2201      	movs	r2, #1
 8002028:	615a      	str	r2, [r3, #20]
}
 800202a:	bf00      	nop
 800202c:	3714      	adds	r7, #20
 800202e:	46bd      	mov	sp, r7
 8002030:	bc80      	pop	{r7}
 8002032:	4770      	bx	lr
 8002034:	40012c00 	.word	0x40012c00
 8002038:	40000400 	.word	0x40000400

0800203c <TIM_TI1_ConfigInputStage>:
  * @param  TIM_ICFilter Specifies the Input Capture Filter.
  *          This parameter must be a value between 0x00 and 0x0F.
  * @retval None
  */
static void TIM_TI1_ConfigInputStage(TIM_TypeDef *TIMx, uint32_t TIM_ICPolarity, uint32_t TIM_ICFilter)
{
 800203c:	b480      	push	{r7}
 800203e:	b087      	sub	sp, #28
 8002040:	af00      	add	r7, sp, #0
 8002042:	60f8      	str	r0, [r7, #12]
 8002044:	60b9      	str	r1, [r7, #8]
 8002046:	607a      	str	r2, [r7, #4]
  uint32_t tmpccmr1;
  uint32_t tmpccer;

  /* Disable the Channel 1: Reset the CC1E Bit */
  tmpccer = TIMx->CCER;
 8002048:	68fb      	ldr	r3, [r7, #12]
 800204a:	6a1b      	ldr	r3, [r3, #32]
 800204c:	617b      	str	r3, [r7, #20]
  TIMx->CCER &= ~TIM_CCER_CC1E;
 800204e:	68fb      	ldr	r3, [r7, #12]
 8002050:	6a1b      	ldr	r3, [r3, #32]
 8002052:	f023 0201 	bic.w	r2, r3, #1
 8002056:	68fb      	ldr	r3, [r7, #12]
 8002058:	621a      	str	r2, [r3, #32]
  tmpccmr1 = TIMx->CCMR1;
 800205a:	68fb      	ldr	r3, [r7, #12]
 800205c:	699b      	ldr	r3, [r3, #24]
 800205e:	613b      	str	r3, [r7, #16]

  /* Set the filter */
  tmpccmr1 &= ~TIM_CCMR1_IC1F;
 8002060:	693b      	ldr	r3, [r7, #16]
 8002062:	f023 03f0 	bic.w	r3, r3, #240	; 0xf0
 8002066:	613b      	str	r3, [r7, #16]
  tmpccmr1 |= (TIM_ICFilter << 4U);
 8002068:	687b      	ldr	r3, [r7, #4]
 800206a:	011b      	lsls	r3, r3, #4
 800206c:	693a      	ldr	r2, [r7, #16]
 800206e:	4313      	orrs	r3, r2
 8002070:	613b      	str	r3, [r7, #16]

  /* Select the Polarity and set the CC1E Bit */
  tmpccer &= ~(TIM_CCER_CC1P | TIM_CCER_CC1NP);
 8002072:	697b      	ldr	r3, [r7, #20]
 8002074:	f023 030a 	bic.w	r3, r3, #10
 8002078:	617b      	str	r3, [r7, #20]
  tmpccer |= TIM_ICPolarity;
 800207a:	697a      	ldr	r2, [r7, #20]
 800207c:	68bb      	ldr	r3, [r7, #8]
 800207e:	4313      	orrs	r3, r2
 8002080:	617b      	str	r3, [r7, #20]

  /* Write to TIMx CCMR1 and CCER registers */
  TIMx->CCMR1 = tmpccmr1;
 8002082:	68fb      	ldr	r3, [r7, #12]
 8002084:	693a      	ldr	r2, [r7, #16]
 8002086:	619a      	str	r2, [r3, #24]
  TIMx->CCER = tmpccer;
 8002088:	68fb      	ldr	r3, [r7, #12]
 800208a:	697a      	ldr	r2, [r7, #20]
 800208c:	621a      	str	r2, [r3, #32]
}
 800208e:	bf00      	nop
 8002090:	371c      	adds	r7, #28
 8002092:	46bd      	mov	sp, r7
 8002094:	bc80      	pop	{r7}
 8002096:	4770      	bx	lr

08002098 <TIM_TI2_ConfigInputStage>:
  * @param  TIM_ICFilter Specifies the Input Capture Filter.
  *          This parameter must be a value between 0x00 and 0x0F.
  * @retval None
  */
static void TIM_TI2_ConfigInputStage(TIM_TypeDef *TIMx, uint32_t TIM_ICPolarity, uint32_t TIM_ICFilter)
{
 8002098:	b480      	push	{r7}
 800209a:	b087      	sub	sp, #28
 800209c:	af00      	add	r7, sp, #0
 800209e:	60f8      	str	r0, [r7, #12]
 80020a0:	60b9      	str	r1, [r7, #8]
 80020a2:	607a      	str	r2, [r7, #4]
  uint32_t tmpccmr1;
  uint32_t tmpccer;

  /* Disable the Channel 2: Reset the CC2E Bit */
  tmpccer = TIMx->CCER;
 80020a4:	68fb      	ldr	r3, [r7, #12]
 80020a6:	6a1b      	ldr	r3, [r3, #32]
 80020a8:	617b      	str	r3, [r7, #20]
  TIMx->CCER &= ~TIM_CCER_CC2E;
 80020aa:	68fb      	ldr	r3, [r7, #12]
 80020ac:	6a1b      	ldr	r3, [r3, #32]
 80020ae:	f023 0210 	bic.w	r2, r3, #16
 80020b2:	68fb      	ldr	r3, [r7, #12]
 80020b4:	621a      	str	r2, [r3, #32]
  tmpccmr1 = TIMx->CCMR1;
 80020b6:	68fb      	ldr	r3, [r7, #12]
 80020b8:	699b      	ldr	r3, [r3, #24]
 80020ba:	613b      	str	r3, [r7, #16]

  /* Set the filter */
  tmpccmr1 &= ~TIM_CCMR1_IC2F;
 80020bc:	693b      	ldr	r3, [r7, #16]
 80020be:	f423 4370 	bic.w	r3, r3, #61440	; 0xf000
 80020c2:	613b      	str	r3, [r7, #16]
  tmpccmr1 |= (TIM_ICFilter << 12U);
 80020c4:	687b      	ldr	r3, [r7, #4]
 80020c6:	031b      	lsls	r3, r3, #12
 80020c8:	693a      	ldr	r2, [r7, #16]
 80020ca:	4313      	orrs	r3, r2
 80020cc:	613b      	str	r3, [r7, #16]

  /* Select the Polarity and set the CC2E Bit */
  tmpccer &= ~(TIM_CCER_CC2P | TIM_CCER_CC2NP);
 80020ce:	697b      	ldr	r3, [r7, #20]
 80020d0:	f023 03a0 	bic.w	r3, r3, #160	; 0xa0
 80020d4:	617b      	str	r3, [r7, #20]
  tmpccer |= (TIM_ICPolarity << 4U);
 80020d6:	68bb      	ldr	r3, [r7, #8]
 80020d8:	011b      	lsls	r3, r3, #4
 80020da:	697a      	ldr	r2, [r7, #20]
 80020dc:	4313      	orrs	r3, r2
 80020de:	617b      	str	r3, [r7, #20]

  /* Write to TIMx CCMR1 and CCER registers */
  TIMx->CCMR1 = tmpccmr1 ;
 80020e0:	68fb      	ldr	r3, [r7, #12]
 80020e2:	693a      	ldr	r2, [r7, #16]
 80020e4:	619a      	str	r2, [r3, #24]
  TIMx->CCER = tmpccer;
 80020e6:	68fb      	ldr	r3, [r7, #12]
 80020e8:	697a      	ldr	r2, [r7, #20]
 80020ea:	621a      	str	r2, [r3, #32]
}
 80020ec:	bf00      	nop
 80020ee:	371c      	adds	r7, #28
 80020f0:	46bd      	mov	sp, r7
 80020f2:	bc80      	pop	{r7}
 80020f4:	4770      	bx	lr

080020f6 <TIM_ITRx_SetConfig>:
  *            @arg TIM_TS_TI2FP2: Filtered Timer Input 2
  *            @arg TIM_TS_ETRF: External Trigger input
  * @retval None
  */
static void TIM_ITRx_SetConfig(TIM_TypeDef *TIMx, uint32_t InputTriggerSource)
{
 80020f6:	b480      	push	{r7}
 80020f8:	b085      	sub	sp, #20
 80020fa:	af00      	add	r7, sp, #0
 80020fc:	6078      	str	r0, [r7, #4]
 80020fe:	6039      	str	r1, [r7, #0]
  uint32_t tmpsmcr;

  /* Get the TIMx SMCR register value */
  tmpsmcr = TIMx->SMCR;
 8002100:	687b      	ldr	r3, [r7, #4]
 8002102:	689b      	ldr	r3, [r3, #8]
 8002104:	60fb      	str	r3, [r7, #12]
  /* Reset the TS Bits */
  tmpsmcr &= ~TIM_SMCR_TS;
 8002106:	68fb      	ldr	r3, [r7, #12]
 8002108:	f023 0370 	bic.w	r3, r3, #112	; 0x70
 800210c:	60fb      	str	r3, [r7, #12]
  /* Set the Input Trigger source and the slave mode*/
  tmpsmcr |= (InputTriggerSource | TIM_SLAVEMODE_EXTERNAL1);
 800210e:	683a      	ldr	r2, [r7, #0]
 8002110:	68fb      	ldr	r3, [r7, #12]
 8002112:	4313      	orrs	r3, r2
 8002114:	f043 0307 	orr.w	r3, r3, #7
 8002118:	60fb      	str	r3, [r7, #12]
  /* Write to TIMx SMCR */
  TIMx->SMCR = tmpsmcr;
 800211a:	687b      	ldr	r3, [r7, #4]
 800211c:	68fa      	ldr	r2, [r7, #12]
 800211e:	609a      	str	r2, [r3, #8]
}
 8002120:	bf00      	nop
 8002122:	3714      	adds	r7, #20
 8002124:	46bd      	mov	sp, r7
 8002126:	bc80      	pop	{r7}
 8002128:	4770      	bx	lr

0800212a <TIM_ETR_SetConfig>:
  *          This parameter must be a value between 0x00 and 0x0F
  * @retval None
  */
void TIM_ETR_SetConfig(TIM_TypeDef *TIMx, uint32_t TIM_ExtTRGPrescaler,
                       uint32_t TIM_ExtTRGPolarity, uint32_t ExtTRGFilter)
{
 800212a:	b480      	push	{r7}
 800212c:	b087      	sub	sp, #28
 800212e:	af00      	add	r7, sp, #0
 8002130:	60f8      	str	r0, [r7, #12]
 8002132:	60b9      	str	r1, [r7, #8]
 8002134:	607a      	str	r2, [r7, #4]
 8002136:	603b      	str	r3, [r7, #0]
  uint32_t tmpsmcr;

  tmpsmcr = TIMx->SMCR;
 8002138:	68fb      	ldr	r3, [r7, #12]
 800213a:	689b      	ldr	r3, [r3, #8]
 800213c:	617b      	str	r3, [r7, #20]

  /* Reset the ETR Bits */
  tmpsmcr &= ~(TIM_SMCR_ETF | TIM_SMCR_ETPS | TIM_SMCR_ECE | TIM_SMCR_ETP);
 800213e:	697b      	ldr	r3, [r7, #20]
 8002140:	f423 437f 	bic.w	r3, r3, #65280	; 0xff00
 8002144:	617b      	str	r3, [r7, #20]

  /* Set the Prescaler, the Filter value and the Polarity */
  tmpsmcr |= (uint32_t)(TIM_ExtTRGPrescaler | (TIM_ExtTRGPolarity | (ExtTRGFilter << 8U)));
 8002146:	683b      	ldr	r3, [r7, #0]
 8002148:	021a      	lsls	r2, r3, #8
 800214a:	687b      	ldr	r3, [r7, #4]
 800214c:	431a      	orrs	r2, r3
 800214e:	68bb      	ldr	r3, [r7, #8]
 8002150:	4313      	orrs	r3, r2
 8002152:	697a      	ldr	r2, [r7, #20]
 8002154:	4313      	orrs	r3, r2
 8002156:	617b      	str	r3, [r7, #20]

  /* Write to TIMx SMCR */
  TIMx->SMCR = tmpsmcr;
 8002158:	68fb      	ldr	r3, [r7, #12]
 800215a:	697a      	ldr	r2, [r7, #20]
 800215c:	609a      	str	r2, [r3, #8]
}
 800215e:	bf00      	nop
 8002160:	371c      	adds	r7, #28
 8002162:	46bd      	mov	sp, r7
 8002164:	bc80      	pop	{r7}
 8002166:	4770      	bx	lr

08002168 <HAL_TIMEx_MasterConfigSynchronization>:
  *         mode.
  * @retval HAL status
  */
HAL_StatusTypeDef HAL_TIMEx_MasterConfigSynchronization(TIM_HandleTypeDef *htim,
                                                        const TIM_MasterConfigTypeDef *sMasterConfig)
{
 8002168:	b480      	push	{r7}
 800216a:	b085      	sub	sp, #20
 800216c:	af00      	add	r7, sp, #0
 800216e:	6078      	str	r0, [r7, #4]
 8002170:	6039      	str	r1, [r7, #0]
  assert_param(IS_TIM_MASTER_INSTANCE(htim->Instance));
  assert_param(IS_TIM_TRGO_SOURCE(sMasterConfig->MasterOutputTrigger));
  assert_param(IS_TIM_MSM_STATE(sMasterConfig->MasterSlaveMode));

  /* Check input state */
  __HAL_LOCK(htim);
 8002172:	687b      	ldr	r3, [r7, #4]
 8002174:	f893 303c 	ldrb.w	r3, [r3, #60]	; 0x3c
 8002178:	2b01      	cmp	r3, #1
 800217a:	d101      	bne.n	8002180 <HAL_TIMEx_MasterConfigSynchronization+0x18>
 800217c:	2302      	movs	r3, #2
 800217e:	e041      	b.n	8002204 <HAL_TIMEx_MasterConfigSynchronization+0x9c>
 8002180:	687b      	ldr	r3, [r7, #4]
 8002182:	2201      	movs	r2, #1
 8002184:	f883 203c 	strb.w	r2, [r3, #60]	; 0x3c

  /* Change the handler state */
  htim->State = HAL_TIM_STATE_BUSY;
 8002188:	687b      	ldr	r3, [r7, #4]
 800218a:	2202      	movs	r2, #2
 800218c:	f883 203d 	strb.w	r2, [r3, #61]	; 0x3d

  /* Get the TIMx CR2 register value */
  tmpcr2 = htim->Instance->CR2;
 8002190:	687b      	ldr	r3, [r7, #4]
 8002192:	681b      	ldr	r3, [r3, #0]
 8002194:	685b      	ldr	r3, [r3, #4]
 8002196:	60fb      	str	r3, [r7, #12]

  /* Get the TIMx SMCR register value */
  tmpsmcr = htim->Instance->SMCR;
 8002198:	687b      	ldr	r3, [r7, #4]
 800219a:	681b      	ldr	r3, [r3, #0]
 800219c:	689b      	ldr	r3, [r3, #8]
 800219e:	60bb      	str	r3, [r7, #8]

  /* Reset the MMS Bits */
  tmpcr2 &= ~TIM_CR2_MMS;
 80021a0:	68fb      	ldr	r3, [r7, #12]
 80021a2:	f023 0370 	bic.w	r3, r3, #112	; 0x70
 80021a6:	60fb      	str	r3, [r7, #12]
  /* Select the TRGO source */
  tmpcr2 |=  sMasterConfig->MasterOutputTrigger;
 80021a8:	683b      	ldr	r3, [r7, #0]
 80021aa:	681b      	ldr	r3, [r3, #0]
 80021ac:	68fa      	ldr	r2, [r7, #12]
 80021ae:	4313      	orrs	r3, r2
 80021b0:	60fb      	str	r3, [r7, #12]

  /* Update TIMx CR2 */
  htim->Instance->CR2 = tmpcr2;
 80021b2:	687b      	ldr	r3, [r7, #4]
 80021b4:	681b      	ldr	r3, [r3, #0]
 80021b6:	68fa      	ldr	r2, [r7, #12]
 80021b8:	605a      	str	r2, [r3, #4]

  if (IS_TIM_SLAVE_INSTANCE(htim->Instance))
 80021ba:	687b      	ldr	r3, [r7, #4]
 80021bc:	681b      	ldr	r3, [r3, #0]
 80021be:	4a14      	ldr	r2, [pc, #80]	; (8002210 <HAL_TIMEx_MasterConfigSynchronization+0xa8>)
 80021c0:	4293      	cmp	r3, r2
 80021c2:	d009      	beq.n	80021d8 <HAL_TIMEx_MasterConfigSynchronization+0x70>
 80021c4:	687b      	ldr	r3, [r7, #4]
 80021c6:	681b      	ldr	r3, [r3, #0]
 80021c8:	f1b3 4f80 	cmp.w	r3, #1073741824	; 0x40000000
 80021cc:	d004      	beq.n	80021d8 <HAL_TIMEx_MasterConfigSynchronization+0x70>
 80021ce:	687b      	ldr	r3, [r7, #4]
 80021d0:	681b      	ldr	r3, [r3, #0]
 80021d2:	4a10      	ldr	r2, [pc, #64]	; (8002214 <HAL_TIMEx_MasterConfigSynchronization+0xac>)
 80021d4:	4293      	cmp	r3, r2
 80021d6:	d10c      	bne.n	80021f2 <HAL_TIMEx_MasterConfigSynchronization+0x8a>
  {
    /* Reset the MSM Bit */
    tmpsmcr &= ~TIM_SMCR_MSM;
 80021d8:	68bb      	ldr	r3, [r7, #8]
 80021da:	f023 0380 	bic.w	r3, r3, #128	; 0x80
 80021de:	60bb      	str	r3, [r7, #8]
    /* Set master mode */
    tmpsmcr |= sMasterConfig->MasterSlaveMode;
 80021e0:	683b      	ldr	r3, [r7, #0]
 80021e2:	685b      	ldr	r3, [r3, #4]
 80021e4:	68ba      	ldr	r2, [r7, #8]
 80021e6:	4313      	orrs	r3, r2
 80021e8:	60bb      	str	r3, [r7, #8]

    /* Update TIMx SMCR */
    htim->Instance->SMCR = tmpsmcr;
 80021ea:	687b      	ldr	r3, [r7, #4]
 80021ec:	681b      	ldr	r3, [r3, #0]
 80021ee:	68ba      	ldr	r2, [r7, #8]
 80021f0:	609a      	str	r2, [r3, #8]
  }

  /* Change the htim state */
  htim->State = HAL_TIM_STATE_READY;
 80021f2:	687b      	ldr	r3, [r7, #4]
 80021f4:	2201      	movs	r2, #1
 80021f6:	f883 203d 	strb.w	r2, [r3, #61]	; 0x3d

  __HAL_UNLOCK(htim);
 80021fa:	687b      	ldr	r3, [r7, #4]
 80021fc:	2200      	movs	r2, #0
 80021fe:	f883 203c 	strb.w	r2, [r3, #60]	; 0x3c

  return HAL_OK;
 8002202:	2300      	movs	r3, #0
}
 8002204:	4618      	mov	r0, r3
 8002206:	3714      	adds	r7, #20
 8002208:	46bd      	mov	sp, r7
 800220a:	bc80      	pop	{r7}
 800220c:	4770      	bx	lr
 800220e:	bf00      	nop
 8002210:	40012c00 	.word	0x40012c00
 8002214:	40000400 	.word	0x40000400

08002218 <HAL_TIMEx_CommutCallback>:
  * @brief  Hall commutation changed callback in non-blocking mode
  * @param  htim TIM handle
  * @retval None
  */
__weak void HAL_TIMEx_CommutCallback(TIM_HandleTypeDef *htim)
{
 8002218:	b480      	push	{r7}
 800221a:	b083      	sub	sp, #12
 800221c:	af00      	add	r7, sp, #0
 800221e:	6078      	str	r0, [r7, #4]
  UNUSED(htim);

  /* NOTE : This function should not be modified, when the callback is needed,
            the HAL_TIMEx_CommutCallback could be implemented in the user file
   */
}
 8002220:	bf00      	nop
 8002222:	370c      	adds	r7, #12
 8002224:	46bd      	mov	sp, r7
 8002226:	bc80      	pop	{r7}
 8002228:	4770      	bx	lr

0800222a <HAL_TIMEx_BreakCallback>:
  * @brief  Hall Break detection callback in non-blocking mode
  * @param  htim TIM handle
  * @retval None
  */
__weak void HAL_TIMEx_BreakCallback(TIM_HandleTypeDef *htim)
{
 800222a:	b480      	push	{r7}
 800222c:	b083      	sub	sp, #12
 800222e:	af00      	add	r7, sp, #0
 8002230:	6078      	str	r0, [r7, #4]
  UNUSED(htim);

  /* NOTE : This function should not be modified, when the callback is needed,
            the HAL_TIMEx_BreakCallback could be implemented in the user file
   */
}
 8002232:	bf00      	nop
 8002234:	370c      	adds	r7, #12
 8002236:	46bd      	mov	sp, r7
 8002238:	bc80      	pop	{r7}
 800223a:	4770      	bx	lr

0800223c <__errno>:
 800223c:	4b01      	ldr	r3, [pc, #4]	; (8002244 <__errno+0x8>)
 800223e:	6818      	ldr	r0, [r3, #0]
 8002240:	4770      	bx	lr
 8002242:	bf00      	nop
 8002244:	2000000c 	.word	0x2000000c

08002248 <__libc_init_array>:
 8002248:	b570      	push	{r4, r5, r6, lr}
 800224a:	2600      	movs	r6, #0
 800224c:	4d0c      	ldr	r5, [pc, #48]	; (8002280 <__libc_init_array+0x38>)
 800224e:	4c0d      	ldr	r4, [pc, #52]	; (8002284 <__libc_init_array+0x3c>)
 8002250:	1b64      	subs	r4, r4, r5
 8002252:	10a4      	asrs	r4, r4, #2
 8002254:	42a6      	cmp	r6, r4
 8002256:	d109      	bne.n	800226c <__libc_init_array+0x24>
 8002258:	f000 f92c 	bl	80024b4 <_init>
 800225c:	2600      	movs	r6, #0
 800225e:	4d0a      	ldr	r5, [pc, #40]	; (8002288 <__libc_init_array+0x40>)
 8002260:	4c0a      	ldr	r4, [pc, #40]	; (800228c <__libc_init_array+0x44>)
 8002262:	1b64      	subs	r4, r4, r5
 8002264:	10a4      	asrs	r4, r4, #2
 8002266:	42a6      	cmp	r6, r4
 8002268:	d105      	bne.n	8002276 <__libc_init_array+0x2e>
 800226a:	bd70      	pop	{r4, r5, r6, pc}
 800226c:	f855 3b04 	ldr.w	r3, [r5], #4
 8002270:	4798      	blx	r3
 8002272:	3601      	adds	r6, #1
 8002274:	e7ee      	b.n	8002254 <__libc_init_array+0xc>
 8002276:	f855 3b04 	ldr.w	r3, [r5], #4
 800227a:	4798      	blx	r3
 800227c:	3601      	adds	r6, #1
 800227e:	e7f2      	b.n	8002266 <__libc_init_array+0x1e>
 8002280:	080024f0 	.word	0x080024f0
 8002284:	080024f0 	.word	0x080024f0
 8002288:	080024f0 	.word	0x080024f0
 800228c:	080024f4 	.word	0x080024f4

08002290 <malloc>:
 8002290:	4b02      	ldr	r3, [pc, #8]	; (800229c <malloc+0xc>)
 8002292:	4601      	mov	r1, r0
 8002294:	6818      	ldr	r0, [r3, #0]
 8002296:	f000 b87b 	b.w	8002390 <_malloc_r>
 800229a:	bf00      	nop
 800229c:	2000000c 	.word	0x2000000c

080022a0 <free>:
 80022a0:	4b02      	ldr	r3, [pc, #8]	; (80022ac <free+0xc>)
 80022a2:	4601      	mov	r1, r0
 80022a4:	6818      	ldr	r0, [r3, #0]
 80022a6:	f000 b80b 	b.w	80022c0 <_free_r>
 80022aa:	bf00      	nop
 80022ac:	2000000c 	.word	0x2000000c

080022b0 <memset>:
 80022b0:	4603      	mov	r3, r0
 80022b2:	4402      	add	r2, r0
 80022b4:	4293      	cmp	r3, r2
 80022b6:	d100      	bne.n	80022ba <memset+0xa>
 80022b8:	4770      	bx	lr
 80022ba:	f803 1b01 	strb.w	r1, [r3], #1
 80022be:	e7f9      	b.n	80022b4 <memset+0x4>

080022c0 <_free_r>:
 80022c0:	b538      	push	{r3, r4, r5, lr}
 80022c2:	4605      	mov	r5, r0
 80022c4:	2900      	cmp	r1, #0
 80022c6:	d040      	beq.n	800234a <_free_r+0x8a>
 80022c8:	f851 3c04 	ldr.w	r3, [r1, #-4]
 80022cc:	1f0c      	subs	r4, r1, #4
 80022ce:	2b00      	cmp	r3, #0
 80022d0:	bfb8      	it	lt
 80022d2:	18e4      	addlt	r4, r4, r3
 80022d4:	f000 f8e0 	bl	8002498 <__malloc_lock>
 80022d8:	4a1c      	ldr	r2, [pc, #112]	; (800234c <_free_r+0x8c>)
 80022da:	6813      	ldr	r3, [r2, #0]
 80022dc:	b933      	cbnz	r3, 80022ec <_free_r+0x2c>
 80022de:	6063      	str	r3, [r4, #4]
 80022e0:	6014      	str	r4, [r2, #0]
 80022e2:	4628      	mov	r0, r5
 80022e4:	e8bd 4038 	ldmia.w	sp!, {r3, r4, r5, lr}
 80022e8:	f000 b8dc 	b.w	80024a4 <__malloc_unlock>
 80022ec:	42a3      	cmp	r3, r4
 80022ee:	d908      	bls.n	8002302 <_free_r+0x42>
 80022f0:	6820      	ldr	r0, [r4, #0]
 80022f2:	1821      	adds	r1, r4, r0
 80022f4:	428b      	cmp	r3, r1
 80022f6:	bf01      	itttt	eq
 80022f8:	6819      	ldreq	r1, [r3, #0]
 80022fa:	685b      	ldreq	r3, [r3, #4]
 80022fc:	1809      	addeq	r1, r1, r0
 80022fe:	6021      	streq	r1, [r4, #0]
 8002300:	e7ed      	b.n	80022de <_free_r+0x1e>
 8002302:	461a      	mov	r2, r3
 8002304:	685b      	ldr	r3, [r3, #4]
 8002306:	b10b      	cbz	r3, 800230c <_free_r+0x4c>
 8002308:	42a3      	cmp	r3, r4
 800230a:	d9fa      	bls.n	8002302 <_free_r+0x42>
 800230c:	6811      	ldr	r1, [r2, #0]
 800230e:	1850      	adds	r0, r2, r1
 8002310:	42a0      	cmp	r0, r4
 8002312:	d10b      	bne.n	800232c <_free_r+0x6c>
 8002314:	6820      	ldr	r0, [r4, #0]
 8002316:	4401      	add	r1, r0
 8002318:	1850      	adds	r0, r2, r1
 800231a:	4283      	cmp	r3, r0
 800231c:	6011      	str	r1, [r2, #0]
 800231e:	d1e0      	bne.n	80022e2 <_free_r+0x22>
 8002320:	6818      	ldr	r0, [r3, #0]
 8002322:	685b      	ldr	r3, [r3, #4]
 8002324:	4401      	add	r1, r0
 8002326:	6011      	str	r1, [r2, #0]
 8002328:	6053      	str	r3, [r2, #4]
 800232a:	e7da      	b.n	80022e2 <_free_r+0x22>
 800232c:	d902      	bls.n	8002334 <_free_r+0x74>
 800232e:	230c      	movs	r3, #12
 8002330:	602b      	str	r3, [r5, #0]
 8002332:	e7d6      	b.n	80022e2 <_free_r+0x22>
 8002334:	6820      	ldr	r0, [r4, #0]
 8002336:	1821      	adds	r1, r4, r0
 8002338:	428b      	cmp	r3, r1
 800233a:	bf01      	itttt	eq
 800233c:	6819      	ldreq	r1, [r3, #0]
 800233e:	685b      	ldreq	r3, [r3, #4]
 8002340:	1809      	addeq	r1, r1, r0
 8002342:	6021      	streq	r1, [r4, #0]
 8002344:	6063      	str	r3, [r4, #4]
 8002346:	6054      	str	r4, [r2, #4]
 8002348:	e7cb      	b.n	80022e2 <_free_r+0x22>
 800234a:	bd38      	pop	{r3, r4, r5, pc}
 800234c:	200000f8 	.word	0x200000f8

08002350 <sbrk_aligned>:
 8002350:	b570      	push	{r4, r5, r6, lr}
 8002352:	4e0e      	ldr	r6, [pc, #56]	; (800238c <sbrk_aligned+0x3c>)
 8002354:	460c      	mov	r4, r1
 8002356:	6831      	ldr	r1, [r6, #0]
 8002358:	4605      	mov	r5, r0
 800235a:	b911      	cbnz	r1, 8002362 <sbrk_aligned+0x12>
 800235c:	f000 f88c 	bl	8002478 <_sbrk_r>
 8002360:	6030      	str	r0, [r6, #0]
 8002362:	4621      	mov	r1, r4
 8002364:	4628      	mov	r0, r5
 8002366:	f000 f887 	bl	8002478 <_sbrk_r>
 800236a:	1c43      	adds	r3, r0, #1
 800236c:	d00a      	beq.n	8002384 <sbrk_aligned+0x34>
 800236e:	1cc4      	adds	r4, r0, #3
 8002370:	f024 0403 	bic.w	r4, r4, #3
 8002374:	42a0      	cmp	r0, r4
 8002376:	d007      	beq.n	8002388 <sbrk_aligned+0x38>
 8002378:	1a21      	subs	r1, r4, r0
 800237a:	4628      	mov	r0, r5
 800237c:	f000 f87c 	bl	8002478 <_sbrk_r>
 8002380:	3001      	adds	r0, #1
 8002382:	d101      	bne.n	8002388 <sbrk_aligned+0x38>
 8002384:	f04f 34ff 	mov.w	r4, #4294967295
 8002388:	4620      	mov	r0, r4
 800238a:	bd70      	pop	{r4, r5, r6, pc}
 800238c:	200000fc 	.word	0x200000fc

08002390 <_malloc_r>:
 8002390:	e92d 41f0 	stmdb	sp!, {r4, r5, r6, r7, r8, lr}
 8002394:	1ccd      	adds	r5, r1, #3
 8002396:	f025 0503 	bic.w	r5, r5, #3
 800239a:	3508      	adds	r5, #8
 800239c:	2d0c      	cmp	r5, #12
 800239e:	bf38      	it	cc
 80023a0:	250c      	movcc	r5, #12
 80023a2:	2d00      	cmp	r5, #0
 80023a4:	4607      	mov	r7, r0
 80023a6:	db01      	blt.n	80023ac <_malloc_r+0x1c>
 80023a8:	42a9      	cmp	r1, r5
 80023aa:	d905      	bls.n	80023b8 <_malloc_r+0x28>
 80023ac:	230c      	movs	r3, #12
 80023ae:	2600      	movs	r6, #0
 80023b0:	603b      	str	r3, [r7, #0]
 80023b2:	4630      	mov	r0, r6
 80023b4:	e8bd 81f0 	ldmia.w	sp!, {r4, r5, r6, r7, r8, pc}
 80023b8:	4e2e      	ldr	r6, [pc, #184]	; (8002474 <_malloc_r+0xe4>)
 80023ba:	f000 f86d 	bl	8002498 <__malloc_lock>
 80023be:	6833      	ldr	r3, [r6, #0]
 80023c0:	461c      	mov	r4, r3
 80023c2:	bb34      	cbnz	r4, 8002412 <_malloc_r+0x82>
 80023c4:	4629      	mov	r1, r5
 80023c6:	4638      	mov	r0, r7
 80023c8:	f7ff ffc2 	bl	8002350 <sbrk_aligned>
 80023cc:	1c43      	adds	r3, r0, #1
 80023ce:	4604      	mov	r4, r0
 80023d0:	d14d      	bne.n	800246e <_malloc_r+0xde>
 80023d2:	6834      	ldr	r4, [r6, #0]
 80023d4:	4626      	mov	r6, r4
 80023d6:	2e00      	cmp	r6, #0
 80023d8:	d140      	bne.n	800245c <_malloc_r+0xcc>
 80023da:	6823      	ldr	r3, [r4, #0]
 80023dc:	4631      	mov	r1, r6
 80023de:	4638      	mov	r0, r7
 80023e0:	eb04 0803 	add.w	r8, r4, r3
 80023e4:	f000 f848 	bl	8002478 <_sbrk_r>
 80023e8:	4580      	cmp	r8, r0
 80023ea:	d13a      	bne.n	8002462 <_malloc_r+0xd2>
 80023ec:	6821      	ldr	r1, [r4, #0]
 80023ee:	3503      	adds	r5, #3
 80023f0:	1a6d      	subs	r5, r5, r1
 80023f2:	f025 0503 	bic.w	r5, r5, #3
 80023f6:	3508      	adds	r5, #8
 80023f8:	2d0c      	cmp	r5, #12
 80023fa:	bf38      	it	cc
 80023fc:	250c      	movcc	r5, #12
 80023fe:	4638      	mov	r0, r7
 8002400:	4629      	mov	r1, r5
 8002402:	f7ff ffa5 	bl	8002350 <sbrk_aligned>
 8002406:	3001      	adds	r0, #1
 8002408:	d02b      	beq.n	8002462 <_malloc_r+0xd2>
 800240a:	6823      	ldr	r3, [r4, #0]
 800240c:	442b      	add	r3, r5
 800240e:	6023      	str	r3, [r4, #0]
 8002410:	e00e      	b.n	8002430 <_malloc_r+0xa0>
 8002412:	6822      	ldr	r2, [r4, #0]
 8002414:	1b52      	subs	r2, r2, r5
 8002416:	d41e      	bmi.n	8002456 <_malloc_r+0xc6>
 8002418:	2a0b      	cmp	r2, #11
 800241a:	d916      	bls.n	800244a <_malloc_r+0xba>
 800241c:	1961      	adds	r1, r4, r5
 800241e:	42a3      	cmp	r3, r4
 8002420:	6025      	str	r5, [r4, #0]
 8002422:	bf18      	it	ne
 8002424:	6059      	strne	r1, [r3, #4]
 8002426:	6863      	ldr	r3, [r4, #4]
 8002428:	bf08      	it	eq
 800242a:	6031      	streq	r1, [r6, #0]
 800242c:	5162      	str	r2, [r4, r5]
 800242e:	604b      	str	r3, [r1, #4]
 8002430:	4638      	mov	r0, r7
 8002432:	f104 060b 	add.w	r6, r4, #11
 8002436:	f000 f835 	bl	80024a4 <__malloc_unlock>
 800243a:	f026 0607 	bic.w	r6, r6, #7
 800243e:	1d23      	adds	r3, r4, #4
 8002440:	1af2      	subs	r2, r6, r3
 8002442:	d0b6      	beq.n	80023b2 <_malloc_r+0x22>
 8002444:	1b9b      	subs	r3, r3, r6
 8002446:	50a3      	str	r3, [r4, r2]
 8002448:	e7b3      	b.n	80023b2 <_malloc_r+0x22>
 800244a:	6862      	ldr	r2, [r4, #4]
 800244c:	42a3      	cmp	r3, r4
 800244e:	bf0c      	ite	eq
 8002450:	6032      	streq	r2, [r6, #0]
 8002452:	605a      	strne	r2, [r3, #4]
 8002454:	e7ec      	b.n	8002430 <_malloc_r+0xa0>
 8002456:	4623      	mov	r3, r4
 8002458:	6864      	ldr	r4, [r4, #4]
 800245a:	e7b2      	b.n	80023c2 <_malloc_r+0x32>
 800245c:	4634      	mov	r4, r6
 800245e:	6876      	ldr	r6, [r6, #4]
 8002460:	e7b9      	b.n	80023d6 <_malloc_r+0x46>
 8002462:	230c      	movs	r3, #12
 8002464:	4638      	mov	r0, r7
 8002466:	603b      	str	r3, [r7, #0]
 8002468:	f000 f81c 	bl	80024a4 <__malloc_unlock>
 800246c:	e7a1      	b.n	80023b2 <_malloc_r+0x22>
 800246e:	6025      	str	r5, [r4, #0]
 8002470:	e7de      	b.n	8002430 <_malloc_r+0xa0>
 8002472:	bf00      	nop
 8002474:	200000f8 	.word	0x200000f8

08002478 <_sbrk_r>:
 8002478:	b538      	push	{r3, r4, r5, lr}
 800247a:	2300      	movs	r3, #0
 800247c:	4d05      	ldr	r5, [pc, #20]	; (8002494 <_sbrk_r+0x1c>)
 800247e:	4604      	mov	r4, r0
 8002480:	4608      	mov	r0, r1
 8002482:	602b      	str	r3, [r5, #0]
 8002484:	f7fe fbae 	bl	8000be4 <_sbrk>
 8002488:	1c43      	adds	r3, r0, #1
 800248a:	d102      	bne.n	8002492 <_sbrk_r+0x1a>
 800248c:	682b      	ldr	r3, [r5, #0]
 800248e:	b103      	cbz	r3, 8002492 <_sbrk_r+0x1a>
 8002490:	6023      	str	r3, [r4, #0]
 8002492:	bd38      	pop	{r3, r4, r5, pc}
 8002494:	20000100 	.word	0x20000100

08002498 <__malloc_lock>:
 8002498:	4801      	ldr	r0, [pc, #4]	; (80024a0 <__malloc_lock+0x8>)
 800249a:	f000 b809 	b.w	80024b0 <__retarget_lock_acquire_recursive>
 800249e:	bf00      	nop
 80024a0:	20000104 	.word	0x20000104

080024a4 <__malloc_unlock>:
 80024a4:	4801      	ldr	r0, [pc, #4]	; (80024ac <__malloc_unlock+0x8>)
 80024a6:	f000 b804 	b.w	80024b2 <__retarget_lock_release_recursive>
 80024aa:	bf00      	nop
 80024ac:	20000104 	.word	0x20000104

080024b0 <__retarget_lock_acquire_recursive>:
 80024b0:	4770      	bx	lr

080024b2 <__retarget_lock_release_recursive>:
 80024b2:	4770      	bx	lr

080024b4 <_init>:
 80024b4:	b5f8      	push	{r3, r4, r5, r6, r7, lr}
 80024b6:	bf00      	nop
 80024b8:	bcf8      	pop	{r3, r4, r5, r6, r7}
 80024ba:	bc08      	pop	{r3}
 80024bc:	469e      	mov	lr, r3
 80024be:	4770      	bx	lr

080024c0 <_fini>:
 80024c0:	b5f8      	push	{r3, r4, r5, r6, r7, lr}
 80024c2:	bf00      	nop
 80024c4:	bcf8      	pop	{r3, r4, r5, r6, r7}
 80024c6:	bc08      	pop	{r3}
 80024c8:	469e      	mov	lr, r3
 80024ca:	4770      	bx	lr
