
STM32ProjectForLab2.elf:     file format elf32-littlearm

Sections:
Idx Name          Size      VMA       LMA       File off  Algn
  0 .isr_vector   0000010c  08000000  08000000  00010000  2**0
                  CONTENTS, ALLOC, LOAD, READONLY, DATA
  1 .text         00002278  0800010c  0800010c  0001010c  2**2
                  CONTENTS, ALLOC, LOAD, READONLY, CODE
  2 .rodata       00000024  08002384  08002384  00012384  2**2
                  CONTENTS, ALLOC, LOAD, READONLY, DATA
  3 .ARM.extab    00000000  080023a8  080023a8  00020018  2**0
                  CONTENTS
  4 .ARM          00000000  080023a8  080023a8  00020018  2**0
                  CONTENTS
  5 .preinit_array 00000000  080023a8  080023a8  00020018  2**0
                  CONTENTS, ALLOC, LOAD, DATA
  6 .init_array   00000004  080023a8  080023a8  000123a8  2**2
                  CONTENTS, ALLOC, LOAD, DATA
  7 .fini_array   00000004  080023ac  080023ac  000123ac  2**2
                  CONTENTS, ALLOC, LOAD, DATA
  8 .data         00000018  20000000  080023b0  00020000  2**2
                  CONTENTS, ALLOC, LOAD, DATA
  9 .bss          0000009c  20000018  080023c8  00020018  2**2
                  ALLOC
 10 ._user_heap_stack 00000604  200000b4  080023c8  000200b4  2**0
                  ALLOC
 11 .ARM.attributes 00000029  00000000  00000000  00020018  2**0
                  CONTENTS, READONLY
 12 .debug_info   00008905  00000000  00000000  00020041  2**0
                  CONTENTS, READONLY, DEBUGGING, OCTETS
 13 .debug_abbrev 0000194c  00000000  00000000  00028946  2**0
                  CONTENTS, READONLY, DEBUGGING, OCTETS
 14 .debug_aranges 000009f8  00000000  00000000  0002a298  2**3
                  CONTENTS, READONLY, DEBUGGING, OCTETS
 15 .debug_ranges 00000910  00000000  00000000  0002ac90  2**3
                  CONTENTS, READONLY, DEBUGGING, OCTETS
 16 .debug_macro  000175db  00000000  00000000  0002b5a0  2**0
                  CONTENTS, READONLY, DEBUGGING, OCTETS
 17 .debug_line   0000b761  00000000  00000000  00042b7b  2**0
                  CONTENTS, READONLY, DEBUGGING, OCTETS
 18 .debug_str    00084fb4  00000000  00000000  0004e2dc  2**0
                  CONTENTS, READONLY, DEBUGGING, OCTETS
 19 .comment      00000050  00000000  00000000  000d3290  2**0
                  CONTENTS, READONLY
 20 .debug_frame  000027d0  00000000  00000000  000d32e0  2**2
                  CONTENTS, READONLY, DEBUGGING, OCTETS

Disassembly of section .text:

0800010c <__do_global_dtors_aux>:
 800010c:	b510      	push	{r4, lr}
 800010e:	4c05      	ldr	r4, [pc, #20]	; (8000124 <__do_global_dtors_aux+0x18>)
 8000110:	7823      	ldrb	r3, [r4, #0]
 8000112:	b933      	cbnz	r3, 8000122 <__do_global_dtors_aux+0x16>
 8000114:	4b04      	ldr	r3, [pc, #16]	; (8000128 <__do_global_dtors_aux+0x1c>)
 8000116:	b113      	cbz	r3, 800011e <__do_global_dtors_aux+0x12>
 8000118:	4804      	ldr	r0, [pc, #16]	; (800012c <__do_global_dtors_aux+0x20>)
 800011a:	f3af 8000 	nop.w
 800011e:	2301      	movs	r3, #1
 8000120:	7023      	strb	r3, [r4, #0]
 8000122:	bd10      	pop	{r4, pc}
 8000124:	20000018 	.word	0x20000018
 8000128:	00000000 	.word	0x00000000
 800012c:	0800236c 	.word	0x0800236c

08000130 <frame_dummy>:
 8000130:	b508      	push	{r3, lr}
 8000132:	4b03      	ldr	r3, [pc, #12]	; (8000140 <frame_dummy+0x10>)
 8000134:	b11b      	cbz	r3, 800013e <frame_dummy+0xe>
 8000136:	4903      	ldr	r1, [pc, #12]	; (8000144 <frame_dummy+0x14>)
 8000138:	4803      	ldr	r0, [pc, #12]	; (8000148 <frame_dummy+0x18>)
 800013a:	f3af 8000 	nop.w
 800013e:	bd08      	pop	{r3, pc}
 8000140:	00000000 	.word	0x00000000
 8000144:	2000001c 	.word	0x2000001c
 8000148:	0800236c 	.word	0x0800236c

0800014c <display7SEG>:
const int MAX_LED = 4;
int index_led = 0;
int led_buffer [4] = {1 , 2 , 3 , 4};

/* Function to Display a Number on turned on 7-segment led*/
void display7SEG(unsigned int num){
 800014c:	b580      	push	{r7, lr}
 800014e:	b082      	sub	sp, #8
 8000150:	af00      	add	r7, sp, #0
 8000152:	6078      	str	r0, [r7, #4]
	if( num == 0)
 8000154:	687b      	ldr	r3, [r7, #4]
 8000156:	2b00      	cmp	r3, #0
 8000158:	d122      	bne.n	80001a0 <display7SEG+0x54>
	{
		HAL_GPIO_WritePin(SEG0_GPIO_Port, SEG0_Pin, GPIO_PIN_RESET);
 800015a:	2200      	movs	r2, #0
 800015c:	2101      	movs	r1, #1
 800015e:	48bd      	ldr	r0, [pc, #756]	; (8000454 <display7SEG+0x308>)
 8000160:	f001 f8fa 	bl	8001358 <HAL_GPIO_WritePin>
		HAL_GPIO_WritePin(SEG1_GPIO_Port, SEG1_Pin, GPIO_PIN_RESET);
 8000164:	2200      	movs	r2, #0
 8000166:	2102      	movs	r1, #2
 8000168:	48ba      	ldr	r0, [pc, #744]	; (8000454 <display7SEG+0x308>)
 800016a:	f001 f8f5 	bl	8001358 <HAL_GPIO_WritePin>
		HAL_GPIO_WritePin(SEG2_GPIO_Port, SEG2_Pin, GPIO_PIN_RESET);
 800016e:	2200      	movs	r2, #0
 8000170:	2104      	movs	r1, #4
 8000172:	48b8      	ldr	r0, [pc, #736]	; (8000454 <display7SEG+0x308>)
 8000174:	f001 f8f0 	bl	8001358 <HAL_GPIO_WritePin>
		HAL_GPIO_WritePin(SEG3_GPIO_Port, SEG3_Pin, GPIO_PIN_RESET);
 8000178:	2200      	movs	r2, #0
 800017a:	2108      	movs	r1, #8
 800017c:	48b5      	ldr	r0, [pc, #724]	; (8000454 <display7SEG+0x308>)
 800017e:	f001 f8eb 	bl	8001358 <HAL_GPIO_WritePin>
		HAL_GPIO_WritePin(SEG4_GPIO_Port, SEG4_Pin, GPIO_PIN_RESET);
 8000182:	2200      	movs	r2, #0
 8000184:	2110      	movs	r1, #16
 8000186:	48b3      	ldr	r0, [pc, #716]	; (8000454 <display7SEG+0x308>)
 8000188:	f001 f8e6 	bl	8001358 <HAL_GPIO_WritePin>
		HAL_GPIO_WritePin(SEG5_GPIO_Port, SEG5_Pin, GPIO_PIN_RESET);
 800018c:	2200      	movs	r2, #0
 800018e:	2120      	movs	r1, #32
 8000190:	48b0      	ldr	r0, [pc, #704]	; (8000454 <display7SEG+0x308>)
 8000192:	f001 f8e1 	bl	8001358 <HAL_GPIO_WritePin>
		HAL_GPIO_WritePin(SEG6_GPIO_Port, SEG6_Pin, GPIO_PIN_SET);
 8000196:	2201      	movs	r2, #1
 8000198:	2140      	movs	r1, #64	; 0x40
 800019a:	48ae      	ldr	r0, [pc, #696]	; (8000454 <display7SEG+0x308>)
 800019c:	f001 f8dc 	bl	8001358 <HAL_GPIO_WritePin>
	}

	if(num == 1){
 80001a0:	687b      	ldr	r3, [r7, #4]
 80001a2:	2b01      	cmp	r3, #1
 80001a4:	d122      	bne.n	80001ec <display7SEG+0xa0>
		HAL_GPIO_WritePin(SEG0_GPIO_Port, SEG0_Pin, GPIO_PIN_SET);
 80001a6:	2201      	movs	r2, #1
 80001a8:	2101      	movs	r1, #1
 80001aa:	48aa      	ldr	r0, [pc, #680]	; (8000454 <display7SEG+0x308>)
 80001ac:	f001 f8d4 	bl	8001358 <HAL_GPIO_WritePin>
		HAL_GPIO_WritePin(SEG1_GPIO_Port, SEG1_Pin, GPIO_PIN_RESET);
 80001b0:	2200      	movs	r2, #0
 80001b2:	2102      	movs	r1, #2
 80001b4:	48a7      	ldr	r0, [pc, #668]	; (8000454 <display7SEG+0x308>)
 80001b6:	f001 f8cf 	bl	8001358 <HAL_GPIO_WritePin>
		HAL_GPIO_WritePin(SEG2_GPIO_Port, SEG2_Pin, GPIO_PIN_RESET);
 80001ba:	2200      	movs	r2, #0
 80001bc:	2104      	movs	r1, #4
 80001be:	48a5      	ldr	r0, [pc, #660]	; (8000454 <display7SEG+0x308>)
 80001c0:	f001 f8ca 	bl	8001358 <HAL_GPIO_WritePin>
		HAL_GPIO_WritePin(SEG3_GPIO_Port, SEG3_Pin, GPIO_PIN_SET );
 80001c4:	2201      	movs	r2, #1
 80001c6:	2108      	movs	r1, #8
 80001c8:	48a2      	ldr	r0, [pc, #648]	; (8000454 <display7SEG+0x308>)
 80001ca:	f001 f8c5 	bl	8001358 <HAL_GPIO_WritePin>
		HAL_GPIO_WritePin(SEG4_GPIO_Port, SEG4_Pin, GPIO_PIN_SET);
 80001ce:	2201      	movs	r2, #1
 80001d0:	2110      	movs	r1, #16
 80001d2:	48a0      	ldr	r0, [pc, #640]	; (8000454 <display7SEG+0x308>)
 80001d4:	f001 f8c0 	bl	8001358 <HAL_GPIO_WritePin>
		HAL_GPIO_WritePin(SEG5_GPIO_Port, SEG5_Pin, GPIO_PIN_SET);
 80001d8:	2201      	movs	r2, #1
 80001da:	2120      	movs	r1, #32
 80001dc:	489d      	ldr	r0, [pc, #628]	; (8000454 <display7SEG+0x308>)
 80001de:	f001 f8bb 	bl	8001358 <HAL_GPIO_WritePin>
		HAL_GPIO_WritePin(SEG6_GPIO_Port, SEG6_Pin, GPIO_PIN_SET);
 80001e2:	2201      	movs	r2, #1
 80001e4:	2140      	movs	r1, #64	; 0x40
 80001e6:	489b      	ldr	r0, [pc, #620]	; (8000454 <display7SEG+0x308>)
 80001e8:	f001 f8b6 	bl	8001358 <HAL_GPIO_WritePin>
	}

	if(num == 2){
 80001ec:	687b      	ldr	r3, [r7, #4]
 80001ee:	2b02      	cmp	r3, #2
 80001f0:	d122      	bne.n	8000238 <display7SEG+0xec>
		HAL_GPIO_WritePin(SEG0_GPIO_Port, SEG0_Pin, GPIO_PIN_RESET);
 80001f2:	2200      	movs	r2, #0
 80001f4:	2101      	movs	r1, #1
 80001f6:	4897      	ldr	r0, [pc, #604]	; (8000454 <display7SEG+0x308>)
 80001f8:	f001 f8ae 	bl	8001358 <HAL_GPIO_WritePin>
		HAL_GPIO_WritePin(SEG1_GPIO_Port, SEG1_Pin, GPIO_PIN_RESET);
 80001fc:	2200      	movs	r2, #0
 80001fe:	2102      	movs	r1, #2
 8000200:	4894      	ldr	r0, [pc, #592]	; (8000454 <display7SEG+0x308>)
 8000202:	f001 f8a9 	bl	8001358 <HAL_GPIO_WritePin>
		HAL_GPIO_WritePin(SEG2_GPIO_Port, SEG2_Pin, GPIO_PIN_SET);
 8000206:	2201      	movs	r2, #1
 8000208:	2104      	movs	r1, #4
 800020a:	4892      	ldr	r0, [pc, #584]	; (8000454 <display7SEG+0x308>)
 800020c:	f001 f8a4 	bl	8001358 <HAL_GPIO_WritePin>
		HAL_GPIO_WritePin(SEG3_GPIO_Port, SEG3_Pin, GPIO_PIN_RESET);
 8000210:	2200      	movs	r2, #0
 8000212:	2108      	movs	r1, #8
 8000214:	488f      	ldr	r0, [pc, #572]	; (8000454 <display7SEG+0x308>)
 8000216:	f001 f89f 	bl	8001358 <HAL_GPIO_WritePin>
		HAL_GPIO_WritePin(SEG4_GPIO_Port, SEG4_Pin, GPIO_PIN_RESET);
 800021a:	2200      	movs	r2, #0
 800021c:	2110      	movs	r1, #16
 800021e:	488d      	ldr	r0, [pc, #564]	; (8000454 <display7SEG+0x308>)
 8000220:	f001 f89a 	bl	8001358 <HAL_GPIO_WritePin>
		HAL_GPIO_WritePin(SEG5_GPIO_Port, SEG5_Pin, GPIO_PIN_SET);
 8000224:	2201      	movs	r2, #1
 8000226:	2120      	movs	r1, #32
 8000228:	488a      	ldr	r0, [pc, #552]	; (8000454 <display7SEG+0x308>)
 800022a:	f001 f895 	bl	8001358 <HAL_GPIO_WritePin>
		HAL_GPIO_WritePin(SEG6_GPIO_Port, SEG6_Pin, GPIO_PIN_RESET);
 800022e:	2200      	movs	r2, #0
 8000230:	2140      	movs	r1, #64	; 0x40
 8000232:	4888      	ldr	r0, [pc, #544]	; (8000454 <display7SEG+0x308>)
 8000234:	f001 f890 	bl	8001358 <HAL_GPIO_WritePin>
	}

	if(num == 3){
 8000238:	687b      	ldr	r3, [r7, #4]
 800023a:	2b03      	cmp	r3, #3
 800023c:	d122      	bne.n	8000284 <display7SEG+0x138>
		HAL_GPIO_WritePin(SEG0_GPIO_Port, SEG0_Pin, GPIO_PIN_RESET);
 800023e:	2200      	movs	r2, #0
 8000240:	2101      	movs	r1, #1
 8000242:	4884      	ldr	r0, [pc, #528]	; (8000454 <display7SEG+0x308>)
 8000244:	f001 f888 	bl	8001358 <HAL_GPIO_WritePin>
		HAL_GPIO_WritePin(SEG1_GPIO_Port, SEG1_Pin, GPIO_PIN_RESET);
 8000248:	2200      	movs	r2, #0
 800024a:	2102      	movs	r1, #2
 800024c:	4881      	ldr	r0, [pc, #516]	; (8000454 <display7SEG+0x308>)
 800024e:	f001 f883 	bl	8001358 <HAL_GPIO_WritePin>
		HAL_GPIO_WritePin(SEG2_GPIO_Port, SEG2_Pin, GPIO_PIN_RESET);
 8000252:	2200      	movs	r2, #0
 8000254:	2104      	movs	r1, #4
 8000256:	487f      	ldr	r0, [pc, #508]	; (8000454 <display7SEG+0x308>)
 8000258:	f001 f87e 	bl	8001358 <HAL_GPIO_WritePin>
		HAL_GPIO_WritePin(SEG3_GPIO_Port, SEG3_Pin, GPIO_PIN_RESET);
 800025c:	2200      	movs	r2, #0
 800025e:	2108      	movs	r1, #8
 8000260:	487c      	ldr	r0, [pc, #496]	; (8000454 <display7SEG+0x308>)
 8000262:	f001 f879 	bl	8001358 <HAL_GPIO_WritePin>
		HAL_GPIO_WritePin(SEG4_GPIO_Port, SEG4_Pin, GPIO_PIN_SET);
 8000266:	2201      	movs	r2, #1
 8000268:	2110      	movs	r1, #16
 800026a:	487a      	ldr	r0, [pc, #488]	; (8000454 <display7SEG+0x308>)
 800026c:	f001 f874 	bl	8001358 <HAL_GPIO_WritePin>
		HAL_GPIO_WritePin(SEG5_GPIO_Port, SEG5_Pin, GPIO_PIN_SET);
 8000270:	2201      	movs	r2, #1
 8000272:	2120      	movs	r1, #32
 8000274:	4877      	ldr	r0, [pc, #476]	; (8000454 <display7SEG+0x308>)
 8000276:	f001 f86f 	bl	8001358 <HAL_GPIO_WritePin>
		HAL_GPIO_WritePin(SEG6_GPIO_Port, SEG6_Pin, GPIO_PIN_RESET);
 800027a:	2200      	movs	r2, #0
 800027c:	2140      	movs	r1, #64	; 0x40
 800027e:	4875      	ldr	r0, [pc, #468]	; (8000454 <display7SEG+0x308>)
 8000280:	f001 f86a 	bl	8001358 <HAL_GPIO_WritePin>
	}

	if(num == 4){
 8000284:	687b      	ldr	r3, [r7, #4]
 8000286:	2b04      	cmp	r3, #4
 8000288:	d122      	bne.n	80002d0 <display7SEG+0x184>
		HAL_GPIO_WritePin(SEG0_GPIO_Port, SEG0_Pin, GPIO_PIN_SET);
 800028a:	2201      	movs	r2, #1
 800028c:	2101      	movs	r1, #1
 800028e:	4871      	ldr	r0, [pc, #452]	; (8000454 <display7SEG+0x308>)
 8000290:	f001 f862 	bl	8001358 <HAL_GPIO_WritePin>
		HAL_GPIO_WritePin(SEG1_GPIO_Port, SEG1_Pin, GPIO_PIN_RESET);
 8000294:	2200      	movs	r2, #0
 8000296:	2102      	movs	r1, #2
 8000298:	486e      	ldr	r0, [pc, #440]	; (8000454 <display7SEG+0x308>)
 800029a:	f001 f85d 	bl	8001358 <HAL_GPIO_WritePin>
		HAL_GPIO_WritePin(SEG2_GPIO_Port, SEG2_Pin, GPIO_PIN_RESET);
 800029e:	2200      	movs	r2, #0
 80002a0:	2104      	movs	r1, #4
 80002a2:	486c      	ldr	r0, [pc, #432]	; (8000454 <display7SEG+0x308>)
 80002a4:	f001 f858 	bl	8001358 <HAL_GPIO_WritePin>
		HAL_GPIO_WritePin(SEG3_GPIO_Port, SEG3_Pin, GPIO_PIN_SET);
 80002a8:	2201      	movs	r2, #1
 80002aa:	2108      	movs	r1, #8
 80002ac:	4869      	ldr	r0, [pc, #420]	; (8000454 <display7SEG+0x308>)
 80002ae:	f001 f853 	bl	8001358 <HAL_GPIO_WritePin>
		HAL_GPIO_WritePin(SEG4_GPIO_Port, SEG4_Pin, GPIO_PIN_SET);
 80002b2:	2201      	movs	r2, #1
 80002b4:	2110      	movs	r1, #16
 80002b6:	4867      	ldr	r0, [pc, #412]	; (8000454 <display7SEG+0x308>)
 80002b8:	f001 f84e 	bl	8001358 <HAL_GPIO_WritePin>
		HAL_GPIO_WritePin(SEG5_GPIO_Port, SEG5_Pin, GPIO_PIN_RESET);
 80002bc:	2200      	movs	r2, #0
 80002be:	2120      	movs	r1, #32
 80002c0:	4864      	ldr	r0, [pc, #400]	; (8000454 <display7SEG+0x308>)
 80002c2:	f001 f849 	bl	8001358 <HAL_GPIO_WritePin>
		HAL_GPIO_WritePin(SEG6_GPIO_Port, SEG6_Pin, GPIO_PIN_RESET);
 80002c6:	2200      	movs	r2, #0
 80002c8:	2140      	movs	r1, #64	; 0x40
 80002ca:	4862      	ldr	r0, [pc, #392]	; (8000454 <display7SEG+0x308>)
 80002cc:	f001 f844 	bl	8001358 <HAL_GPIO_WritePin>
	}

	if(num == 5){
 80002d0:	687b      	ldr	r3, [r7, #4]
 80002d2:	2b05      	cmp	r3, #5
 80002d4:	d122      	bne.n	800031c <display7SEG+0x1d0>
		HAL_GPIO_WritePin(SEG0_GPIO_Port, SEG0_Pin, GPIO_PIN_RESET);
 80002d6:	2200      	movs	r2, #0
 80002d8:	2101      	movs	r1, #1
 80002da:	485e      	ldr	r0, [pc, #376]	; (8000454 <display7SEG+0x308>)
 80002dc:	f001 f83c 	bl	8001358 <HAL_GPIO_WritePin>
		HAL_GPIO_WritePin(SEG1_GPIO_Port, SEG1_Pin, GPIO_PIN_SET);
 80002e0:	2201      	movs	r2, #1
 80002e2:	2102      	movs	r1, #2
 80002e4:	485b      	ldr	r0, [pc, #364]	; (8000454 <display7SEG+0x308>)
 80002e6:	f001 f837 	bl	8001358 <HAL_GPIO_WritePin>
		HAL_GPIO_WritePin(SEG2_GPIO_Port, SEG2_Pin, GPIO_PIN_RESET);
 80002ea:	2200      	movs	r2, #0
 80002ec:	2104      	movs	r1, #4
 80002ee:	4859      	ldr	r0, [pc, #356]	; (8000454 <display7SEG+0x308>)
 80002f0:	f001 f832 	bl	8001358 <HAL_GPIO_WritePin>
		HAL_GPIO_WritePin(SEG3_GPIO_Port, SEG3_Pin, GPIO_PIN_RESET);
 80002f4:	2200      	movs	r2, #0
 80002f6:	2108      	movs	r1, #8
 80002f8:	4856      	ldr	r0, [pc, #344]	; (8000454 <display7SEG+0x308>)
 80002fa:	f001 f82d 	bl	8001358 <HAL_GPIO_WritePin>
		HAL_GPIO_WritePin(SEG4_GPIO_Port, SEG4_Pin, GPIO_PIN_SET);
 80002fe:	2201      	movs	r2, #1
 8000300:	2110      	movs	r1, #16
 8000302:	4854      	ldr	r0, [pc, #336]	; (8000454 <display7SEG+0x308>)
 8000304:	f001 f828 	bl	8001358 <HAL_GPIO_WritePin>
		HAL_GPIO_WritePin(SEG5_GPIO_Port, SEG5_Pin, GPIO_PIN_RESET);
 8000308:	2200      	movs	r2, #0
 800030a:	2120      	movs	r1, #32
 800030c:	4851      	ldr	r0, [pc, #324]	; (8000454 <display7SEG+0x308>)
 800030e:	f001 f823 	bl	8001358 <HAL_GPIO_WritePin>
		HAL_GPIO_WritePin(SEG6_GPIO_Port, SEG6_Pin, GPIO_PIN_RESET);
 8000312:	2200      	movs	r2, #0
 8000314:	2140      	movs	r1, #64	; 0x40
 8000316:	484f      	ldr	r0, [pc, #316]	; (8000454 <display7SEG+0x308>)
 8000318:	f001 f81e 	bl	8001358 <HAL_GPIO_WritePin>
	}

	if(num == 6){
 800031c:	687b      	ldr	r3, [r7, #4]
 800031e:	2b06      	cmp	r3, #6
 8000320:	d122      	bne.n	8000368 <display7SEG+0x21c>
		HAL_GPIO_WritePin(SEG0_GPIO_Port, SEG0_Pin, GPIO_PIN_RESET);
 8000322:	2200      	movs	r2, #0
 8000324:	2101      	movs	r1, #1
 8000326:	484b      	ldr	r0, [pc, #300]	; (8000454 <display7SEG+0x308>)
 8000328:	f001 f816 	bl	8001358 <HAL_GPIO_WritePin>
		HAL_GPIO_WritePin(SEG1_GPIO_Port, SEG1_Pin, GPIO_PIN_SET);
 800032c:	2201      	movs	r2, #1
 800032e:	2102      	movs	r1, #2
 8000330:	4848      	ldr	r0, [pc, #288]	; (8000454 <display7SEG+0x308>)
 8000332:	f001 f811 	bl	8001358 <HAL_GPIO_WritePin>
		HAL_GPIO_WritePin(SEG2_GPIO_Port, SEG2_Pin, GPIO_PIN_RESET);
 8000336:	2200      	movs	r2, #0
 8000338:	2104      	movs	r1, #4
 800033a:	4846      	ldr	r0, [pc, #280]	; (8000454 <display7SEG+0x308>)
 800033c:	f001 f80c 	bl	8001358 <HAL_GPIO_WritePin>
		HAL_GPIO_WritePin(SEG3_GPIO_Port, SEG3_Pin, GPIO_PIN_RESET);
 8000340:	2200      	movs	r2, #0
 8000342:	2108      	movs	r1, #8
 8000344:	4843      	ldr	r0, [pc, #268]	; (8000454 <display7SEG+0x308>)
 8000346:	f001 f807 	bl	8001358 <HAL_GPIO_WritePin>
		HAL_GPIO_WritePin(SEG4_GPIO_Port, SEG4_Pin, GPIO_PIN_RESET);
 800034a:	2200      	movs	r2, #0
 800034c:	2110      	movs	r1, #16
 800034e:	4841      	ldr	r0, [pc, #260]	; (8000454 <display7SEG+0x308>)
 8000350:	f001 f802 	bl	8001358 <HAL_GPIO_WritePin>
		HAL_GPIO_WritePin(SEG5_GPIO_Port, SEG5_Pin, GPIO_PIN_RESET);
 8000354:	2200      	movs	r2, #0
 8000356:	2120      	movs	r1, #32
 8000358:	483e      	ldr	r0, [pc, #248]	; (8000454 <display7SEG+0x308>)
 800035a:	f000 fffd 	bl	8001358 <HAL_GPIO_WritePin>
		HAL_GPIO_WritePin(SEG6_GPIO_Port, SEG6_Pin, GPIO_PIN_RESET);
 800035e:	2200      	movs	r2, #0
 8000360:	2140      	movs	r1, #64	; 0x40
 8000362:	483c      	ldr	r0, [pc, #240]	; (8000454 <display7SEG+0x308>)
 8000364:	f000 fff8 	bl	8001358 <HAL_GPIO_WritePin>
	}

	if(num == 7){
 8000368:	687b      	ldr	r3, [r7, #4]
 800036a:	2b07      	cmp	r3, #7
 800036c:	d122      	bne.n	80003b4 <display7SEG+0x268>
		HAL_GPIO_WritePin(SEG0_GPIO_Port, SEG0_Pin, GPIO_PIN_RESET);
 800036e:	2200      	movs	r2, #0
 8000370:	2101      	movs	r1, #1
 8000372:	4838      	ldr	r0, [pc, #224]	; (8000454 <display7SEG+0x308>)
 8000374:	f000 fff0 	bl	8001358 <HAL_GPIO_WritePin>
		HAL_GPIO_WritePin(SEG1_GPIO_Port, SEG1_Pin, GPIO_PIN_RESET);
 8000378:	2200      	movs	r2, #0
 800037a:	2102      	movs	r1, #2
 800037c:	4835      	ldr	r0, [pc, #212]	; (8000454 <display7SEG+0x308>)
 800037e:	f000 ffeb 	bl	8001358 <HAL_GPIO_WritePin>
		HAL_GPIO_WritePin(SEG2_GPIO_Port, SEG2_Pin, GPIO_PIN_RESET);
 8000382:	2200      	movs	r2, #0
 8000384:	2104      	movs	r1, #4
 8000386:	4833      	ldr	r0, [pc, #204]	; (8000454 <display7SEG+0x308>)
 8000388:	f000 ffe6 	bl	8001358 <HAL_GPIO_WritePin>
		HAL_GPIO_WritePin(SEG3_GPIO_Port, SEG3_Pin, GPIO_PIN_SET);
 800038c:	2201      	movs	r2, #1
 800038e:	2108      	movs	r1, #8
 8000390:	4830      	ldr	r0, [pc, #192]	; (8000454 <display7SEG+0x308>)
 8000392:	f000 ffe1 	bl	8001358 <HAL_GPIO_WritePin>
		HAL_GPIO_WritePin(SEG4_GPIO_Port, SEG4_Pin, GPIO_PIN_SET);
 8000396:	2201      	movs	r2, #1
 8000398:	2110      	movs	r1, #16
 800039a:	482e      	ldr	r0, [pc, #184]	; (8000454 <display7SEG+0x308>)
 800039c:	f000 ffdc 	bl	8001358 <HAL_GPIO_WritePin>
		HAL_GPIO_WritePin(SEG5_GPIO_Port, SEG5_Pin, GPIO_PIN_SET);
 80003a0:	2201      	movs	r2, #1
 80003a2:	2120      	movs	r1, #32
 80003a4:	482b      	ldr	r0, [pc, #172]	; (8000454 <display7SEG+0x308>)
 80003a6:	f000 ffd7 	bl	8001358 <HAL_GPIO_WritePin>
		HAL_GPIO_WritePin(SEG6_GPIO_Port, SEG6_Pin, GPIO_PIN_SET);
 80003aa:	2201      	movs	r2, #1
 80003ac:	2140      	movs	r1, #64	; 0x40
 80003ae:	4829      	ldr	r0, [pc, #164]	; (8000454 <display7SEG+0x308>)
 80003b0:	f000 ffd2 	bl	8001358 <HAL_GPIO_WritePin>
	}

	if(num == 8){
 80003b4:	687b      	ldr	r3, [r7, #4]
 80003b6:	2b08      	cmp	r3, #8
 80003b8:	d122      	bne.n	8000400 <display7SEG+0x2b4>
		HAL_GPIO_WritePin(SEG0_GPIO_Port, SEG0_Pin, GPIO_PIN_RESET);
 80003ba:	2200      	movs	r2, #0
 80003bc:	2101      	movs	r1, #1
 80003be:	4825      	ldr	r0, [pc, #148]	; (8000454 <display7SEG+0x308>)
 80003c0:	f000 ffca 	bl	8001358 <HAL_GPIO_WritePin>
		HAL_GPIO_WritePin(SEG1_GPIO_Port, SEG1_Pin, GPIO_PIN_RESET);
 80003c4:	2200      	movs	r2, #0
 80003c6:	2102      	movs	r1, #2
 80003c8:	4822      	ldr	r0, [pc, #136]	; (8000454 <display7SEG+0x308>)
 80003ca:	f000 ffc5 	bl	8001358 <HAL_GPIO_WritePin>
		HAL_GPIO_WritePin(SEG2_GPIO_Port, SEG2_Pin, GPIO_PIN_RESET);
 80003ce:	2200      	movs	r2, #0
 80003d0:	2104      	movs	r1, #4
 80003d2:	4820      	ldr	r0, [pc, #128]	; (8000454 <display7SEG+0x308>)
 80003d4:	f000 ffc0 	bl	8001358 <HAL_GPIO_WritePin>
		HAL_GPIO_WritePin(SEG3_GPIO_Port, SEG3_Pin, GPIO_PIN_RESET);
 80003d8:	2200      	movs	r2, #0
 80003da:	2108      	movs	r1, #8
 80003dc:	481d      	ldr	r0, [pc, #116]	; (8000454 <display7SEG+0x308>)
 80003de:	f000 ffbb 	bl	8001358 <HAL_GPIO_WritePin>
		HAL_GPIO_WritePin(SEG4_GPIO_Port, SEG4_Pin, GPIO_PIN_RESET);
 80003e2:	2200      	movs	r2, #0
 80003e4:	2110      	movs	r1, #16
 80003e6:	481b      	ldr	r0, [pc, #108]	; (8000454 <display7SEG+0x308>)
 80003e8:	f000 ffb6 	bl	8001358 <HAL_GPIO_WritePin>
		HAL_GPIO_WritePin(SEG5_GPIO_Port, SEG5_Pin, GPIO_PIN_RESET);
 80003ec:	2200      	movs	r2, #0
 80003ee:	2120      	movs	r1, #32
 80003f0:	4818      	ldr	r0, [pc, #96]	; (8000454 <display7SEG+0x308>)
 80003f2:	f000 ffb1 	bl	8001358 <HAL_GPIO_WritePin>
		HAL_GPIO_WritePin(SEG6_GPIO_Port, SEG6_Pin, GPIO_PIN_RESET);
 80003f6:	2200      	movs	r2, #0
 80003f8:	2140      	movs	r1, #64	; 0x40
 80003fa:	4816      	ldr	r0, [pc, #88]	; (8000454 <display7SEG+0x308>)
 80003fc:	f000 ffac 	bl	8001358 <HAL_GPIO_WritePin>
	}

	if(num == 9){
 8000400:	687b      	ldr	r3, [r7, #4]
 8000402:	2b09      	cmp	r3, #9
 8000404:	d122      	bne.n	800044c <display7SEG+0x300>
		HAL_GPIO_WritePin(SEG0_GPIO_Port, SEG0_Pin, GPIO_PIN_RESET);
 8000406:	2200      	movs	r2, #0
 8000408:	2101      	movs	r1, #1
 800040a:	4812      	ldr	r0, [pc, #72]	; (8000454 <display7SEG+0x308>)
 800040c:	f000 ffa4 	bl	8001358 <HAL_GPIO_WritePin>
		HAL_GPIO_WritePin(SEG1_GPIO_Port, SEG1_Pin, GPIO_PIN_RESET);
 8000410:	2200      	movs	r2, #0
 8000412:	2102      	movs	r1, #2
 8000414:	480f      	ldr	r0, [pc, #60]	; (8000454 <display7SEG+0x308>)
 8000416:	f000 ff9f 	bl	8001358 <HAL_GPIO_WritePin>
		HAL_GPIO_WritePin(SEG2_GPIO_Port, SEG2_Pin, GPIO_PIN_RESET);
 800041a:	2200      	movs	r2, #0
 800041c:	2104      	movs	r1, #4
 800041e:	480d      	ldr	r0, [pc, #52]	; (8000454 <display7SEG+0x308>)
 8000420:	f000 ff9a 	bl	8001358 <HAL_GPIO_WritePin>
		HAL_GPIO_WritePin(SEG3_GPIO_Port, SEG3_Pin, GPIO_PIN_RESET);
 8000424:	2200      	movs	r2, #0
 8000426:	2108      	movs	r1, #8
 8000428:	480a      	ldr	r0, [pc, #40]	; (8000454 <display7SEG+0x308>)
 800042a:	f000 ff95 	bl	8001358 <HAL_GPIO_WritePin>
		HAL_GPIO_WritePin(SEG4_GPIO_Port, SEG4_Pin, GPIO_PIN_SET);
 800042e:	2201      	movs	r2, #1
 8000430:	2110      	movs	r1, #16
 8000432:	4808      	ldr	r0, [pc, #32]	; (8000454 <display7SEG+0x308>)
 8000434:	f000 ff90 	bl	8001358 <HAL_GPIO_WritePin>
		HAL_GPIO_WritePin(SEG5_GPIO_Port, SEG5_Pin, GPIO_PIN_RESET);
 8000438:	2200      	movs	r2, #0
 800043a:	2120      	movs	r1, #32
 800043c:	4805      	ldr	r0, [pc, #20]	; (8000454 <display7SEG+0x308>)
 800043e:	f000 ff8b 	bl	8001358 <HAL_GPIO_WritePin>
		HAL_GPIO_WritePin(SEG6_GPIO_Port, SEG6_Pin, GPIO_PIN_RESET);
 8000442:	2200      	movs	r2, #0
 8000444:	2140      	movs	r1, #64	; 0x40
 8000446:	4803      	ldr	r0, [pc, #12]	; (8000454 <display7SEG+0x308>)
 8000448:	f000 ff86 	bl	8001358 <HAL_GPIO_WritePin>
	}
}
 800044c:	bf00      	nop
 800044e:	3708      	adds	r7, #8
 8000450:	46bd      	mov	sp, r7
 8000452:	bd80      	pop	{r7, pc}
 8000454:	40010c00 	.word	0x40010c00

08000458 <DisplayNumberOnLed>:
	}
}

/* Function to display number on 7-segment led*/
void DisplayNumberOnLed(int led, unsigned int* value_buffer)
{
 8000458:	b580      	push	{r7, lr}
 800045a:	b082      	sub	sp, #8
 800045c:	af00      	add	r7, sp, #0
 800045e:	6078      	str	r0, [r7, #4]
 8000460:	6039      	str	r1, [r7, #0]
	switch(led)
 8000462:	687b      	ldr	r3, [r7, #4]
 8000464:	2b03      	cmp	r3, #3
 8000466:	d87e      	bhi.n	8000566 <DisplayNumberOnLed+0x10e>
 8000468:	a201      	add	r2, pc, #4	; (adr r2, 8000470 <DisplayNumberOnLed+0x18>)
 800046a:	f852 f023 	ldr.w	pc, [r2, r3, lsl #2]
 800046e:	bf00      	nop
 8000470:	08000481 	.word	0x08000481
 8000474:	080004b9 	.word	0x080004b9
 8000478:	080004f3 	.word	0x080004f3
 800047c:	0800052d 	.word	0x0800052d
	{
	case 0:
		HAL_GPIO_WritePin(EN0_GPIO_Port, EN0_Pin, GPIO_PIN_RESET);
 8000480:	2200      	movs	r2, #0
 8000482:	2140      	movs	r1, #64	; 0x40
 8000484:	4848      	ldr	r0, [pc, #288]	; (80005a8 <DisplayNumberOnLed+0x150>)
 8000486:	f000 ff67 	bl	8001358 <HAL_GPIO_WritePin>
		HAL_GPIO_WritePin(EN1_GPIO_Port, EN1_Pin, GPIO_PIN_SET);
 800048a:	2201      	movs	r2, #1
 800048c:	2180      	movs	r1, #128	; 0x80
 800048e:	4846      	ldr	r0, [pc, #280]	; (80005a8 <DisplayNumberOnLed+0x150>)
 8000490:	f000 ff62 	bl	8001358 <HAL_GPIO_WritePin>
		HAL_GPIO_WritePin(EN2_GPIO_Port, EN2_Pin, GPIO_PIN_SET);
 8000494:	2201      	movs	r2, #1
 8000496:	f44f 7180 	mov.w	r1, #256	; 0x100
 800049a:	4843      	ldr	r0, [pc, #268]	; (80005a8 <DisplayNumberOnLed+0x150>)
 800049c:	f000 ff5c 	bl	8001358 <HAL_GPIO_WritePin>
		HAL_GPIO_WritePin(EN3_GPIO_Port, EN3_Pin, GPIO_PIN_SET);
 80004a0:	2201      	movs	r2, #1
 80004a2:	f44f 7100 	mov.w	r1, #512	; 0x200
 80004a6:	4840      	ldr	r0, [pc, #256]	; (80005a8 <DisplayNumberOnLed+0x150>)
 80004a8:	f000 ff56 	bl	8001358 <HAL_GPIO_WritePin>
		display7SEG(value_buffer[0]);
 80004ac:	683b      	ldr	r3, [r7, #0]
 80004ae:	681b      	ldr	r3, [r3, #0]
 80004b0:	4618      	mov	r0, r3
 80004b2:	f7ff fe4b 	bl	800014c <display7SEG>
		break;
 80004b6:	e072      	b.n	800059e <DisplayNumberOnLed+0x146>
	case 1:
		HAL_GPIO_WritePin(EN0_GPIO_Port, EN0_Pin, GPIO_PIN_SET);
 80004b8:	2201      	movs	r2, #1
 80004ba:	2140      	movs	r1, #64	; 0x40
 80004bc:	483a      	ldr	r0, [pc, #232]	; (80005a8 <DisplayNumberOnLed+0x150>)
 80004be:	f000 ff4b 	bl	8001358 <HAL_GPIO_WritePin>
		HAL_GPIO_WritePin(EN1_GPIO_Port, EN1_Pin, GPIO_PIN_RESET);
 80004c2:	2200      	movs	r2, #0
 80004c4:	2180      	movs	r1, #128	; 0x80
 80004c6:	4838      	ldr	r0, [pc, #224]	; (80005a8 <DisplayNumberOnLed+0x150>)
 80004c8:	f000 ff46 	bl	8001358 <HAL_GPIO_WritePin>
		HAL_GPIO_WritePin(EN2_GPIO_Port, EN2_Pin, GPIO_PIN_SET);
 80004cc:	2201      	movs	r2, #1
 80004ce:	f44f 7180 	mov.w	r1, #256	; 0x100
 80004d2:	4835      	ldr	r0, [pc, #212]	; (80005a8 <DisplayNumberOnLed+0x150>)
 80004d4:	f000 ff40 	bl	8001358 <HAL_GPIO_WritePin>
		HAL_GPIO_WritePin(EN3_GPIO_Port, EN3_Pin, GPIO_PIN_SET);
 80004d8:	2201      	movs	r2, #1
 80004da:	f44f 7100 	mov.w	r1, #512	; 0x200
 80004de:	4832      	ldr	r0, [pc, #200]	; (80005a8 <DisplayNumberOnLed+0x150>)
 80004e0:	f000 ff3a 	bl	8001358 <HAL_GPIO_WritePin>
		display7SEG(value_buffer[1]);
 80004e4:	683b      	ldr	r3, [r7, #0]
 80004e6:	3304      	adds	r3, #4
 80004e8:	681b      	ldr	r3, [r3, #0]
 80004ea:	4618      	mov	r0, r3
 80004ec:	f7ff fe2e 	bl	800014c <display7SEG>
		break;
 80004f0:	e055      	b.n	800059e <DisplayNumberOnLed+0x146>
	case 2:
		/* Display value of index 2 element of value_buffer on 2th led*/
		HAL_GPIO_WritePin(EN0_GPIO_Port, EN0_Pin, GPIO_PIN_SET);
 80004f2:	2201      	movs	r2, #1
 80004f4:	2140      	movs	r1, #64	; 0x40
 80004f6:	482c      	ldr	r0, [pc, #176]	; (80005a8 <DisplayNumberOnLed+0x150>)
 80004f8:	f000 ff2e 	bl	8001358 <HAL_GPIO_WritePin>
		HAL_GPIO_WritePin(EN1_GPIO_Port, EN1_Pin, GPIO_PIN_SET);
 80004fc:	2201      	movs	r2, #1
 80004fe:	2180      	movs	r1, #128	; 0x80
 8000500:	4829      	ldr	r0, [pc, #164]	; (80005a8 <DisplayNumberOnLed+0x150>)
 8000502:	f000 ff29 	bl	8001358 <HAL_GPIO_WritePin>
		HAL_GPIO_WritePin(EN2_GPIO_Port, EN2_Pin, GPIO_PIN_RESET);
 8000506:	2200      	movs	r2, #0
 8000508:	f44f 7180 	mov.w	r1, #256	; 0x100
 800050c:	4826      	ldr	r0, [pc, #152]	; (80005a8 <DisplayNumberOnLed+0x150>)
 800050e:	f000 ff23 	bl	8001358 <HAL_GPIO_WritePin>
		HAL_GPIO_WritePin(EN3_GPIO_Port, EN3_Pin, GPIO_PIN_SET);
 8000512:	2201      	movs	r2, #1
 8000514:	f44f 7100 	mov.w	r1, #512	; 0x200
 8000518:	4823      	ldr	r0, [pc, #140]	; (80005a8 <DisplayNumberOnLed+0x150>)
 800051a:	f000 ff1d 	bl	8001358 <HAL_GPIO_WritePin>
		display7SEG(value_buffer[2]);
 800051e:	683b      	ldr	r3, [r7, #0]
 8000520:	3308      	adds	r3, #8
 8000522:	681b      	ldr	r3, [r3, #0]
 8000524:	4618      	mov	r0, r3
 8000526:	f7ff fe11 	bl	800014c <display7SEG>
		break;
 800052a:	e038      	b.n	800059e <DisplayNumberOnLed+0x146>
	case 3:
		/* Turn on 4th 7-segment led*/
		HAL_GPIO_WritePin(EN0_GPIO_Port, EN0_Pin, GPIO_PIN_SET);
 800052c:	2201      	movs	r2, #1
 800052e:	2140      	movs	r1, #64	; 0x40
 8000530:	481d      	ldr	r0, [pc, #116]	; (80005a8 <DisplayNumberOnLed+0x150>)
 8000532:	f000 ff11 	bl	8001358 <HAL_GPIO_WritePin>
		HAL_GPIO_WritePin(EN1_GPIO_Port, EN1_Pin, GPIO_PIN_SET);
 8000536:	2201      	movs	r2, #1
 8000538:	2180      	movs	r1, #128	; 0x80
 800053a:	481b      	ldr	r0, [pc, #108]	; (80005a8 <DisplayNumberOnLed+0x150>)
 800053c:	f000 ff0c 	bl	8001358 <HAL_GPIO_WritePin>
		HAL_GPIO_WritePin(EN2_GPIO_Port, EN2_Pin, GPIO_PIN_SET);
 8000540:	2201      	movs	r2, #1
 8000542:	f44f 7180 	mov.w	r1, #256	; 0x100
 8000546:	4818      	ldr	r0, [pc, #96]	; (80005a8 <DisplayNumberOnLed+0x150>)
 8000548:	f000 ff06 	bl	8001358 <HAL_GPIO_WritePin>
		HAL_GPIO_WritePin(EN3_GPIO_Port, EN3_Pin, GPIO_PIN_RESET);
 800054c:	2200      	movs	r2, #0
 800054e:	f44f 7100 	mov.w	r1, #512	; 0x200
 8000552:	4815      	ldr	r0, [pc, #84]	; (80005a8 <DisplayNumberOnLed+0x150>)
 8000554:	f000 ff00 	bl	8001358 <HAL_GPIO_WritePin>
		display7SEG(value_buffer[3]);
 8000558:	683b      	ldr	r3, [r7, #0]
 800055a:	330c      	adds	r3, #12
 800055c:	681b      	ldr	r3, [r3, #0]
 800055e:	4618      	mov	r0, r3
 8000560:	f7ff fdf4 	bl	800014c <display7SEG>
		break;
 8000564:	e01b      	b.n	800059e <DisplayNumberOnLed+0x146>
	default:
		/* Turn off all 7-segment leds*/
		HAL_GPIO_WritePin(EN0_GPIO_Port, EN0_Pin, GPIO_PIN_SET);
 8000566:	2201      	movs	r2, #1
 8000568:	2140      	movs	r1, #64	; 0x40
 800056a:	480f      	ldr	r0, [pc, #60]	; (80005a8 <DisplayNumberOnLed+0x150>)
 800056c:	f000 fef4 	bl	8001358 <HAL_GPIO_WritePin>
		HAL_GPIO_WritePin(EN1_GPIO_Port, EN1_Pin, GPIO_PIN_SET);
 8000570:	2201      	movs	r2, #1
 8000572:	2180      	movs	r1, #128	; 0x80
 8000574:	480c      	ldr	r0, [pc, #48]	; (80005a8 <DisplayNumberOnLed+0x150>)
 8000576:	f000 feef 	bl	8001358 <HAL_GPIO_WritePin>
		HAL_GPIO_WritePin(EN2_GPIO_Port, EN2_Pin, GPIO_PIN_SET);
 800057a:	2201      	movs	r2, #1
 800057c:	f44f 7180 	mov.w	r1, #256	; 0x100
 8000580:	4809      	ldr	r0, [pc, #36]	; (80005a8 <DisplayNumberOnLed+0x150>)
 8000582:	f000 fee9 	bl	8001358 <HAL_GPIO_WritePin>
		HAL_GPIO_WritePin(EN3_GPIO_Port, EN3_Pin, GPIO_PIN_SET);
 8000586:	2201      	movs	r2, #1
 8000588:	f44f 7100 	mov.w	r1, #512	; 0x200
 800058c:	4806      	ldr	r0, [pc, #24]	; (80005a8 <DisplayNumberOnLed+0x150>)
 800058e:	f000 fee3 	bl	8001358 <HAL_GPIO_WritePin>
		display7SEG(value_buffer[0]);
 8000592:	683b      	ldr	r3, [r7, #0]
 8000594:	681b      	ldr	r3, [r3, #0]
 8000596:	4618      	mov	r0, r3
 8000598:	f7ff fdd8 	bl	800014c <display7SEG>
		break;
 800059c:	bf00      	nop
	}

}
 800059e:	bf00      	nop
 80005a0:	3708      	adds	r7, #8
 80005a2:	46bd      	mov	sp, r7
 80005a4:	bd80      	pop	{r7, pc}
 80005a6:	bf00      	nop
 80005a8:	40010800 	.word	0x40010800

080005ac <updateClockBuffer>:
unsigned int second = 50;

unsigned int clock_buffer[4] = {0, 0, 0, 0};

void updateClockBuffer()
{
 80005ac:	b480      	push	{r7}
 80005ae:	af00      	add	r7, sp, #0
	clock_buffer[0] = hour/10;
 80005b0:	4b16      	ldr	r3, [pc, #88]	; (800060c <updateClockBuffer+0x60>)
 80005b2:	681b      	ldr	r3, [r3, #0]
 80005b4:	4a16      	ldr	r2, [pc, #88]	; (8000610 <updateClockBuffer+0x64>)
 80005b6:	fba2 2303 	umull	r2, r3, r2, r3
 80005ba:	08db      	lsrs	r3, r3, #3
 80005bc:	4a15      	ldr	r2, [pc, #84]	; (8000614 <updateClockBuffer+0x68>)
 80005be:	6013      	str	r3, [r2, #0]
	clock_buffer[1] = hour%10;
 80005c0:	4b12      	ldr	r3, [pc, #72]	; (800060c <updateClockBuffer+0x60>)
 80005c2:	6819      	ldr	r1, [r3, #0]
 80005c4:	4b12      	ldr	r3, [pc, #72]	; (8000610 <updateClockBuffer+0x64>)
 80005c6:	fba3 2301 	umull	r2, r3, r3, r1
 80005ca:	08da      	lsrs	r2, r3, #3
 80005cc:	4613      	mov	r3, r2
 80005ce:	009b      	lsls	r3, r3, #2
 80005d0:	4413      	add	r3, r2
 80005d2:	005b      	lsls	r3, r3, #1
 80005d4:	1aca      	subs	r2, r1, r3
 80005d6:	4b0f      	ldr	r3, [pc, #60]	; (8000614 <updateClockBuffer+0x68>)
 80005d8:	605a      	str	r2, [r3, #4]
	clock_buffer[2] = minute/10;
 80005da:	4b0f      	ldr	r3, [pc, #60]	; (8000618 <updateClockBuffer+0x6c>)
 80005dc:	681b      	ldr	r3, [r3, #0]
 80005de:	4a0c      	ldr	r2, [pc, #48]	; (8000610 <updateClockBuffer+0x64>)
 80005e0:	fba2 2303 	umull	r2, r3, r2, r3
 80005e4:	08db      	lsrs	r3, r3, #3
 80005e6:	4a0b      	ldr	r2, [pc, #44]	; (8000614 <updateClockBuffer+0x68>)
 80005e8:	6093      	str	r3, [r2, #8]
	clock_buffer[3] = minute%10;
 80005ea:	4b0b      	ldr	r3, [pc, #44]	; (8000618 <updateClockBuffer+0x6c>)
 80005ec:	6819      	ldr	r1, [r3, #0]
 80005ee:	4b08      	ldr	r3, [pc, #32]	; (8000610 <updateClockBuffer+0x64>)
 80005f0:	fba3 2301 	umull	r2, r3, r3, r1
 80005f4:	08da      	lsrs	r2, r3, #3
 80005f6:	4613      	mov	r3, r2
 80005f8:	009b      	lsls	r3, r3, #2
 80005fa:	4413      	add	r3, r2
 80005fc:	005b      	lsls	r3, r3, #1
 80005fe:	1aca      	subs	r2, r1, r3
 8000600:	4b04      	ldr	r3, [pc, #16]	; (8000614 <updateClockBuffer+0x68>)
 8000602:	60da      	str	r2, [r3, #12]
}
 8000604:	bf00      	nop
 8000606:	46bd      	mov	sp, r7
 8000608:	bc80      	pop	{r7}
 800060a:	4770      	bx	lr
 800060c:	20000000 	.word	0x20000000
 8000610:	cccccccd 	.word	0xcccccccd
 8000614:	20000034 	.word	0x20000034
 8000618:	20000004 	.word	0x20000004

0800061c <DigitalClock>:

void DigitalClock()
{
 800061c:	b580      	push	{r7, lr}
 800061e:	af00      	add	r7, sp, #0
	if(timer4_flag == 1)
 8000620:	4b17      	ldr	r3, [pc, #92]	; (8000680 <DigitalClock+0x64>)
 8000622:	681b      	ldr	r3, [r3, #0]
 8000624:	2b01      	cmp	r3, #1
 8000626:	d127      	bne.n	8000678 <DigitalClock+0x5c>
	{
		setTimer4(1000);
 8000628:	f44f 707a 	mov.w	r0, #1000	; 0x3e8
 800062c:	f000 fa92 	bl	8000b54 <setTimer4>
		second++;
 8000630:	4b14      	ldr	r3, [pc, #80]	; (8000684 <DigitalClock+0x68>)
 8000632:	681b      	ldr	r3, [r3, #0]
 8000634:	3301      	adds	r3, #1
 8000636:	4a13      	ldr	r2, [pc, #76]	; (8000684 <DigitalClock+0x68>)
 8000638:	6013      	str	r3, [r2, #0]
		if(second >= 60)
 800063a:	4b12      	ldr	r3, [pc, #72]	; (8000684 <DigitalClock+0x68>)
 800063c:	681b      	ldr	r3, [r3, #0]
 800063e:	2b3b      	cmp	r3, #59	; 0x3b
 8000640:	d907      	bls.n	8000652 <DigitalClock+0x36>
		{
			minute++;
 8000642:	4b11      	ldr	r3, [pc, #68]	; (8000688 <DigitalClock+0x6c>)
 8000644:	681b      	ldr	r3, [r3, #0]
 8000646:	3301      	adds	r3, #1
 8000648:	4a0f      	ldr	r2, [pc, #60]	; (8000688 <DigitalClock+0x6c>)
 800064a:	6013      	str	r3, [r2, #0]
			second = 0;
 800064c:	4b0d      	ldr	r3, [pc, #52]	; (8000684 <DigitalClock+0x68>)
 800064e:	2200      	movs	r2, #0
 8000650:	601a      	str	r2, [r3, #0]
		}
		if(minute >= 60)
 8000652:	4b0d      	ldr	r3, [pc, #52]	; (8000688 <DigitalClock+0x6c>)
 8000654:	681b      	ldr	r3, [r3, #0]
 8000656:	2b3b      	cmp	r3, #59	; 0x3b
 8000658:	d907      	bls.n	800066a <DigitalClock+0x4e>
		{
			hour++;
 800065a:	4b0c      	ldr	r3, [pc, #48]	; (800068c <DigitalClock+0x70>)
 800065c:	681b      	ldr	r3, [r3, #0]
 800065e:	3301      	adds	r3, #1
 8000660:	4a0a      	ldr	r2, [pc, #40]	; (800068c <DigitalClock+0x70>)
 8000662:	6013      	str	r3, [r2, #0]
			minute = 0;
 8000664:	4b08      	ldr	r3, [pc, #32]	; (8000688 <DigitalClock+0x6c>)
 8000666:	2200      	movs	r2, #0
 8000668:	601a      	str	r2, [r3, #0]
		}
		if(hour >= 24)
 800066a:	4b08      	ldr	r3, [pc, #32]	; (800068c <DigitalClock+0x70>)
 800066c:	681b      	ldr	r3, [r3, #0]
 800066e:	2b17      	cmp	r3, #23
 8000670:	d902      	bls.n	8000678 <DigitalClock+0x5c>
		{
			hour = 0;
 8000672:	4b06      	ldr	r3, [pc, #24]	; (800068c <DigitalClock+0x70>)
 8000674:	2200      	movs	r2, #0
 8000676:	601a      	str	r2, [r3, #0]
		}
	}
	updateClockBuffer();
 8000678:	f7ff ff98 	bl	80005ac <updateClockBuffer>
}
 800067c:	bf00      	nop
 800067e:	bd80      	pop	{r7, pc}
 8000680:	200000ac 	.word	0x200000ac
 8000684:	20000008 	.word	0x20000008
 8000688:	20000004 	.word	0x20000004
 800068c:	20000000 	.word	0x20000000

08000690 <blink_led>:
/****************************************************************************************
FUNCTION DEFINITION
****************************************************************************************/
/* Function to blink led red*/
void blink_led(void)
{
 8000690:	b580      	push	{r7, lr}
 8000692:	af00      	add	r7, sp, #0
	switch(blink_status)
 8000694:	4b20      	ldr	r3, [pc, #128]	; (8000718 <blink_led+0x88>)
 8000696:	781b      	ldrb	r3, [r3, #0]
 8000698:	2b02      	cmp	r3, #2
 800069a:	d024      	beq.n	80006e6 <blink_led+0x56>
 800069c:	2b02      	cmp	r3, #2
 800069e:	dc33      	bgt.n	8000708 <blink_led+0x78>
 80006a0:	2b00      	cmp	r3, #0
 80006a2:	d002      	beq.n	80006aa <blink_led+0x1a>
 80006a4:	2b01      	cmp	r3, #1
 80006a6:	d00d      	beq.n	80006c4 <blink_led+0x34>
			setTimer1(BLINK_ON_TIME);
			blink_status = BLINK_ON;
		}
		break;
	default:
		break;
 80006a8:	e02e      	b.n	8000708 <blink_led+0x78>
		HAL_GPIO_WritePin(LED_RED_GPIO_Port, LED_RED_Pin, GPIO_PIN_SET); /* Turn off led red*/
 80006aa:	2201      	movs	r2, #1
 80006ac:	2120      	movs	r1, #32
 80006ae:	481b      	ldr	r0, [pc, #108]	; (800071c <blink_led+0x8c>)
 80006b0:	f000 fe52 	bl	8001358 <HAL_GPIO_WritePin>
		blink_status = BLINK_ON;
 80006b4:	4b18      	ldr	r3, [pc, #96]	; (8000718 <blink_led+0x88>)
 80006b6:	2201      	movs	r2, #1
 80006b8:	701a      	strb	r2, [r3, #0]
		setTimer1(BLINK_ON_TIME);
 80006ba:	f44f 70fa 	mov.w	r0, #500	; 0x1f4
 80006be:	f000 f9f5 	bl	8000aac <setTimer1>
		break;
 80006c2:	e026      	b.n	8000712 <blink_led+0x82>
		HAL_GPIO_WritePin(LED_RED_GPIO_Port, LED_RED_Pin, GPIO_PIN_RESET);
 80006c4:	2200      	movs	r2, #0
 80006c6:	2120      	movs	r1, #32
 80006c8:	4814      	ldr	r0, [pc, #80]	; (800071c <blink_led+0x8c>)
 80006ca:	f000 fe45 	bl	8001358 <HAL_GPIO_WritePin>
		if(timer1_flag == 1)
 80006ce:	4b14      	ldr	r3, [pc, #80]	; (8000720 <blink_led+0x90>)
 80006d0:	681b      	ldr	r3, [r3, #0]
 80006d2:	2b01      	cmp	r3, #1
 80006d4:	d11a      	bne.n	800070c <blink_led+0x7c>
			setTimer1(BLINK_OFF_TIME);
 80006d6:	f44f 70fa 	mov.w	r0, #500	; 0x1f4
 80006da:	f000 f9e7 	bl	8000aac <setTimer1>
			blink_status = BLINK_OFF;
 80006de:	4b0e      	ldr	r3, [pc, #56]	; (8000718 <blink_led+0x88>)
 80006e0:	2202      	movs	r2, #2
 80006e2:	701a      	strb	r2, [r3, #0]
		break;
 80006e4:	e012      	b.n	800070c <blink_led+0x7c>
		HAL_GPIO_WritePin(LED_RED_GPIO_Port, LED_RED_Pin, GPIO_PIN_SET);
 80006e6:	2201      	movs	r2, #1
 80006e8:	2120      	movs	r1, #32
 80006ea:	480c      	ldr	r0, [pc, #48]	; (800071c <blink_led+0x8c>)
 80006ec:	f000 fe34 	bl	8001358 <HAL_GPIO_WritePin>
		if(timer1_flag == 1)
 80006f0:	4b0b      	ldr	r3, [pc, #44]	; (8000720 <blink_led+0x90>)
 80006f2:	681b      	ldr	r3, [r3, #0]
 80006f4:	2b01      	cmp	r3, #1
 80006f6:	d10b      	bne.n	8000710 <blink_led+0x80>
			setTimer1(BLINK_ON_TIME);
 80006f8:	f44f 70fa 	mov.w	r0, #500	; 0x1f4
 80006fc:	f000 f9d6 	bl	8000aac <setTimer1>
			blink_status = BLINK_ON;
 8000700:	4b05      	ldr	r3, [pc, #20]	; (8000718 <blink_led+0x88>)
 8000702:	2201      	movs	r2, #1
 8000704:	701a      	strb	r2, [r3, #0]
		break;
 8000706:	e003      	b.n	8000710 <blink_led+0x80>
		break;
 8000708:	bf00      	nop
 800070a:	e002      	b.n	8000712 <blink_led+0x82>
		break;
 800070c:	bf00      	nop
 800070e:	e000      	b.n	8000712 <blink_led+0x82>
		break;
 8000710:	bf00      	nop
	}
}
 8000712:	bf00      	nop
 8000714:	bd80      	pop	{r7, pc}
 8000716:	bf00      	nop
 8000718:	20000044 	.word	0x20000044
 800071c:	40010800 	.word	0x40010800
 8000720:	20000094 	.word	0x20000094

08000724 <blink_dot>:

/* Function to blink dot*/
void blink_dot(void)
{
 8000724:	b580      	push	{r7, lr}
 8000726:	af00      	add	r7, sp, #0
	switch(blink_dot_status)
 8000728:	4b20      	ldr	r3, [pc, #128]	; (80007ac <blink_dot+0x88>)
 800072a:	781b      	ldrb	r3, [r3, #0]
 800072c:	2b02      	cmp	r3, #2
 800072e:	d024      	beq.n	800077a <blink_dot+0x56>
 8000730:	2b02      	cmp	r3, #2
 8000732:	dc33      	bgt.n	800079c <blink_dot+0x78>
 8000734:	2b00      	cmp	r3, #0
 8000736:	d002      	beq.n	800073e <blink_dot+0x1a>
 8000738:	2b01      	cmp	r3, #1
 800073a:	d00d      	beq.n	8000758 <blink_dot+0x34>
			setTimer2(DOT_ON_TIME);
			blink_dot_status = DOT_ON;
		}
		break;
	default:
		break;
 800073c:	e02e      	b.n	800079c <blink_dot+0x78>
		HAL_GPIO_WritePin(DOT_GPIO_Port, DOT_Pin, GPIO_PIN_SET);
 800073e:	2201      	movs	r2, #1
 8000740:	2110      	movs	r1, #16
 8000742:	481b      	ldr	r0, [pc, #108]	; (80007b0 <blink_dot+0x8c>)
 8000744:	f000 fe08 	bl	8001358 <HAL_GPIO_WritePin>
		blink_dot_status = DOT_ON;
 8000748:	4b18      	ldr	r3, [pc, #96]	; (80007ac <blink_dot+0x88>)
 800074a:	2201      	movs	r2, #1
 800074c:	701a      	strb	r2, [r3, #0]
		setTimer2(DOT_ON_TIME);
 800074e:	f44f 707a 	mov.w	r0, #1000	; 0x3e8
 8000752:	f000 f9c7 	bl	8000ae4 <setTimer2>
		break;
 8000756:	e026      	b.n	80007a6 <blink_dot+0x82>
		HAL_GPIO_WritePin(DOT_GPIO_Port, DOT_Pin, GPIO_PIN_RESET);
 8000758:	2200      	movs	r2, #0
 800075a:	2110      	movs	r1, #16
 800075c:	4814      	ldr	r0, [pc, #80]	; (80007b0 <blink_dot+0x8c>)
 800075e:	f000 fdfb 	bl	8001358 <HAL_GPIO_WritePin>
		if(timer2_flag == 1)
 8000762:	4b14      	ldr	r3, [pc, #80]	; (80007b4 <blink_dot+0x90>)
 8000764:	681b      	ldr	r3, [r3, #0]
 8000766:	2b01      	cmp	r3, #1
 8000768:	d11a      	bne.n	80007a0 <blink_dot+0x7c>
			setTimer2(DOT_OFF_TIME);
 800076a:	f44f 707a 	mov.w	r0, #1000	; 0x3e8
 800076e:	f000 f9b9 	bl	8000ae4 <setTimer2>
			blink_dot_status = DOT_OFF;
 8000772:	4b0e      	ldr	r3, [pc, #56]	; (80007ac <blink_dot+0x88>)
 8000774:	2202      	movs	r2, #2
 8000776:	701a      	strb	r2, [r3, #0]
		break;
 8000778:	e012      	b.n	80007a0 <blink_dot+0x7c>
		HAL_GPIO_WritePin(DOT_GPIO_Port, DOT_Pin, GPIO_PIN_SET);
 800077a:	2201      	movs	r2, #1
 800077c:	2110      	movs	r1, #16
 800077e:	480c      	ldr	r0, [pc, #48]	; (80007b0 <blink_dot+0x8c>)
 8000780:	f000 fdea 	bl	8001358 <HAL_GPIO_WritePin>
		if(timer2_flag == 1)
 8000784:	4b0b      	ldr	r3, [pc, #44]	; (80007b4 <blink_dot+0x90>)
 8000786:	681b      	ldr	r3, [r3, #0]
 8000788:	2b01      	cmp	r3, #1
 800078a:	d10b      	bne.n	80007a4 <blink_dot+0x80>
			setTimer2(DOT_ON_TIME);
 800078c:	f44f 707a 	mov.w	r0, #1000	; 0x3e8
 8000790:	f000 f9a8 	bl	8000ae4 <setTimer2>
			blink_dot_status = DOT_ON;
 8000794:	4b05      	ldr	r3, [pc, #20]	; (80007ac <blink_dot+0x88>)
 8000796:	2201      	movs	r2, #1
 8000798:	701a      	strb	r2, [r3, #0]
		break;
 800079a:	e003      	b.n	80007a4 <blink_dot+0x80>
		break;
 800079c:	bf00      	nop
 800079e:	e002      	b.n	80007a6 <blink_dot+0x82>
		break;
 80007a0:	bf00      	nop
 80007a2:	e000      	b.n	80007a6 <blink_dot+0x82>
		break;
 80007a4:	bf00      	nop

	}
}
 80007a6:	bf00      	nop
 80007a8:	bd80      	pop	{r7, pc}
 80007aa:	bf00      	nop
 80007ac:	20000045 	.word	0x20000045
 80007b0:	40010800 	.word	0x40010800
 80007b4:	2000009c 	.word	0x2000009c

080007b8 <scan_led>:

/* Function to scan 4 7-segment led*/
void scan_led(unsigned int* clock_buffer)
{
 80007b8:	b580      	push	{r7, lr}
 80007ba:	b082      	sub	sp, #8
 80007bc:	af00      	add	r7, sp, #0
 80007be:	6078      	str	r0, [r7, #4]
	switch(scan_led_status)
 80007c0:	4b32      	ldr	r3, [pc, #200]	; (800088c <scan_led+0xd4>)
 80007c2:	781b      	ldrb	r3, [r3, #0]
 80007c4:	2b04      	cmp	r3, #4
 80007c6:	d854      	bhi.n	8000872 <scan_led+0xba>
 80007c8:	a201      	add	r2, pc, #4	; (adr r2, 80007d0 <scan_led+0x18>)
 80007ca:	f852 f023 	ldr.w	pc, [r2, r3, lsl #2]
 80007ce:	bf00      	nop
 80007d0:	080007e5 	.word	0x080007e5
 80007d4:	080007fb 	.word	0x080007fb
 80007d8:	08000819 	.word	0x08000819
 80007dc:	08000837 	.word	0x08000837
 80007e0:	08000855 	.word	0x08000855
	{
	case INIT:
		DisplayNumberOnLed(4, clock_buffer);
 80007e4:	6879      	ldr	r1, [r7, #4]
 80007e6:	2004      	movs	r0, #4
 80007e8:	f7ff fe36 	bl	8000458 <DisplayNumberOnLed>
		scan_led_status = LED0;
 80007ec:	4b27      	ldr	r3, [pc, #156]	; (800088c <scan_led+0xd4>)
 80007ee:	2201      	movs	r2, #1
 80007f0:	701a      	strb	r2, [r3, #0]
		setTimer3(ON_TIME);
 80007f2:	20fa      	movs	r0, #250	; 0xfa
 80007f4:	f000 f992 	bl	8000b1c <setTimer3>
		break;
 80007f8:	e044      	b.n	8000884 <scan_led+0xcc>
	case LED0:
		DisplayNumberOnLed(0, clock_buffer);
 80007fa:	6879      	ldr	r1, [r7, #4]
 80007fc:	2000      	movs	r0, #0
 80007fe:	f7ff fe2b 	bl	8000458 <DisplayNumberOnLed>
		if(timer3_flag == 1)
 8000802:	4b23      	ldr	r3, [pc, #140]	; (8000890 <scan_led+0xd8>)
 8000804:	681b      	ldr	r3, [r3, #0]
 8000806:	2b01      	cmp	r3, #1
 8000808:	d135      	bne.n	8000876 <scan_led+0xbe>
		{
			setTimer3(ON_TIME);
 800080a:	20fa      	movs	r0, #250	; 0xfa
 800080c:	f000 f986 	bl	8000b1c <setTimer3>
			scan_led_status = LED1;
 8000810:	4b1e      	ldr	r3, [pc, #120]	; (800088c <scan_led+0xd4>)
 8000812:	2202      	movs	r2, #2
 8000814:	701a      	strb	r2, [r3, #0]
		}
		break;
 8000816:	e02e      	b.n	8000876 <scan_led+0xbe>
	case LED1:
		DisplayNumberOnLed(1, clock_buffer);
 8000818:	6879      	ldr	r1, [r7, #4]
 800081a:	2001      	movs	r0, #1
 800081c:	f7ff fe1c 	bl	8000458 <DisplayNumberOnLed>
		if(timer3_flag == 1)
 8000820:	4b1b      	ldr	r3, [pc, #108]	; (8000890 <scan_led+0xd8>)
 8000822:	681b      	ldr	r3, [r3, #0]
 8000824:	2b01      	cmp	r3, #1
 8000826:	d128      	bne.n	800087a <scan_led+0xc2>
		{
			setTimer3(ON_TIME);
 8000828:	20fa      	movs	r0, #250	; 0xfa
 800082a:	f000 f977 	bl	8000b1c <setTimer3>
			scan_led_status = LED2;
 800082e:	4b17      	ldr	r3, [pc, #92]	; (800088c <scan_led+0xd4>)
 8000830:	2203      	movs	r2, #3
 8000832:	701a      	strb	r2, [r3, #0]
		}
		break;
 8000834:	e021      	b.n	800087a <scan_led+0xc2>
	case LED2:
		DisplayNumberOnLed(2, clock_buffer);
 8000836:	6879      	ldr	r1, [r7, #4]
 8000838:	2002      	movs	r0, #2
 800083a:	f7ff fe0d 	bl	8000458 <DisplayNumberOnLed>
		if(timer3_flag == 1)
 800083e:	4b14      	ldr	r3, [pc, #80]	; (8000890 <scan_led+0xd8>)
 8000840:	681b      	ldr	r3, [r3, #0]
 8000842:	2b01      	cmp	r3, #1
 8000844:	d11b      	bne.n	800087e <scan_led+0xc6>
		{
			setTimer3(ON_TIME);
 8000846:	20fa      	movs	r0, #250	; 0xfa
 8000848:	f000 f968 	bl	8000b1c <setTimer3>
			scan_led_status = LED3;
 800084c:	4b0f      	ldr	r3, [pc, #60]	; (800088c <scan_led+0xd4>)
 800084e:	2204      	movs	r2, #4
 8000850:	701a      	strb	r2, [r3, #0]
		}
		break;
 8000852:	e014      	b.n	800087e <scan_led+0xc6>
	case LED3:
		DisplayNumberOnLed(3, clock_buffer);
 8000854:	6879      	ldr	r1, [r7, #4]
 8000856:	2003      	movs	r0, #3
 8000858:	f7ff fdfe 	bl	8000458 <DisplayNumberOnLed>
		if(timer3_flag == 1)
 800085c:	4b0c      	ldr	r3, [pc, #48]	; (8000890 <scan_led+0xd8>)
 800085e:	681b      	ldr	r3, [r3, #0]
 8000860:	2b01      	cmp	r3, #1
 8000862:	d10e      	bne.n	8000882 <scan_led+0xca>
		{
			setTimer3(ON_TIME);
 8000864:	20fa      	movs	r0, #250	; 0xfa
 8000866:	f000 f959 	bl	8000b1c <setTimer3>
			scan_led_status = LED0;
 800086a:	4b08      	ldr	r3, [pc, #32]	; (800088c <scan_led+0xd4>)
 800086c:	2201      	movs	r2, #1
 800086e:	701a      	strb	r2, [r3, #0]
		}
		break;
 8000870:	e007      	b.n	8000882 <scan_led+0xca>
	default:
		break;
 8000872:	bf00      	nop
 8000874:	e006      	b.n	8000884 <scan_led+0xcc>
		break;
 8000876:	bf00      	nop
 8000878:	e004      	b.n	8000884 <scan_led+0xcc>
		break;
 800087a:	bf00      	nop
 800087c:	e002      	b.n	8000884 <scan_led+0xcc>
		break;
 800087e:	bf00      	nop
 8000880:	e000      	b.n	8000884 <scan_led+0xcc>
		break;
 8000882:	bf00      	nop
	}
}
 8000884:	bf00      	nop
 8000886:	3708      	adds	r7, #8
 8000888:	46bd      	mov	sp, r7
 800088a:	bd80      	pop	{r7, pc}
 800088c:	20000046 	.word	0x20000046
 8000890:	200000a4 	.word	0x200000a4

08000894 <main>:
/**
  * @brief  The application entry point.
  * @retval int
  */
int main(void)
{
 8000894:	b580      	push	{r7, lr}
 8000896:	af00      	add	r7, sp, #0
  /* USER CODE END 1 */

  /* MCU Configuration--------------------------------------------------------*/

  /* Reset of all peripherals, Initializes the Flash interface and the Systick. */
  HAL_Init();
 8000898:	f000 fa72 	bl	8000d80 <HAL_Init>
  /* USER CODE BEGIN Init */

  /* USER CODE END Init */

  /* Configure the system clock */
  SystemClock_Config();
 800089c:	f000 f81a 	bl	80008d4 <SystemClock_Config>
  /* USER CODE BEGIN SysInit */

  /* USER CODE END SysInit */

  /* Initialize all configured peripherals */
  MX_GPIO_Init();
 80008a0:	f000 f8a0 	bl	80009e4 <MX_GPIO_Init>
  MX_TIM2_Init();
 80008a4:	f000 f852 	bl	800094c <MX_TIM2_Init>
  /* USER CODE BEGIN 2 */
  HAL_TIM_Base_Start_IT(& htim2); /*function to initialize the timer*/
 80008a8:	4808      	ldr	r0, [pc, #32]	; (80008cc <main+0x38>)
 80008aa:	f001 f99b 	bl	8001be4 <HAL_TIM_Base_Start_IT>
  /* USER CODE END 2 */

  /* Infinite loop */
  /* USER CODE BEGIN WHILE */
  setTimer4(1000);
 80008ae:	f44f 707a 	mov.w	r0, #1000	; 0x3e8
 80008b2:	f000 f94f 	bl	8000b54 <setTimer4>
  while (1)
  {
	  /*********************************************************************************
	   EXERCISE 05
	  *********************************************************************************/
	  blink_led();
 80008b6:	f7ff feeb 	bl	8000690 <blink_led>
	  blink_dot();
 80008ba:	f7ff ff33 	bl	8000724 <blink_dot>
	  DigitalClock();
 80008be:	f7ff fead 	bl	800061c <DigitalClock>
	  scan_led(clock_buffer);
 80008c2:	4803      	ldr	r0, [pc, #12]	; (80008d0 <main+0x3c>)
 80008c4:	f7ff ff78 	bl	80007b8 <scan_led>
	  blink_led();
 80008c8:	e7f5      	b.n	80008b6 <main+0x22>
 80008ca:	bf00      	nop
 80008cc:	20000048 	.word	0x20000048
 80008d0:	20000034 	.word	0x20000034

080008d4 <SystemClock_Config>:
/**
  * @brief System Clock Configuration
  * @retval None
  */
void SystemClock_Config(void)
{
 80008d4:	b580      	push	{r7, lr}
 80008d6:	b090      	sub	sp, #64	; 0x40
 80008d8:	af00      	add	r7, sp, #0
  RCC_OscInitTypeDef RCC_OscInitStruct = {0};
 80008da:	f107 0318 	add.w	r3, r7, #24
 80008de:	2228      	movs	r2, #40	; 0x28
 80008e0:	2100      	movs	r1, #0
 80008e2:	4618      	mov	r0, r3
 80008e4:	f001 fd3a 	bl	800235c <memset>
  RCC_ClkInitTypeDef RCC_ClkInitStruct = {0};
 80008e8:	1d3b      	adds	r3, r7, #4
 80008ea:	2200      	movs	r2, #0
 80008ec:	601a      	str	r2, [r3, #0]
 80008ee:	605a      	str	r2, [r3, #4]
 80008f0:	609a      	str	r2, [r3, #8]
 80008f2:	60da      	str	r2, [r3, #12]
 80008f4:	611a      	str	r2, [r3, #16]

  /** Initializes the RCC Oscillators according to the specified parameters
  * in the RCC_OscInitTypeDef structure.
  */
  RCC_OscInitStruct.OscillatorType = RCC_OSCILLATORTYPE_HSI;
 80008f6:	2302      	movs	r3, #2
 80008f8:	61bb      	str	r3, [r7, #24]
  RCC_OscInitStruct.HSIState = RCC_HSI_ON;
 80008fa:	2301      	movs	r3, #1
 80008fc:	62bb      	str	r3, [r7, #40]	; 0x28
  RCC_OscInitStruct.HSICalibrationValue = RCC_HSICALIBRATION_DEFAULT;
 80008fe:	2310      	movs	r3, #16
 8000900:	62fb      	str	r3, [r7, #44]	; 0x2c
  RCC_OscInitStruct.PLL.PLLState = RCC_PLL_NONE;
 8000902:	2300      	movs	r3, #0
 8000904:	637b      	str	r3, [r7, #52]	; 0x34
  if (HAL_RCC_OscConfig(&RCC_OscInitStruct) != HAL_OK)
 8000906:	f107 0318 	add.w	r3, r7, #24
 800090a:	4618      	mov	r0, r3
 800090c:	f000 fd3c 	bl	8001388 <HAL_RCC_OscConfig>
 8000910:	4603      	mov	r3, r0
 8000912:	2b00      	cmp	r3, #0
 8000914:	d001      	beq.n	800091a <SystemClock_Config+0x46>
  {
    Error_Handler();
 8000916:	f000 f8c3 	bl	8000aa0 <Error_Handler>
  }

  /** Initializes the CPU, AHB and APB buses clocks
  */
  RCC_ClkInitStruct.ClockType = RCC_CLOCKTYPE_HCLK|RCC_CLOCKTYPE_SYSCLK
 800091a:	230f      	movs	r3, #15
 800091c:	607b      	str	r3, [r7, #4]
                              |RCC_CLOCKTYPE_PCLK1|RCC_CLOCKTYPE_PCLK2;
  RCC_ClkInitStruct.SYSCLKSource = RCC_SYSCLKSOURCE_HSI;
 800091e:	2300      	movs	r3, #0
 8000920:	60bb      	str	r3, [r7, #8]
  RCC_ClkInitStruct.AHBCLKDivider = RCC_SYSCLK_DIV1;
 8000922:	2300      	movs	r3, #0
 8000924:	60fb      	str	r3, [r7, #12]
  RCC_ClkInitStruct.APB1CLKDivider = RCC_HCLK_DIV1;
 8000926:	2300      	movs	r3, #0
 8000928:	613b      	str	r3, [r7, #16]
  RCC_ClkInitStruct.APB2CLKDivider = RCC_HCLK_DIV1;
 800092a:	2300      	movs	r3, #0
 800092c:	617b      	str	r3, [r7, #20]

  if (HAL_RCC_ClockConfig(&RCC_ClkInitStruct, FLASH_LATENCY_0) != HAL_OK)
 800092e:	1d3b      	adds	r3, r7, #4
 8000930:	2100      	movs	r1, #0
 8000932:	4618      	mov	r0, r3
 8000934:	f000 ffaa 	bl	800188c <HAL_RCC_ClockConfig>
 8000938:	4603      	mov	r3, r0
 800093a:	2b00      	cmp	r3, #0
 800093c:	d001      	beq.n	8000942 <SystemClock_Config+0x6e>
  {
    Error_Handler();
 800093e:	f000 f8af 	bl	8000aa0 <Error_Handler>
  }
}
 8000942:	bf00      	nop
 8000944:	3740      	adds	r7, #64	; 0x40
 8000946:	46bd      	mov	sp, r7
 8000948:	bd80      	pop	{r7, pc}
	...

0800094c <MX_TIM2_Init>:
  * @brief TIM2 Initialization Function
  * @param None
  * @retval None
  */
static void MX_TIM2_Init(void)
{
 800094c:	b580      	push	{r7, lr}
 800094e:	b086      	sub	sp, #24
 8000950:	af00      	add	r7, sp, #0

  /* USER CODE BEGIN TIM2_Init 0 */

  /* USER CODE END TIM2_Init 0 */

  TIM_ClockConfigTypeDef sClockSourceConfig = {0};
 8000952:	f107 0308 	add.w	r3, r7, #8
 8000956:	2200      	movs	r2, #0
 8000958:	601a      	str	r2, [r3, #0]
 800095a:	605a      	str	r2, [r3, #4]
 800095c:	609a      	str	r2, [r3, #8]
 800095e:	60da      	str	r2, [r3, #12]
  TIM_MasterConfigTypeDef sMasterConfig = {0};
 8000960:	463b      	mov	r3, r7
 8000962:	2200      	movs	r2, #0
 8000964:	601a      	str	r2, [r3, #0]
 8000966:	605a      	str	r2, [r3, #4]

  /* USER CODE BEGIN TIM2_Init 1 */

  /* USER CODE END TIM2_Init 1 */
  htim2.Instance = TIM2;
 8000968:	4b1d      	ldr	r3, [pc, #116]	; (80009e0 <MX_TIM2_Init+0x94>)
 800096a:	f04f 4280 	mov.w	r2, #1073741824	; 0x40000000
 800096e:	601a      	str	r2, [r3, #0]
  htim2.Init.Prescaler = 7999;
 8000970:	4b1b      	ldr	r3, [pc, #108]	; (80009e0 <MX_TIM2_Init+0x94>)
 8000972:	f641 723f 	movw	r2, #7999	; 0x1f3f
 8000976:	605a      	str	r2, [r3, #4]
  htim2.Init.CounterMode = TIM_COUNTERMODE_UP;
 8000978:	4b19      	ldr	r3, [pc, #100]	; (80009e0 <MX_TIM2_Init+0x94>)
 800097a:	2200      	movs	r2, #0
 800097c:	609a      	str	r2, [r3, #8]
  htim2.Init.Period = 9;
 800097e:	4b18      	ldr	r3, [pc, #96]	; (80009e0 <MX_TIM2_Init+0x94>)
 8000980:	2209      	movs	r2, #9
 8000982:	60da      	str	r2, [r3, #12]
  htim2.Init.ClockDivision = TIM_CLOCKDIVISION_DIV1;
 8000984:	4b16      	ldr	r3, [pc, #88]	; (80009e0 <MX_TIM2_Init+0x94>)
 8000986:	2200      	movs	r2, #0
 8000988:	611a      	str	r2, [r3, #16]
  htim2.Init.AutoReloadPreload = TIM_AUTORELOAD_PRELOAD_DISABLE;
 800098a:	4b15      	ldr	r3, [pc, #84]	; (80009e0 <MX_TIM2_Init+0x94>)
 800098c:	2200      	movs	r2, #0
 800098e:	619a      	str	r2, [r3, #24]
  if (HAL_TIM_Base_Init(&htim2) != HAL_OK)
 8000990:	4813      	ldr	r0, [pc, #76]	; (80009e0 <MX_TIM2_Init+0x94>)
 8000992:	f001 f8d7 	bl	8001b44 <HAL_TIM_Base_Init>
 8000996:	4603      	mov	r3, r0
 8000998:	2b00      	cmp	r3, #0
 800099a:	d001      	beq.n	80009a0 <MX_TIM2_Init+0x54>
  {
    Error_Handler();
 800099c:	f000 f880 	bl	8000aa0 <Error_Handler>
  }
  sClockSourceConfig.ClockSource = TIM_CLOCKSOURCE_INTERNAL;
 80009a0:	f44f 5380 	mov.w	r3, #4096	; 0x1000
 80009a4:	60bb      	str	r3, [r7, #8]
  if (HAL_TIM_ConfigClockSource(&htim2, &sClockSourceConfig) != HAL_OK)
 80009a6:	f107 0308 	add.w	r3, r7, #8
 80009aa:	4619      	mov	r1, r3
 80009ac:	480c      	ldr	r0, [pc, #48]	; (80009e0 <MX_TIM2_Init+0x94>)
 80009ae:	f001 fa6d 	bl	8001e8c <HAL_TIM_ConfigClockSource>
 80009b2:	4603      	mov	r3, r0
 80009b4:	2b00      	cmp	r3, #0
 80009b6:	d001      	beq.n	80009bc <MX_TIM2_Init+0x70>
  {
    Error_Handler();
 80009b8:	f000 f872 	bl	8000aa0 <Error_Handler>
  }
  sMasterConfig.MasterOutputTrigger = TIM_TRGO_RESET;
 80009bc:	2300      	movs	r3, #0
 80009be:	603b      	str	r3, [r7, #0]
  sMasterConfig.MasterSlaveMode = TIM_MASTERSLAVEMODE_DISABLE;
 80009c0:	2300      	movs	r3, #0
 80009c2:	607b      	str	r3, [r7, #4]
  if (HAL_TIMEx_MasterConfigSynchronization(&htim2, &sMasterConfig) != HAL_OK)
 80009c4:	463b      	mov	r3, r7
 80009c6:	4619      	mov	r1, r3
 80009c8:	4805      	ldr	r0, [pc, #20]	; (80009e0 <MX_TIM2_Init+0x94>)
 80009ca:	f001 fc39 	bl	8002240 <HAL_TIMEx_MasterConfigSynchronization>
 80009ce:	4603      	mov	r3, r0
 80009d0:	2b00      	cmp	r3, #0
 80009d2:	d001      	beq.n	80009d8 <MX_TIM2_Init+0x8c>
  {
    Error_Handler();
 80009d4:	f000 f864 	bl	8000aa0 <Error_Handler>
  }
  /* USER CODE BEGIN TIM2_Init 2 */

  /* USER CODE END TIM2_Init 2 */

}
 80009d8:	bf00      	nop
 80009da:	3718      	adds	r7, #24
 80009dc:	46bd      	mov	sp, r7
 80009de:	bd80      	pop	{r7, pc}
 80009e0:	20000048 	.word	0x20000048

080009e4 <MX_GPIO_Init>:
  * @brief GPIO Initialization Function
  * @param None
  * @retval None
  */
static void MX_GPIO_Init(void)
{
 80009e4:	b580      	push	{r7, lr}
 80009e6:	b086      	sub	sp, #24
 80009e8:	af00      	add	r7, sp, #0
  GPIO_InitTypeDef GPIO_InitStruct = {0};
 80009ea:	f107 0308 	add.w	r3, r7, #8
 80009ee:	2200      	movs	r2, #0
 80009f0:	601a      	str	r2, [r3, #0]
 80009f2:	605a      	str	r2, [r3, #4]
 80009f4:	609a      	str	r2, [r3, #8]
 80009f6:	60da      	str	r2, [r3, #12]
/* USER CODE BEGIN MX_GPIO_Init_1 */
/* USER CODE END MX_GPIO_Init_1 */

  /* GPIO Ports Clock Enable */
  __HAL_RCC_GPIOA_CLK_ENABLE();
 80009f8:	4b21      	ldr	r3, [pc, #132]	; (8000a80 <MX_GPIO_Init+0x9c>)
 80009fa:	699b      	ldr	r3, [r3, #24]
 80009fc:	4a20      	ldr	r2, [pc, #128]	; (8000a80 <MX_GPIO_Init+0x9c>)
 80009fe:	f043 0304 	orr.w	r3, r3, #4
 8000a02:	6193      	str	r3, [r2, #24]
 8000a04:	4b1e      	ldr	r3, [pc, #120]	; (8000a80 <MX_GPIO_Init+0x9c>)
 8000a06:	699b      	ldr	r3, [r3, #24]
 8000a08:	f003 0304 	and.w	r3, r3, #4
 8000a0c:	607b      	str	r3, [r7, #4]
 8000a0e:	687b      	ldr	r3, [r7, #4]
  __HAL_RCC_GPIOB_CLK_ENABLE();
 8000a10:	4b1b      	ldr	r3, [pc, #108]	; (8000a80 <MX_GPIO_Init+0x9c>)
 8000a12:	699b      	ldr	r3, [r3, #24]
 8000a14:	4a1a      	ldr	r2, [pc, #104]	; (8000a80 <MX_GPIO_Init+0x9c>)
 8000a16:	f043 0308 	orr.w	r3, r3, #8
 8000a1a:	6193      	str	r3, [r2, #24]
 8000a1c:	4b18      	ldr	r3, [pc, #96]	; (8000a80 <MX_GPIO_Init+0x9c>)
 8000a1e:	699b      	ldr	r3, [r3, #24]
 8000a20:	f003 0308 	and.w	r3, r3, #8
 8000a24:	603b      	str	r3, [r7, #0]
 8000a26:	683b      	ldr	r3, [r7, #0]

  /*Configure GPIO pin Output Level */
  HAL_GPIO_WritePin(GPIOA, DOT_Pin|LED_RED_Pin|EN0_Pin|EN1_Pin
 8000a28:	2200      	movs	r2, #0
 8000a2a:	f44f 717c 	mov.w	r1, #1008	; 0x3f0
 8000a2e:	4815      	ldr	r0, [pc, #84]	; (8000a84 <MX_GPIO_Init+0xa0>)
 8000a30:	f000 fc92 	bl	8001358 <HAL_GPIO_WritePin>
                          |EN2_Pin|EN3_Pin, GPIO_PIN_RESET);

  /*Configure GPIO pin Output Level */
  HAL_GPIO_WritePin(GPIOB, SEG0_Pin|SEG1_Pin|SEG2_Pin|SEG3_Pin
 8000a34:	2200      	movs	r2, #0
 8000a36:	217f      	movs	r1, #127	; 0x7f
 8000a38:	4813      	ldr	r0, [pc, #76]	; (8000a88 <MX_GPIO_Init+0xa4>)
 8000a3a:	f000 fc8d 	bl	8001358 <HAL_GPIO_WritePin>
                          |SEG4_Pin|SEG5_Pin|SEG6_Pin, GPIO_PIN_RESET);

  /*Configure GPIO pins : DOT_Pin LED_RED_Pin EN0_Pin EN1_Pin
                           EN2_Pin EN3_Pin */
  GPIO_InitStruct.Pin = DOT_Pin|LED_RED_Pin|EN0_Pin|EN1_Pin
 8000a3e:	f44f 737c 	mov.w	r3, #1008	; 0x3f0
 8000a42:	60bb      	str	r3, [r7, #8]
                          |EN2_Pin|EN3_Pin;
  GPIO_InitStruct.Mode = GPIO_MODE_OUTPUT_PP;
 8000a44:	2301      	movs	r3, #1
 8000a46:	60fb      	str	r3, [r7, #12]
  GPIO_InitStruct.Pull = GPIO_NOPULL;
 8000a48:	2300      	movs	r3, #0
 8000a4a:	613b      	str	r3, [r7, #16]
  GPIO_InitStruct.Speed = GPIO_SPEED_FREQ_LOW;
 8000a4c:	2302      	movs	r3, #2
 8000a4e:	617b      	str	r3, [r7, #20]
  HAL_GPIO_Init(GPIOA, &GPIO_InitStruct);
 8000a50:	f107 0308 	add.w	r3, r7, #8
 8000a54:	4619      	mov	r1, r3
 8000a56:	480b      	ldr	r0, [pc, #44]	; (8000a84 <MX_GPIO_Init+0xa0>)
 8000a58:	f000 fb02 	bl	8001060 <HAL_GPIO_Init>

  /*Configure GPIO pins : SEG0_Pin SEG1_Pin SEG2_Pin SEG3_Pin
                           SEG4_Pin SEG5_Pin SEG6_Pin */
  GPIO_InitStruct.Pin = SEG0_Pin|SEG1_Pin|SEG2_Pin|SEG3_Pin
 8000a5c:	237f      	movs	r3, #127	; 0x7f
 8000a5e:	60bb      	str	r3, [r7, #8]
                          |SEG4_Pin|SEG5_Pin|SEG6_Pin;
  GPIO_InitStruct.Mode = GPIO_MODE_OUTPUT_PP;
 8000a60:	2301      	movs	r3, #1
 8000a62:	60fb      	str	r3, [r7, #12]
  GPIO_InitStruct.Pull = GPIO_NOPULL;
 8000a64:	2300      	movs	r3, #0
 8000a66:	613b      	str	r3, [r7, #16]
  GPIO_InitStruct.Speed = GPIO_SPEED_FREQ_LOW;
 8000a68:	2302      	movs	r3, #2
 8000a6a:	617b      	str	r3, [r7, #20]
  HAL_GPIO_Init(GPIOB, &GPIO_InitStruct);
 8000a6c:	f107 0308 	add.w	r3, r7, #8
 8000a70:	4619      	mov	r1, r3
 8000a72:	4805      	ldr	r0, [pc, #20]	; (8000a88 <MX_GPIO_Init+0xa4>)
 8000a74:	f000 faf4 	bl	8001060 <HAL_GPIO_Init>

/* USER CODE BEGIN MX_GPIO_Init_2 */
/* USER CODE END MX_GPIO_Init_2 */
}
 8000a78:	bf00      	nop
 8000a7a:	3718      	adds	r7, #24
 8000a7c:	46bd      	mov	sp, r7
 8000a7e:	bd80      	pop	{r7, pc}
 8000a80:	40021000 	.word	0x40021000
 8000a84:	40010800 	.word	0x40010800
 8000a88:	40010c00 	.word	0x40010c00

08000a8c <HAL_TIM_PeriodElapsedCallback>:

/* USER CODE BEGIN 4 */
/*******************************************************
 Interrupt function is called every 10 ms
*******************************************************/
void HAL_TIM_PeriodElapsedCallback(TIM_HandleTypeDef *htim){
 8000a8c:	b580      	push	{r7, lr}
 8000a8e:	b082      	sub	sp, #8
 8000a90:	af00      	add	r7, sp, #0
 8000a92:	6078      	str	r0, [r7, #4]
	timerRun();
 8000a94:	f000 f87a 	bl	8000b8c <timerRun>
}
 8000a98:	bf00      	nop
 8000a9a:	3708      	adds	r7, #8
 8000a9c:	46bd      	mov	sp, r7
 8000a9e:	bd80      	pop	{r7, pc}

08000aa0 <Error_Handler>:
/**
  * @brief  This function is executed in case of error occurrence.
  * @retval None
  */
void Error_Handler(void)
{
 8000aa0:	b480      	push	{r7}
 8000aa2:	af00      	add	r7, sp, #0
  \details Disables IRQ interrupts by setting the I-bit in the CPSR.
           Can only be executed in Privileged modes.
 */
__STATIC_FORCEINLINE void __disable_irq(void)
{
  __ASM volatile ("cpsid i" : : : "memory");
 8000aa4:	b672      	cpsid	i
}
 8000aa6:	bf00      	nop
  /* USER CODE BEGIN Error_Handler_Debug */
  /* User can add his own implementation to report the HAL error return state */
  __disable_irq();
  while (1)
 8000aa8:	e7fe      	b.n	8000aa8 <Error_Handler+0x8>
	...

08000aac <setTimer1>:
 */
#include "software_timer.h"
int timer1_counter = 0;
int timer1_flag = 0;

void setTimer1(int duration){
 8000aac:	b480      	push	{r7}
 8000aae:	b083      	sub	sp, #12
 8000ab0:	af00      	add	r7, sp, #0
 8000ab2:	6078      	str	r0, [r7, #4]
	timer1_counter = duration/TICK;
 8000ab4:	687b      	ldr	r3, [r7, #4]
 8000ab6:	4a08      	ldr	r2, [pc, #32]	; (8000ad8 <setTimer1+0x2c>)
 8000ab8:	fb82 1203 	smull	r1, r2, r2, r3
 8000abc:	1092      	asrs	r2, r2, #2
 8000abe:	17db      	asrs	r3, r3, #31
 8000ac0:	1ad3      	subs	r3, r2, r3
 8000ac2:	4a06      	ldr	r2, [pc, #24]	; (8000adc <setTimer1+0x30>)
 8000ac4:	6013      	str	r3, [r2, #0]
	timer1_flag = 0;
 8000ac6:	4b06      	ldr	r3, [pc, #24]	; (8000ae0 <setTimer1+0x34>)
 8000ac8:	2200      	movs	r2, #0
 8000aca:	601a      	str	r2, [r3, #0]
}
 8000acc:	bf00      	nop
 8000ace:	370c      	adds	r7, #12
 8000ad0:	46bd      	mov	sp, r7
 8000ad2:	bc80      	pop	{r7}
 8000ad4:	4770      	bx	lr
 8000ad6:	bf00      	nop
 8000ad8:	66666667 	.word	0x66666667
 8000adc:	20000090 	.word	0x20000090
 8000ae0:	20000094 	.word	0x20000094

08000ae4 <setTimer2>:

int timer2_counter = 0;
int timer2_flag = 0;
void setTimer2(int duration)
{
 8000ae4:	b480      	push	{r7}
 8000ae6:	b083      	sub	sp, #12
 8000ae8:	af00      	add	r7, sp, #0
 8000aea:	6078      	str	r0, [r7, #4]
	timer2_counter = duration/TICK;
 8000aec:	687b      	ldr	r3, [r7, #4]
 8000aee:	4a08      	ldr	r2, [pc, #32]	; (8000b10 <setTimer2+0x2c>)
 8000af0:	fb82 1203 	smull	r1, r2, r2, r3
 8000af4:	1092      	asrs	r2, r2, #2
 8000af6:	17db      	asrs	r3, r3, #31
 8000af8:	1ad3      	subs	r3, r2, r3
 8000afa:	4a06      	ldr	r2, [pc, #24]	; (8000b14 <setTimer2+0x30>)
 8000afc:	6013      	str	r3, [r2, #0]
	timer2_flag = 0;
 8000afe:	4b06      	ldr	r3, [pc, #24]	; (8000b18 <setTimer2+0x34>)
 8000b00:	2200      	movs	r2, #0
 8000b02:	601a      	str	r2, [r3, #0]
}
 8000b04:	bf00      	nop
 8000b06:	370c      	adds	r7, #12
 8000b08:	46bd      	mov	sp, r7
 8000b0a:	bc80      	pop	{r7}
 8000b0c:	4770      	bx	lr
 8000b0e:	bf00      	nop
 8000b10:	66666667 	.word	0x66666667
 8000b14:	20000098 	.word	0x20000098
 8000b18:	2000009c 	.word	0x2000009c

08000b1c <setTimer3>:

int timer3_counter = 0;
int timer3_flag = 0;
void setTimer3(int duration)
{
 8000b1c:	b480      	push	{r7}
 8000b1e:	b083      	sub	sp, #12
 8000b20:	af00      	add	r7, sp, #0
 8000b22:	6078      	str	r0, [r7, #4]
	timer3_counter = duration/TICK;
 8000b24:	687b      	ldr	r3, [r7, #4]
 8000b26:	4a08      	ldr	r2, [pc, #32]	; (8000b48 <setTimer3+0x2c>)
 8000b28:	fb82 1203 	smull	r1, r2, r2, r3
 8000b2c:	1092      	asrs	r2, r2, #2
 8000b2e:	17db      	asrs	r3, r3, #31
 8000b30:	1ad3      	subs	r3, r2, r3
 8000b32:	4a06      	ldr	r2, [pc, #24]	; (8000b4c <setTimer3+0x30>)
 8000b34:	6013      	str	r3, [r2, #0]
	timer3_flag = 0;
 8000b36:	4b06      	ldr	r3, [pc, #24]	; (8000b50 <setTimer3+0x34>)
 8000b38:	2200      	movs	r2, #0
 8000b3a:	601a      	str	r2, [r3, #0]
}
 8000b3c:	bf00      	nop
 8000b3e:	370c      	adds	r7, #12
 8000b40:	46bd      	mov	sp, r7
 8000b42:	bc80      	pop	{r7}
 8000b44:	4770      	bx	lr
 8000b46:	bf00      	nop
 8000b48:	66666667 	.word	0x66666667
 8000b4c:	200000a0 	.word	0x200000a0
 8000b50:	200000a4 	.word	0x200000a4

08000b54 <setTimer4>:
 SOFTWARE TIMER 4
*********************************************************/
int timer4_counter = 0;
int timer4_flag = 0;
void setTimer4(int duration)
{
 8000b54:	b480      	push	{r7}
 8000b56:	b083      	sub	sp, #12
 8000b58:	af00      	add	r7, sp, #0
 8000b5a:	6078      	str	r0, [r7, #4]
	timer4_counter = duration/TICK;
 8000b5c:	687b      	ldr	r3, [r7, #4]
 8000b5e:	4a08      	ldr	r2, [pc, #32]	; (8000b80 <setTimer4+0x2c>)
 8000b60:	fb82 1203 	smull	r1, r2, r2, r3
 8000b64:	1092      	asrs	r2, r2, #2
 8000b66:	17db      	asrs	r3, r3, #31
 8000b68:	1ad3      	subs	r3, r2, r3
 8000b6a:	4a06      	ldr	r2, [pc, #24]	; (8000b84 <setTimer4+0x30>)
 8000b6c:	6013      	str	r3, [r2, #0]
	timer4_flag = 0;
 8000b6e:	4b06      	ldr	r3, [pc, #24]	; (8000b88 <setTimer4+0x34>)
 8000b70:	2200      	movs	r2, #0
 8000b72:	601a      	str	r2, [r3, #0]
}
 8000b74:	bf00      	nop
 8000b76:	370c      	adds	r7, #12
 8000b78:	46bd      	mov	sp, r7
 8000b7a:	bc80      	pop	{r7}
 8000b7c:	4770      	bx	lr
 8000b7e:	bf00      	nop
 8000b80:	66666667 	.word	0x66666667
 8000b84:	200000a8 	.word	0x200000a8
 8000b88:	200000ac 	.word	0x200000ac

08000b8c <timerRun>:

/*********************************************************
 CONTROL TIMER
*********************************************************/
void timerRun(){
 8000b8c:	b480      	push	{r7}
 8000b8e:	af00      	add	r7, sp, #0
	if(timer1_counter > 0){
 8000b90:	4b21      	ldr	r3, [pc, #132]	; (8000c18 <timerRun+0x8c>)
 8000b92:	681b      	ldr	r3, [r3, #0]
 8000b94:	2b00      	cmp	r3, #0
 8000b96:	dd0b      	ble.n	8000bb0 <timerRun+0x24>
		timer1_counter--;
 8000b98:	4b1f      	ldr	r3, [pc, #124]	; (8000c18 <timerRun+0x8c>)
 8000b9a:	681b      	ldr	r3, [r3, #0]
 8000b9c:	3b01      	subs	r3, #1
 8000b9e:	4a1e      	ldr	r2, [pc, #120]	; (8000c18 <timerRun+0x8c>)
 8000ba0:	6013      	str	r3, [r2, #0]
		if(timer1_counter <= 0){
 8000ba2:	4b1d      	ldr	r3, [pc, #116]	; (8000c18 <timerRun+0x8c>)
 8000ba4:	681b      	ldr	r3, [r3, #0]
 8000ba6:	2b00      	cmp	r3, #0
 8000ba8:	dc02      	bgt.n	8000bb0 <timerRun+0x24>
			timer1_flag = 1;
 8000baa:	4b1c      	ldr	r3, [pc, #112]	; (8000c1c <timerRun+0x90>)
 8000bac:	2201      	movs	r2, #1
 8000bae:	601a      	str	r2, [r3, #0]
		}
	}
	if(timer2_counter > 0)
 8000bb0:	4b1b      	ldr	r3, [pc, #108]	; (8000c20 <timerRun+0x94>)
 8000bb2:	681b      	ldr	r3, [r3, #0]
 8000bb4:	2b00      	cmp	r3, #0
 8000bb6:	dd0b      	ble.n	8000bd0 <timerRun+0x44>
	{
		timer2_counter--;
 8000bb8:	4b19      	ldr	r3, [pc, #100]	; (8000c20 <timerRun+0x94>)
 8000bba:	681b      	ldr	r3, [r3, #0]
 8000bbc:	3b01      	subs	r3, #1
 8000bbe:	4a18      	ldr	r2, [pc, #96]	; (8000c20 <timerRun+0x94>)
 8000bc0:	6013      	str	r3, [r2, #0]
		if(timer2_counter <= 0)
 8000bc2:	4b17      	ldr	r3, [pc, #92]	; (8000c20 <timerRun+0x94>)
 8000bc4:	681b      	ldr	r3, [r3, #0]
 8000bc6:	2b00      	cmp	r3, #0
 8000bc8:	dc02      	bgt.n	8000bd0 <timerRun+0x44>
		{
			timer2_flag = 1;
 8000bca:	4b16      	ldr	r3, [pc, #88]	; (8000c24 <timerRun+0x98>)
 8000bcc:	2201      	movs	r2, #1
 8000bce:	601a      	str	r2, [r3, #0]
		}
	}
	if(timer3_counter > 0)
 8000bd0:	4b15      	ldr	r3, [pc, #84]	; (8000c28 <timerRun+0x9c>)
 8000bd2:	681b      	ldr	r3, [r3, #0]
 8000bd4:	2b00      	cmp	r3, #0
 8000bd6:	dd0b      	ble.n	8000bf0 <timerRun+0x64>
	{
		timer3_counter--;
 8000bd8:	4b13      	ldr	r3, [pc, #76]	; (8000c28 <timerRun+0x9c>)
 8000bda:	681b      	ldr	r3, [r3, #0]
 8000bdc:	3b01      	subs	r3, #1
 8000bde:	4a12      	ldr	r2, [pc, #72]	; (8000c28 <timerRun+0x9c>)
 8000be0:	6013      	str	r3, [r2, #0]
		if(timer3_counter <= 0)
 8000be2:	4b11      	ldr	r3, [pc, #68]	; (8000c28 <timerRun+0x9c>)
 8000be4:	681b      	ldr	r3, [r3, #0]
 8000be6:	2b00      	cmp	r3, #0
 8000be8:	dc02      	bgt.n	8000bf0 <timerRun+0x64>
		{
			timer3_flag = 1;
 8000bea:	4b10      	ldr	r3, [pc, #64]	; (8000c2c <timerRun+0xa0>)
 8000bec:	2201      	movs	r2, #1
 8000bee:	601a      	str	r2, [r3, #0]
		}
	}
	if(timer4_counter > 0)
 8000bf0:	4b0f      	ldr	r3, [pc, #60]	; (8000c30 <timerRun+0xa4>)
 8000bf2:	681b      	ldr	r3, [r3, #0]
 8000bf4:	2b00      	cmp	r3, #0
 8000bf6:	dd0b      	ble.n	8000c10 <timerRun+0x84>
	{
		timer4_counter--;
 8000bf8:	4b0d      	ldr	r3, [pc, #52]	; (8000c30 <timerRun+0xa4>)
 8000bfa:	681b      	ldr	r3, [r3, #0]
 8000bfc:	3b01      	subs	r3, #1
 8000bfe:	4a0c      	ldr	r2, [pc, #48]	; (8000c30 <timerRun+0xa4>)
 8000c00:	6013      	str	r3, [r2, #0]
		if(timer4_counter <= 0)
 8000c02:	4b0b      	ldr	r3, [pc, #44]	; (8000c30 <timerRun+0xa4>)
 8000c04:	681b      	ldr	r3, [r3, #0]
 8000c06:	2b00      	cmp	r3, #0
 8000c08:	dc02      	bgt.n	8000c10 <timerRun+0x84>
		{
			timer4_flag = 1;
 8000c0a:	4b0a      	ldr	r3, [pc, #40]	; (8000c34 <timerRun+0xa8>)
 8000c0c:	2201      	movs	r2, #1
 8000c0e:	601a      	str	r2, [r3, #0]
		}
	}
}
 8000c10:	bf00      	nop
 8000c12:	46bd      	mov	sp, r7
 8000c14:	bc80      	pop	{r7}
 8000c16:	4770      	bx	lr
 8000c18:	20000090 	.word	0x20000090
 8000c1c:	20000094 	.word	0x20000094
 8000c20:	20000098 	.word	0x20000098
 8000c24:	2000009c 	.word	0x2000009c
 8000c28:	200000a0 	.word	0x200000a0
 8000c2c:	200000a4 	.word	0x200000a4
 8000c30:	200000a8 	.word	0x200000a8
 8000c34:	200000ac 	.word	0x200000ac

08000c38 <HAL_MspInit>:
/* USER CODE END 0 */
/**
  * Initializes the Global MSP.
  */
void HAL_MspInit(void)
{
 8000c38:	b480      	push	{r7}
 8000c3a:	b083      	sub	sp, #12
 8000c3c:	af00      	add	r7, sp, #0
  /* USER CODE BEGIN MspInit 0 */

  /* USER CODE END MspInit 0 */

  __HAL_RCC_AFIO_CLK_ENABLE();
 8000c3e:	4b0e      	ldr	r3, [pc, #56]	; (8000c78 <HAL_MspInit+0x40>)
 8000c40:	699b      	ldr	r3, [r3, #24]
 8000c42:	4a0d      	ldr	r2, [pc, #52]	; (8000c78 <HAL_MspInit+0x40>)
 8000c44:	f043 0301 	orr.w	r3, r3, #1
 8000c48:	6193      	str	r3, [r2, #24]
 8000c4a:	4b0b      	ldr	r3, [pc, #44]	; (8000c78 <HAL_MspInit+0x40>)
 8000c4c:	699b      	ldr	r3, [r3, #24]
 8000c4e:	f003 0301 	and.w	r3, r3, #1
 8000c52:	607b      	str	r3, [r7, #4]
 8000c54:	687b      	ldr	r3, [r7, #4]
  __HAL_RCC_PWR_CLK_ENABLE();
 8000c56:	4b08      	ldr	r3, [pc, #32]	; (8000c78 <HAL_MspInit+0x40>)
 8000c58:	69db      	ldr	r3, [r3, #28]
 8000c5a:	4a07      	ldr	r2, [pc, #28]	; (8000c78 <HAL_MspInit+0x40>)
 8000c5c:	f043 5380 	orr.w	r3, r3, #268435456	; 0x10000000
 8000c60:	61d3      	str	r3, [r2, #28]
 8000c62:	4b05      	ldr	r3, [pc, #20]	; (8000c78 <HAL_MspInit+0x40>)
 8000c64:	69db      	ldr	r3, [r3, #28]
 8000c66:	f003 5380 	and.w	r3, r3, #268435456	; 0x10000000
 8000c6a:	603b      	str	r3, [r7, #0]
 8000c6c:	683b      	ldr	r3, [r7, #0]
  /* System interrupt init*/

  /* USER CODE BEGIN MspInit 1 */

  /* USER CODE END MspInit 1 */
}
 8000c6e:	bf00      	nop
 8000c70:	370c      	adds	r7, #12
 8000c72:	46bd      	mov	sp, r7
 8000c74:	bc80      	pop	{r7}
 8000c76:	4770      	bx	lr
 8000c78:	40021000 	.word	0x40021000

08000c7c <HAL_TIM_Base_MspInit>:
* This function configures the hardware resources used in this example
* @param htim_base: TIM_Base handle pointer
* @retval None
*/
void HAL_TIM_Base_MspInit(TIM_HandleTypeDef* htim_base)
{
 8000c7c:	b580      	push	{r7, lr}
 8000c7e:	b084      	sub	sp, #16
 8000c80:	af00      	add	r7, sp, #0
 8000c82:	6078      	str	r0, [r7, #4]
  if(htim_base->Instance==TIM2)
 8000c84:	687b      	ldr	r3, [r7, #4]
 8000c86:	681b      	ldr	r3, [r3, #0]
 8000c88:	f1b3 4f80 	cmp.w	r3, #1073741824	; 0x40000000
 8000c8c:	d113      	bne.n	8000cb6 <HAL_TIM_Base_MspInit+0x3a>
  {
  /* USER CODE BEGIN TIM2_MspInit 0 */

  /* USER CODE END TIM2_MspInit 0 */
    /* Peripheral clock enable */
    __HAL_RCC_TIM2_CLK_ENABLE();
 8000c8e:	4b0c      	ldr	r3, [pc, #48]	; (8000cc0 <HAL_TIM_Base_MspInit+0x44>)
 8000c90:	69db      	ldr	r3, [r3, #28]
 8000c92:	4a0b      	ldr	r2, [pc, #44]	; (8000cc0 <HAL_TIM_Base_MspInit+0x44>)
 8000c94:	f043 0301 	orr.w	r3, r3, #1
 8000c98:	61d3      	str	r3, [r2, #28]
 8000c9a:	4b09      	ldr	r3, [pc, #36]	; (8000cc0 <HAL_TIM_Base_MspInit+0x44>)
 8000c9c:	69db      	ldr	r3, [r3, #28]
 8000c9e:	f003 0301 	and.w	r3, r3, #1
 8000ca2:	60fb      	str	r3, [r7, #12]
 8000ca4:	68fb      	ldr	r3, [r7, #12]
    /* TIM2 interrupt Init */
    HAL_NVIC_SetPriority(TIM2_IRQn, 0, 0);
 8000ca6:	2200      	movs	r2, #0
 8000ca8:	2100      	movs	r1, #0
 8000caa:	201c      	movs	r0, #28
 8000cac:	f000 f9a1 	bl	8000ff2 <HAL_NVIC_SetPriority>
    HAL_NVIC_EnableIRQ(TIM2_IRQn);
 8000cb0:	201c      	movs	r0, #28
 8000cb2:	f000 f9ba 	bl	800102a <HAL_NVIC_EnableIRQ>
  /* USER CODE BEGIN TIM2_MspInit 1 */

  /* USER CODE END TIM2_MspInit 1 */
  }

}
 8000cb6:	bf00      	nop
 8000cb8:	3710      	adds	r7, #16
 8000cba:	46bd      	mov	sp, r7
 8000cbc:	bd80      	pop	{r7, pc}
 8000cbe:	bf00      	nop
 8000cc0:	40021000 	.word	0x40021000

08000cc4 <NMI_Handler>:
/******************************************************************************/
/**
  * @brief This function handles Non maskable interrupt.
  */
void NMI_Handler(void)
{
 8000cc4:	b480      	push	{r7}
 8000cc6:	af00      	add	r7, sp, #0
  /* USER CODE BEGIN NonMaskableInt_IRQn 0 */

  /* USER CODE END NonMaskableInt_IRQn 0 */
  /* USER CODE BEGIN NonMaskableInt_IRQn 1 */
  while (1)
 8000cc8:	e7fe      	b.n	8000cc8 <NMI_Handler+0x4>

08000cca <HardFault_Handler>:

/**
  * @brief This function handles Hard fault interrupt.
  */
void HardFault_Handler(void)
{
 8000cca:	b480      	push	{r7}
 8000ccc:	af00      	add	r7, sp, #0
  /* USER CODE BEGIN HardFault_IRQn 0 */

  /* USER CODE END HardFault_IRQn 0 */
  while (1)
 8000cce:	e7fe      	b.n	8000cce <HardFault_Handler+0x4>

08000cd0 <MemManage_Handler>:

/**
  * @brief This function handles Memory management fault.
  */
void MemManage_Handler(void)
{
 8000cd0:	b480      	push	{r7}
 8000cd2:	af00      	add	r7, sp, #0
  /* USER CODE BEGIN MemoryManagement_IRQn 0 */

  /* USER CODE END MemoryManagement_IRQn 0 */
  while (1)
 8000cd4:	e7fe      	b.n	8000cd4 <MemManage_Handler+0x4>

08000cd6 <BusFault_Handler>:

/**
  * @brief This function handles Prefetch fault, memory access fault.
  */
void BusFault_Handler(void)
{
 8000cd6:	b480      	push	{r7}
 8000cd8:	af00      	add	r7, sp, #0
  /* USER CODE BEGIN BusFault_IRQn 0 */

  /* USER CODE END BusFault_IRQn 0 */
  while (1)
 8000cda:	e7fe      	b.n	8000cda <BusFault_Handler+0x4>

08000cdc <UsageFault_Handler>:

/**
  * @brief This function handles Undefined instruction or illegal state.
  */
void UsageFault_Handler(void)
{
 8000cdc:	b480      	push	{r7}
 8000cde:	af00      	add	r7, sp, #0
  /* USER CODE BEGIN UsageFault_IRQn 0 */

  /* USER CODE END UsageFault_IRQn 0 */
  while (1)
 8000ce0:	e7fe      	b.n	8000ce0 <UsageFault_Handler+0x4>

08000ce2 <SVC_Handler>:

/**
  * @brief This function handles System service call via SWI instruction.
  */
void SVC_Handler(void)
{
 8000ce2:	b480      	push	{r7}
 8000ce4:	af00      	add	r7, sp, #0

  /* USER CODE END SVCall_IRQn 0 */
  /* USER CODE BEGIN SVCall_IRQn 1 */

  /* USER CODE END SVCall_IRQn 1 */
}
 8000ce6:	bf00      	nop
 8000ce8:	46bd      	mov	sp, r7
 8000cea:	bc80      	pop	{r7}
 8000cec:	4770      	bx	lr

08000cee <DebugMon_Handler>:

/**
  * @brief This function handles Debug monitor.
  */
void DebugMon_Handler(void)
{
 8000cee:	b480      	push	{r7}
 8000cf0:	af00      	add	r7, sp, #0

  /* USER CODE END DebugMonitor_IRQn 0 */
  /* USER CODE BEGIN DebugMonitor_IRQn 1 */

  /* USER CODE END DebugMonitor_IRQn 1 */
}
 8000cf2:	bf00      	nop
 8000cf4:	46bd      	mov	sp, r7
 8000cf6:	bc80      	pop	{r7}
 8000cf8:	4770      	bx	lr

08000cfa <PendSV_Handler>:

/**
  * @brief This function handles Pendable request for system service.
  */
void PendSV_Handler(void)
{
 8000cfa:	b480      	push	{r7}
 8000cfc:	af00      	add	r7, sp, #0

  /* USER CODE END PendSV_IRQn 0 */
  /* USER CODE BEGIN PendSV_IRQn 1 */

  /* USER CODE END PendSV_IRQn 1 */
}
 8000cfe:	bf00      	nop
 8000d00:	46bd      	mov	sp, r7
 8000d02:	bc80      	pop	{r7}
 8000d04:	4770      	bx	lr

08000d06 <SysTick_Handler>:

/**
  * @brief This function handles System tick timer.
  */
void SysTick_Handler(void)
{
 8000d06:	b580      	push	{r7, lr}
 8000d08:	af00      	add	r7, sp, #0
  /* USER CODE BEGIN SysTick_IRQn 0 */

  /* USER CODE END SysTick_IRQn 0 */
  HAL_IncTick();
 8000d0a:	f000 f87f 	bl	8000e0c <HAL_IncTick>
  /* USER CODE BEGIN SysTick_IRQn 1 */

  /* USER CODE END SysTick_IRQn 1 */
}
 8000d0e:	bf00      	nop
 8000d10:	bd80      	pop	{r7, pc}
	...

08000d14 <TIM2_IRQHandler>:

/**
  * @brief This function handles TIM2 global interrupt.
  */
void TIM2_IRQHandler(void)
{
 8000d14:	b580      	push	{r7, lr}
 8000d16:	af00      	add	r7, sp, #0
  /* USER CODE BEGIN TIM2_IRQn 0 */

  /* USER CODE END TIM2_IRQn 0 */
  HAL_TIM_IRQHandler(&htim2);
 8000d18:	4802      	ldr	r0, [pc, #8]	; (8000d24 <TIM2_IRQHandler+0x10>)
 8000d1a:	f000 ffaf 	bl	8001c7c <HAL_TIM_IRQHandler>
  /* USER CODE BEGIN TIM2_IRQn 1 */

  /* USER CODE END TIM2_IRQn 1 */
}
 8000d1e:	bf00      	nop
 8000d20:	bd80      	pop	{r7, pc}
 8000d22:	bf00      	nop
 8000d24:	20000048 	.word	0x20000048

08000d28 <SystemInit>:
  * @note   This function should be used only after reset.
  * @param  None
  * @retval None
  */
void SystemInit (void)
{
 8000d28:	b480      	push	{r7}
 8000d2a:	af00      	add	r7, sp, #0

  /* Configure the Vector Table location -------------------------------------*/
#if defined(USER_VECT_TAB_ADDRESS)
  SCB->VTOR = VECT_TAB_BASE_ADDRESS | VECT_TAB_OFFSET; /* Vector Table Relocation in Internal SRAM. */
#endif /* USER_VECT_TAB_ADDRESS */
}
 8000d2c:	bf00      	nop
 8000d2e:	46bd      	mov	sp, r7
 8000d30:	bc80      	pop	{r7}
 8000d32:	4770      	bx	lr

08000d34 <Reset_Handler>:
  .weak Reset_Handler
  .type Reset_Handler, %function
Reset_Handler:

/* Call the clock system initialization function.*/
    bl  SystemInit
 8000d34:	f7ff fff8 	bl	8000d28 <SystemInit>

/* Copy the data segment initializers from flash to SRAM */
  ldr r0, =_sdata
 8000d38:	480b      	ldr	r0, [pc, #44]	; (8000d68 <LoopFillZerobss+0xe>)
  ldr r1, =_edata
 8000d3a:	490c      	ldr	r1, [pc, #48]	; (8000d6c <LoopFillZerobss+0x12>)
  ldr r2, =_sidata
 8000d3c:	4a0c      	ldr	r2, [pc, #48]	; (8000d70 <LoopFillZerobss+0x16>)
  movs r3, #0
 8000d3e:	2300      	movs	r3, #0
  b LoopCopyDataInit
 8000d40:	e002      	b.n	8000d48 <LoopCopyDataInit>

08000d42 <CopyDataInit>:

CopyDataInit:
  ldr r4, [r2, r3]
 8000d42:	58d4      	ldr	r4, [r2, r3]
  str r4, [r0, r3]
 8000d44:	50c4      	str	r4, [r0, r3]
  adds r3, r3, #4
 8000d46:	3304      	adds	r3, #4

08000d48 <LoopCopyDataInit>:

LoopCopyDataInit:
  adds r4, r0, r3
 8000d48:	18c4      	adds	r4, r0, r3
  cmp r4, r1
 8000d4a:	428c      	cmp	r4, r1
  bcc CopyDataInit
 8000d4c:	d3f9      	bcc.n	8000d42 <CopyDataInit>
  
/* Zero fill the bss segment. */
  ldr r2, =_sbss
 8000d4e:	4a09      	ldr	r2, [pc, #36]	; (8000d74 <LoopFillZerobss+0x1a>)
  ldr r4, =_ebss
 8000d50:	4c09      	ldr	r4, [pc, #36]	; (8000d78 <LoopFillZerobss+0x1e>)
  movs r3, #0
 8000d52:	2300      	movs	r3, #0
  b LoopFillZerobss
 8000d54:	e001      	b.n	8000d5a <LoopFillZerobss>

08000d56 <FillZerobss>:

FillZerobss:
  str  r3, [r2]
 8000d56:	6013      	str	r3, [r2, #0]
  adds r2, r2, #4
 8000d58:	3204      	adds	r2, #4

08000d5a <LoopFillZerobss>:

LoopFillZerobss:
  cmp r2, r4
 8000d5a:	42a2      	cmp	r2, r4
  bcc FillZerobss
 8000d5c:	d3fb      	bcc.n	8000d56 <FillZerobss>

/* Call static constructors */
    bl __libc_init_array
 8000d5e:	f001 fad9 	bl	8002314 <__libc_init_array>
/* Call the application's entry point.*/
  bl main
 8000d62:	f7ff fd97 	bl	8000894 <main>
  bx lr
 8000d66:	4770      	bx	lr
  ldr r0, =_sdata
 8000d68:	20000000 	.word	0x20000000
  ldr r1, =_edata
 8000d6c:	20000018 	.word	0x20000018
  ldr r2, =_sidata
 8000d70:	080023b0 	.word	0x080023b0
  ldr r2, =_sbss
 8000d74:	20000018 	.word	0x20000018
  ldr r4, =_ebss
 8000d78:	200000b4 	.word	0x200000b4

08000d7c <ADC1_2_IRQHandler>:
 * @retval : None
*/
    .section .text.Default_Handler,"ax",%progbits
Default_Handler:
Infinite_Loop:
  b Infinite_Loop
 8000d7c:	e7fe      	b.n	8000d7c <ADC1_2_IRQHandler>
	...

08000d80 <HAL_Init>:
  *         need to ensure that the SysTick time base is always set to 1 millisecond
  *         to have correct HAL operation.
  * @retval HAL status
  */
HAL_StatusTypeDef HAL_Init(void)
{
 8000d80:	b580      	push	{r7, lr}
 8000d82:	af00      	add	r7, sp, #0
    defined(STM32F102x6) || defined(STM32F102xB) || \
    defined(STM32F103x6) || defined(STM32F103xB) || defined(STM32F103xE) || defined(STM32F103xG) || \
    defined(STM32F105xC) || defined(STM32F107xC)

  /* Prefetch buffer is not available on value line devices */
  __HAL_FLASH_PREFETCH_BUFFER_ENABLE();
 8000d84:	4b08      	ldr	r3, [pc, #32]	; (8000da8 <HAL_Init+0x28>)
 8000d86:	681b      	ldr	r3, [r3, #0]
 8000d88:	4a07      	ldr	r2, [pc, #28]	; (8000da8 <HAL_Init+0x28>)
 8000d8a:	f043 0310 	orr.w	r3, r3, #16
 8000d8e:	6013      	str	r3, [r2, #0]
#endif
#endif /* PREFETCH_ENABLE */

  /* Set Interrupt Group Priority */
  HAL_NVIC_SetPriorityGrouping(NVIC_PRIORITYGROUP_4);
 8000d90:	2003      	movs	r0, #3
 8000d92:	f000 f923 	bl	8000fdc <HAL_NVIC_SetPriorityGrouping>

  /* Use systick as time base source and configure 1ms tick (default clock after Reset is HSI) */
  HAL_InitTick(TICK_INT_PRIORITY);
 8000d96:	200f      	movs	r0, #15
 8000d98:	f000 f808 	bl	8000dac <HAL_InitTick>

  /* Init the low level hardware */
  HAL_MspInit();
 8000d9c:	f7ff ff4c 	bl	8000c38 <HAL_MspInit>

  /* Return function status */
  return HAL_OK;
 8000da0:	2300      	movs	r3, #0
}
 8000da2:	4618      	mov	r0, r3
 8000da4:	bd80      	pop	{r7, pc}
 8000da6:	bf00      	nop
 8000da8:	40022000 	.word	0x40022000

08000dac <HAL_InitTick>:
  *       implementation  in user file.
  * @param TickPriority Tick interrupt priority.
  * @retval HAL status
  */
__weak HAL_StatusTypeDef HAL_InitTick(uint32_t TickPriority)
{
 8000dac:	b580      	push	{r7, lr}
 8000dae:	b082      	sub	sp, #8
 8000db0:	af00      	add	r7, sp, #0
 8000db2:	6078      	str	r0, [r7, #4]
  /* Configure the SysTick to have interrupt in 1ms time basis*/
  if (HAL_SYSTICK_Config(SystemCoreClock / (1000U / uwTickFreq)) > 0U)
 8000db4:	4b12      	ldr	r3, [pc, #72]	; (8000e00 <HAL_InitTick+0x54>)
 8000db6:	681a      	ldr	r2, [r3, #0]
 8000db8:	4b12      	ldr	r3, [pc, #72]	; (8000e04 <HAL_InitTick+0x58>)
 8000dba:	781b      	ldrb	r3, [r3, #0]
 8000dbc:	4619      	mov	r1, r3
 8000dbe:	f44f 737a 	mov.w	r3, #1000	; 0x3e8
 8000dc2:	fbb3 f3f1 	udiv	r3, r3, r1
 8000dc6:	fbb2 f3f3 	udiv	r3, r2, r3
 8000dca:	4618      	mov	r0, r3
 8000dcc:	f000 f93b 	bl	8001046 <HAL_SYSTICK_Config>
 8000dd0:	4603      	mov	r3, r0
 8000dd2:	2b00      	cmp	r3, #0
 8000dd4:	d001      	beq.n	8000dda <HAL_InitTick+0x2e>
  {
    return HAL_ERROR;
 8000dd6:	2301      	movs	r3, #1
 8000dd8:	e00e      	b.n	8000df8 <HAL_InitTick+0x4c>
  }

  /* Configure the SysTick IRQ priority */
  if (TickPriority < (1UL << __NVIC_PRIO_BITS))
 8000dda:	687b      	ldr	r3, [r7, #4]
 8000ddc:	2b0f      	cmp	r3, #15
 8000dde:	d80a      	bhi.n	8000df6 <HAL_InitTick+0x4a>
  {
    HAL_NVIC_SetPriority(SysTick_IRQn, TickPriority, 0U);
 8000de0:	2200      	movs	r2, #0
 8000de2:	6879      	ldr	r1, [r7, #4]
 8000de4:	f04f 30ff 	mov.w	r0, #4294967295
 8000de8:	f000 f903 	bl	8000ff2 <HAL_NVIC_SetPriority>
    uwTickPrio = TickPriority;
 8000dec:	4a06      	ldr	r2, [pc, #24]	; (8000e08 <HAL_InitTick+0x5c>)
 8000dee:	687b      	ldr	r3, [r7, #4]
 8000df0:	6013      	str	r3, [r2, #0]
  {
    return HAL_ERROR;
  }

  /* Return function status */
  return HAL_OK;
 8000df2:	2300      	movs	r3, #0
 8000df4:	e000      	b.n	8000df8 <HAL_InitTick+0x4c>
    return HAL_ERROR;
 8000df6:	2301      	movs	r3, #1
}
 8000df8:	4618      	mov	r0, r3
 8000dfa:	3708      	adds	r7, #8
 8000dfc:	46bd      	mov	sp, r7
 8000dfe:	bd80      	pop	{r7, pc}
 8000e00:	2000000c 	.word	0x2000000c
 8000e04:	20000014 	.word	0x20000014
 8000e08:	20000010 	.word	0x20000010

08000e0c <HAL_IncTick>:
  * @note This function is declared as __weak to be overwritten in case of other
  *      implementations in user file.
  * @retval None
  */
__weak void HAL_IncTick(void)
{
 8000e0c:	b480      	push	{r7}
 8000e0e:	af00      	add	r7, sp, #0
  uwTick += uwTickFreq;
 8000e10:	4b05      	ldr	r3, [pc, #20]	; (8000e28 <HAL_IncTick+0x1c>)
 8000e12:	781b      	ldrb	r3, [r3, #0]
 8000e14:	461a      	mov	r2, r3
 8000e16:	4b05      	ldr	r3, [pc, #20]	; (8000e2c <HAL_IncTick+0x20>)
 8000e18:	681b      	ldr	r3, [r3, #0]
 8000e1a:	4413      	add	r3, r2
 8000e1c:	4a03      	ldr	r2, [pc, #12]	; (8000e2c <HAL_IncTick+0x20>)
 8000e1e:	6013      	str	r3, [r2, #0]
}
 8000e20:	bf00      	nop
 8000e22:	46bd      	mov	sp, r7
 8000e24:	bc80      	pop	{r7}
 8000e26:	4770      	bx	lr
 8000e28:	20000014 	.word	0x20000014
 8000e2c:	200000b0 	.word	0x200000b0

08000e30 <HAL_GetTick>:
  * @note  This function is declared as __weak to be overwritten in case of other
  *       implementations in user file.
  * @retval tick value
  */
__weak uint32_t HAL_GetTick(void)
{
 8000e30:	b480      	push	{r7}
 8000e32:	af00      	add	r7, sp, #0
  return uwTick;
 8000e34:	4b02      	ldr	r3, [pc, #8]	; (8000e40 <HAL_GetTick+0x10>)
 8000e36:	681b      	ldr	r3, [r3, #0]
}
 8000e38:	4618      	mov	r0, r3
 8000e3a:	46bd      	mov	sp, r7
 8000e3c:	bc80      	pop	{r7}
 8000e3e:	4770      	bx	lr
 8000e40:	200000b0 	.word	0x200000b0

08000e44 <__NVIC_SetPriorityGrouping>:
           In case of a conflict between priority grouping and available
           priority bits (__NVIC_PRIO_BITS), the smallest possible priority group is set.
  \param [in]      PriorityGroup  Priority grouping field.
 */
__STATIC_INLINE void __NVIC_SetPriorityGrouping(uint32_t PriorityGroup)
{
 8000e44:	b480      	push	{r7}
 8000e46:	b085      	sub	sp, #20
 8000e48:	af00      	add	r7, sp, #0
 8000e4a:	6078      	str	r0, [r7, #4]
  uint32_t reg_value;
  uint32_t PriorityGroupTmp = (PriorityGroup & (uint32_t)0x07UL);             /* only values 0..7 are used          */
 8000e4c:	687b      	ldr	r3, [r7, #4]
 8000e4e:	f003 0307 	and.w	r3, r3, #7
 8000e52:	60fb      	str	r3, [r7, #12]

  reg_value  =  SCB->AIRCR;                                                   /* read old register configuration    */
 8000e54:	4b0c      	ldr	r3, [pc, #48]	; (8000e88 <__NVIC_SetPriorityGrouping+0x44>)
 8000e56:	68db      	ldr	r3, [r3, #12]
 8000e58:	60bb      	str	r3, [r7, #8]
  reg_value &= ~((uint32_t)(SCB_AIRCR_VECTKEY_Msk | SCB_AIRCR_PRIGROUP_Msk)); /* clear bits to change               */
 8000e5a:	68ba      	ldr	r2, [r7, #8]
 8000e5c:	f64f 03ff 	movw	r3, #63743	; 0xf8ff
 8000e60:	4013      	ands	r3, r2
 8000e62:	60bb      	str	r3, [r7, #8]
  reg_value  =  (reg_value                                   |
                ((uint32_t)0x5FAUL << SCB_AIRCR_VECTKEY_Pos) |
                (PriorityGroupTmp << SCB_AIRCR_PRIGROUP_Pos) );               /* Insert write key and priority group */
 8000e64:	68fb      	ldr	r3, [r7, #12]
 8000e66:	021a      	lsls	r2, r3, #8
                ((uint32_t)0x5FAUL << SCB_AIRCR_VECTKEY_Pos) |
 8000e68:	68bb      	ldr	r3, [r7, #8]
 8000e6a:	4313      	orrs	r3, r2
  reg_value  =  (reg_value                                   |
 8000e6c:	f043 63bf 	orr.w	r3, r3, #100139008	; 0x5f80000
 8000e70:	f443 3300 	orr.w	r3, r3, #131072	; 0x20000
 8000e74:	60bb      	str	r3, [r7, #8]
  SCB->AIRCR =  reg_value;
 8000e76:	4a04      	ldr	r2, [pc, #16]	; (8000e88 <__NVIC_SetPriorityGrouping+0x44>)
 8000e78:	68bb      	ldr	r3, [r7, #8]
 8000e7a:	60d3      	str	r3, [r2, #12]
}
 8000e7c:	bf00      	nop
 8000e7e:	3714      	adds	r7, #20
 8000e80:	46bd      	mov	sp, r7
 8000e82:	bc80      	pop	{r7}
 8000e84:	4770      	bx	lr
 8000e86:	bf00      	nop
 8000e88:	e000ed00 	.word	0xe000ed00

08000e8c <__NVIC_GetPriorityGrouping>:
  \brief   Get Priority Grouping
  \details Reads the priority grouping field from the NVIC Interrupt Controller.
  \return                Priority grouping field (SCB->AIRCR [10:8] PRIGROUP field).
 */
__STATIC_INLINE uint32_t __NVIC_GetPriorityGrouping(void)
{
 8000e8c:	b480      	push	{r7}
 8000e8e:	af00      	add	r7, sp, #0
  return ((uint32_t)((SCB->AIRCR & SCB_AIRCR_PRIGROUP_Msk) >> SCB_AIRCR_PRIGROUP_Pos));
 8000e90:	4b04      	ldr	r3, [pc, #16]	; (8000ea4 <__NVIC_GetPriorityGrouping+0x18>)
 8000e92:	68db      	ldr	r3, [r3, #12]
 8000e94:	0a1b      	lsrs	r3, r3, #8
 8000e96:	f003 0307 	and.w	r3, r3, #7
}
 8000e9a:	4618      	mov	r0, r3
 8000e9c:	46bd      	mov	sp, r7
 8000e9e:	bc80      	pop	{r7}
 8000ea0:	4770      	bx	lr
 8000ea2:	bf00      	nop
 8000ea4:	e000ed00 	.word	0xe000ed00

08000ea8 <__NVIC_EnableIRQ>:
  \details Enables a device specific interrupt in the NVIC interrupt controller.
  \param [in]      IRQn  Device specific interrupt number.
  \note    IRQn must not be negative.
 */
__STATIC_INLINE void __NVIC_EnableIRQ(IRQn_Type IRQn)
{
 8000ea8:	b480      	push	{r7}
 8000eaa:	b083      	sub	sp, #12
 8000eac:	af00      	add	r7, sp, #0
 8000eae:	4603      	mov	r3, r0
 8000eb0:	71fb      	strb	r3, [r7, #7]
  if ((int32_t)(IRQn) >= 0)
 8000eb2:	f997 3007 	ldrsb.w	r3, [r7, #7]
 8000eb6:	2b00      	cmp	r3, #0
 8000eb8:	db0b      	blt.n	8000ed2 <__NVIC_EnableIRQ+0x2a>
  {
    NVIC->ISER[(((uint32_t)IRQn) >> 5UL)] = (uint32_t)(1UL << (((uint32_t)IRQn) & 0x1FUL));
 8000eba:	79fb      	ldrb	r3, [r7, #7]
 8000ebc:	f003 021f 	and.w	r2, r3, #31
 8000ec0:	4906      	ldr	r1, [pc, #24]	; (8000edc <__NVIC_EnableIRQ+0x34>)
 8000ec2:	f997 3007 	ldrsb.w	r3, [r7, #7]
 8000ec6:	095b      	lsrs	r3, r3, #5
 8000ec8:	2001      	movs	r0, #1
 8000eca:	fa00 f202 	lsl.w	r2, r0, r2
 8000ece:	f841 2023 	str.w	r2, [r1, r3, lsl #2]
  }
}
 8000ed2:	bf00      	nop
 8000ed4:	370c      	adds	r7, #12
 8000ed6:	46bd      	mov	sp, r7
 8000ed8:	bc80      	pop	{r7}
 8000eda:	4770      	bx	lr
 8000edc:	e000e100 	.word	0xe000e100

08000ee0 <__NVIC_SetPriority>:
  \param [in]      IRQn  Interrupt number.
  \param [in]  priority  Priority to set.
  \note    The priority cannot be set for every processor exception.
 */
__STATIC_INLINE void __NVIC_SetPriority(IRQn_Type IRQn, uint32_t priority)
{
 8000ee0:	b480      	push	{r7}
 8000ee2:	b083      	sub	sp, #12
 8000ee4:	af00      	add	r7, sp, #0
 8000ee6:	4603      	mov	r3, r0
 8000ee8:	6039      	str	r1, [r7, #0]
 8000eea:	71fb      	strb	r3, [r7, #7]
  if ((int32_t)(IRQn) >= 0)
 8000eec:	f997 3007 	ldrsb.w	r3, [r7, #7]
 8000ef0:	2b00      	cmp	r3, #0
 8000ef2:	db0a      	blt.n	8000f0a <__NVIC_SetPriority+0x2a>
  {
    NVIC->IP[((uint32_t)IRQn)]               = (uint8_t)((priority << (8U - __NVIC_PRIO_BITS)) & (uint32_t)0xFFUL);
 8000ef4:	683b      	ldr	r3, [r7, #0]
 8000ef6:	b2da      	uxtb	r2, r3
 8000ef8:	490c      	ldr	r1, [pc, #48]	; (8000f2c <__NVIC_SetPriority+0x4c>)
 8000efa:	f997 3007 	ldrsb.w	r3, [r7, #7]
 8000efe:	0112      	lsls	r2, r2, #4
 8000f00:	b2d2      	uxtb	r2, r2
 8000f02:	440b      	add	r3, r1
 8000f04:	f883 2300 	strb.w	r2, [r3, #768]	; 0x300
  }
  else
  {
    SCB->SHP[(((uint32_t)IRQn) & 0xFUL)-4UL] = (uint8_t)((priority << (8U - __NVIC_PRIO_BITS)) & (uint32_t)0xFFUL);
  }
}
 8000f08:	e00a      	b.n	8000f20 <__NVIC_SetPriority+0x40>
    SCB->SHP[(((uint32_t)IRQn) & 0xFUL)-4UL] = (uint8_t)((priority << (8U - __NVIC_PRIO_BITS)) & (uint32_t)0xFFUL);
 8000f0a:	683b      	ldr	r3, [r7, #0]
 8000f0c:	b2da      	uxtb	r2, r3
 8000f0e:	4908      	ldr	r1, [pc, #32]	; (8000f30 <__NVIC_SetPriority+0x50>)
 8000f10:	79fb      	ldrb	r3, [r7, #7]
 8000f12:	f003 030f 	and.w	r3, r3, #15
 8000f16:	3b04      	subs	r3, #4
 8000f18:	0112      	lsls	r2, r2, #4
 8000f1a:	b2d2      	uxtb	r2, r2
 8000f1c:	440b      	add	r3, r1
 8000f1e:	761a      	strb	r2, [r3, #24]
}
 8000f20:	bf00      	nop
 8000f22:	370c      	adds	r7, #12
 8000f24:	46bd      	mov	sp, r7
 8000f26:	bc80      	pop	{r7}
 8000f28:	4770      	bx	lr
 8000f2a:	bf00      	nop
 8000f2c:	e000e100 	.word	0xe000e100
 8000f30:	e000ed00 	.word	0xe000ed00

08000f34 <NVIC_EncodePriority>:
  \param [in]   PreemptPriority  Preemptive priority value (starting from 0).
  \param [in]       SubPriority  Subpriority value (starting from 0).
  \return                        Encoded priority. Value can be used in the function \ref NVIC_SetPriority().
 */
__STATIC_INLINE uint32_t NVIC_EncodePriority (uint32_t PriorityGroup, uint32_t PreemptPriority, uint32_t SubPriority)
{
 8000f34:	b480      	push	{r7}
 8000f36:	b089      	sub	sp, #36	; 0x24
 8000f38:	af00      	add	r7, sp, #0
 8000f3a:	60f8      	str	r0, [r7, #12]
 8000f3c:	60b9      	str	r1, [r7, #8]
 8000f3e:	607a      	str	r2, [r7, #4]
  uint32_t PriorityGroupTmp = (PriorityGroup & (uint32_t)0x07UL);   /* only values 0..7 are used          */
 8000f40:	68fb      	ldr	r3, [r7, #12]
 8000f42:	f003 0307 	and.w	r3, r3, #7
 8000f46:	61fb      	str	r3, [r7, #28]
  uint32_t PreemptPriorityBits;
  uint32_t SubPriorityBits;

  PreemptPriorityBits = ((7UL - PriorityGroupTmp) > (uint32_t)(__NVIC_PRIO_BITS)) ? (uint32_t)(__NVIC_PRIO_BITS) : (uint32_t)(7UL - PriorityGroupTmp);
 8000f48:	69fb      	ldr	r3, [r7, #28]
 8000f4a:	f1c3 0307 	rsb	r3, r3, #7
 8000f4e:	2b04      	cmp	r3, #4
 8000f50:	bf28      	it	cs
 8000f52:	2304      	movcs	r3, #4
 8000f54:	61bb      	str	r3, [r7, #24]
  SubPriorityBits     = ((PriorityGroupTmp + (uint32_t)(__NVIC_PRIO_BITS)) < (uint32_t)7UL) ? (uint32_t)0UL : (uint32_t)((PriorityGroupTmp - 7UL) + (uint32_t)(__NVIC_PRIO_BITS));
 8000f56:	69fb      	ldr	r3, [r7, #28]
 8000f58:	3304      	adds	r3, #4
 8000f5a:	2b06      	cmp	r3, #6
 8000f5c:	d902      	bls.n	8000f64 <NVIC_EncodePriority+0x30>
 8000f5e:	69fb      	ldr	r3, [r7, #28]
 8000f60:	3b03      	subs	r3, #3
 8000f62:	e000      	b.n	8000f66 <NVIC_EncodePriority+0x32>
 8000f64:	2300      	movs	r3, #0
 8000f66:	617b      	str	r3, [r7, #20]

  return (
           ((PreemptPriority & (uint32_t)((1UL << (PreemptPriorityBits)) - 1UL)) << SubPriorityBits) |
 8000f68:	f04f 32ff 	mov.w	r2, #4294967295
 8000f6c:	69bb      	ldr	r3, [r7, #24]
 8000f6e:	fa02 f303 	lsl.w	r3, r2, r3
 8000f72:	43da      	mvns	r2, r3
 8000f74:	68bb      	ldr	r3, [r7, #8]
 8000f76:	401a      	ands	r2, r3
 8000f78:	697b      	ldr	r3, [r7, #20]
 8000f7a:	409a      	lsls	r2, r3
           ((SubPriority     & (uint32_t)((1UL << (SubPriorityBits    )) - 1UL)))
 8000f7c:	f04f 31ff 	mov.w	r1, #4294967295
 8000f80:	697b      	ldr	r3, [r7, #20]
 8000f82:	fa01 f303 	lsl.w	r3, r1, r3
 8000f86:	43d9      	mvns	r1, r3
 8000f88:	687b      	ldr	r3, [r7, #4]
 8000f8a:	400b      	ands	r3, r1
           ((PreemptPriority & (uint32_t)((1UL << (PreemptPriorityBits)) - 1UL)) << SubPriorityBits) |
 8000f8c:	4313      	orrs	r3, r2
         );
}
 8000f8e:	4618      	mov	r0, r3
 8000f90:	3724      	adds	r7, #36	; 0x24
 8000f92:	46bd      	mov	sp, r7
 8000f94:	bc80      	pop	{r7}
 8000f96:	4770      	bx	lr

08000f98 <SysTick_Config>:
  \note    When the variable <b>__Vendor_SysTickConfig</b> is set to 1, then the
           function <b>SysTick_Config</b> is not included. In this case, the file <b><i>device</i>.h</b>
           must contain a vendor-specific implementation of this function.
 */
__STATIC_INLINE uint32_t SysTick_Config(uint32_t ticks)
{
 8000f98:	b580      	push	{r7, lr}
 8000f9a:	b082      	sub	sp, #8
 8000f9c:	af00      	add	r7, sp, #0
 8000f9e:	6078      	str	r0, [r7, #4]
  if ((ticks - 1UL) > SysTick_LOAD_RELOAD_Msk)
 8000fa0:	687b      	ldr	r3, [r7, #4]
 8000fa2:	3b01      	subs	r3, #1
 8000fa4:	f1b3 7f80 	cmp.w	r3, #16777216	; 0x1000000
 8000fa8:	d301      	bcc.n	8000fae <SysTick_Config+0x16>
  {
    return (1UL);                                                   /* Reload value impossible */
 8000faa:	2301      	movs	r3, #1
 8000fac:	e00f      	b.n	8000fce <SysTick_Config+0x36>
  }

  SysTick->LOAD  = (uint32_t)(ticks - 1UL);                         /* set reload register */
 8000fae:	4a0a      	ldr	r2, [pc, #40]	; (8000fd8 <SysTick_Config+0x40>)
 8000fb0:	687b      	ldr	r3, [r7, #4]
 8000fb2:	3b01      	subs	r3, #1
 8000fb4:	6053      	str	r3, [r2, #4]
  NVIC_SetPriority (SysTick_IRQn, (1UL << __NVIC_PRIO_BITS) - 1UL); /* set Priority for Systick Interrupt */
 8000fb6:	210f      	movs	r1, #15
 8000fb8:	f04f 30ff 	mov.w	r0, #4294967295
 8000fbc:	f7ff ff90 	bl	8000ee0 <__NVIC_SetPriority>
  SysTick->VAL   = 0UL;                                             /* Load the SysTick Counter Value */
 8000fc0:	4b05      	ldr	r3, [pc, #20]	; (8000fd8 <SysTick_Config+0x40>)
 8000fc2:	2200      	movs	r2, #0
 8000fc4:	609a      	str	r2, [r3, #8]
  SysTick->CTRL  = SysTick_CTRL_CLKSOURCE_Msk |
 8000fc6:	4b04      	ldr	r3, [pc, #16]	; (8000fd8 <SysTick_Config+0x40>)
 8000fc8:	2207      	movs	r2, #7
 8000fca:	601a      	str	r2, [r3, #0]
                   SysTick_CTRL_TICKINT_Msk   |
                   SysTick_CTRL_ENABLE_Msk;                         /* Enable SysTick IRQ and SysTick Timer */
  return (0UL);                                                     /* Function successful */
 8000fcc:	2300      	movs	r3, #0
}
 8000fce:	4618      	mov	r0, r3
 8000fd0:	3708      	adds	r7, #8
 8000fd2:	46bd      	mov	sp, r7
 8000fd4:	bd80      	pop	{r7, pc}
 8000fd6:	bf00      	nop
 8000fd8:	e000e010 	.word	0xe000e010

08000fdc <HAL_NVIC_SetPriorityGrouping>:
  * @note   When the NVIC_PriorityGroup_0 is selected, IRQ preemption is no more possible. 
  *         The pending IRQ priority will be managed only by the subpriority. 
  * @retval None
  */
void HAL_NVIC_SetPriorityGrouping(uint32_t PriorityGroup)
{
 8000fdc:	b580      	push	{r7, lr}
 8000fde:	b082      	sub	sp, #8
 8000fe0:	af00      	add	r7, sp, #0
 8000fe2:	6078      	str	r0, [r7, #4]
  /* Check the parameters */
  assert_param(IS_NVIC_PRIORITY_GROUP(PriorityGroup));
  
  /* Set the PRIGROUP[10:8] bits according to the PriorityGroup parameter value */
  NVIC_SetPriorityGrouping(PriorityGroup);
 8000fe4:	6878      	ldr	r0, [r7, #4]
 8000fe6:	f7ff ff2d 	bl	8000e44 <__NVIC_SetPriorityGrouping>
}
 8000fea:	bf00      	nop
 8000fec:	3708      	adds	r7, #8
 8000fee:	46bd      	mov	sp, r7
 8000ff0:	bd80      	pop	{r7, pc}

08000ff2 <HAL_NVIC_SetPriority>:
  *         This parameter can be a value between 0 and 15
  *         A lower priority value indicates a higher priority.          
  * @retval None
  */
void HAL_NVIC_SetPriority(IRQn_Type IRQn, uint32_t PreemptPriority, uint32_t SubPriority)
{ 
 8000ff2:	b580      	push	{r7, lr}
 8000ff4:	b086      	sub	sp, #24
 8000ff6:	af00      	add	r7, sp, #0
 8000ff8:	4603      	mov	r3, r0
 8000ffa:	60b9      	str	r1, [r7, #8]
 8000ffc:	607a      	str	r2, [r7, #4]
 8000ffe:	73fb      	strb	r3, [r7, #15]
  uint32_t prioritygroup = 0x00U;
 8001000:	2300      	movs	r3, #0
 8001002:	617b      	str	r3, [r7, #20]
  
  /* Check the parameters */
  assert_param(IS_NVIC_SUB_PRIORITY(SubPriority));
  assert_param(IS_NVIC_PREEMPTION_PRIORITY(PreemptPriority));
  
  prioritygroup = NVIC_GetPriorityGrouping();
 8001004:	f7ff ff42 	bl	8000e8c <__NVIC_GetPriorityGrouping>
 8001008:	6178      	str	r0, [r7, #20]
  
  NVIC_SetPriority(IRQn, NVIC_EncodePriority(prioritygroup, PreemptPriority, SubPriority));
 800100a:	687a      	ldr	r2, [r7, #4]
 800100c:	68b9      	ldr	r1, [r7, #8]
 800100e:	6978      	ldr	r0, [r7, #20]
 8001010:	f7ff ff90 	bl	8000f34 <NVIC_EncodePriority>
 8001014:	4602      	mov	r2, r0
 8001016:	f997 300f 	ldrsb.w	r3, [r7, #15]
 800101a:	4611      	mov	r1, r2
 800101c:	4618      	mov	r0, r3
 800101e:	f7ff ff5f 	bl	8000ee0 <__NVIC_SetPriority>
}
 8001022:	bf00      	nop
 8001024:	3718      	adds	r7, #24
 8001026:	46bd      	mov	sp, r7
 8001028:	bd80      	pop	{r7, pc}

0800102a <HAL_NVIC_EnableIRQ>:
  *         This parameter can be an enumerator of IRQn_Type enumeration
  *         (For the complete STM32 Devices IRQ Channels list, please refer to the appropriate CMSIS device file (stm32f10xxx.h))
  * @retval None
  */
void HAL_NVIC_EnableIRQ(IRQn_Type IRQn)
{
 800102a:	b580      	push	{r7, lr}
 800102c:	b082      	sub	sp, #8
 800102e:	af00      	add	r7, sp, #0
 8001030:	4603      	mov	r3, r0
 8001032:	71fb      	strb	r3, [r7, #7]
  /* Check the parameters */
  assert_param(IS_NVIC_DEVICE_IRQ(IRQn));

  /* Enable interrupt */
  NVIC_EnableIRQ(IRQn);
 8001034:	f997 3007 	ldrsb.w	r3, [r7, #7]
 8001038:	4618      	mov	r0, r3
 800103a:	f7ff ff35 	bl	8000ea8 <__NVIC_EnableIRQ>
}
 800103e:	bf00      	nop
 8001040:	3708      	adds	r7, #8
 8001042:	46bd      	mov	sp, r7
 8001044:	bd80      	pop	{r7, pc}

08001046 <HAL_SYSTICK_Config>:
  * @param  TicksNumb: Specifies the ticks Number of ticks between two interrupts.
  * @retval status:  - 0  Function succeeded.
  *                  - 1  Function failed.
  */
uint32_t HAL_SYSTICK_Config(uint32_t TicksNumb)
{
 8001046:	b580      	push	{r7, lr}
 8001048:	b082      	sub	sp, #8
 800104a:	af00      	add	r7, sp, #0
 800104c:	6078      	str	r0, [r7, #4]
   return SysTick_Config(TicksNumb);
 800104e:	6878      	ldr	r0, [r7, #4]
 8001050:	f7ff ffa2 	bl	8000f98 <SysTick_Config>
 8001054:	4603      	mov	r3, r0
}
 8001056:	4618      	mov	r0, r3
 8001058:	3708      	adds	r7, #8
 800105a:	46bd      	mov	sp, r7
 800105c:	bd80      	pop	{r7, pc}
	...

08001060 <HAL_GPIO_Init>:
  * @param  GPIO_Init: pointer to a GPIO_InitTypeDef structure that contains
  *         the configuration information for the specified GPIO peripheral.
  * @retval None
  */
void HAL_GPIO_Init(GPIO_TypeDef  *GPIOx, GPIO_InitTypeDef *GPIO_Init)
{
 8001060:	b480      	push	{r7}
 8001062:	b08b      	sub	sp, #44	; 0x2c
 8001064:	af00      	add	r7, sp, #0
 8001066:	6078      	str	r0, [r7, #4]
 8001068:	6039      	str	r1, [r7, #0]
  uint32_t position = 0x00u;
 800106a:	2300      	movs	r3, #0
 800106c:	627b      	str	r3, [r7, #36]	; 0x24
  uint32_t ioposition;
  uint32_t iocurrent;
  uint32_t temp;
  uint32_t config = 0x00u;
 800106e:	2300      	movs	r3, #0
 8001070:	623b      	str	r3, [r7, #32]
  assert_param(IS_GPIO_ALL_INSTANCE(GPIOx));
  assert_param(IS_GPIO_PIN(GPIO_Init->Pin));
  assert_param(IS_GPIO_MODE(GPIO_Init->Mode));

  /* Configure the port pins */
  while (((GPIO_Init->Pin) >> position) != 0x00u)
 8001072:	e161      	b.n	8001338 <HAL_GPIO_Init+0x2d8>
  {
    /* Get the IO position */
    ioposition = (0x01uL << position);
 8001074:	2201      	movs	r2, #1
 8001076:	6a7b      	ldr	r3, [r7, #36]	; 0x24
 8001078:	fa02 f303 	lsl.w	r3, r2, r3
 800107c:	61fb      	str	r3, [r7, #28]

    /* Get the current IO position */
    iocurrent = (uint32_t)(GPIO_Init->Pin) & ioposition;
 800107e:	683b      	ldr	r3, [r7, #0]
 8001080:	681b      	ldr	r3, [r3, #0]
 8001082:	69fa      	ldr	r2, [r7, #28]
 8001084:	4013      	ands	r3, r2
 8001086:	61bb      	str	r3, [r7, #24]

    if (iocurrent == ioposition)
 8001088:	69ba      	ldr	r2, [r7, #24]
 800108a:	69fb      	ldr	r3, [r7, #28]
 800108c:	429a      	cmp	r2, r3
 800108e:	f040 8150 	bne.w	8001332 <HAL_GPIO_Init+0x2d2>
    {
      /* Check the Alternate function parameters */
      assert_param(IS_GPIO_AF_INSTANCE(GPIOx));

      /* Based on the required mode, filling config variable with MODEy[1:0] and CNFy[3:2] corresponding bits */
      switch (GPIO_Init->Mode)
 8001092:	683b      	ldr	r3, [r7, #0]
 8001094:	685b      	ldr	r3, [r3, #4]
 8001096:	4a97      	ldr	r2, [pc, #604]	; (80012f4 <HAL_GPIO_Init+0x294>)
 8001098:	4293      	cmp	r3, r2
 800109a:	d05e      	beq.n	800115a <HAL_GPIO_Init+0xfa>
 800109c:	4a95      	ldr	r2, [pc, #596]	; (80012f4 <HAL_GPIO_Init+0x294>)
 800109e:	4293      	cmp	r3, r2
 80010a0:	d875      	bhi.n	800118e <HAL_GPIO_Init+0x12e>
 80010a2:	4a95      	ldr	r2, [pc, #596]	; (80012f8 <HAL_GPIO_Init+0x298>)
 80010a4:	4293      	cmp	r3, r2
 80010a6:	d058      	beq.n	800115a <HAL_GPIO_Init+0xfa>
 80010a8:	4a93      	ldr	r2, [pc, #588]	; (80012f8 <HAL_GPIO_Init+0x298>)
 80010aa:	4293      	cmp	r3, r2
 80010ac:	d86f      	bhi.n	800118e <HAL_GPIO_Init+0x12e>
 80010ae:	4a93      	ldr	r2, [pc, #588]	; (80012fc <HAL_GPIO_Init+0x29c>)
 80010b0:	4293      	cmp	r3, r2
 80010b2:	d052      	beq.n	800115a <HAL_GPIO_Init+0xfa>
 80010b4:	4a91      	ldr	r2, [pc, #580]	; (80012fc <HAL_GPIO_Init+0x29c>)
 80010b6:	4293      	cmp	r3, r2
 80010b8:	d869      	bhi.n	800118e <HAL_GPIO_Init+0x12e>
 80010ba:	4a91      	ldr	r2, [pc, #580]	; (8001300 <HAL_GPIO_Init+0x2a0>)
 80010bc:	4293      	cmp	r3, r2
 80010be:	d04c      	beq.n	800115a <HAL_GPIO_Init+0xfa>
 80010c0:	4a8f      	ldr	r2, [pc, #572]	; (8001300 <HAL_GPIO_Init+0x2a0>)
 80010c2:	4293      	cmp	r3, r2
 80010c4:	d863      	bhi.n	800118e <HAL_GPIO_Init+0x12e>
 80010c6:	4a8f      	ldr	r2, [pc, #572]	; (8001304 <HAL_GPIO_Init+0x2a4>)
 80010c8:	4293      	cmp	r3, r2
 80010ca:	d046      	beq.n	800115a <HAL_GPIO_Init+0xfa>
 80010cc:	4a8d      	ldr	r2, [pc, #564]	; (8001304 <HAL_GPIO_Init+0x2a4>)
 80010ce:	4293      	cmp	r3, r2
 80010d0:	d85d      	bhi.n	800118e <HAL_GPIO_Init+0x12e>
 80010d2:	2b12      	cmp	r3, #18
 80010d4:	d82a      	bhi.n	800112c <HAL_GPIO_Init+0xcc>
 80010d6:	2b12      	cmp	r3, #18
 80010d8:	d859      	bhi.n	800118e <HAL_GPIO_Init+0x12e>
 80010da:	a201      	add	r2, pc, #4	; (adr r2, 80010e0 <HAL_GPIO_Init+0x80>)
 80010dc:	f852 f023 	ldr.w	pc, [r2, r3, lsl #2]
 80010e0:	0800115b 	.word	0x0800115b
 80010e4:	08001135 	.word	0x08001135
 80010e8:	08001147 	.word	0x08001147
 80010ec:	08001189 	.word	0x08001189
 80010f0:	0800118f 	.word	0x0800118f
 80010f4:	0800118f 	.word	0x0800118f
 80010f8:	0800118f 	.word	0x0800118f
 80010fc:	0800118f 	.word	0x0800118f
 8001100:	0800118f 	.word	0x0800118f
 8001104:	0800118f 	.word	0x0800118f
 8001108:	0800118f 	.word	0x0800118f
 800110c:	0800118f 	.word	0x0800118f
 8001110:	0800118f 	.word	0x0800118f
 8001114:	0800118f 	.word	0x0800118f
 8001118:	0800118f 	.word	0x0800118f
 800111c:	0800118f 	.word	0x0800118f
 8001120:	0800118f 	.word	0x0800118f
 8001124:	0800113d 	.word	0x0800113d
 8001128:	08001151 	.word	0x08001151
 800112c:	4a76      	ldr	r2, [pc, #472]	; (8001308 <HAL_GPIO_Init+0x2a8>)
 800112e:	4293      	cmp	r3, r2
 8001130:	d013      	beq.n	800115a <HAL_GPIO_Init+0xfa>
          config = GPIO_CR_MODE_INPUT + GPIO_CR_CNF_ANALOG;
          break;

        /* Parameters are checked with assert_param */
        default:
          break;
 8001132:	e02c      	b.n	800118e <HAL_GPIO_Init+0x12e>
          config = GPIO_Init->Speed + GPIO_CR_CNF_GP_OUTPUT_PP;
 8001134:	683b      	ldr	r3, [r7, #0]
 8001136:	68db      	ldr	r3, [r3, #12]
 8001138:	623b      	str	r3, [r7, #32]
          break;
 800113a:	e029      	b.n	8001190 <HAL_GPIO_Init+0x130>
          config = GPIO_Init->Speed + GPIO_CR_CNF_GP_OUTPUT_OD;
 800113c:	683b      	ldr	r3, [r7, #0]
 800113e:	68db      	ldr	r3, [r3, #12]
 8001140:	3304      	adds	r3, #4
 8001142:	623b      	str	r3, [r7, #32]
          break;
 8001144:	e024      	b.n	8001190 <HAL_GPIO_Init+0x130>
          config = GPIO_Init->Speed + GPIO_CR_CNF_AF_OUTPUT_PP;
 8001146:	683b      	ldr	r3, [r7, #0]
 8001148:	68db      	ldr	r3, [r3, #12]
 800114a:	3308      	adds	r3, #8
 800114c:	623b      	str	r3, [r7, #32]
          break;
 800114e:	e01f      	b.n	8001190 <HAL_GPIO_Init+0x130>
          config = GPIO_Init->Speed + GPIO_CR_CNF_AF_OUTPUT_OD;
 8001150:	683b      	ldr	r3, [r7, #0]
 8001152:	68db      	ldr	r3, [r3, #12]
 8001154:	330c      	adds	r3, #12
 8001156:	623b      	str	r3, [r7, #32]
          break;
 8001158:	e01a      	b.n	8001190 <HAL_GPIO_Init+0x130>
          if (GPIO_Init->Pull == GPIO_NOPULL)
 800115a:	683b      	ldr	r3, [r7, #0]
 800115c:	689b      	ldr	r3, [r3, #8]
 800115e:	2b00      	cmp	r3, #0
 8001160:	d102      	bne.n	8001168 <HAL_GPIO_Init+0x108>
            config = GPIO_CR_MODE_INPUT + GPIO_CR_CNF_INPUT_FLOATING;
 8001162:	2304      	movs	r3, #4
 8001164:	623b      	str	r3, [r7, #32]
          break;
 8001166:	e013      	b.n	8001190 <HAL_GPIO_Init+0x130>
          else if (GPIO_Init->Pull == GPIO_PULLUP)
 8001168:	683b      	ldr	r3, [r7, #0]
 800116a:	689b      	ldr	r3, [r3, #8]
 800116c:	2b01      	cmp	r3, #1
 800116e:	d105      	bne.n	800117c <HAL_GPIO_Init+0x11c>
            config = GPIO_CR_MODE_INPUT + GPIO_CR_CNF_INPUT_PU_PD;
 8001170:	2308      	movs	r3, #8
 8001172:	623b      	str	r3, [r7, #32]
            GPIOx->BSRR = ioposition;
 8001174:	687b      	ldr	r3, [r7, #4]
 8001176:	69fa      	ldr	r2, [r7, #28]
 8001178:	611a      	str	r2, [r3, #16]
          break;
 800117a:	e009      	b.n	8001190 <HAL_GPIO_Init+0x130>
            config = GPIO_CR_MODE_INPUT + GPIO_CR_CNF_INPUT_PU_PD;
 800117c:	2308      	movs	r3, #8
 800117e:	623b      	str	r3, [r7, #32]
            GPIOx->BRR = ioposition;
 8001180:	687b      	ldr	r3, [r7, #4]
 8001182:	69fa      	ldr	r2, [r7, #28]
 8001184:	615a      	str	r2, [r3, #20]
          break;
 8001186:	e003      	b.n	8001190 <HAL_GPIO_Init+0x130>
          config = GPIO_CR_MODE_INPUT + GPIO_CR_CNF_ANALOG;
 8001188:	2300      	movs	r3, #0
 800118a:	623b      	str	r3, [r7, #32]
          break;
 800118c:	e000      	b.n	8001190 <HAL_GPIO_Init+0x130>
          break;
 800118e:	bf00      	nop
      }

      /* Check if the current bit belongs to first half or last half of the pin count number
       in order to address CRH or CRL register*/
      configregister = (iocurrent < GPIO_PIN_8) ? &GPIOx->CRL     : &GPIOx->CRH;
 8001190:	69bb      	ldr	r3, [r7, #24]
 8001192:	2bff      	cmp	r3, #255	; 0xff
 8001194:	d801      	bhi.n	800119a <HAL_GPIO_Init+0x13a>
 8001196:	687b      	ldr	r3, [r7, #4]
 8001198:	e001      	b.n	800119e <HAL_GPIO_Init+0x13e>
 800119a:	687b      	ldr	r3, [r7, #4]
 800119c:	3304      	adds	r3, #4
 800119e:	617b      	str	r3, [r7, #20]
      registeroffset = (iocurrent < GPIO_PIN_8) ? (position << 2u) : ((position - 8u) << 2u);
 80011a0:	69bb      	ldr	r3, [r7, #24]
 80011a2:	2bff      	cmp	r3, #255	; 0xff
 80011a4:	d802      	bhi.n	80011ac <HAL_GPIO_Init+0x14c>
 80011a6:	6a7b      	ldr	r3, [r7, #36]	; 0x24
 80011a8:	009b      	lsls	r3, r3, #2
 80011aa:	e002      	b.n	80011b2 <HAL_GPIO_Init+0x152>
 80011ac:	6a7b      	ldr	r3, [r7, #36]	; 0x24
 80011ae:	3b08      	subs	r3, #8
 80011b0:	009b      	lsls	r3, r3, #2
 80011b2:	613b      	str	r3, [r7, #16]

      /* Apply the new configuration of the pin to the register */
      MODIFY_REG((*configregister), ((GPIO_CRL_MODE0 | GPIO_CRL_CNF0) << registeroffset), (config << registeroffset));
 80011b4:	697b      	ldr	r3, [r7, #20]
 80011b6:	681a      	ldr	r2, [r3, #0]
 80011b8:	210f      	movs	r1, #15
 80011ba:	693b      	ldr	r3, [r7, #16]
 80011bc:	fa01 f303 	lsl.w	r3, r1, r3
 80011c0:	43db      	mvns	r3, r3
 80011c2:	401a      	ands	r2, r3
 80011c4:	6a39      	ldr	r1, [r7, #32]
 80011c6:	693b      	ldr	r3, [r7, #16]
 80011c8:	fa01 f303 	lsl.w	r3, r1, r3
 80011cc:	431a      	orrs	r2, r3
 80011ce:	697b      	ldr	r3, [r7, #20]
 80011d0:	601a      	str	r2, [r3, #0]

      /*--------------------- EXTI Mode Configuration ------------------------*/
      /* Configure the External Interrupt or event for the current IO */
      if ((GPIO_Init->Mode & EXTI_MODE) == EXTI_MODE)
 80011d2:	683b      	ldr	r3, [r7, #0]
 80011d4:	685b      	ldr	r3, [r3, #4]
 80011d6:	f003 5380 	and.w	r3, r3, #268435456	; 0x10000000
 80011da:	2b00      	cmp	r3, #0
 80011dc:	f000 80a9 	beq.w	8001332 <HAL_GPIO_Init+0x2d2>
      {
        /* Enable AFIO Clock */
        __HAL_RCC_AFIO_CLK_ENABLE();
 80011e0:	4b4a      	ldr	r3, [pc, #296]	; (800130c <HAL_GPIO_Init+0x2ac>)
 80011e2:	699b      	ldr	r3, [r3, #24]
 80011e4:	4a49      	ldr	r2, [pc, #292]	; (800130c <HAL_GPIO_Init+0x2ac>)
 80011e6:	f043 0301 	orr.w	r3, r3, #1
 80011ea:	6193      	str	r3, [r2, #24]
 80011ec:	4b47      	ldr	r3, [pc, #284]	; (800130c <HAL_GPIO_Init+0x2ac>)
 80011ee:	699b      	ldr	r3, [r3, #24]
 80011f0:	f003 0301 	and.w	r3, r3, #1
 80011f4:	60bb      	str	r3, [r7, #8]
 80011f6:	68bb      	ldr	r3, [r7, #8]
        temp = AFIO->EXTICR[position >> 2u];
 80011f8:	4a45      	ldr	r2, [pc, #276]	; (8001310 <HAL_GPIO_Init+0x2b0>)
 80011fa:	6a7b      	ldr	r3, [r7, #36]	; 0x24
 80011fc:	089b      	lsrs	r3, r3, #2
 80011fe:	3302      	adds	r3, #2
 8001200:	f852 3023 	ldr.w	r3, [r2, r3, lsl #2]
 8001204:	60fb      	str	r3, [r7, #12]
        CLEAR_BIT(temp, (0x0Fu) << (4u * (position & 0x03u)));
 8001206:	6a7b      	ldr	r3, [r7, #36]	; 0x24
 8001208:	f003 0303 	and.w	r3, r3, #3
 800120c:	009b      	lsls	r3, r3, #2
 800120e:	220f      	movs	r2, #15
 8001210:	fa02 f303 	lsl.w	r3, r2, r3
 8001214:	43db      	mvns	r3, r3
 8001216:	68fa      	ldr	r2, [r7, #12]
 8001218:	4013      	ands	r3, r2
 800121a:	60fb      	str	r3, [r7, #12]
        SET_BIT(temp, (GPIO_GET_INDEX(GPIOx)) << (4u * (position & 0x03u)));
 800121c:	687b      	ldr	r3, [r7, #4]
 800121e:	4a3d      	ldr	r2, [pc, #244]	; (8001314 <HAL_GPIO_Init+0x2b4>)
 8001220:	4293      	cmp	r3, r2
 8001222:	d00d      	beq.n	8001240 <HAL_GPIO_Init+0x1e0>
 8001224:	687b      	ldr	r3, [r7, #4]
 8001226:	4a3c      	ldr	r2, [pc, #240]	; (8001318 <HAL_GPIO_Init+0x2b8>)
 8001228:	4293      	cmp	r3, r2
 800122a:	d007      	beq.n	800123c <HAL_GPIO_Init+0x1dc>
 800122c:	687b      	ldr	r3, [r7, #4]
 800122e:	4a3b      	ldr	r2, [pc, #236]	; (800131c <HAL_GPIO_Init+0x2bc>)
 8001230:	4293      	cmp	r3, r2
 8001232:	d101      	bne.n	8001238 <HAL_GPIO_Init+0x1d8>
 8001234:	2302      	movs	r3, #2
 8001236:	e004      	b.n	8001242 <HAL_GPIO_Init+0x1e2>
 8001238:	2303      	movs	r3, #3
 800123a:	e002      	b.n	8001242 <HAL_GPIO_Init+0x1e2>
 800123c:	2301      	movs	r3, #1
 800123e:	e000      	b.n	8001242 <HAL_GPIO_Init+0x1e2>
 8001240:	2300      	movs	r3, #0
 8001242:	6a7a      	ldr	r2, [r7, #36]	; 0x24
 8001244:	f002 0203 	and.w	r2, r2, #3
 8001248:	0092      	lsls	r2, r2, #2
 800124a:	4093      	lsls	r3, r2
 800124c:	68fa      	ldr	r2, [r7, #12]
 800124e:	4313      	orrs	r3, r2
 8001250:	60fb      	str	r3, [r7, #12]
        AFIO->EXTICR[position >> 2u] = temp;
 8001252:	492f      	ldr	r1, [pc, #188]	; (8001310 <HAL_GPIO_Init+0x2b0>)
 8001254:	6a7b      	ldr	r3, [r7, #36]	; 0x24
 8001256:	089b      	lsrs	r3, r3, #2
 8001258:	3302      	adds	r3, #2
 800125a:	68fa      	ldr	r2, [r7, #12]
 800125c:	f841 2023 	str.w	r2, [r1, r3, lsl #2]


        /* Enable or disable the rising trigger */
        if ((GPIO_Init->Mode & RISING_EDGE) == RISING_EDGE)
 8001260:	683b      	ldr	r3, [r7, #0]
 8001262:	685b      	ldr	r3, [r3, #4]
 8001264:	f403 1380 	and.w	r3, r3, #1048576	; 0x100000
 8001268:	2b00      	cmp	r3, #0
 800126a:	d006      	beq.n	800127a <HAL_GPIO_Init+0x21a>
        {
          SET_BIT(EXTI->RTSR, iocurrent);
 800126c:	4b2c      	ldr	r3, [pc, #176]	; (8001320 <HAL_GPIO_Init+0x2c0>)
 800126e:	689a      	ldr	r2, [r3, #8]
 8001270:	492b      	ldr	r1, [pc, #172]	; (8001320 <HAL_GPIO_Init+0x2c0>)
 8001272:	69bb      	ldr	r3, [r7, #24]
 8001274:	4313      	orrs	r3, r2
 8001276:	608b      	str	r3, [r1, #8]
 8001278:	e006      	b.n	8001288 <HAL_GPIO_Init+0x228>
        }
        else
        {
          CLEAR_BIT(EXTI->RTSR, iocurrent);
 800127a:	4b29      	ldr	r3, [pc, #164]	; (8001320 <HAL_GPIO_Init+0x2c0>)
 800127c:	689a      	ldr	r2, [r3, #8]
 800127e:	69bb      	ldr	r3, [r7, #24]
 8001280:	43db      	mvns	r3, r3
 8001282:	4927      	ldr	r1, [pc, #156]	; (8001320 <HAL_GPIO_Init+0x2c0>)
 8001284:	4013      	ands	r3, r2
 8001286:	608b      	str	r3, [r1, #8]
        }

        /* Enable or disable the falling trigger */
        if ((GPIO_Init->Mode & FALLING_EDGE) == FALLING_EDGE)
 8001288:	683b      	ldr	r3, [r7, #0]
 800128a:	685b      	ldr	r3, [r3, #4]
 800128c:	f403 1300 	and.w	r3, r3, #2097152	; 0x200000
 8001290:	2b00      	cmp	r3, #0
 8001292:	d006      	beq.n	80012a2 <HAL_GPIO_Init+0x242>
        {
          SET_BIT(EXTI->FTSR, iocurrent);
 8001294:	4b22      	ldr	r3, [pc, #136]	; (8001320 <HAL_GPIO_Init+0x2c0>)
 8001296:	68da      	ldr	r2, [r3, #12]
 8001298:	4921      	ldr	r1, [pc, #132]	; (8001320 <HAL_GPIO_Init+0x2c0>)
 800129a:	69bb      	ldr	r3, [r7, #24]
 800129c:	4313      	orrs	r3, r2
 800129e:	60cb      	str	r3, [r1, #12]
 80012a0:	e006      	b.n	80012b0 <HAL_GPIO_Init+0x250>
        }
        else
        {
          CLEAR_BIT(EXTI->FTSR, iocurrent);
 80012a2:	4b1f      	ldr	r3, [pc, #124]	; (8001320 <HAL_GPIO_Init+0x2c0>)
 80012a4:	68da      	ldr	r2, [r3, #12]
 80012a6:	69bb      	ldr	r3, [r7, #24]
 80012a8:	43db      	mvns	r3, r3
 80012aa:	491d      	ldr	r1, [pc, #116]	; (8001320 <HAL_GPIO_Init+0x2c0>)
 80012ac:	4013      	ands	r3, r2
 80012ae:	60cb      	str	r3, [r1, #12]
        }

        /* Configure the event mask */
        if ((GPIO_Init->Mode & GPIO_MODE_EVT) == GPIO_MODE_EVT)
 80012b0:	683b      	ldr	r3, [r7, #0]
 80012b2:	685b      	ldr	r3, [r3, #4]
 80012b4:	f403 3300 	and.w	r3, r3, #131072	; 0x20000
 80012b8:	2b00      	cmp	r3, #0
 80012ba:	d006      	beq.n	80012ca <HAL_GPIO_Init+0x26a>
        {
          SET_BIT(EXTI->EMR, iocurrent);
 80012bc:	4b18      	ldr	r3, [pc, #96]	; (8001320 <HAL_GPIO_Init+0x2c0>)
 80012be:	685a      	ldr	r2, [r3, #4]
 80012c0:	4917      	ldr	r1, [pc, #92]	; (8001320 <HAL_GPIO_Init+0x2c0>)
 80012c2:	69bb      	ldr	r3, [r7, #24]
 80012c4:	4313      	orrs	r3, r2
 80012c6:	604b      	str	r3, [r1, #4]
 80012c8:	e006      	b.n	80012d8 <HAL_GPIO_Init+0x278>
        }
        else
        {
          CLEAR_BIT(EXTI->EMR, iocurrent);
 80012ca:	4b15      	ldr	r3, [pc, #84]	; (8001320 <HAL_GPIO_Init+0x2c0>)
 80012cc:	685a      	ldr	r2, [r3, #4]
 80012ce:	69bb      	ldr	r3, [r7, #24]
 80012d0:	43db      	mvns	r3, r3
 80012d2:	4913      	ldr	r1, [pc, #76]	; (8001320 <HAL_GPIO_Init+0x2c0>)
 80012d4:	4013      	ands	r3, r2
 80012d6:	604b      	str	r3, [r1, #4]
        }

        /* Configure the interrupt mask */
        if ((GPIO_Init->Mode & GPIO_MODE_IT) == GPIO_MODE_IT)
 80012d8:	683b      	ldr	r3, [r7, #0]
 80012da:	685b      	ldr	r3, [r3, #4]
 80012dc:	f403 3380 	and.w	r3, r3, #65536	; 0x10000
 80012e0:	2b00      	cmp	r3, #0
 80012e2:	d01f      	beq.n	8001324 <HAL_GPIO_Init+0x2c4>
        {
          SET_BIT(EXTI->IMR, iocurrent);
 80012e4:	4b0e      	ldr	r3, [pc, #56]	; (8001320 <HAL_GPIO_Init+0x2c0>)
 80012e6:	681a      	ldr	r2, [r3, #0]
 80012e8:	490d      	ldr	r1, [pc, #52]	; (8001320 <HAL_GPIO_Init+0x2c0>)
 80012ea:	69bb      	ldr	r3, [r7, #24]
 80012ec:	4313      	orrs	r3, r2
 80012ee:	600b      	str	r3, [r1, #0]
 80012f0:	e01f      	b.n	8001332 <HAL_GPIO_Init+0x2d2>
 80012f2:	bf00      	nop
 80012f4:	10320000 	.word	0x10320000
 80012f8:	10310000 	.word	0x10310000
 80012fc:	10220000 	.word	0x10220000
 8001300:	10210000 	.word	0x10210000
 8001304:	10120000 	.word	0x10120000
 8001308:	10110000 	.word	0x10110000
 800130c:	40021000 	.word	0x40021000
 8001310:	40010000 	.word	0x40010000
 8001314:	40010800 	.word	0x40010800
 8001318:	40010c00 	.word	0x40010c00
 800131c:	40011000 	.word	0x40011000
 8001320:	40010400 	.word	0x40010400
        }
        else
        {
          CLEAR_BIT(EXTI->IMR, iocurrent);
 8001324:	4b0b      	ldr	r3, [pc, #44]	; (8001354 <HAL_GPIO_Init+0x2f4>)
 8001326:	681a      	ldr	r2, [r3, #0]
 8001328:	69bb      	ldr	r3, [r7, #24]
 800132a:	43db      	mvns	r3, r3
 800132c:	4909      	ldr	r1, [pc, #36]	; (8001354 <HAL_GPIO_Init+0x2f4>)
 800132e:	4013      	ands	r3, r2
 8001330:	600b      	str	r3, [r1, #0]
        }
      }
    }

	position++;
 8001332:	6a7b      	ldr	r3, [r7, #36]	; 0x24
 8001334:	3301      	adds	r3, #1
 8001336:	627b      	str	r3, [r7, #36]	; 0x24
  while (((GPIO_Init->Pin) >> position) != 0x00u)
 8001338:	683b      	ldr	r3, [r7, #0]
 800133a:	681a      	ldr	r2, [r3, #0]
 800133c:	6a7b      	ldr	r3, [r7, #36]	; 0x24
 800133e:	fa22 f303 	lsr.w	r3, r2, r3
 8001342:	2b00      	cmp	r3, #0
 8001344:	f47f ae96 	bne.w	8001074 <HAL_GPIO_Init+0x14>
  }
}
 8001348:	bf00      	nop
 800134a:	bf00      	nop
 800134c:	372c      	adds	r7, #44	; 0x2c
 800134e:	46bd      	mov	sp, r7
 8001350:	bc80      	pop	{r7}
 8001352:	4770      	bx	lr
 8001354:	40010400 	.word	0x40010400

08001358 <HAL_GPIO_WritePin>:
  *            @arg GPIO_PIN_RESET: to clear the port pin
  *            @arg GPIO_PIN_SET: to set the port pin
  * @retval None
  */
void HAL_GPIO_WritePin(GPIO_TypeDef *GPIOx, uint16_t GPIO_Pin, GPIO_PinState PinState)
{
 8001358:	b480      	push	{r7}
 800135a:	b083      	sub	sp, #12
 800135c:	af00      	add	r7, sp, #0
 800135e:	6078      	str	r0, [r7, #4]
 8001360:	460b      	mov	r3, r1
 8001362:	807b      	strh	r3, [r7, #2]
 8001364:	4613      	mov	r3, r2
 8001366:	707b      	strb	r3, [r7, #1]
  /* Check the parameters */
  assert_param(IS_GPIO_PIN(GPIO_Pin));
  assert_param(IS_GPIO_PIN_ACTION(PinState));

  if (PinState != GPIO_PIN_RESET)
 8001368:	787b      	ldrb	r3, [r7, #1]
 800136a:	2b00      	cmp	r3, #0
 800136c:	d003      	beq.n	8001376 <HAL_GPIO_WritePin+0x1e>
  {
    GPIOx->BSRR = GPIO_Pin;
 800136e:	887a      	ldrh	r2, [r7, #2]
 8001370:	687b      	ldr	r3, [r7, #4]
 8001372:	611a      	str	r2, [r3, #16]
  }
  else
  {
    GPIOx->BSRR = (uint32_t)GPIO_Pin << 16u;
  }
}
 8001374:	e003      	b.n	800137e <HAL_GPIO_WritePin+0x26>
    GPIOx->BSRR = (uint32_t)GPIO_Pin << 16u;
 8001376:	887b      	ldrh	r3, [r7, #2]
 8001378:	041a      	lsls	r2, r3, #16
 800137a:	687b      	ldr	r3, [r7, #4]
 800137c:	611a      	str	r2, [r3, #16]
}
 800137e:	bf00      	nop
 8001380:	370c      	adds	r7, #12
 8001382:	46bd      	mov	sp, r7
 8001384:	bc80      	pop	{r7}
 8001386:	4770      	bx	lr

08001388 <HAL_RCC_OscConfig>:
  *         supported by this macro. User should request a transition to HSE Off
  *         first and then HSE On or HSE Bypass.
  * @retval HAL status
  */
HAL_StatusTypeDef HAL_RCC_OscConfig(RCC_OscInitTypeDef  *RCC_OscInitStruct)
{
 8001388:	b580      	push	{r7, lr}
 800138a:	b086      	sub	sp, #24
 800138c:	af00      	add	r7, sp, #0
 800138e:	6078      	str	r0, [r7, #4]
  uint32_t tickstart;
  uint32_t pll_config;

  /* Check Null pointer */
  if (RCC_OscInitStruct == NULL)
 8001390:	687b      	ldr	r3, [r7, #4]
 8001392:	2b00      	cmp	r3, #0
 8001394:	d101      	bne.n	800139a <HAL_RCC_OscConfig+0x12>
  {
    return HAL_ERROR;
 8001396:	2301      	movs	r3, #1
 8001398:	e272      	b.n	8001880 <HAL_RCC_OscConfig+0x4f8>

  /* Check the parameters */
  assert_param(IS_RCC_OSCILLATORTYPE(RCC_OscInitStruct->OscillatorType));

  /*------------------------------- HSE Configuration ------------------------*/
  if (((RCC_OscInitStruct->OscillatorType) & RCC_OSCILLATORTYPE_HSE) == RCC_OSCILLATORTYPE_HSE)
 800139a:	687b      	ldr	r3, [r7, #4]
 800139c:	681b      	ldr	r3, [r3, #0]
 800139e:	f003 0301 	and.w	r3, r3, #1
 80013a2:	2b00      	cmp	r3, #0
 80013a4:	f000 8087 	beq.w	80014b6 <HAL_RCC_OscConfig+0x12e>
  {
    /* Check the parameters */
    assert_param(IS_RCC_HSE(RCC_OscInitStruct->HSEState));

    /* When the HSE is used as system clock or clock source for PLL in these cases it is not allowed to be disabled */
    if ((__HAL_RCC_GET_SYSCLK_SOURCE() == RCC_SYSCLKSOURCE_STATUS_HSE)
 80013a8:	4b92      	ldr	r3, [pc, #584]	; (80015f4 <HAL_RCC_OscConfig+0x26c>)
 80013aa:	685b      	ldr	r3, [r3, #4]
 80013ac:	f003 030c 	and.w	r3, r3, #12
 80013b0:	2b04      	cmp	r3, #4
 80013b2:	d00c      	beq.n	80013ce <HAL_RCC_OscConfig+0x46>
        || ((__HAL_RCC_GET_SYSCLK_SOURCE() == RCC_SYSCLKSOURCE_STATUS_PLLCLK) && (__HAL_RCC_GET_PLL_OSCSOURCE() == RCC_PLLSOURCE_HSE)))
 80013b4:	4b8f      	ldr	r3, [pc, #572]	; (80015f4 <HAL_RCC_OscConfig+0x26c>)
 80013b6:	685b      	ldr	r3, [r3, #4]
 80013b8:	f003 030c 	and.w	r3, r3, #12
 80013bc:	2b08      	cmp	r3, #8
 80013be:	d112      	bne.n	80013e6 <HAL_RCC_OscConfig+0x5e>
 80013c0:	4b8c      	ldr	r3, [pc, #560]	; (80015f4 <HAL_RCC_OscConfig+0x26c>)
 80013c2:	685b      	ldr	r3, [r3, #4]
 80013c4:	f403 3380 	and.w	r3, r3, #65536	; 0x10000
 80013c8:	f5b3 3f80 	cmp.w	r3, #65536	; 0x10000
 80013cc:	d10b      	bne.n	80013e6 <HAL_RCC_OscConfig+0x5e>
    {
      if ((__HAL_RCC_GET_FLAG(RCC_FLAG_HSERDY) != RESET) && (RCC_OscInitStruct->HSEState == RCC_HSE_OFF))
 80013ce:	4b89      	ldr	r3, [pc, #548]	; (80015f4 <HAL_RCC_OscConfig+0x26c>)
 80013d0:	681b      	ldr	r3, [r3, #0]
 80013d2:	f403 3300 	and.w	r3, r3, #131072	; 0x20000
 80013d6:	2b00      	cmp	r3, #0
 80013d8:	d06c      	beq.n	80014b4 <HAL_RCC_OscConfig+0x12c>
 80013da:	687b      	ldr	r3, [r7, #4]
 80013dc:	685b      	ldr	r3, [r3, #4]
 80013de:	2b00      	cmp	r3, #0
 80013e0:	d168      	bne.n	80014b4 <HAL_RCC_OscConfig+0x12c>
      {
        return HAL_ERROR;
 80013e2:	2301      	movs	r3, #1
 80013e4:	e24c      	b.n	8001880 <HAL_RCC_OscConfig+0x4f8>
      }
    }
    else
    {
      /* Set the new HSE configuration ---------------------------------------*/
      __HAL_RCC_HSE_CONFIG(RCC_OscInitStruct->HSEState);
 80013e6:	687b      	ldr	r3, [r7, #4]
 80013e8:	685b      	ldr	r3, [r3, #4]
 80013ea:	f5b3 3f80 	cmp.w	r3, #65536	; 0x10000
 80013ee:	d106      	bne.n	80013fe <HAL_RCC_OscConfig+0x76>
 80013f0:	4b80      	ldr	r3, [pc, #512]	; (80015f4 <HAL_RCC_OscConfig+0x26c>)
 80013f2:	681b      	ldr	r3, [r3, #0]
 80013f4:	4a7f      	ldr	r2, [pc, #508]	; (80015f4 <HAL_RCC_OscConfig+0x26c>)
 80013f6:	f443 3380 	orr.w	r3, r3, #65536	; 0x10000
 80013fa:	6013      	str	r3, [r2, #0]
 80013fc:	e02e      	b.n	800145c <HAL_RCC_OscConfig+0xd4>
 80013fe:	687b      	ldr	r3, [r7, #4]
 8001400:	685b      	ldr	r3, [r3, #4]
 8001402:	2b00      	cmp	r3, #0
 8001404:	d10c      	bne.n	8001420 <HAL_RCC_OscConfig+0x98>
 8001406:	4b7b      	ldr	r3, [pc, #492]	; (80015f4 <HAL_RCC_OscConfig+0x26c>)
 8001408:	681b      	ldr	r3, [r3, #0]
 800140a:	4a7a      	ldr	r2, [pc, #488]	; (80015f4 <HAL_RCC_OscConfig+0x26c>)
 800140c:	f423 3380 	bic.w	r3, r3, #65536	; 0x10000
 8001410:	6013      	str	r3, [r2, #0]
 8001412:	4b78      	ldr	r3, [pc, #480]	; (80015f4 <HAL_RCC_OscConfig+0x26c>)
 8001414:	681b      	ldr	r3, [r3, #0]
 8001416:	4a77      	ldr	r2, [pc, #476]	; (80015f4 <HAL_RCC_OscConfig+0x26c>)
 8001418:	f423 2380 	bic.w	r3, r3, #262144	; 0x40000
 800141c:	6013      	str	r3, [r2, #0]
 800141e:	e01d      	b.n	800145c <HAL_RCC_OscConfig+0xd4>
 8001420:	687b      	ldr	r3, [r7, #4]
 8001422:	685b      	ldr	r3, [r3, #4]
 8001424:	f5b3 2fa0 	cmp.w	r3, #327680	; 0x50000
 8001428:	d10c      	bne.n	8001444 <HAL_RCC_OscConfig+0xbc>
 800142a:	4b72      	ldr	r3, [pc, #456]	; (80015f4 <HAL_RCC_OscConfig+0x26c>)
 800142c:	681b      	ldr	r3, [r3, #0]
 800142e:	4a71      	ldr	r2, [pc, #452]	; (80015f4 <HAL_RCC_OscConfig+0x26c>)
 8001430:	f443 2380 	orr.w	r3, r3, #262144	; 0x40000
 8001434:	6013      	str	r3, [r2, #0]
 8001436:	4b6f      	ldr	r3, [pc, #444]	; (80015f4 <HAL_RCC_OscConfig+0x26c>)
 8001438:	681b      	ldr	r3, [r3, #0]
 800143a:	4a6e      	ldr	r2, [pc, #440]	; (80015f4 <HAL_RCC_OscConfig+0x26c>)
 800143c:	f443 3380 	orr.w	r3, r3, #65536	; 0x10000
 8001440:	6013      	str	r3, [r2, #0]
 8001442:	e00b      	b.n	800145c <HAL_RCC_OscConfig+0xd4>
 8001444:	4b6b      	ldr	r3, [pc, #428]	; (80015f4 <HAL_RCC_OscConfig+0x26c>)
 8001446:	681b      	ldr	r3, [r3, #0]
 8001448:	4a6a      	ldr	r2, [pc, #424]	; (80015f4 <HAL_RCC_OscConfig+0x26c>)
 800144a:	f423 3380 	bic.w	r3, r3, #65536	; 0x10000
 800144e:	6013      	str	r3, [r2, #0]
 8001450:	4b68      	ldr	r3, [pc, #416]	; (80015f4 <HAL_RCC_OscConfig+0x26c>)
 8001452:	681b      	ldr	r3, [r3, #0]
 8001454:	4a67      	ldr	r2, [pc, #412]	; (80015f4 <HAL_RCC_OscConfig+0x26c>)
 8001456:	f423 2380 	bic.w	r3, r3, #262144	; 0x40000
 800145a:	6013      	str	r3, [r2, #0]


      /* Check the HSE State */
      if (RCC_OscInitStruct->HSEState != RCC_HSE_OFF)
 800145c:	687b      	ldr	r3, [r7, #4]
 800145e:	685b      	ldr	r3, [r3, #4]
 8001460:	2b00      	cmp	r3, #0
 8001462:	d013      	beq.n	800148c <HAL_RCC_OscConfig+0x104>
      {
        /* Get Start Tick */
        tickstart = HAL_GetTick();
 8001464:	f7ff fce4 	bl	8000e30 <HAL_GetTick>
 8001468:	6138      	str	r0, [r7, #16]

        /* Wait till HSE is ready */
        while (__HAL_RCC_GET_FLAG(RCC_FLAG_HSERDY) == RESET)
 800146a:	e008      	b.n	800147e <HAL_RCC_OscConfig+0xf6>
        {
          if ((HAL_GetTick() - tickstart) > HSE_TIMEOUT_VALUE)
 800146c:	f7ff fce0 	bl	8000e30 <HAL_GetTick>
 8001470:	4602      	mov	r2, r0
 8001472:	693b      	ldr	r3, [r7, #16]
 8001474:	1ad3      	subs	r3, r2, r3
 8001476:	2b64      	cmp	r3, #100	; 0x64
 8001478:	d901      	bls.n	800147e <HAL_RCC_OscConfig+0xf6>
          {
            return HAL_TIMEOUT;
 800147a:	2303      	movs	r3, #3
 800147c:	e200      	b.n	8001880 <HAL_RCC_OscConfig+0x4f8>
        while (__HAL_RCC_GET_FLAG(RCC_FLAG_HSERDY) == RESET)
 800147e:	4b5d      	ldr	r3, [pc, #372]	; (80015f4 <HAL_RCC_OscConfig+0x26c>)
 8001480:	681b      	ldr	r3, [r3, #0]
 8001482:	f403 3300 	and.w	r3, r3, #131072	; 0x20000
 8001486:	2b00      	cmp	r3, #0
 8001488:	d0f0      	beq.n	800146c <HAL_RCC_OscConfig+0xe4>
 800148a:	e014      	b.n	80014b6 <HAL_RCC_OscConfig+0x12e>
        }
      }
      else
      {
        /* Get Start Tick */
        tickstart = HAL_GetTick();
 800148c:	f7ff fcd0 	bl	8000e30 <HAL_GetTick>
 8001490:	6138      	str	r0, [r7, #16]

        /* Wait till HSE is disabled */
        while (__HAL_RCC_GET_FLAG(RCC_FLAG_HSERDY) != RESET)
 8001492:	e008      	b.n	80014a6 <HAL_RCC_OscConfig+0x11e>
        {
          if ((HAL_GetTick() - tickstart) > HSE_TIMEOUT_VALUE)
 8001494:	f7ff fccc 	bl	8000e30 <HAL_GetTick>
 8001498:	4602      	mov	r2, r0
 800149a:	693b      	ldr	r3, [r7, #16]
 800149c:	1ad3      	subs	r3, r2, r3
 800149e:	2b64      	cmp	r3, #100	; 0x64
 80014a0:	d901      	bls.n	80014a6 <HAL_RCC_OscConfig+0x11e>
          {
            return HAL_TIMEOUT;
 80014a2:	2303      	movs	r3, #3
 80014a4:	e1ec      	b.n	8001880 <HAL_RCC_OscConfig+0x4f8>
        while (__HAL_RCC_GET_FLAG(RCC_FLAG_HSERDY) != RESET)
 80014a6:	4b53      	ldr	r3, [pc, #332]	; (80015f4 <HAL_RCC_OscConfig+0x26c>)
 80014a8:	681b      	ldr	r3, [r3, #0]
 80014aa:	f403 3300 	and.w	r3, r3, #131072	; 0x20000
 80014ae:	2b00      	cmp	r3, #0
 80014b0:	d1f0      	bne.n	8001494 <HAL_RCC_OscConfig+0x10c>
 80014b2:	e000      	b.n	80014b6 <HAL_RCC_OscConfig+0x12e>
      if ((__HAL_RCC_GET_FLAG(RCC_FLAG_HSERDY) != RESET) && (RCC_OscInitStruct->HSEState == RCC_HSE_OFF))
 80014b4:	bf00      	nop
        }
      }
    }
  }
  /*----------------------------- HSI Configuration --------------------------*/
  if (((RCC_OscInitStruct->OscillatorType) & RCC_OSCILLATORTYPE_HSI) == RCC_OSCILLATORTYPE_HSI)
 80014b6:	687b      	ldr	r3, [r7, #4]
 80014b8:	681b      	ldr	r3, [r3, #0]
 80014ba:	f003 0302 	and.w	r3, r3, #2
 80014be:	2b00      	cmp	r3, #0
 80014c0:	d063      	beq.n	800158a <HAL_RCC_OscConfig+0x202>
    /* Check the parameters */
    assert_param(IS_RCC_HSI(RCC_OscInitStruct->HSIState));
    assert_param(IS_RCC_CALIBRATION_VALUE(RCC_OscInitStruct->HSICalibrationValue));

    /* Check if HSI is used as system clock or as PLL source when PLL is selected as system clock */
    if ((__HAL_RCC_GET_SYSCLK_SOURCE() == RCC_SYSCLKSOURCE_STATUS_HSI)
 80014c2:	4b4c      	ldr	r3, [pc, #304]	; (80015f4 <HAL_RCC_OscConfig+0x26c>)
 80014c4:	685b      	ldr	r3, [r3, #4]
 80014c6:	f003 030c 	and.w	r3, r3, #12
 80014ca:	2b00      	cmp	r3, #0
 80014cc:	d00b      	beq.n	80014e6 <HAL_RCC_OscConfig+0x15e>
        || ((__HAL_RCC_GET_SYSCLK_SOURCE() == RCC_SYSCLKSOURCE_STATUS_PLLCLK) && (__HAL_RCC_GET_PLL_OSCSOURCE() == RCC_PLLSOURCE_HSI_DIV2)))
 80014ce:	4b49      	ldr	r3, [pc, #292]	; (80015f4 <HAL_RCC_OscConfig+0x26c>)
 80014d0:	685b      	ldr	r3, [r3, #4]
 80014d2:	f003 030c 	and.w	r3, r3, #12
 80014d6:	2b08      	cmp	r3, #8
 80014d8:	d11c      	bne.n	8001514 <HAL_RCC_OscConfig+0x18c>
 80014da:	4b46      	ldr	r3, [pc, #280]	; (80015f4 <HAL_RCC_OscConfig+0x26c>)
 80014dc:	685b      	ldr	r3, [r3, #4]
 80014de:	f403 3380 	and.w	r3, r3, #65536	; 0x10000
 80014e2:	2b00      	cmp	r3, #0
 80014e4:	d116      	bne.n	8001514 <HAL_RCC_OscConfig+0x18c>
    {
      /* When HSI is used as system clock it will not disabled */
      if ((__HAL_RCC_GET_FLAG(RCC_FLAG_HSIRDY) != RESET) && (RCC_OscInitStruct->HSIState != RCC_HSI_ON))
 80014e6:	4b43      	ldr	r3, [pc, #268]	; (80015f4 <HAL_RCC_OscConfig+0x26c>)
 80014e8:	681b      	ldr	r3, [r3, #0]
 80014ea:	f003 0302 	and.w	r3, r3, #2
 80014ee:	2b00      	cmp	r3, #0
 80014f0:	d005      	beq.n	80014fe <HAL_RCC_OscConfig+0x176>
 80014f2:	687b      	ldr	r3, [r7, #4]
 80014f4:	691b      	ldr	r3, [r3, #16]
 80014f6:	2b01      	cmp	r3, #1
 80014f8:	d001      	beq.n	80014fe <HAL_RCC_OscConfig+0x176>
      {
        return HAL_ERROR;
 80014fa:	2301      	movs	r3, #1
 80014fc:	e1c0      	b.n	8001880 <HAL_RCC_OscConfig+0x4f8>
      }
      /* Otherwise, just the calibration is allowed */
      else
      {
        /* Adjusts the Internal High Speed oscillator (HSI) calibration value.*/
        __HAL_RCC_HSI_CALIBRATIONVALUE_ADJUST(RCC_OscInitStruct->HSICalibrationValue);
 80014fe:	4b3d      	ldr	r3, [pc, #244]	; (80015f4 <HAL_RCC_OscConfig+0x26c>)
 8001500:	681b      	ldr	r3, [r3, #0]
 8001502:	f023 02f8 	bic.w	r2, r3, #248	; 0xf8
 8001506:	687b      	ldr	r3, [r7, #4]
 8001508:	695b      	ldr	r3, [r3, #20]
 800150a:	00db      	lsls	r3, r3, #3
 800150c:	4939      	ldr	r1, [pc, #228]	; (80015f4 <HAL_RCC_OscConfig+0x26c>)
 800150e:	4313      	orrs	r3, r2
 8001510:	600b      	str	r3, [r1, #0]
      if ((__HAL_RCC_GET_FLAG(RCC_FLAG_HSIRDY) != RESET) && (RCC_OscInitStruct->HSIState != RCC_HSI_ON))
 8001512:	e03a      	b.n	800158a <HAL_RCC_OscConfig+0x202>
      }
    }
    else
    {
      /* Check the HSI State */
      if (RCC_OscInitStruct->HSIState != RCC_HSI_OFF)
 8001514:	687b      	ldr	r3, [r7, #4]
 8001516:	691b      	ldr	r3, [r3, #16]
 8001518:	2b00      	cmp	r3, #0
 800151a:	d020      	beq.n	800155e <HAL_RCC_OscConfig+0x1d6>
      {
        /* Enable the Internal High Speed oscillator (HSI). */
        __HAL_RCC_HSI_ENABLE();
 800151c:	4b36      	ldr	r3, [pc, #216]	; (80015f8 <HAL_RCC_OscConfig+0x270>)
 800151e:	2201      	movs	r2, #1
 8001520:	601a      	str	r2, [r3, #0]

        /* Get Start Tick */
        tickstart = HAL_GetTick();
 8001522:	f7ff fc85 	bl	8000e30 <HAL_GetTick>
 8001526:	6138      	str	r0, [r7, #16]

        /* Wait till HSI is ready */
        while (__HAL_RCC_GET_FLAG(RCC_FLAG_HSIRDY) == RESET)
 8001528:	e008      	b.n	800153c <HAL_RCC_OscConfig+0x1b4>
        {
          if ((HAL_GetTick() - tickstart) > HSI_TIMEOUT_VALUE)
 800152a:	f7ff fc81 	bl	8000e30 <HAL_GetTick>
 800152e:	4602      	mov	r2, r0
 8001530:	693b      	ldr	r3, [r7, #16]
 8001532:	1ad3      	subs	r3, r2, r3
 8001534:	2b02      	cmp	r3, #2
 8001536:	d901      	bls.n	800153c <HAL_RCC_OscConfig+0x1b4>
          {
            return HAL_TIMEOUT;
 8001538:	2303      	movs	r3, #3
 800153a:	e1a1      	b.n	8001880 <HAL_RCC_OscConfig+0x4f8>
        while (__HAL_RCC_GET_FLAG(RCC_FLAG_HSIRDY) == RESET)
 800153c:	4b2d      	ldr	r3, [pc, #180]	; (80015f4 <HAL_RCC_OscConfig+0x26c>)
 800153e:	681b      	ldr	r3, [r3, #0]
 8001540:	f003 0302 	and.w	r3, r3, #2
 8001544:	2b00      	cmp	r3, #0
 8001546:	d0f0      	beq.n	800152a <HAL_RCC_OscConfig+0x1a2>
          }
        }

        /* Adjusts the Internal High Speed oscillator (HSI) calibration value.*/
        __HAL_RCC_HSI_CALIBRATIONVALUE_ADJUST(RCC_OscInitStruct->HSICalibrationValue);
 8001548:	4b2a      	ldr	r3, [pc, #168]	; (80015f4 <HAL_RCC_OscConfig+0x26c>)
 800154a:	681b      	ldr	r3, [r3, #0]
 800154c:	f023 02f8 	bic.w	r2, r3, #248	; 0xf8
 8001550:	687b      	ldr	r3, [r7, #4]
 8001552:	695b      	ldr	r3, [r3, #20]
 8001554:	00db      	lsls	r3, r3, #3
 8001556:	4927      	ldr	r1, [pc, #156]	; (80015f4 <HAL_RCC_OscConfig+0x26c>)
 8001558:	4313      	orrs	r3, r2
 800155a:	600b      	str	r3, [r1, #0]
 800155c:	e015      	b.n	800158a <HAL_RCC_OscConfig+0x202>
      }
      else
      {
        /* Disable the Internal High Speed oscillator (HSI). */
        __HAL_RCC_HSI_DISABLE();
 800155e:	4b26      	ldr	r3, [pc, #152]	; (80015f8 <HAL_RCC_OscConfig+0x270>)
 8001560:	2200      	movs	r2, #0
 8001562:	601a      	str	r2, [r3, #0]

        /* Get Start Tick */
        tickstart = HAL_GetTick();
 8001564:	f7ff fc64 	bl	8000e30 <HAL_GetTick>
 8001568:	6138      	str	r0, [r7, #16]

        /* Wait till HSI is disabled */
        while (__HAL_RCC_GET_FLAG(RCC_FLAG_HSIRDY) != RESET)
 800156a:	e008      	b.n	800157e <HAL_RCC_OscConfig+0x1f6>
        {
          if ((HAL_GetTick() - tickstart) > HSI_TIMEOUT_VALUE)
 800156c:	f7ff fc60 	bl	8000e30 <HAL_GetTick>
 8001570:	4602      	mov	r2, r0
 8001572:	693b      	ldr	r3, [r7, #16]
 8001574:	1ad3      	subs	r3, r2, r3
 8001576:	2b02      	cmp	r3, #2
 8001578:	d901      	bls.n	800157e <HAL_RCC_OscConfig+0x1f6>
          {
            return HAL_TIMEOUT;
 800157a:	2303      	movs	r3, #3
 800157c:	e180      	b.n	8001880 <HAL_RCC_OscConfig+0x4f8>
        while (__HAL_RCC_GET_FLAG(RCC_FLAG_HSIRDY) != RESET)
 800157e:	4b1d      	ldr	r3, [pc, #116]	; (80015f4 <HAL_RCC_OscConfig+0x26c>)
 8001580:	681b      	ldr	r3, [r3, #0]
 8001582:	f003 0302 	and.w	r3, r3, #2
 8001586:	2b00      	cmp	r3, #0
 8001588:	d1f0      	bne.n	800156c <HAL_RCC_OscConfig+0x1e4>
        }
      }
    }
  }
  /*------------------------------ LSI Configuration -------------------------*/
  if (((RCC_OscInitStruct->OscillatorType) & RCC_OSCILLATORTYPE_LSI) == RCC_OSCILLATORTYPE_LSI)
 800158a:	687b      	ldr	r3, [r7, #4]
 800158c:	681b      	ldr	r3, [r3, #0]
 800158e:	f003 0308 	and.w	r3, r3, #8
 8001592:	2b00      	cmp	r3, #0
 8001594:	d03a      	beq.n	800160c <HAL_RCC_OscConfig+0x284>
  {
    /* Check the parameters */
    assert_param(IS_RCC_LSI(RCC_OscInitStruct->LSIState));

    /* Check the LSI State */
    if (RCC_OscInitStruct->LSIState != RCC_LSI_OFF)
 8001596:	687b      	ldr	r3, [r7, #4]
 8001598:	699b      	ldr	r3, [r3, #24]
 800159a:	2b00      	cmp	r3, #0
 800159c:	d019      	beq.n	80015d2 <HAL_RCC_OscConfig+0x24a>
    {
      /* Enable the Internal Low Speed oscillator (LSI). */
      __HAL_RCC_LSI_ENABLE();
 800159e:	4b17      	ldr	r3, [pc, #92]	; (80015fc <HAL_RCC_OscConfig+0x274>)
 80015a0:	2201      	movs	r2, #1
 80015a2:	601a      	str	r2, [r3, #0]

      /* Get Start Tick */
      tickstart = HAL_GetTick();
 80015a4:	f7ff fc44 	bl	8000e30 <HAL_GetTick>
 80015a8:	6138      	str	r0, [r7, #16]

      /* Wait till LSI is ready */
      while (__HAL_RCC_GET_FLAG(RCC_FLAG_LSIRDY) == RESET)
 80015aa:	e008      	b.n	80015be <HAL_RCC_OscConfig+0x236>
      {
        if ((HAL_GetTick() - tickstart) > LSI_TIMEOUT_VALUE)
 80015ac:	f7ff fc40 	bl	8000e30 <HAL_GetTick>
 80015b0:	4602      	mov	r2, r0
 80015b2:	693b      	ldr	r3, [r7, #16]
 80015b4:	1ad3      	subs	r3, r2, r3
 80015b6:	2b02      	cmp	r3, #2
 80015b8:	d901      	bls.n	80015be <HAL_RCC_OscConfig+0x236>
        {
          return HAL_TIMEOUT;
 80015ba:	2303      	movs	r3, #3
 80015bc:	e160      	b.n	8001880 <HAL_RCC_OscConfig+0x4f8>
      while (__HAL_RCC_GET_FLAG(RCC_FLAG_LSIRDY) == RESET)
 80015be:	4b0d      	ldr	r3, [pc, #52]	; (80015f4 <HAL_RCC_OscConfig+0x26c>)
 80015c0:	6a5b      	ldr	r3, [r3, #36]	; 0x24
 80015c2:	f003 0302 	and.w	r3, r3, #2
 80015c6:	2b00      	cmp	r3, #0
 80015c8:	d0f0      	beq.n	80015ac <HAL_RCC_OscConfig+0x224>
        }
      }
      /*  To have a fully stabilized clock in the specified range, a software delay of 1ms
          should be added.*/
      RCC_Delay(1);
 80015ca:	2001      	movs	r0, #1
 80015cc:	f000 fa9c 	bl	8001b08 <RCC_Delay>
 80015d0:	e01c      	b.n	800160c <HAL_RCC_OscConfig+0x284>
    }
    else
    {
      /* Disable the Internal Low Speed oscillator (LSI). */
      __HAL_RCC_LSI_DISABLE();
 80015d2:	4b0a      	ldr	r3, [pc, #40]	; (80015fc <HAL_RCC_OscConfig+0x274>)
 80015d4:	2200      	movs	r2, #0
 80015d6:	601a      	str	r2, [r3, #0]

      /* Get Start Tick */
      tickstart = HAL_GetTick();
 80015d8:	f7ff fc2a 	bl	8000e30 <HAL_GetTick>
 80015dc:	6138      	str	r0, [r7, #16]

      /* Wait till LSI is disabled */
      while (__HAL_RCC_GET_FLAG(RCC_FLAG_LSIRDY) != RESET)
 80015de:	e00f      	b.n	8001600 <HAL_RCC_OscConfig+0x278>
      {
        if ((HAL_GetTick() - tickstart) > LSI_TIMEOUT_VALUE)
 80015e0:	f7ff fc26 	bl	8000e30 <HAL_GetTick>
 80015e4:	4602      	mov	r2, r0
 80015e6:	693b      	ldr	r3, [r7, #16]
 80015e8:	1ad3      	subs	r3, r2, r3
 80015ea:	2b02      	cmp	r3, #2
 80015ec:	d908      	bls.n	8001600 <HAL_RCC_OscConfig+0x278>
        {
          return HAL_TIMEOUT;
 80015ee:	2303      	movs	r3, #3
 80015f0:	e146      	b.n	8001880 <HAL_RCC_OscConfig+0x4f8>
 80015f2:	bf00      	nop
 80015f4:	40021000 	.word	0x40021000
 80015f8:	42420000 	.word	0x42420000
 80015fc:	42420480 	.word	0x42420480
      while (__HAL_RCC_GET_FLAG(RCC_FLAG_LSIRDY) != RESET)
 8001600:	4b92      	ldr	r3, [pc, #584]	; (800184c <HAL_RCC_OscConfig+0x4c4>)
 8001602:	6a5b      	ldr	r3, [r3, #36]	; 0x24
 8001604:	f003 0302 	and.w	r3, r3, #2
 8001608:	2b00      	cmp	r3, #0
 800160a:	d1e9      	bne.n	80015e0 <HAL_RCC_OscConfig+0x258>
        }
      }
    }
  }
  /*------------------------------ LSE Configuration -------------------------*/
  if (((RCC_OscInitStruct->OscillatorType) & RCC_OSCILLATORTYPE_LSE) == RCC_OSCILLATORTYPE_LSE)
 800160c:	687b      	ldr	r3, [r7, #4]
 800160e:	681b      	ldr	r3, [r3, #0]
 8001610:	f003 0304 	and.w	r3, r3, #4
 8001614:	2b00      	cmp	r3, #0
 8001616:	f000 80a6 	beq.w	8001766 <HAL_RCC_OscConfig+0x3de>
  {
    FlagStatus       pwrclkchanged = RESET;
 800161a:	2300      	movs	r3, #0
 800161c:	75fb      	strb	r3, [r7, #23]
    /* Check the parameters */
    assert_param(IS_RCC_LSE(RCC_OscInitStruct->LSEState));

    /* Update LSE configuration in Backup Domain control register    */
    /* Requires to enable write access to Backup Domain of necessary */
    if (__HAL_RCC_PWR_IS_CLK_DISABLED())
 800161e:	4b8b      	ldr	r3, [pc, #556]	; (800184c <HAL_RCC_OscConfig+0x4c4>)
 8001620:	69db      	ldr	r3, [r3, #28]
 8001622:	f003 5380 	and.w	r3, r3, #268435456	; 0x10000000
 8001626:	2b00      	cmp	r3, #0
 8001628:	d10d      	bne.n	8001646 <HAL_RCC_OscConfig+0x2be>
    {
      __HAL_RCC_PWR_CLK_ENABLE();
 800162a:	4b88      	ldr	r3, [pc, #544]	; (800184c <HAL_RCC_OscConfig+0x4c4>)
 800162c:	69db      	ldr	r3, [r3, #28]
 800162e:	4a87      	ldr	r2, [pc, #540]	; (800184c <HAL_RCC_OscConfig+0x4c4>)
 8001630:	f043 5380 	orr.w	r3, r3, #268435456	; 0x10000000
 8001634:	61d3      	str	r3, [r2, #28]
 8001636:	4b85      	ldr	r3, [pc, #532]	; (800184c <HAL_RCC_OscConfig+0x4c4>)
 8001638:	69db      	ldr	r3, [r3, #28]
 800163a:	f003 5380 	and.w	r3, r3, #268435456	; 0x10000000
 800163e:	60bb      	str	r3, [r7, #8]
 8001640:	68bb      	ldr	r3, [r7, #8]
      pwrclkchanged = SET;
 8001642:	2301      	movs	r3, #1
 8001644:	75fb      	strb	r3, [r7, #23]
    }

    if (HAL_IS_BIT_CLR(PWR->CR, PWR_CR_DBP))
 8001646:	4b82      	ldr	r3, [pc, #520]	; (8001850 <HAL_RCC_OscConfig+0x4c8>)
 8001648:	681b      	ldr	r3, [r3, #0]
 800164a:	f403 7380 	and.w	r3, r3, #256	; 0x100
 800164e:	2b00      	cmp	r3, #0
 8001650:	d118      	bne.n	8001684 <HAL_RCC_OscConfig+0x2fc>
    {
      /* Enable write access to Backup domain */
      SET_BIT(PWR->CR, PWR_CR_DBP);
 8001652:	4b7f      	ldr	r3, [pc, #508]	; (8001850 <HAL_RCC_OscConfig+0x4c8>)
 8001654:	681b      	ldr	r3, [r3, #0]
 8001656:	4a7e      	ldr	r2, [pc, #504]	; (8001850 <HAL_RCC_OscConfig+0x4c8>)
 8001658:	f443 7380 	orr.w	r3, r3, #256	; 0x100
 800165c:	6013      	str	r3, [r2, #0]

      /* Wait for Backup domain Write protection disable */
      tickstart = HAL_GetTick();
 800165e:	f7ff fbe7 	bl	8000e30 <HAL_GetTick>
 8001662:	6138      	str	r0, [r7, #16]

      while (HAL_IS_BIT_CLR(PWR->CR, PWR_CR_DBP))
 8001664:	e008      	b.n	8001678 <HAL_RCC_OscConfig+0x2f0>
      {
        if ((HAL_GetTick() - tickstart) > RCC_DBP_TIMEOUT_VALUE)
 8001666:	f7ff fbe3 	bl	8000e30 <HAL_GetTick>
 800166a:	4602      	mov	r2, r0
 800166c:	693b      	ldr	r3, [r7, #16]
 800166e:	1ad3      	subs	r3, r2, r3
 8001670:	2b64      	cmp	r3, #100	; 0x64
 8001672:	d901      	bls.n	8001678 <HAL_RCC_OscConfig+0x2f0>
        {
          return HAL_TIMEOUT;
 8001674:	2303      	movs	r3, #3
 8001676:	e103      	b.n	8001880 <HAL_RCC_OscConfig+0x4f8>
      while (HAL_IS_BIT_CLR(PWR->CR, PWR_CR_DBP))
 8001678:	4b75      	ldr	r3, [pc, #468]	; (8001850 <HAL_RCC_OscConfig+0x4c8>)
 800167a:	681b      	ldr	r3, [r3, #0]
 800167c:	f403 7380 	and.w	r3, r3, #256	; 0x100
 8001680:	2b00      	cmp	r3, #0
 8001682:	d0f0      	beq.n	8001666 <HAL_RCC_OscConfig+0x2de>
        }
      }
    }

    /* Set the new LSE configuration -----------------------------------------*/
    __HAL_RCC_LSE_CONFIG(RCC_OscInitStruct->LSEState);
 8001684:	687b      	ldr	r3, [r7, #4]
 8001686:	68db      	ldr	r3, [r3, #12]
 8001688:	2b01      	cmp	r3, #1
 800168a:	d106      	bne.n	800169a <HAL_RCC_OscConfig+0x312>
 800168c:	4b6f      	ldr	r3, [pc, #444]	; (800184c <HAL_RCC_OscConfig+0x4c4>)
 800168e:	6a1b      	ldr	r3, [r3, #32]
 8001690:	4a6e      	ldr	r2, [pc, #440]	; (800184c <HAL_RCC_OscConfig+0x4c4>)
 8001692:	f043 0301 	orr.w	r3, r3, #1
 8001696:	6213      	str	r3, [r2, #32]
 8001698:	e02d      	b.n	80016f6 <HAL_RCC_OscConfig+0x36e>
 800169a:	687b      	ldr	r3, [r7, #4]
 800169c:	68db      	ldr	r3, [r3, #12]
 800169e:	2b00      	cmp	r3, #0
 80016a0:	d10c      	bne.n	80016bc <HAL_RCC_OscConfig+0x334>
 80016a2:	4b6a      	ldr	r3, [pc, #424]	; (800184c <HAL_RCC_OscConfig+0x4c4>)
 80016a4:	6a1b      	ldr	r3, [r3, #32]
 80016a6:	4a69      	ldr	r2, [pc, #420]	; (800184c <HAL_RCC_OscConfig+0x4c4>)
 80016a8:	f023 0301 	bic.w	r3, r3, #1
 80016ac:	6213      	str	r3, [r2, #32]
 80016ae:	4b67      	ldr	r3, [pc, #412]	; (800184c <HAL_RCC_OscConfig+0x4c4>)
 80016b0:	6a1b      	ldr	r3, [r3, #32]
 80016b2:	4a66      	ldr	r2, [pc, #408]	; (800184c <HAL_RCC_OscConfig+0x4c4>)
 80016b4:	f023 0304 	bic.w	r3, r3, #4
 80016b8:	6213      	str	r3, [r2, #32]
 80016ba:	e01c      	b.n	80016f6 <HAL_RCC_OscConfig+0x36e>
 80016bc:	687b      	ldr	r3, [r7, #4]
 80016be:	68db      	ldr	r3, [r3, #12]
 80016c0:	2b05      	cmp	r3, #5
 80016c2:	d10c      	bne.n	80016de <HAL_RCC_OscConfig+0x356>
 80016c4:	4b61      	ldr	r3, [pc, #388]	; (800184c <HAL_RCC_OscConfig+0x4c4>)
 80016c6:	6a1b      	ldr	r3, [r3, #32]
 80016c8:	4a60      	ldr	r2, [pc, #384]	; (800184c <HAL_RCC_OscConfig+0x4c4>)
 80016ca:	f043 0304 	orr.w	r3, r3, #4
 80016ce:	6213      	str	r3, [r2, #32]
 80016d0:	4b5e      	ldr	r3, [pc, #376]	; (800184c <HAL_RCC_OscConfig+0x4c4>)
 80016d2:	6a1b      	ldr	r3, [r3, #32]
 80016d4:	4a5d      	ldr	r2, [pc, #372]	; (800184c <HAL_RCC_OscConfig+0x4c4>)
 80016d6:	f043 0301 	orr.w	r3, r3, #1
 80016da:	6213      	str	r3, [r2, #32]
 80016dc:	e00b      	b.n	80016f6 <HAL_RCC_OscConfig+0x36e>
 80016de:	4b5b      	ldr	r3, [pc, #364]	; (800184c <HAL_RCC_OscConfig+0x4c4>)
 80016e0:	6a1b      	ldr	r3, [r3, #32]
 80016e2:	4a5a      	ldr	r2, [pc, #360]	; (800184c <HAL_RCC_OscConfig+0x4c4>)
 80016e4:	f023 0301 	bic.w	r3, r3, #1
 80016e8:	6213      	str	r3, [r2, #32]
 80016ea:	4b58      	ldr	r3, [pc, #352]	; (800184c <HAL_RCC_OscConfig+0x4c4>)
 80016ec:	6a1b      	ldr	r3, [r3, #32]
 80016ee:	4a57      	ldr	r2, [pc, #348]	; (800184c <HAL_RCC_OscConfig+0x4c4>)
 80016f0:	f023 0304 	bic.w	r3, r3, #4
 80016f4:	6213      	str	r3, [r2, #32]
    /* Check the LSE State */
    if (RCC_OscInitStruct->LSEState != RCC_LSE_OFF)
 80016f6:	687b      	ldr	r3, [r7, #4]
 80016f8:	68db      	ldr	r3, [r3, #12]
 80016fa:	2b00      	cmp	r3, #0
 80016fc:	d015      	beq.n	800172a <HAL_RCC_OscConfig+0x3a2>
    {
      /* Get Start Tick */
      tickstart = HAL_GetTick();
 80016fe:	f7ff fb97 	bl	8000e30 <HAL_GetTick>
 8001702:	6138      	str	r0, [r7, #16]

      /* Wait till LSE is ready */
      while (__HAL_RCC_GET_FLAG(RCC_FLAG_LSERDY) == RESET)
 8001704:	e00a      	b.n	800171c <HAL_RCC_OscConfig+0x394>
      {
        if ((HAL_GetTick() - tickstart) > RCC_LSE_TIMEOUT_VALUE)
 8001706:	f7ff fb93 	bl	8000e30 <HAL_GetTick>
 800170a:	4602      	mov	r2, r0
 800170c:	693b      	ldr	r3, [r7, #16]
 800170e:	1ad3      	subs	r3, r2, r3
 8001710:	f241 3288 	movw	r2, #5000	; 0x1388
 8001714:	4293      	cmp	r3, r2
 8001716:	d901      	bls.n	800171c <HAL_RCC_OscConfig+0x394>
        {
          return HAL_TIMEOUT;
 8001718:	2303      	movs	r3, #3
 800171a:	e0b1      	b.n	8001880 <HAL_RCC_OscConfig+0x4f8>
      while (__HAL_RCC_GET_FLAG(RCC_FLAG_LSERDY) == RESET)
 800171c:	4b4b      	ldr	r3, [pc, #300]	; (800184c <HAL_RCC_OscConfig+0x4c4>)
 800171e:	6a1b      	ldr	r3, [r3, #32]
 8001720:	f003 0302 	and.w	r3, r3, #2
 8001724:	2b00      	cmp	r3, #0
 8001726:	d0ee      	beq.n	8001706 <HAL_RCC_OscConfig+0x37e>
 8001728:	e014      	b.n	8001754 <HAL_RCC_OscConfig+0x3cc>
      }
    }
    else
    {
      /* Get Start Tick */
      tickstart = HAL_GetTick();
 800172a:	f7ff fb81 	bl	8000e30 <HAL_GetTick>
 800172e:	6138      	str	r0, [r7, #16]

      /* Wait till LSE is disabled */
      while (__HAL_RCC_GET_FLAG(RCC_FLAG_LSERDY) != RESET)
 8001730:	e00a      	b.n	8001748 <HAL_RCC_OscConfig+0x3c0>
      {
        if ((HAL_GetTick() - tickstart) > RCC_LSE_TIMEOUT_VALUE)
 8001732:	f7ff fb7d 	bl	8000e30 <HAL_GetTick>
 8001736:	4602      	mov	r2, r0
 8001738:	693b      	ldr	r3, [r7, #16]
 800173a:	1ad3      	subs	r3, r2, r3
 800173c:	f241 3288 	movw	r2, #5000	; 0x1388
 8001740:	4293      	cmp	r3, r2
 8001742:	d901      	bls.n	8001748 <HAL_RCC_OscConfig+0x3c0>
        {
          return HAL_TIMEOUT;
 8001744:	2303      	movs	r3, #3
 8001746:	e09b      	b.n	8001880 <HAL_RCC_OscConfig+0x4f8>
      while (__HAL_RCC_GET_FLAG(RCC_FLAG_LSERDY) != RESET)
 8001748:	4b40      	ldr	r3, [pc, #256]	; (800184c <HAL_RCC_OscConfig+0x4c4>)
 800174a:	6a1b      	ldr	r3, [r3, #32]
 800174c:	f003 0302 	and.w	r3, r3, #2
 8001750:	2b00      	cmp	r3, #0
 8001752:	d1ee      	bne.n	8001732 <HAL_RCC_OscConfig+0x3aa>
        }
      }
    }

    /* Require to disable power clock if necessary */
    if (pwrclkchanged == SET)
 8001754:	7dfb      	ldrb	r3, [r7, #23]
 8001756:	2b01      	cmp	r3, #1
 8001758:	d105      	bne.n	8001766 <HAL_RCC_OscConfig+0x3de>
    {
      __HAL_RCC_PWR_CLK_DISABLE();
 800175a:	4b3c      	ldr	r3, [pc, #240]	; (800184c <HAL_RCC_OscConfig+0x4c4>)
 800175c:	69db      	ldr	r3, [r3, #28]
 800175e:	4a3b      	ldr	r2, [pc, #236]	; (800184c <HAL_RCC_OscConfig+0x4c4>)
 8001760:	f023 5380 	bic.w	r3, r3, #268435456	; 0x10000000
 8001764:	61d3      	str	r3, [r2, #28]

#endif /* RCC_CR_PLL2ON */
  /*-------------------------------- PLL Configuration -----------------------*/
  /* Check the parameters */
  assert_param(IS_RCC_PLL(RCC_OscInitStruct->PLL.PLLState));
  if ((RCC_OscInitStruct->PLL.PLLState) != RCC_PLL_NONE)
 8001766:	687b      	ldr	r3, [r7, #4]
 8001768:	69db      	ldr	r3, [r3, #28]
 800176a:	2b00      	cmp	r3, #0
 800176c:	f000 8087 	beq.w	800187e <HAL_RCC_OscConfig+0x4f6>
  {
    /* Check if the PLL is used as system clock or not */
    if (__HAL_RCC_GET_SYSCLK_SOURCE() != RCC_SYSCLKSOURCE_STATUS_PLLCLK)
 8001770:	4b36      	ldr	r3, [pc, #216]	; (800184c <HAL_RCC_OscConfig+0x4c4>)
 8001772:	685b      	ldr	r3, [r3, #4]
 8001774:	f003 030c 	and.w	r3, r3, #12
 8001778:	2b08      	cmp	r3, #8
 800177a:	d061      	beq.n	8001840 <HAL_RCC_OscConfig+0x4b8>
    {
      if ((RCC_OscInitStruct->PLL.PLLState) == RCC_PLL_ON)
 800177c:	687b      	ldr	r3, [r7, #4]
 800177e:	69db      	ldr	r3, [r3, #28]
 8001780:	2b02      	cmp	r3, #2
 8001782:	d146      	bne.n	8001812 <HAL_RCC_OscConfig+0x48a>
        /* Check the parameters */
        assert_param(IS_RCC_PLLSOURCE(RCC_OscInitStruct->PLL.PLLSource));
        assert_param(IS_RCC_PLL_MUL(RCC_OscInitStruct->PLL.PLLMUL));

        /* Disable the main PLL. */
        __HAL_RCC_PLL_DISABLE();
 8001784:	4b33      	ldr	r3, [pc, #204]	; (8001854 <HAL_RCC_OscConfig+0x4cc>)
 8001786:	2200      	movs	r2, #0
 8001788:	601a      	str	r2, [r3, #0]

        /* Get Start Tick */
        tickstart = HAL_GetTick();
 800178a:	f7ff fb51 	bl	8000e30 <HAL_GetTick>
 800178e:	6138      	str	r0, [r7, #16]

        /* Wait till PLL is disabled */
        while (__HAL_RCC_GET_FLAG(RCC_FLAG_PLLRDY)  != RESET)
 8001790:	e008      	b.n	80017a4 <HAL_RCC_OscConfig+0x41c>
        {
          if ((HAL_GetTick() - tickstart) > PLL_TIMEOUT_VALUE)
 8001792:	f7ff fb4d 	bl	8000e30 <HAL_GetTick>
 8001796:	4602      	mov	r2, r0
 8001798:	693b      	ldr	r3, [r7, #16]
 800179a:	1ad3      	subs	r3, r2, r3
 800179c:	2b02      	cmp	r3, #2
 800179e:	d901      	bls.n	80017a4 <HAL_RCC_OscConfig+0x41c>
          {
            return HAL_TIMEOUT;
 80017a0:	2303      	movs	r3, #3
 80017a2:	e06d      	b.n	8001880 <HAL_RCC_OscConfig+0x4f8>
        while (__HAL_RCC_GET_FLAG(RCC_FLAG_PLLRDY)  != RESET)
 80017a4:	4b29      	ldr	r3, [pc, #164]	; (800184c <HAL_RCC_OscConfig+0x4c4>)
 80017a6:	681b      	ldr	r3, [r3, #0]
 80017a8:	f003 7300 	and.w	r3, r3, #33554432	; 0x2000000
 80017ac:	2b00      	cmp	r3, #0
 80017ae:	d1f0      	bne.n	8001792 <HAL_RCC_OscConfig+0x40a>
          }
        }

        /* Configure the HSE prediv factor --------------------------------*/
        /* It can be written only when the PLL is disabled. Not used in PLL source is different than HSE */
        if (RCC_OscInitStruct->PLL.PLLSource == RCC_PLLSOURCE_HSE)
 80017b0:	687b      	ldr	r3, [r7, #4]
 80017b2:	6a1b      	ldr	r3, [r3, #32]
 80017b4:	f5b3 3f80 	cmp.w	r3, #65536	; 0x10000
 80017b8:	d108      	bne.n	80017cc <HAL_RCC_OscConfig+0x444>
          /* Set PREDIV1 source */
          SET_BIT(RCC->CFGR2, RCC_OscInitStruct->Prediv1Source);
#endif /* RCC_CFGR2_PREDIV1SRC */

          /* Set PREDIV1 Value */
          __HAL_RCC_HSE_PREDIV_CONFIG(RCC_OscInitStruct->HSEPredivValue);
 80017ba:	4b24      	ldr	r3, [pc, #144]	; (800184c <HAL_RCC_OscConfig+0x4c4>)
 80017bc:	685b      	ldr	r3, [r3, #4]
 80017be:	f423 3200 	bic.w	r2, r3, #131072	; 0x20000
 80017c2:	687b      	ldr	r3, [r7, #4]
 80017c4:	689b      	ldr	r3, [r3, #8]
 80017c6:	4921      	ldr	r1, [pc, #132]	; (800184c <HAL_RCC_OscConfig+0x4c4>)
 80017c8:	4313      	orrs	r3, r2
 80017ca:	604b      	str	r3, [r1, #4]
        }

        /* Configure the main PLL clock source and multiplication factors. */
        __HAL_RCC_PLL_CONFIG(RCC_OscInitStruct->PLL.PLLSource,
 80017cc:	4b1f      	ldr	r3, [pc, #124]	; (800184c <HAL_RCC_OscConfig+0x4c4>)
 80017ce:	685b      	ldr	r3, [r3, #4]
 80017d0:	f423 1274 	bic.w	r2, r3, #3997696	; 0x3d0000
 80017d4:	687b      	ldr	r3, [r7, #4]
 80017d6:	6a19      	ldr	r1, [r3, #32]
 80017d8:	687b      	ldr	r3, [r7, #4]
 80017da:	6a5b      	ldr	r3, [r3, #36]	; 0x24
 80017dc:	430b      	orrs	r3, r1
 80017de:	491b      	ldr	r1, [pc, #108]	; (800184c <HAL_RCC_OscConfig+0x4c4>)
 80017e0:	4313      	orrs	r3, r2
 80017e2:	604b      	str	r3, [r1, #4]
                             RCC_OscInitStruct->PLL.PLLMUL);
        /* Enable the main PLL. */
        __HAL_RCC_PLL_ENABLE();
 80017e4:	4b1b      	ldr	r3, [pc, #108]	; (8001854 <HAL_RCC_OscConfig+0x4cc>)
 80017e6:	2201      	movs	r2, #1
 80017e8:	601a      	str	r2, [r3, #0]

        /* Get Start Tick */
        tickstart = HAL_GetTick();
 80017ea:	f7ff fb21 	bl	8000e30 <HAL_GetTick>
 80017ee:	6138      	str	r0, [r7, #16]

        /* Wait till PLL is ready */
        while (__HAL_RCC_GET_FLAG(RCC_FLAG_PLLRDY)  == RESET)
 80017f0:	e008      	b.n	8001804 <HAL_RCC_OscConfig+0x47c>
        {
          if ((HAL_GetTick() - tickstart) > PLL_TIMEOUT_VALUE)
 80017f2:	f7ff fb1d 	bl	8000e30 <HAL_GetTick>
 80017f6:	4602      	mov	r2, r0
 80017f8:	693b      	ldr	r3, [r7, #16]
 80017fa:	1ad3      	subs	r3, r2, r3
 80017fc:	2b02      	cmp	r3, #2
 80017fe:	d901      	bls.n	8001804 <HAL_RCC_OscConfig+0x47c>
          {
            return HAL_TIMEOUT;
 8001800:	2303      	movs	r3, #3
 8001802:	e03d      	b.n	8001880 <HAL_RCC_OscConfig+0x4f8>
        while (__HAL_RCC_GET_FLAG(RCC_FLAG_PLLRDY)  == RESET)
 8001804:	4b11      	ldr	r3, [pc, #68]	; (800184c <HAL_RCC_OscConfig+0x4c4>)
 8001806:	681b      	ldr	r3, [r3, #0]
 8001808:	f003 7300 	and.w	r3, r3, #33554432	; 0x2000000
 800180c:	2b00      	cmp	r3, #0
 800180e:	d0f0      	beq.n	80017f2 <HAL_RCC_OscConfig+0x46a>
 8001810:	e035      	b.n	800187e <HAL_RCC_OscConfig+0x4f6>
        }
      }
      else
      {
        /* Disable the main PLL. */
        __HAL_RCC_PLL_DISABLE();
 8001812:	4b10      	ldr	r3, [pc, #64]	; (8001854 <HAL_RCC_OscConfig+0x4cc>)
 8001814:	2200      	movs	r2, #0
 8001816:	601a      	str	r2, [r3, #0]

        /* Get Start Tick */
        tickstart = HAL_GetTick();
 8001818:	f7ff fb0a 	bl	8000e30 <HAL_GetTick>
 800181c:	6138      	str	r0, [r7, #16]

        /* Wait till PLL is disabled */
        while (__HAL_RCC_GET_FLAG(RCC_FLAG_PLLRDY)  != RESET)
 800181e:	e008      	b.n	8001832 <HAL_RCC_OscConfig+0x4aa>
        {
          if ((HAL_GetTick() - tickstart) > PLL_TIMEOUT_VALUE)
 8001820:	f7ff fb06 	bl	8000e30 <HAL_GetTick>
 8001824:	4602      	mov	r2, r0
 8001826:	693b      	ldr	r3, [r7, #16]
 8001828:	1ad3      	subs	r3, r2, r3
 800182a:	2b02      	cmp	r3, #2
 800182c:	d901      	bls.n	8001832 <HAL_RCC_OscConfig+0x4aa>
          {
            return HAL_TIMEOUT;
 800182e:	2303      	movs	r3, #3
 8001830:	e026      	b.n	8001880 <HAL_RCC_OscConfig+0x4f8>
        while (__HAL_RCC_GET_FLAG(RCC_FLAG_PLLRDY)  != RESET)
 8001832:	4b06      	ldr	r3, [pc, #24]	; (800184c <HAL_RCC_OscConfig+0x4c4>)
 8001834:	681b      	ldr	r3, [r3, #0]
 8001836:	f003 7300 	and.w	r3, r3, #33554432	; 0x2000000
 800183a:	2b00      	cmp	r3, #0
 800183c:	d1f0      	bne.n	8001820 <HAL_RCC_OscConfig+0x498>
 800183e:	e01e      	b.n	800187e <HAL_RCC_OscConfig+0x4f6>
      }
    }
    else
    {
      /* Check if there is a request to disable the PLL used as System clock source */
      if ((RCC_OscInitStruct->PLL.PLLState) == RCC_PLL_OFF)
 8001840:	687b      	ldr	r3, [r7, #4]
 8001842:	69db      	ldr	r3, [r3, #28]
 8001844:	2b01      	cmp	r3, #1
 8001846:	d107      	bne.n	8001858 <HAL_RCC_OscConfig+0x4d0>
      {
        return HAL_ERROR;
 8001848:	2301      	movs	r3, #1
 800184a:	e019      	b.n	8001880 <HAL_RCC_OscConfig+0x4f8>
 800184c:	40021000 	.word	0x40021000
 8001850:	40007000 	.word	0x40007000
 8001854:	42420060 	.word	0x42420060
      }
      else
      {
        /* Do not return HAL_ERROR if request repeats the current configuration */
        pll_config = RCC->CFGR;
 8001858:	4b0b      	ldr	r3, [pc, #44]	; (8001888 <HAL_RCC_OscConfig+0x500>)
 800185a:	685b      	ldr	r3, [r3, #4]
 800185c:	60fb      	str	r3, [r7, #12]
        if ((READ_BIT(pll_config, RCC_CFGR_PLLSRC) != RCC_OscInitStruct->PLL.PLLSource) ||
 800185e:	68fb      	ldr	r3, [r7, #12]
 8001860:	f403 3280 	and.w	r2, r3, #65536	; 0x10000
 8001864:	687b      	ldr	r3, [r7, #4]
 8001866:	6a1b      	ldr	r3, [r3, #32]
 8001868:	429a      	cmp	r2, r3
 800186a:	d106      	bne.n	800187a <HAL_RCC_OscConfig+0x4f2>
            (READ_BIT(pll_config, RCC_CFGR_PLLMULL) != RCC_OscInitStruct->PLL.PLLMUL))
 800186c:	68fb      	ldr	r3, [r7, #12]
 800186e:	f403 1270 	and.w	r2, r3, #3932160	; 0x3c0000
 8001872:	687b      	ldr	r3, [r7, #4]
 8001874:	6a5b      	ldr	r3, [r3, #36]	; 0x24
        if ((READ_BIT(pll_config, RCC_CFGR_PLLSRC) != RCC_OscInitStruct->PLL.PLLSource) ||
 8001876:	429a      	cmp	r2, r3
 8001878:	d001      	beq.n	800187e <HAL_RCC_OscConfig+0x4f6>
        {
          return HAL_ERROR;
 800187a:	2301      	movs	r3, #1
 800187c:	e000      	b.n	8001880 <HAL_RCC_OscConfig+0x4f8>
        }
      }
    }
  }

  return HAL_OK;
 800187e:	2300      	movs	r3, #0
}
 8001880:	4618      	mov	r0, r3
 8001882:	3718      	adds	r7, #24
 8001884:	46bd      	mov	sp, r7
 8001886:	bd80      	pop	{r7, pc}
 8001888:	40021000 	.word	0x40021000

0800188c <HAL_RCC_ClockConfig>:
  *         You can use @ref HAL_RCC_GetClockConfig() function to know which clock is
  *         currently used as system clock source.
  * @retval HAL status
  */
HAL_StatusTypeDef HAL_RCC_ClockConfig(RCC_ClkInitTypeDef  *RCC_ClkInitStruct, uint32_t FLatency)
{
 800188c:	b580      	push	{r7, lr}
 800188e:	b084      	sub	sp, #16
 8001890:	af00      	add	r7, sp, #0
 8001892:	6078      	str	r0, [r7, #4]
 8001894:	6039      	str	r1, [r7, #0]
  uint32_t tickstart;

  /* Check Null pointer */
  if (RCC_ClkInitStruct == NULL)
 8001896:	687b      	ldr	r3, [r7, #4]
 8001898:	2b00      	cmp	r3, #0
 800189a:	d101      	bne.n	80018a0 <HAL_RCC_ClockConfig+0x14>
  {
    return HAL_ERROR;
 800189c:	2301      	movs	r3, #1
 800189e:	e0d0      	b.n	8001a42 <HAL_RCC_ClockConfig+0x1b6>
  must be correctly programmed according to the frequency of the CPU clock
    (HCLK) of the device. */

#if defined(FLASH_ACR_LATENCY)
  /* Increasing the number of wait states because of higher CPU frequency */
  if (FLatency > __HAL_FLASH_GET_LATENCY())
 80018a0:	4b6a      	ldr	r3, [pc, #424]	; (8001a4c <HAL_RCC_ClockConfig+0x1c0>)
 80018a2:	681b      	ldr	r3, [r3, #0]
 80018a4:	f003 0307 	and.w	r3, r3, #7
 80018a8:	683a      	ldr	r2, [r7, #0]
 80018aa:	429a      	cmp	r2, r3
 80018ac:	d910      	bls.n	80018d0 <HAL_RCC_ClockConfig+0x44>
  {
    /* Program the new number of wait states to the LATENCY bits in the FLASH_ACR register */
    __HAL_FLASH_SET_LATENCY(FLatency);
 80018ae:	4b67      	ldr	r3, [pc, #412]	; (8001a4c <HAL_RCC_ClockConfig+0x1c0>)
 80018b0:	681b      	ldr	r3, [r3, #0]
 80018b2:	f023 0207 	bic.w	r2, r3, #7
 80018b6:	4965      	ldr	r1, [pc, #404]	; (8001a4c <HAL_RCC_ClockConfig+0x1c0>)
 80018b8:	683b      	ldr	r3, [r7, #0]
 80018ba:	4313      	orrs	r3, r2
 80018bc:	600b      	str	r3, [r1, #0]

    /* Check that the new number of wait states is taken into account to access the Flash
    memory by reading the FLASH_ACR register */
    if (__HAL_FLASH_GET_LATENCY() != FLatency)
 80018be:	4b63      	ldr	r3, [pc, #396]	; (8001a4c <HAL_RCC_ClockConfig+0x1c0>)
 80018c0:	681b      	ldr	r3, [r3, #0]
 80018c2:	f003 0307 	and.w	r3, r3, #7
 80018c6:	683a      	ldr	r2, [r7, #0]
 80018c8:	429a      	cmp	r2, r3
 80018ca:	d001      	beq.n	80018d0 <HAL_RCC_ClockConfig+0x44>
  {
    return HAL_ERROR;
 80018cc:	2301      	movs	r3, #1
 80018ce:	e0b8      	b.n	8001a42 <HAL_RCC_ClockConfig+0x1b6>
  }
}

#endif /* FLASH_ACR_LATENCY */
/*-------------------------- HCLK Configuration --------------------------*/
if (((RCC_ClkInitStruct->ClockType) & RCC_CLOCKTYPE_HCLK) == RCC_CLOCKTYPE_HCLK)
 80018d0:	687b      	ldr	r3, [r7, #4]
 80018d2:	681b      	ldr	r3, [r3, #0]
 80018d4:	f003 0302 	and.w	r3, r3, #2
 80018d8:	2b00      	cmp	r3, #0
 80018da:	d020      	beq.n	800191e <HAL_RCC_ClockConfig+0x92>
  {
    /* Set the highest APBx dividers in order to ensure that we do not go through
    a non-spec phase whatever we decrease or increase HCLK. */
    if (((RCC_ClkInitStruct->ClockType) & RCC_CLOCKTYPE_PCLK1) == RCC_CLOCKTYPE_PCLK1)
 80018dc:	687b      	ldr	r3, [r7, #4]
 80018de:	681b      	ldr	r3, [r3, #0]
 80018e0:	f003 0304 	and.w	r3, r3, #4
 80018e4:	2b00      	cmp	r3, #0
 80018e6:	d005      	beq.n	80018f4 <HAL_RCC_ClockConfig+0x68>
    {
      MODIFY_REG(RCC->CFGR, RCC_CFGR_PPRE1, RCC_HCLK_DIV16);
 80018e8:	4b59      	ldr	r3, [pc, #356]	; (8001a50 <HAL_RCC_ClockConfig+0x1c4>)
 80018ea:	685b      	ldr	r3, [r3, #4]
 80018ec:	4a58      	ldr	r2, [pc, #352]	; (8001a50 <HAL_RCC_ClockConfig+0x1c4>)
 80018ee:	f443 63e0 	orr.w	r3, r3, #1792	; 0x700
 80018f2:	6053      	str	r3, [r2, #4]
    }

    if (((RCC_ClkInitStruct->ClockType) & RCC_CLOCKTYPE_PCLK2) == RCC_CLOCKTYPE_PCLK2)
 80018f4:	687b      	ldr	r3, [r7, #4]
 80018f6:	681b      	ldr	r3, [r3, #0]
 80018f8:	f003 0308 	and.w	r3, r3, #8
 80018fc:	2b00      	cmp	r3, #0
 80018fe:	d005      	beq.n	800190c <HAL_RCC_ClockConfig+0x80>
    {
      MODIFY_REG(RCC->CFGR, RCC_CFGR_PPRE2, (RCC_HCLK_DIV16 << 3));
 8001900:	4b53      	ldr	r3, [pc, #332]	; (8001a50 <HAL_RCC_ClockConfig+0x1c4>)
 8001902:	685b      	ldr	r3, [r3, #4]
 8001904:	4a52      	ldr	r2, [pc, #328]	; (8001a50 <HAL_RCC_ClockConfig+0x1c4>)
 8001906:	f443 5360 	orr.w	r3, r3, #14336	; 0x3800
 800190a:	6053      	str	r3, [r2, #4]
    }

    /* Set the new HCLK clock divider */
    assert_param(IS_RCC_HCLK(RCC_ClkInitStruct->AHBCLKDivider));
    MODIFY_REG(RCC->CFGR, RCC_CFGR_HPRE, RCC_ClkInitStruct->AHBCLKDivider);
 800190c:	4b50      	ldr	r3, [pc, #320]	; (8001a50 <HAL_RCC_ClockConfig+0x1c4>)
 800190e:	685b      	ldr	r3, [r3, #4]
 8001910:	f023 02f0 	bic.w	r2, r3, #240	; 0xf0
 8001914:	687b      	ldr	r3, [r7, #4]
 8001916:	689b      	ldr	r3, [r3, #8]
 8001918:	494d      	ldr	r1, [pc, #308]	; (8001a50 <HAL_RCC_ClockConfig+0x1c4>)
 800191a:	4313      	orrs	r3, r2
 800191c:	604b      	str	r3, [r1, #4]
  }

  /*------------------------- SYSCLK Configuration ---------------------------*/
  if (((RCC_ClkInitStruct->ClockType) & RCC_CLOCKTYPE_SYSCLK) == RCC_CLOCKTYPE_SYSCLK)
 800191e:	687b      	ldr	r3, [r7, #4]
 8001920:	681b      	ldr	r3, [r3, #0]
 8001922:	f003 0301 	and.w	r3, r3, #1
 8001926:	2b00      	cmp	r3, #0
 8001928:	d040      	beq.n	80019ac <HAL_RCC_ClockConfig+0x120>
  {
    assert_param(IS_RCC_SYSCLKSOURCE(RCC_ClkInitStruct->SYSCLKSource));

    /* HSE is selected as System Clock Source */
    if (RCC_ClkInitStruct->SYSCLKSource == RCC_SYSCLKSOURCE_HSE)
 800192a:	687b      	ldr	r3, [r7, #4]
 800192c:	685b      	ldr	r3, [r3, #4]
 800192e:	2b01      	cmp	r3, #1
 8001930:	d107      	bne.n	8001942 <HAL_RCC_ClockConfig+0xb6>
    {
      /* Check the HSE ready flag */
      if (__HAL_RCC_GET_FLAG(RCC_FLAG_HSERDY) == RESET)
 8001932:	4b47      	ldr	r3, [pc, #284]	; (8001a50 <HAL_RCC_ClockConfig+0x1c4>)
 8001934:	681b      	ldr	r3, [r3, #0]
 8001936:	f403 3300 	and.w	r3, r3, #131072	; 0x20000
 800193a:	2b00      	cmp	r3, #0
 800193c:	d115      	bne.n	800196a <HAL_RCC_ClockConfig+0xde>
      {
        return HAL_ERROR;
 800193e:	2301      	movs	r3, #1
 8001940:	e07f      	b.n	8001a42 <HAL_RCC_ClockConfig+0x1b6>
      }
    }
    /* PLL is selected as System Clock Source */
    else if (RCC_ClkInitStruct->SYSCLKSource == RCC_SYSCLKSOURCE_PLLCLK)
 8001942:	687b      	ldr	r3, [r7, #4]
 8001944:	685b      	ldr	r3, [r3, #4]
 8001946:	2b02      	cmp	r3, #2
 8001948:	d107      	bne.n	800195a <HAL_RCC_ClockConfig+0xce>
    {
      /* Check the PLL ready flag */
      if (__HAL_RCC_GET_FLAG(RCC_FLAG_PLLRDY) == RESET)
 800194a:	4b41      	ldr	r3, [pc, #260]	; (8001a50 <HAL_RCC_ClockConfig+0x1c4>)
 800194c:	681b      	ldr	r3, [r3, #0]
 800194e:	f003 7300 	and.w	r3, r3, #33554432	; 0x2000000
 8001952:	2b00      	cmp	r3, #0
 8001954:	d109      	bne.n	800196a <HAL_RCC_ClockConfig+0xde>
      {
        return HAL_ERROR;
 8001956:	2301      	movs	r3, #1
 8001958:	e073      	b.n	8001a42 <HAL_RCC_ClockConfig+0x1b6>
    }
    /* HSI is selected as System Clock Source */
    else
    {
      /* Check the HSI ready flag */
      if (__HAL_RCC_GET_FLAG(RCC_FLAG_HSIRDY) == RESET)
 800195a:	4b3d      	ldr	r3, [pc, #244]	; (8001a50 <HAL_RCC_ClockConfig+0x1c4>)
 800195c:	681b      	ldr	r3, [r3, #0]
 800195e:	f003 0302 	and.w	r3, r3, #2
 8001962:	2b00      	cmp	r3, #0
 8001964:	d101      	bne.n	800196a <HAL_RCC_ClockConfig+0xde>
      {
        return HAL_ERROR;
 8001966:	2301      	movs	r3, #1
 8001968:	e06b      	b.n	8001a42 <HAL_RCC_ClockConfig+0x1b6>
      }
    }
    __HAL_RCC_SYSCLK_CONFIG(RCC_ClkInitStruct->SYSCLKSource);
 800196a:	4b39      	ldr	r3, [pc, #228]	; (8001a50 <HAL_RCC_ClockConfig+0x1c4>)
 800196c:	685b      	ldr	r3, [r3, #4]
 800196e:	f023 0203 	bic.w	r2, r3, #3
 8001972:	687b      	ldr	r3, [r7, #4]
 8001974:	685b      	ldr	r3, [r3, #4]
 8001976:	4936      	ldr	r1, [pc, #216]	; (8001a50 <HAL_RCC_ClockConfig+0x1c4>)
 8001978:	4313      	orrs	r3, r2
 800197a:	604b      	str	r3, [r1, #4]

    /* Get Start Tick */
    tickstart = HAL_GetTick();
 800197c:	f7ff fa58 	bl	8000e30 <HAL_GetTick>
 8001980:	60f8      	str	r0, [r7, #12]

    while (__HAL_RCC_GET_SYSCLK_SOURCE() != (RCC_ClkInitStruct->SYSCLKSource << RCC_CFGR_SWS_Pos))
 8001982:	e00a      	b.n	800199a <HAL_RCC_ClockConfig+0x10e>
    {
      if ((HAL_GetTick() - tickstart) > CLOCKSWITCH_TIMEOUT_VALUE)
 8001984:	f7ff fa54 	bl	8000e30 <HAL_GetTick>
 8001988:	4602      	mov	r2, r0
 800198a:	68fb      	ldr	r3, [r7, #12]
 800198c:	1ad3      	subs	r3, r2, r3
 800198e:	f241 3288 	movw	r2, #5000	; 0x1388
 8001992:	4293      	cmp	r3, r2
 8001994:	d901      	bls.n	800199a <HAL_RCC_ClockConfig+0x10e>
      {
        return HAL_TIMEOUT;
 8001996:	2303      	movs	r3, #3
 8001998:	e053      	b.n	8001a42 <HAL_RCC_ClockConfig+0x1b6>
    while (__HAL_RCC_GET_SYSCLK_SOURCE() != (RCC_ClkInitStruct->SYSCLKSource << RCC_CFGR_SWS_Pos))
 800199a:	4b2d      	ldr	r3, [pc, #180]	; (8001a50 <HAL_RCC_ClockConfig+0x1c4>)
 800199c:	685b      	ldr	r3, [r3, #4]
 800199e:	f003 020c 	and.w	r2, r3, #12
 80019a2:	687b      	ldr	r3, [r7, #4]
 80019a4:	685b      	ldr	r3, [r3, #4]
 80019a6:	009b      	lsls	r3, r3, #2
 80019a8:	429a      	cmp	r2, r3
 80019aa:	d1eb      	bne.n	8001984 <HAL_RCC_ClockConfig+0xf8>
    }
  }

#if defined(FLASH_ACR_LATENCY)
  /* Decreasing the number of wait states because of lower CPU frequency */
  if (FLatency < __HAL_FLASH_GET_LATENCY())
 80019ac:	4b27      	ldr	r3, [pc, #156]	; (8001a4c <HAL_RCC_ClockConfig+0x1c0>)
 80019ae:	681b      	ldr	r3, [r3, #0]
 80019b0:	f003 0307 	and.w	r3, r3, #7
 80019b4:	683a      	ldr	r2, [r7, #0]
 80019b6:	429a      	cmp	r2, r3
 80019b8:	d210      	bcs.n	80019dc <HAL_RCC_ClockConfig+0x150>
  {
    /* Program the new number of wait states to the LATENCY bits in the FLASH_ACR register */
    __HAL_FLASH_SET_LATENCY(FLatency);
 80019ba:	4b24      	ldr	r3, [pc, #144]	; (8001a4c <HAL_RCC_ClockConfig+0x1c0>)
 80019bc:	681b      	ldr	r3, [r3, #0]
 80019be:	f023 0207 	bic.w	r2, r3, #7
 80019c2:	4922      	ldr	r1, [pc, #136]	; (8001a4c <HAL_RCC_ClockConfig+0x1c0>)
 80019c4:	683b      	ldr	r3, [r7, #0]
 80019c6:	4313      	orrs	r3, r2
 80019c8:	600b      	str	r3, [r1, #0]

    /* Check that the new number of wait states is taken into account to access the Flash
    memory by reading the FLASH_ACR register */
    if (__HAL_FLASH_GET_LATENCY() != FLatency)
 80019ca:	4b20      	ldr	r3, [pc, #128]	; (8001a4c <HAL_RCC_ClockConfig+0x1c0>)
 80019cc:	681b      	ldr	r3, [r3, #0]
 80019ce:	f003 0307 	and.w	r3, r3, #7
 80019d2:	683a      	ldr	r2, [r7, #0]
 80019d4:	429a      	cmp	r2, r3
 80019d6:	d001      	beq.n	80019dc <HAL_RCC_ClockConfig+0x150>
  {
    return HAL_ERROR;
 80019d8:	2301      	movs	r3, #1
 80019da:	e032      	b.n	8001a42 <HAL_RCC_ClockConfig+0x1b6>
  }
}
#endif /* FLASH_ACR_LATENCY */

/*-------------------------- PCLK1 Configuration ---------------------------*/
if (((RCC_ClkInitStruct->ClockType) & RCC_CLOCKTYPE_PCLK1) == RCC_CLOCKTYPE_PCLK1)
 80019dc:	687b      	ldr	r3, [r7, #4]
 80019de:	681b      	ldr	r3, [r3, #0]
 80019e0:	f003 0304 	and.w	r3, r3, #4
 80019e4:	2b00      	cmp	r3, #0
 80019e6:	d008      	beq.n	80019fa <HAL_RCC_ClockConfig+0x16e>
  {
    assert_param(IS_RCC_PCLK(RCC_ClkInitStruct->APB1CLKDivider));
    MODIFY_REG(RCC->CFGR, RCC_CFGR_PPRE1, RCC_ClkInitStruct->APB1CLKDivider);
 80019e8:	4b19      	ldr	r3, [pc, #100]	; (8001a50 <HAL_RCC_ClockConfig+0x1c4>)
 80019ea:	685b      	ldr	r3, [r3, #4]
 80019ec:	f423 62e0 	bic.w	r2, r3, #1792	; 0x700
 80019f0:	687b      	ldr	r3, [r7, #4]
 80019f2:	68db      	ldr	r3, [r3, #12]
 80019f4:	4916      	ldr	r1, [pc, #88]	; (8001a50 <HAL_RCC_ClockConfig+0x1c4>)
 80019f6:	4313      	orrs	r3, r2
 80019f8:	604b      	str	r3, [r1, #4]
  }

  /*-------------------------- PCLK2 Configuration ---------------------------*/
  if (((RCC_ClkInitStruct->ClockType) & RCC_CLOCKTYPE_PCLK2) == RCC_CLOCKTYPE_PCLK2)
 80019fa:	687b      	ldr	r3, [r7, #4]
 80019fc:	681b      	ldr	r3, [r3, #0]
 80019fe:	f003 0308 	and.w	r3, r3, #8
 8001a02:	2b00      	cmp	r3, #0
 8001a04:	d009      	beq.n	8001a1a <HAL_RCC_ClockConfig+0x18e>
  {
    assert_param(IS_RCC_PCLK(RCC_ClkInitStruct->APB2CLKDivider));
    MODIFY_REG(RCC->CFGR, RCC_CFGR_PPRE2, ((RCC_ClkInitStruct->APB2CLKDivider) << 3));
 8001a06:	4b12      	ldr	r3, [pc, #72]	; (8001a50 <HAL_RCC_ClockConfig+0x1c4>)
 8001a08:	685b      	ldr	r3, [r3, #4]
 8001a0a:	f423 5260 	bic.w	r2, r3, #14336	; 0x3800
 8001a0e:	687b      	ldr	r3, [r7, #4]
 8001a10:	691b      	ldr	r3, [r3, #16]
 8001a12:	00db      	lsls	r3, r3, #3
 8001a14:	490e      	ldr	r1, [pc, #56]	; (8001a50 <HAL_RCC_ClockConfig+0x1c4>)
 8001a16:	4313      	orrs	r3, r2
 8001a18:	604b      	str	r3, [r1, #4]
  }

  /* Update the SystemCoreClock global variable */
  SystemCoreClock = HAL_RCC_GetSysClockFreq() >> AHBPrescTable[(RCC->CFGR & RCC_CFGR_HPRE) >> RCC_CFGR_HPRE_Pos];
 8001a1a:	f000 f821 	bl	8001a60 <HAL_RCC_GetSysClockFreq>
 8001a1e:	4602      	mov	r2, r0
 8001a20:	4b0b      	ldr	r3, [pc, #44]	; (8001a50 <HAL_RCC_ClockConfig+0x1c4>)
 8001a22:	685b      	ldr	r3, [r3, #4]
 8001a24:	091b      	lsrs	r3, r3, #4
 8001a26:	f003 030f 	and.w	r3, r3, #15
 8001a2a:	490a      	ldr	r1, [pc, #40]	; (8001a54 <HAL_RCC_ClockConfig+0x1c8>)
 8001a2c:	5ccb      	ldrb	r3, [r1, r3]
 8001a2e:	fa22 f303 	lsr.w	r3, r2, r3
 8001a32:	4a09      	ldr	r2, [pc, #36]	; (8001a58 <HAL_RCC_ClockConfig+0x1cc>)
 8001a34:	6013      	str	r3, [r2, #0]

  /* Configure the source of time base considering new system clocks settings*/
  HAL_InitTick(uwTickPrio);
 8001a36:	4b09      	ldr	r3, [pc, #36]	; (8001a5c <HAL_RCC_ClockConfig+0x1d0>)
 8001a38:	681b      	ldr	r3, [r3, #0]
 8001a3a:	4618      	mov	r0, r3
 8001a3c:	f7ff f9b6 	bl	8000dac <HAL_InitTick>

  return HAL_OK;
 8001a40:	2300      	movs	r3, #0
}
 8001a42:	4618      	mov	r0, r3
 8001a44:	3710      	adds	r7, #16
 8001a46:	46bd      	mov	sp, r7
 8001a48:	bd80      	pop	{r7, pc}
 8001a4a:	bf00      	nop
 8001a4c:	40022000 	.word	0x40022000
 8001a50:	40021000 	.word	0x40021000
 8001a54:	08002384 	.word	0x08002384
 8001a58:	2000000c 	.word	0x2000000c
 8001a5c:	20000010 	.word	0x20000010

08001a60 <HAL_RCC_GetSysClockFreq>:
  *         right SYSCLK value. Otherwise, any configuration based on this function will be incorrect.
  *
  * @retval SYSCLK frequency
  */
uint32_t HAL_RCC_GetSysClockFreq(void)
{
 8001a60:	b480      	push	{r7}
 8001a62:	b087      	sub	sp, #28
 8001a64:	af00      	add	r7, sp, #0
#else
  static const uint8_t aPredivFactorTable[2U] = {1, 2};
#endif /*RCC_CFGR2_PREDIV1*/

#endif
  uint32_t tmpreg = 0U, prediv = 0U, pllclk = 0U, pllmul = 0U;
 8001a66:	2300      	movs	r3, #0
 8001a68:	60fb      	str	r3, [r7, #12]
 8001a6a:	2300      	movs	r3, #0
 8001a6c:	60bb      	str	r3, [r7, #8]
 8001a6e:	2300      	movs	r3, #0
 8001a70:	617b      	str	r3, [r7, #20]
 8001a72:	2300      	movs	r3, #0
 8001a74:	607b      	str	r3, [r7, #4]
  uint32_t sysclockfreq = 0U;
 8001a76:	2300      	movs	r3, #0
 8001a78:	613b      	str	r3, [r7, #16]
#if defined(RCC_CFGR2_PREDIV1SRC)
  uint32_t prediv2 = 0U, pll2mul = 0U;
#endif /*RCC_CFGR2_PREDIV1SRC*/

  tmpreg = RCC->CFGR;
 8001a7a:	4b1e      	ldr	r3, [pc, #120]	; (8001af4 <HAL_RCC_GetSysClockFreq+0x94>)
 8001a7c:	685b      	ldr	r3, [r3, #4]
 8001a7e:	60fb      	str	r3, [r7, #12]

  /* Get SYSCLK source -------------------------------------------------------*/
  switch (tmpreg & RCC_CFGR_SWS)
 8001a80:	68fb      	ldr	r3, [r7, #12]
 8001a82:	f003 030c 	and.w	r3, r3, #12
 8001a86:	2b04      	cmp	r3, #4
 8001a88:	d002      	beq.n	8001a90 <HAL_RCC_GetSysClockFreq+0x30>
 8001a8a:	2b08      	cmp	r3, #8
 8001a8c:	d003      	beq.n	8001a96 <HAL_RCC_GetSysClockFreq+0x36>
 8001a8e:	e027      	b.n	8001ae0 <HAL_RCC_GetSysClockFreq+0x80>
  {
    case RCC_SYSCLKSOURCE_STATUS_HSE:  /* HSE used as system clock */
    {
      sysclockfreq = HSE_VALUE;
 8001a90:	4b19      	ldr	r3, [pc, #100]	; (8001af8 <HAL_RCC_GetSysClockFreq+0x98>)
 8001a92:	613b      	str	r3, [r7, #16]
      break;
 8001a94:	e027      	b.n	8001ae6 <HAL_RCC_GetSysClockFreq+0x86>
    }
    case RCC_SYSCLKSOURCE_STATUS_PLLCLK:  /* PLL used as system clock */
    {
      pllmul = aPLLMULFactorTable[(uint32_t)(tmpreg & RCC_CFGR_PLLMULL) >> RCC_CFGR_PLLMULL_Pos];
 8001a96:	68fb      	ldr	r3, [r7, #12]
 8001a98:	0c9b      	lsrs	r3, r3, #18
 8001a9a:	f003 030f 	and.w	r3, r3, #15
 8001a9e:	4a17      	ldr	r2, [pc, #92]	; (8001afc <HAL_RCC_GetSysClockFreq+0x9c>)
 8001aa0:	5cd3      	ldrb	r3, [r2, r3]
 8001aa2:	607b      	str	r3, [r7, #4]
      if ((tmpreg & RCC_CFGR_PLLSRC) != RCC_PLLSOURCE_HSI_DIV2)
 8001aa4:	68fb      	ldr	r3, [r7, #12]
 8001aa6:	f403 3380 	and.w	r3, r3, #65536	; 0x10000
 8001aaa:	2b00      	cmp	r3, #0
 8001aac:	d010      	beq.n	8001ad0 <HAL_RCC_GetSysClockFreq+0x70>
      {
#if defined(RCC_CFGR2_PREDIV1)
        prediv = aPredivFactorTable[(uint32_t)(RCC->CFGR2 & RCC_CFGR2_PREDIV1) >> RCC_CFGR2_PREDIV1_Pos];
#else
        prediv = aPredivFactorTable[(uint32_t)(RCC->CFGR & RCC_CFGR_PLLXTPRE) >> RCC_CFGR_PLLXTPRE_Pos];
 8001aae:	4b11      	ldr	r3, [pc, #68]	; (8001af4 <HAL_RCC_GetSysClockFreq+0x94>)
 8001ab0:	685b      	ldr	r3, [r3, #4]
 8001ab2:	0c5b      	lsrs	r3, r3, #17
 8001ab4:	f003 0301 	and.w	r3, r3, #1
 8001ab8:	4a11      	ldr	r2, [pc, #68]	; (8001b00 <HAL_RCC_GetSysClockFreq+0xa0>)
 8001aba:	5cd3      	ldrb	r3, [r2, r3]
 8001abc:	60bb      	str	r3, [r7, #8]
        {
          pllclk = pllclk / 2;
        }
#else
        /* HSE used as PLL clock source : PLLCLK = HSE/PREDIV1 * PLLMUL */
        pllclk = (uint32_t)((HSE_VALUE  * pllmul) / prediv);
 8001abe:	687b      	ldr	r3, [r7, #4]
 8001ac0:	4a0d      	ldr	r2, [pc, #52]	; (8001af8 <HAL_RCC_GetSysClockFreq+0x98>)
 8001ac2:	fb03 f202 	mul.w	r2, r3, r2
 8001ac6:	68bb      	ldr	r3, [r7, #8]
 8001ac8:	fbb2 f3f3 	udiv	r3, r2, r3
 8001acc:	617b      	str	r3, [r7, #20]
 8001ace:	e004      	b.n	8001ada <HAL_RCC_GetSysClockFreq+0x7a>
#endif /*RCC_CFGR2_PREDIV1SRC*/
      }
      else
      {
        /* HSI used as PLL clock source : PLLCLK = HSI/2 * PLLMUL */
        pllclk = (uint32_t)((HSI_VALUE >> 1) * pllmul);
 8001ad0:	687b      	ldr	r3, [r7, #4]
 8001ad2:	4a0c      	ldr	r2, [pc, #48]	; (8001b04 <HAL_RCC_GetSysClockFreq+0xa4>)
 8001ad4:	fb02 f303 	mul.w	r3, r2, r3
 8001ad8:	617b      	str	r3, [r7, #20]
      }
      sysclockfreq = pllclk;
 8001ada:	697b      	ldr	r3, [r7, #20]
 8001adc:	613b      	str	r3, [r7, #16]
      break;
 8001ade:	e002      	b.n	8001ae6 <HAL_RCC_GetSysClockFreq+0x86>
    }
    case RCC_SYSCLKSOURCE_STATUS_HSI:  /* HSI used as system clock source */
    default: /* HSI used as system clock */
    {
      sysclockfreq = HSI_VALUE;
 8001ae0:	4b05      	ldr	r3, [pc, #20]	; (8001af8 <HAL_RCC_GetSysClockFreq+0x98>)
 8001ae2:	613b      	str	r3, [r7, #16]
      break;
 8001ae4:	bf00      	nop
    }
  }
  return sysclockfreq;
 8001ae6:	693b      	ldr	r3, [r7, #16]
}
 8001ae8:	4618      	mov	r0, r3
 8001aea:	371c      	adds	r7, #28
 8001aec:	46bd      	mov	sp, r7
 8001aee:	bc80      	pop	{r7}
 8001af0:	4770      	bx	lr
 8001af2:	bf00      	nop
 8001af4:	40021000 	.word	0x40021000
 8001af8:	007a1200 	.word	0x007a1200
 8001afc:	08002394 	.word	0x08002394
 8001b00:	080023a4 	.word	0x080023a4
 8001b04:	003d0900 	.word	0x003d0900

08001b08 <RCC_Delay>:
  * @brief  This function provides delay (in milliseconds) based on CPU cycles method.
  * @param  mdelay: specifies the delay time length, in milliseconds.
  * @retval None
  */
static void RCC_Delay(uint32_t mdelay)
{
 8001b08:	b480      	push	{r7}
 8001b0a:	b085      	sub	sp, #20
 8001b0c:	af00      	add	r7, sp, #0
 8001b0e:	6078      	str	r0, [r7, #4]
  __IO uint32_t Delay = mdelay * (SystemCoreClock / 8U / 1000U);
 8001b10:	4b0a      	ldr	r3, [pc, #40]	; (8001b3c <RCC_Delay+0x34>)
 8001b12:	681b      	ldr	r3, [r3, #0]
 8001b14:	4a0a      	ldr	r2, [pc, #40]	; (8001b40 <RCC_Delay+0x38>)
 8001b16:	fba2 2303 	umull	r2, r3, r2, r3
 8001b1a:	0a5b      	lsrs	r3, r3, #9
 8001b1c:	687a      	ldr	r2, [r7, #4]
 8001b1e:	fb02 f303 	mul.w	r3, r2, r3
 8001b22:	60fb      	str	r3, [r7, #12]
  do
  {
    __NOP();
 8001b24:	bf00      	nop
  }
  while (Delay --);
 8001b26:	68fb      	ldr	r3, [r7, #12]
 8001b28:	1e5a      	subs	r2, r3, #1
 8001b2a:	60fa      	str	r2, [r7, #12]
 8001b2c:	2b00      	cmp	r3, #0
 8001b2e:	d1f9      	bne.n	8001b24 <RCC_Delay+0x1c>
}
 8001b30:	bf00      	nop
 8001b32:	bf00      	nop
 8001b34:	3714      	adds	r7, #20
 8001b36:	46bd      	mov	sp, r7
 8001b38:	bc80      	pop	{r7}
 8001b3a:	4770      	bx	lr
 8001b3c:	2000000c 	.word	0x2000000c
 8001b40:	10624dd3 	.word	0x10624dd3

08001b44 <HAL_TIM_Base_Init>:
  *         Ex: call @ref HAL_TIM_Base_DeInit() before HAL_TIM_Base_Init()
  * @param  htim TIM Base handle
  * @retval HAL status
  */
HAL_StatusTypeDef HAL_TIM_Base_Init(TIM_HandleTypeDef *htim)
{
 8001b44:	b580      	push	{r7, lr}
 8001b46:	b082      	sub	sp, #8
 8001b48:	af00      	add	r7, sp, #0
 8001b4a:	6078      	str	r0, [r7, #4]
  /* Check the TIM handle allocation */
  if (htim == NULL)
 8001b4c:	687b      	ldr	r3, [r7, #4]
 8001b4e:	2b00      	cmp	r3, #0
 8001b50:	d101      	bne.n	8001b56 <HAL_TIM_Base_Init+0x12>
  {
    return HAL_ERROR;
 8001b52:	2301      	movs	r3, #1
 8001b54:	e041      	b.n	8001bda <HAL_TIM_Base_Init+0x96>
  assert_param(IS_TIM_COUNTER_MODE(htim->Init.CounterMode));
  assert_param(IS_TIM_CLOCKDIVISION_DIV(htim->Init.ClockDivision));
  assert_param(IS_TIM_PERIOD(htim->Init.Period));
  assert_param(IS_TIM_AUTORELOAD_PRELOAD(htim->Init.AutoReloadPreload));

  if (htim->State == HAL_TIM_STATE_RESET)
 8001b56:	687b      	ldr	r3, [r7, #4]
 8001b58:	f893 303d 	ldrb.w	r3, [r3, #61]	; 0x3d
 8001b5c:	b2db      	uxtb	r3, r3
 8001b5e:	2b00      	cmp	r3, #0
 8001b60:	d106      	bne.n	8001b70 <HAL_TIM_Base_Init+0x2c>
  {
    /* Allocate lock resource and initialize it */
    htim->Lock = HAL_UNLOCKED;
 8001b62:	687b      	ldr	r3, [r7, #4]
 8001b64:	2200      	movs	r2, #0
 8001b66:	f883 203c 	strb.w	r2, [r3, #60]	; 0x3c
    }
    /* Init the low level hardware : GPIO, CLOCK, NVIC */
    htim->Base_MspInitCallback(htim);
#else
    /* Init the low level hardware : GPIO, CLOCK, NVIC */
    HAL_TIM_Base_MspInit(htim);
 8001b6a:	6878      	ldr	r0, [r7, #4]
 8001b6c:	f7ff f886 	bl	8000c7c <HAL_TIM_Base_MspInit>
#endif /* USE_HAL_TIM_REGISTER_CALLBACKS */
  }

  /* Set the TIM state */
  htim->State = HAL_TIM_STATE_BUSY;
 8001b70:	687b      	ldr	r3, [r7, #4]
 8001b72:	2202      	movs	r2, #2
 8001b74:	f883 203d 	strb.w	r2, [r3, #61]	; 0x3d

  /* Set the Time Base configuration */
  TIM_Base_SetConfig(htim->Instance, &htim->Init);
 8001b78:	687b      	ldr	r3, [r7, #4]
 8001b7a:	681a      	ldr	r2, [r3, #0]
 8001b7c:	687b      	ldr	r3, [r7, #4]
 8001b7e:	3304      	adds	r3, #4
 8001b80:	4619      	mov	r1, r3
 8001b82:	4610      	mov	r0, r2
 8001b84:	f000 fa6e 	bl	8002064 <TIM_Base_SetConfig>

  /* Initialize the DMA burst operation state */
  htim->DMABurstState = HAL_DMA_BURST_STATE_READY;
 8001b88:	687b      	ldr	r3, [r7, #4]
 8001b8a:	2201      	movs	r2, #1
 8001b8c:	f883 2046 	strb.w	r2, [r3, #70]	; 0x46

  /* Initialize the TIM channels state */
  TIM_CHANNEL_STATE_SET_ALL(htim, HAL_TIM_CHANNEL_STATE_READY);
 8001b90:	687b      	ldr	r3, [r7, #4]
 8001b92:	2201      	movs	r2, #1
 8001b94:	f883 203e 	strb.w	r2, [r3, #62]	; 0x3e
 8001b98:	687b      	ldr	r3, [r7, #4]
 8001b9a:	2201      	movs	r2, #1
 8001b9c:	f883 203f 	strb.w	r2, [r3, #63]	; 0x3f
 8001ba0:	687b      	ldr	r3, [r7, #4]
 8001ba2:	2201      	movs	r2, #1
 8001ba4:	f883 2040 	strb.w	r2, [r3, #64]	; 0x40
 8001ba8:	687b      	ldr	r3, [r7, #4]
 8001baa:	2201      	movs	r2, #1
 8001bac:	f883 2041 	strb.w	r2, [r3, #65]	; 0x41
  TIM_CHANNEL_N_STATE_SET_ALL(htim, HAL_TIM_CHANNEL_STATE_READY);
 8001bb0:	687b      	ldr	r3, [r7, #4]
 8001bb2:	2201      	movs	r2, #1
 8001bb4:	f883 2042 	strb.w	r2, [r3, #66]	; 0x42
 8001bb8:	687b      	ldr	r3, [r7, #4]
 8001bba:	2201      	movs	r2, #1
 8001bbc:	f883 2043 	strb.w	r2, [r3, #67]	; 0x43
 8001bc0:	687b      	ldr	r3, [r7, #4]
 8001bc2:	2201      	movs	r2, #1
 8001bc4:	f883 2044 	strb.w	r2, [r3, #68]	; 0x44
 8001bc8:	687b      	ldr	r3, [r7, #4]
 8001bca:	2201      	movs	r2, #1
 8001bcc:	f883 2045 	strb.w	r2, [r3, #69]	; 0x45

  /* Initialize the TIM state*/
  htim->State = HAL_TIM_STATE_READY;
 8001bd0:	687b      	ldr	r3, [r7, #4]
 8001bd2:	2201      	movs	r2, #1
 8001bd4:	f883 203d 	strb.w	r2, [r3, #61]	; 0x3d

  return HAL_OK;
 8001bd8:	2300      	movs	r3, #0
}
 8001bda:	4618      	mov	r0, r3
 8001bdc:	3708      	adds	r7, #8
 8001bde:	46bd      	mov	sp, r7
 8001be0:	bd80      	pop	{r7, pc}
	...

08001be4 <HAL_TIM_Base_Start_IT>:
  * @brief  Starts the TIM Base generation in interrupt mode.
  * @param  htim TIM Base handle
  * @retval HAL status
  */
HAL_StatusTypeDef HAL_TIM_Base_Start_IT(TIM_HandleTypeDef *htim)
{
 8001be4:	b480      	push	{r7}
 8001be6:	b085      	sub	sp, #20
 8001be8:	af00      	add	r7, sp, #0
 8001bea:	6078      	str	r0, [r7, #4]

  /* Check the parameters */
  assert_param(IS_TIM_INSTANCE(htim->Instance));

  /* Check the TIM state */
  if (htim->State != HAL_TIM_STATE_READY)
 8001bec:	687b      	ldr	r3, [r7, #4]
 8001bee:	f893 303d 	ldrb.w	r3, [r3, #61]	; 0x3d
 8001bf2:	b2db      	uxtb	r3, r3
 8001bf4:	2b01      	cmp	r3, #1
 8001bf6:	d001      	beq.n	8001bfc <HAL_TIM_Base_Start_IT+0x18>
  {
    return HAL_ERROR;
 8001bf8:	2301      	movs	r3, #1
 8001bfa:	e035      	b.n	8001c68 <HAL_TIM_Base_Start_IT+0x84>
  }

  /* Set the TIM state */
  htim->State = HAL_TIM_STATE_BUSY;
 8001bfc:	687b      	ldr	r3, [r7, #4]
 8001bfe:	2202      	movs	r2, #2
 8001c00:	f883 203d 	strb.w	r2, [r3, #61]	; 0x3d

  /* Enable the TIM Update interrupt */
  __HAL_TIM_ENABLE_IT(htim, TIM_IT_UPDATE);
 8001c04:	687b      	ldr	r3, [r7, #4]
 8001c06:	681b      	ldr	r3, [r3, #0]
 8001c08:	68da      	ldr	r2, [r3, #12]
 8001c0a:	687b      	ldr	r3, [r7, #4]
 8001c0c:	681b      	ldr	r3, [r3, #0]
 8001c0e:	f042 0201 	orr.w	r2, r2, #1
 8001c12:	60da      	str	r2, [r3, #12]

  /* Enable the Peripheral, except in trigger mode where enable is automatically done with trigger */
  if (IS_TIM_SLAVE_INSTANCE(htim->Instance))
 8001c14:	687b      	ldr	r3, [r7, #4]
 8001c16:	681b      	ldr	r3, [r3, #0]
 8001c18:	4a16      	ldr	r2, [pc, #88]	; (8001c74 <HAL_TIM_Base_Start_IT+0x90>)
 8001c1a:	4293      	cmp	r3, r2
 8001c1c:	d009      	beq.n	8001c32 <HAL_TIM_Base_Start_IT+0x4e>
 8001c1e:	687b      	ldr	r3, [r7, #4]
 8001c20:	681b      	ldr	r3, [r3, #0]
 8001c22:	f1b3 4f80 	cmp.w	r3, #1073741824	; 0x40000000
 8001c26:	d004      	beq.n	8001c32 <HAL_TIM_Base_Start_IT+0x4e>
 8001c28:	687b      	ldr	r3, [r7, #4]
 8001c2a:	681b      	ldr	r3, [r3, #0]
 8001c2c:	4a12      	ldr	r2, [pc, #72]	; (8001c78 <HAL_TIM_Base_Start_IT+0x94>)
 8001c2e:	4293      	cmp	r3, r2
 8001c30:	d111      	bne.n	8001c56 <HAL_TIM_Base_Start_IT+0x72>
  {
    tmpsmcr = htim->Instance->SMCR & TIM_SMCR_SMS;
 8001c32:	687b      	ldr	r3, [r7, #4]
 8001c34:	681b      	ldr	r3, [r3, #0]
 8001c36:	689b      	ldr	r3, [r3, #8]
 8001c38:	f003 0307 	and.w	r3, r3, #7
 8001c3c:	60fb      	str	r3, [r7, #12]
    if (!IS_TIM_SLAVEMODE_TRIGGER_ENABLED(tmpsmcr))
 8001c3e:	68fb      	ldr	r3, [r7, #12]
 8001c40:	2b06      	cmp	r3, #6
 8001c42:	d010      	beq.n	8001c66 <HAL_TIM_Base_Start_IT+0x82>
    {
      __HAL_TIM_ENABLE(htim);
 8001c44:	687b      	ldr	r3, [r7, #4]
 8001c46:	681b      	ldr	r3, [r3, #0]
 8001c48:	681a      	ldr	r2, [r3, #0]
 8001c4a:	687b      	ldr	r3, [r7, #4]
 8001c4c:	681b      	ldr	r3, [r3, #0]
 8001c4e:	f042 0201 	orr.w	r2, r2, #1
 8001c52:	601a      	str	r2, [r3, #0]
    if (!IS_TIM_SLAVEMODE_TRIGGER_ENABLED(tmpsmcr))
 8001c54:	e007      	b.n	8001c66 <HAL_TIM_Base_Start_IT+0x82>
    }
  }
  else
  {
    __HAL_TIM_ENABLE(htim);
 8001c56:	687b      	ldr	r3, [r7, #4]
 8001c58:	681b      	ldr	r3, [r3, #0]
 8001c5a:	681a      	ldr	r2, [r3, #0]
 8001c5c:	687b      	ldr	r3, [r7, #4]
 8001c5e:	681b      	ldr	r3, [r3, #0]
 8001c60:	f042 0201 	orr.w	r2, r2, #1
 8001c64:	601a      	str	r2, [r3, #0]
  }

  /* Return function status */
  return HAL_OK;
 8001c66:	2300      	movs	r3, #0
}
 8001c68:	4618      	mov	r0, r3
 8001c6a:	3714      	adds	r7, #20
 8001c6c:	46bd      	mov	sp, r7
 8001c6e:	bc80      	pop	{r7}
 8001c70:	4770      	bx	lr
 8001c72:	bf00      	nop
 8001c74:	40012c00 	.word	0x40012c00
 8001c78:	40000400 	.word	0x40000400

08001c7c <HAL_TIM_IRQHandler>:
  * @brief  This function handles TIM interrupts requests.
  * @param  htim TIM  handle
  * @retval None
  */
void HAL_TIM_IRQHandler(TIM_HandleTypeDef *htim)
{
 8001c7c:	b580      	push	{r7, lr}
 8001c7e:	b082      	sub	sp, #8
 8001c80:	af00      	add	r7, sp, #0
 8001c82:	6078      	str	r0, [r7, #4]
  /* Capture compare 1 event */
  if (__HAL_TIM_GET_FLAG(htim, TIM_FLAG_CC1) != RESET)
 8001c84:	687b      	ldr	r3, [r7, #4]
 8001c86:	681b      	ldr	r3, [r3, #0]
 8001c88:	691b      	ldr	r3, [r3, #16]
 8001c8a:	f003 0302 	and.w	r3, r3, #2
 8001c8e:	2b02      	cmp	r3, #2
 8001c90:	d122      	bne.n	8001cd8 <HAL_TIM_IRQHandler+0x5c>
  {
    if (__HAL_TIM_GET_IT_SOURCE(htim, TIM_IT_CC1) != RESET)
 8001c92:	687b      	ldr	r3, [r7, #4]
 8001c94:	681b      	ldr	r3, [r3, #0]
 8001c96:	68db      	ldr	r3, [r3, #12]
 8001c98:	f003 0302 	and.w	r3, r3, #2
 8001c9c:	2b02      	cmp	r3, #2
 8001c9e:	d11b      	bne.n	8001cd8 <HAL_TIM_IRQHandler+0x5c>
    {
      {
        __HAL_TIM_CLEAR_IT(htim, TIM_IT_CC1);
 8001ca0:	687b      	ldr	r3, [r7, #4]
 8001ca2:	681b      	ldr	r3, [r3, #0]
 8001ca4:	f06f 0202 	mvn.w	r2, #2
 8001ca8:	611a      	str	r2, [r3, #16]
        htim->Channel = HAL_TIM_ACTIVE_CHANNEL_1;
 8001caa:	687b      	ldr	r3, [r7, #4]
 8001cac:	2201      	movs	r2, #1
 8001cae:	771a      	strb	r2, [r3, #28]

        /* Input capture event */
        if ((htim->Instance->CCMR1 & TIM_CCMR1_CC1S) != 0x00U)
 8001cb0:	687b      	ldr	r3, [r7, #4]
 8001cb2:	681b      	ldr	r3, [r3, #0]
 8001cb4:	699b      	ldr	r3, [r3, #24]
 8001cb6:	f003 0303 	and.w	r3, r3, #3
 8001cba:	2b00      	cmp	r3, #0
 8001cbc:	d003      	beq.n	8001cc6 <HAL_TIM_IRQHandler+0x4a>
        {
#if (USE_HAL_TIM_REGISTER_CALLBACKS == 1)
          htim->IC_CaptureCallback(htim);
#else
          HAL_TIM_IC_CaptureCallback(htim);
 8001cbe:	6878      	ldr	r0, [r7, #4]
 8001cc0:	f000 f9b4 	bl	800202c <HAL_TIM_IC_CaptureCallback>
 8001cc4:	e005      	b.n	8001cd2 <HAL_TIM_IRQHandler+0x56>
        {
#if (USE_HAL_TIM_REGISTER_CALLBACKS == 1)
          htim->OC_DelayElapsedCallback(htim);
          htim->PWM_PulseFinishedCallback(htim);
#else
          HAL_TIM_OC_DelayElapsedCallback(htim);
 8001cc6:	6878      	ldr	r0, [r7, #4]
 8001cc8:	f000 f9a7 	bl	800201a <HAL_TIM_OC_DelayElapsedCallback>
          HAL_TIM_PWM_PulseFinishedCallback(htim);
 8001ccc:	6878      	ldr	r0, [r7, #4]
 8001cce:	f000 f9b6 	bl	800203e <HAL_TIM_PWM_PulseFinishedCallback>
#endif /* USE_HAL_TIM_REGISTER_CALLBACKS */
        }
        htim->Channel = HAL_TIM_ACTIVE_CHANNEL_CLEARED;
 8001cd2:	687b      	ldr	r3, [r7, #4]
 8001cd4:	2200      	movs	r2, #0
 8001cd6:	771a      	strb	r2, [r3, #28]
      }
    }
  }
  /* Capture compare 2 event */
  if (__HAL_TIM_GET_FLAG(htim, TIM_FLAG_CC2) != RESET)
 8001cd8:	687b      	ldr	r3, [r7, #4]
 8001cda:	681b      	ldr	r3, [r3, #0]
 8001cdc:	691b      	ldr	r3, [r3, #16]
 8001cde:	f003 0304 	and.w	r3, r3, #4
 8001ce2:	2b04      	cmp	r3, #4
 8001ce4:	d122      	bne.n	8001d2c <HAL_TIM_IRQHandler+0xb0>
  {
    if (__HAL_TIM_GET_IT_SOURCE(htim, TIM_IT_CC2) != RESET)
 8001ce6:	687b      	ldr	r3, [r7, #4]
 8001ce8:	681b      	ldr	r3, [r3, #0]
 8001cea:	68db      	ldr	r3, [r3, #12]
 8001cec:	f003 0304 	and.w	r3, r3, #4
 8001cf0:	2b04      	cmp	r3, #4
 8001cf2:	d11b      	bne.n	8001d2c <HAL_TIM_IRQHandler+0xb0>
    {
      __HAL_TIM_CLEAR_IT(htim, TIM_IT_CC2);
 8001cf4:	687b      	ldr	r3, [r7, #4]
 8001cf6:	681b      	ldr	r3, [r3, #0]
 8001cf8:	f06f 0204 	mvn.w	r2, #4
 8001cfc:	611a      	str	r2, [r3, #16]
      htim->Channel = HAL_TIM_ACTIVE_CHANNEL_2;
 8001cfe:	687b      	ldr	r3, [r7, #4]
 8001d00:	2202      	movs	r2, #2
 8001d02:	771a      	strb	r2, [r3, #28]
      /* Input capture event */
      if ((htim->Instance->CCMR1 & TIM_CCMR1_CC2S) != 0x00U)
 8001d04:	687b      	ldr	r3, [r7, #4]
 8001d06:	681b      	ldr	r3, [r3, #0]
 8001d08:	699b      	ldr	r3, [r3, #24]
 8001d0a:	f403 7340 	and.w	r3, r3, #768	; 0x300
 8001d0e:	2b00      	cmp	r3, #0
 8001d10:	d003      	beq.n	8001d1a <HAL_TIM_IRQHandler+0x9e>
      {
#if (USE_HAL_TIM_REGISTER_CALLBACKS == 1)
        htim->IC_CaptureCallback(htim);
#else
        HAL_TIM_IC_CaptureCallback(htim);
 8001d12:	6878      	ldr	r0, [r7, #4]
 8001d14:	f000 f98a 	bl	800202c <HAL_TIM_IC_CaptureCallback>
 8001d18:	e005      	b.n	8001d26 <HAL_TIM_IRQHandler+0xaa>
      {
#if (USE_HAL_TIM_REGISTER_CALLBACKS == 1)
        htim->OC_DelayElapsedCallback(htim);
        htim->PWM_PulseFinishedCallback(htim);
#else
        HAL_TIM_OC_DelayElapsedCallback(htim);
 8001d1a:	6878      	ldr	r0, [r7, #4]
 8001d1c:	f000 f97d 	bl	800201a <HAL_TIM_OC_DelayElapsedCallback>
        HAL_TIM_PWM_PulseFinishedCallback(htim);
 8001d20:	6878      	ldr	r0, [r7, #4]
 8001d22:	f000 f98c 	bl	800203e <HAL_TIM_PWM_PulseFinishedCallback>
#endif /* USE_HAL_TIM_REGISTER_CALLBACKS */
      }
      htim->Channel = HAL_TIM_ACTIVE_CHANNEL_CLEARED;
 8001d26:	687b      	ldr	r3, [r7, #4]
 8001d28:	2200      	movs	r2, #0
 8001d2a:	771a      	strb	r2, [r3, #28]
    }
  }
  /* Capture compare 3 event */
  if (__HAL_TIM_GET_FLAG(htim, TIM_FLAG_CC3) != RESET)
 8001d2c:	687b      	ldr	r3, [r7, #4]
 8001d2e:	681b      	ldr	r3, [r3, #0]
 8001d30:	691b      	ldr	r3, [r3, #16]
 8001d32:	f003 0308 	and.w	r3, r3, #8
 8001d36:	2b08      	cmp	r3, #8
 8001d38:	d122      	bne.n	8001d80 <HAL_TIM_IRQHandler+0x104>
  {
    if (__HAL_TIM_GET_IT_SOURCE(htim, TIM_IT_CC3) != RESET)
 8001d3a:	687b      	ldr	r3, [r7, #4]
 8001d3c:	681b      	ldr	r3, [r3, #0]
 8001d3e:	68db      	ldr	r3, [r3, #12]
 8001d40:	f003 0308 	and.w	r3, r3, #8
 8001d44:	2b08      	cmp	r3, #8
 8001d46:	d11b      	bne.n	8001d80 <HAL_TIM_IRQHandler+0x104>
    {
      __HAL_TIM_CLEAR_IT(htim, TIM_IT_CC3);
 8001d48:	687b      	ldr	r3, [r7, #4]
 8001d4a:	681b      	ldr	r3, [r3, #0]
 8001d4c:	f06f 0208 	mvn.w	r2, #8
 8001d50:	611a      	str	r2, [r3, #16]
      htim->Channel = HAL_TIM_ACTIVE_CHANNEL_3;
 8001d52:	687b      	ldr	r3, [r7, #4]
 8001d54:	2204      	movs	r2, #4
 8001d56:	771a      	strb	r2, [r3, #28]
      /* Input capture event */
      if ((htim->Instance->CCMR2 & TIM_CCMR2_CC3S) != 0x00U)
 8001d58:	687b      	ldr	r3, [r7, #4]
 8001d5a:	681b      	ldr	r3, [r3, #0]
 8001d5c:	69db      	ldr	r3, [r3, #28]
 8001d5e:	f003 0303 	and.w	r3, r3, #3
 8001d62:	2b00      	cmp	r3, #0
 8001d64:	d003      	beq.n	8001d6e <HAL_TIM_IRQHandler+0xf2>
      {
#if (USE_HAL_TIM_REGISTER_CALLBACKS == 1)
        htim->IC_CaptureCallback(htim);
#else
        HAL_TIM_IC_CaptureCallback(htim);
 8001d66:	6878      	ldr	r0, [r7, #4]
 8001d68:	f000 f960 	bl	800202c <HAL_TIM_IC_CaptureCallback>
 8001d6c:	e005      	b.n	8001d7a <HAL_TIM_IRQHandler+0xfe>
      {
#if (USE_HAL_TIM_REGISTER_CALLBACKS == 1)
        htim->OC_DelayElapsedCallback(htim);
        htim->PWM_PulseFinishedCallback(htim);
#else
        HAL_TIM_OC_DelayElapsedCallback(htim);
 8001d6e:	6878      	ldr	r0, [r7, #4]
 8001d70:	f000 f953 	bl	800201a <HAL_TIM_OC_DelayElapsedCallback>
        HAL_TIM_PWM_PulseFinishedCallback(htim);
 8001d74:	6878      	ldr	r0, [r7, #4]
 8001d76:	f000 f962 	bl	800203e <HAL_TIM_PWM_PulseFinishedCallback>
#endif /* USE_HAL_TIM_REGISTER_CALLBACKS */
      }
      htim->Channel = HAL_TIM_ACTIVE_CHANNEL_CLEARED;
 8001d7a:	687b      	ldr	r3, [r7, #4]
 8001d7c:	2200      	movs	r2, #0
 8001d7e:	771a      	strb	r2, [r3, #28]
    }
  }
  /* Capture compare 4 event */
  if (__HAL_TIM_GET_FLAG(htim, TIM_FLAG_CC4) != RESET)
 8001d80:	687b      	ldr	r3, [r7, #4]
 8001d82:	681b      	ldr	r3, [r3, #0]
 8001d84:	691b      	ldr	r3, [r3, #16]
 8001d86:	f003 0310 	and.w	r3, r3, #16
 8001d8a:	2b10      	cmp	r3, #16
 8001d8c:	d122      	bne.n	8001dd4 <HAL_TIM_IRQHandler+0x158>
  {
    if (__HAL_TIM_GET_IT_SOURCE(htim, TIM_IT_CC4) != RESET)
 8001d8e:	687b      	ldr	r3, [r7, #4]
 8001d90:	681b      	ldr	r3, [r3, #0]
 8001d92:	68db      	ldr	r3, [r3, #12]
 8001d94:	f003 0310 	and.w	r3, r3, #16
 8001d98:	2b10      	cmp	r3, #16
 8001d9a:	d11b      	bne.n	8001dd4 <HAL_TIM_IRQHandler+0x158>
    {
      __HAL_TIM_CLEAR_IT(htim, TIM_IT_CC4);
 8001d9c:	687b      	ldr	r3, [r7, #4]
 8001d9e:	681b      	ldr	r3, [r3, #0]
 8001da0:	f06f 0210 	mvn.w	r2, #16
 8001da4:	611a      	str	r2, [r3, #16]
      htim->Channel = HAL_TIM_ACTIVE_CHANNEL_4;
 8001da6:	687b      	ldr	r3, [r7, #4]
 8001da8:	2208      	movs	r2, #8
 8001daa:	771a      	strb	r2, [r3, #28]
      /* Input capture event */
      if ((htim->Instance->CCMR2 & TIM_CCMR2_CC4S) != 0x00U)
 8001dac:	687b      	ldr	r3, [r7, #4]
 8001dae:	681b      	ldr	r3, [r3, #0]
 8001db0:	69db      	ldr	r3, [r3, #28]
 8001db2:	f403 7340 	and.w	r3, r3, #768	; 0x300
 8001db6:	2b00      	cmp	r3, #0
 8001db8:	d003      	beq.n	8001dc2 <HAL_TIM_IRQHandler+0x146>
      {
#if (USE_HAL_TIM_REGISTER_CALLBACKS == 1)
        htim->IC_CaptureCallback(htim);
#else
        HAL_TIM_IC_CaptureCallback(htim);
 8001dba:	6878      	ldr	r0, [r7, #4]
 8001dbc:	f000 f936 	bl	800202c <HAL_TIM_IC_CaptureCallback>
 8001dc0:	e005      	b.n	8001dce <HAL_TIM_IRQHandler+0x152>
      {
#if (USE_HAL_TIM_REGISTER_CALLBACKS == 1)
        htim->OC_DelayElapsedCallback(htim);
        htim->PWM_PulseFinishedCallback(htim);
#else
        HAL_TIM_OC_DelayElapsedCallback(htim);
 8001dc2:	6878      	ldr	r0, [r7, #4]
 8001dc4:	f000 f929 	bl	800201a <HAL_TIM_OC_DelayElapsedCallback>
        HAL_TIM_PWM_PulseFinishedCallback(htim);
 8001dc8:	6878      	ldr	r0, [r7, #4]
 8001dca:	f000 f938 	bl	800203e <HAL_TIM_PWM_PulseFinishedCallback>
#endif /* USE_HAL_TIM_REGISTER_CALLBACKS */
      }
      htim->Channel = HAL_TIM_ACTIVE_CHANNEL_CLEARED;
 8001dce:	687b      	ldr	r3, [r7, #4]
 8001dd0:	2200      	movs	r2, #0
 8001dd2:	771a      	strb	r2, [r3, #28]
    }
  }
  /* TIM Update event */
  if (__HAL_TIM_GET_FLAG(htim, TIM_FLAG_UPDATE) != RESET)
 8001dd4:	687b      	ldr	r3, [r7, #4]
 8001dd6:	681b      	ldr	r3, [r3, #0]
 8001dd8:	691b      	ldr	r3, [r3, #16]
 8001dda:	f003 0301 	and.w	r3, r3, #1
 8001dde:	2b01      	cmp	r3, #1
 8001de0:	d10e      	bne.n	8001e00 <HAL_TIM_IRQHandler+0x184>
  {
    if (__HAL_TIM_GET_IT_SOURCE(htim, TIM_IT_UPDATE) != RESET)
 8001de2:	687b      	ldr	r3, [r7, #4]
 8001de4:	681b      	ldr	r3, [r3, #0]
 8001de6:	68db      	ldr	r3, [r3, #12]
 8001de8:	f003 0301 	and.w	r3, r3, #1
 8001dec:	2b01      	cmp	r3, #1
 8001dee:	d107      	bne.n	8001e00 <HAL_TIM_IRQHandler+0x184>
    {
      __HAL_TIM_CLEAR_IT(htim, TIM_IT_UPDATE);
 8001df0:	687b      	ldr	r3, [r7, #4]
 8001df2:	681b      	ldr	r3, [r3, #0]
 8001df4:	f06f 0201 	mvn.w	r2, #1
 8001df8:	611a      	str	r2, [r3, #16]
#if (USE_HAL_TIM_REGISTER_CALLBACKS == 1)
      htim->PeriodElapsedCallback(htim);
#else
      HAL_TIM_PeriodElapsedCallback(htim);
 8001dfa:	6878      	ldr	r0, [r7, #4]
 8001dfc:	f7fe fe46 	bl	8000a8c <HAL_TIM_PeriodElapsedCallback>
#endif /* USE_HAL_TIM_REGISTER_CALLBACKS */
    }
  }
  /* TIM Break input event */
  if (__HAL_TIM_GET_FLAG(htim, TIM_FLAG_BREAK) != RESET)
 8001e00:	687b      	ldr	r3, [r7, #4]
 8001e02:	681b      	ldr	r3, [r3, #0]
 8001e04:	691b      	ldr	r3, [r3, #16]
 8001e06:	f003 0380 	and.w	r3, r3, #128	; 0x80
 8001e0a:	2b80      	cmp	r3, #128	; 0x80
 8001e0c:	d10e      	bne.n	8001e2c <HAL_TIM_IRQHandler+0x1b0>
  {
    if (__HAL_TIM_GET_IT_SOURCE(htim, TIM_IT_BREAK) != RESET)
 8001e0e:	687b      	ldr	r3, [r7, #4]
 8001e10:	681b      	ldr	r3, [r3, #0]
 8001e12:	68db      	ldr	r3, [r3, #12]
 8001e14:	f003 0380 	and.w	r3, r3, #128	; 0x80
 8001e18:	2b80      	cmp	r3, #128	; 0x80
 8001e1a:	d107      	bne.n	8001e2c <HAL_TIM_IRQHandler+0x1b0>
    {
      __HAL_TIM_CLEAR_IT(htim, TIM_IT_BREAK);
 8001e1c:	687b      	ldr	r3, [r7, #4]
 8001e1e:	681b      	ldr	r3, [r3, #0]
 8001e20:	f06f 0280 	mvn.w	r2, #128	; 0x80
 8001e24:	611a      	str	r2, [r3, #16]
#if (USE_HAL_TIM_REGISTER_CALLBACKS == 1)
      htim->BreakCallback(htim);
#else
      HAL_TIMEx_BreakCallback(htim);
 8001e26:	6878      	ldr	r0, [r7, #4]
 8001e28:	f000 fa6b 	bl	8002302 <HAL_TIMEx_BreakCallback>
#endif /* USE_HAL_TIM_REGISTER_CALLBACKS */
    }
  }
  /* TIM Trigger detection event */
  if (__HAL_TIM_GET_FLAG(htim, TIM_FLAG_TRIGGER) != RESET)
 8001e2c:	687b      	ldr	r3, [r7, #4]
 8001e2e:	681b      	ldr	r3, [r3, #0]
 8001e30:	691b      	ldr	r3, [r3, #16]
 8001e32:	f003 0340 	and.w	r3, r3, #64	; 0x40
 8001e36:	2b40      	cmp	r3, #64	; 0x40
 8001e38:	d10e      	bne.n	8001e58 <HAL_TIM_IRQHandler+0x1dc>
  {
    if (__HAL_TIM_GET_IT_SOURCE(htim, TIM_IT_TRIGGER) != RESET)
 8001e3a:	687b      	ldr	r3, [r7, #4]
 8001e3c:	681b      	ldr	r3, [r3, #0]
 8001e3e:	68db      	ldr	r3, [r3, #12]
 8001e40:	f003 0340 	and.w	r3, r3, #64	; 0x40
 8001e44:	2b40      	cmp	r3, #64	; 0x40
 8001e46:	d107      	bne.n	8001e58 <HAL_TIM_IRQHandler+0x1dc>
    {
      __HAL_TIM_CLEAR_IT(htim, TIM_IT_TRIGGER);
 8001e48:	687b      	ldr	r3, [r7, #4]
 8001e4a:	681b      	ldr	r3, [r3, #0]
 8001e4c:	f06f 0240 	mvn.w	r2, #64	; 0x40
 8001e50:	611a      	str	r2, [r3, #16]
#if (USE_HAL_TIM_REGISTER_CALLBACKS == 1)
      htim->TriggerCallback(htim);
#else
      HAL_TIM_TriggerCallback(htim);
 8001e52:	6878      	ldr	r0, [r7, #4]
 8001e54:	f000 f8fc 	bl	8002050 <HAL_TIM_TriggerCallback>
#endif /* USE_HAL_TIM_REGISTER_CALLBACKS */
    }
  }
  /* TIM commutation event */
  if (__HAL_TIM_GET_FLAG(htim, TIM_FLAG_COM) != RESET)
 8001e58:	687b      	ldr	r3, [r7, #4]
 8001e5a:	681b      	ldr	r3, [r3, #0]
 8001e5c:	691b      	ldr	r3, [r3, #16]
 8001e5e:	f003 0320 	and.w	r3, r3, #32
 8001e62:	2b20      	cmp	r3, #32
 8001e64:	d10e      	bne.n	8001e84 <HAL_TIM_IRQHandler+0x208>
  {
    if (__HAL_TIM_GET_IT_SOURCE(htim, TIM_IT_COM) != RESET)
 8001e66:	687b      	ldr	r3, [r7, #4]
 8001e68:	681b      	ldr	r3, [r3, #0]
 8001e6a:	68db      	ldr	r3, [r3, #12]
 8001e6c:	f003 0320 	and.w	r3, r3, #32
 8001e70:	2b20      	cmp	r3, #32
 8001e72:	d107      	bne.n	8001e84 <HAL_TIM_IRQHandler+0x208>
    {
      __HAL_TIM_CLEAR_IT(htim, TIM_FLAG_COM);
 8001e74:	687b      	ldr	r3, [r7, #4]
 8001e76:	681b      	ldr	r3, [r3, #0]
 8001e78:	f06f 0220 	mvn.w	r2, #32
 8001e7c:	611a      	str	r2, [r3, #16]
#if (USE_HAL_TIM_REGISTER_CALLBACKS == 1)
      htim->CommutationCallback(htim);
#else
      HAL_TIMEx_CommutCallback(htim);
 8001e7e:	6878      	ldr	r0, [r7, #4]
 8001e80:	f000 fa36 	bl	80022f0 <HAL_TIMEx_CommutCallback>
#endif /* USE_HAL_TIM_REGISTER_CALLBACKS */
    }
  }
}
 8001e84:	bf00      	nop
 8001e86:	3708      	adds	r7, #8
 8001e88:	46bd      	mov	sp, r7
 8001e8a:	bd80      	pop	{r7, pc}

08001e8c <HAL_TIM_ConfigClockSource>:
  * @param  sClockSourceConfig pointer to a TIM_ClockConfigTypeDef structure that
  *         contains the clock source information for the TIM peripheral.
  * @retval HAL status
  */
HAL_StatusTypeDef HAL_TIM_ConfigClockSource(TIM_HandleTypeDef *htim, const TIM_ClockConfigTypeDef *sClockSourceConfig)
{
 8001e8c:	b580      	push	{r7, lr}
 8001e8e:	b084      	sub	sp, #16
 8001e90:	af00      	add	r7, sp, #0
 8001e92:	6078      	str	r0, [r7, #4]
 8001e94:	6039      	str	r1, [r7, #0]
  HAL_StatusTypeDef status = HAL_OK;
 8001e96:	2300      	movs	r3, #0
 8001e98:	73fb      	strb	r3, [r7, #15]
  uint32_t tmpsmcr;

  /* Process Locked */
  __HAL_LOCK(htim);
 8001e9a:	687b      	ldr	r3, [r7, #4]
 8001e9c:	f893 303c 	ldrb.w	r3, [r3, #60]	; 0x3c
 8001ea0:	2b01      	cmp	r3, #1
 8001ea2:	d101      	bne.n	8001ea8 <HAL_TIM_ConfigClockSource+0x1c>
 8001ea4:	2302      	movs	r3, #2
 8001ea6:	e0b4      	b.n	8002012 <HAL_TIM_ConfigClockSource+0x186>
 8001ea8:	687b      	ldr	r3, [r7, #4]
 8001eaa:	2201      	movs	r2, #1
 8001eac:	f883 203c 	strb.w	r2, [r3, #60]	; 0x3c

  htim->State = HAL_TIM_STATE_BUSY;
 8001eb0:	687b      	ldr	r3, [r7, #4]
 8001eb2:	2202      	movs	r2, #2
 8001eb4:	f883 203d 	strb.w	r2, [r3, #61]	; 0x3d

  /* Check the parameters */
  assert_param(IS_TIM_CLOCKSOURCE(sClockSourceConfig->ClockSource));

  /* Reset the SMS, TS, ECE, ETPS and ETRF bits */
  tmpsmcr = htim->Instance->SMCR;
 8001eb8:	687b      	ldr	r3, [r7, #4]
 8001eba:	681b      	ldr	r3, [r3, #0]
 8001ebc:	689b      	ldr	r3, [r3, #8]
 8001ebe:	60bb      	str	r3, [r7, #8]
  tmpsmcr &= ~(TIM_SMCR_SMS | TIM_SMCR_TS);
 8001ec0:	68bb      	ldr	r3, [r7, #8]
 8001ec2:	f023 0377 	bic.w	r3, r3, #119	; 0x77
 8001ec6:	60bb      	str	r3, [r7, #8]
  tmpsmcr &= ~(TIM_SMCR_ETF | TIM_SMCR_ETPS | TIM_SMCR_ECE | TIM_SMCR_ETP);
 8001ec8:	68bb      	ldr	r3, [r7, #8]
 8001eca:	f423 437f 	bic.w	r3, r3, #65280	; 0xff00
 8001ece:	60bb      	str	r3, [r7, #8]
  htim->Instance->SMCR = tmpsmcr;
 8001ed0:	687b      	ldr	r3, [r7, #4]
 8001ed2:	681b      	ldr	r3, [r3, #0]
 8001ed4:	68ba      	ldr	r2, [r7, #8]
 8001ed6:	609a      	str	r2, [r3, #8]

  switch (sClockSourceConfig->ClockSource)
 8001ed8:	683b      	ldr	r3, [r7, #0]
 8001eda:	681b      	ldr	r3, [r3, #0]
 8001edc:	f5b3 5f00 	cmp.w	r3, #8192	; 0x2000
 8001ee0:	d03e      	beq.n	8001f60 <HAL_TIM_ConfigClockSource+0xd4>
 8001ee2:	f5b3 5f00 	cmp.w	r3, #8192	; 0x2000
 8001ee6:	f200 8087 	bhi.w	8001ff8 <HAL_TIM_ConfigClockSource+0x16c>
 8001eea:	f5b3 5f80 	cmp.w	r3, #4096	; 0x1000
 8001eee:	f000 8086 	beq.w	8001ffe <HAL_TIM_ConfigClockSource+0x172>
 8001ef2:	f5b3 5f80 	cmp.w	r3, #4096	; 0x1000
 8001ef6:	d87f      	bhi.n	8001ff8 <HAL_TIM_ConfigClockSource+0x16c>
 8001ef8:	2b70      	cmp	r3, #112	; 0x70
 8001efa:	d01a      	beq.n	8001f32 <HAL_TIM_ConfigClockSource+0xa6>
 8001efc:	2b70      	cmp	r3, #112	; 0x70
 8001efe:	d87b      	bhi.n	8001ff8 <HAL_TIM_ConfigClockSource+0x16c>
 8001f00:	2b60      	cmp	r3, #96	; 0x60
 8001f02:	d050      	beq.n	8001fa6 <HAL_TIM_ConfigClockSource+0x11a>
 8001f04:	2b60      	cmp	r3, #96	; 0x60
 8001f06:	d877      	bhi.n	8001ff8 <HAL_TIM_ConfigClockSource+0x16c>
 8001f08:	2b50      	cmp	r3, #80	; 0x50
 8001f0a:	d03c      	beq.n	8001f86 <HAL_TIM_ConfigClockSource+0xfa>
 8001f0c:	2b50      	cmp	r3, #80	; 0x50
 8001f0e:	d873      	bhi.n	8001ff8 <HAL_TIM_ConfigClockSource+0x16c>
 8001f10:	2b40      	cmp	r3, #64	; 0x40
 8001f12:	d058      	beq.n	8001fc6 <HAL_TIM_ConfigClockSource+0x13a>
 8001f14:	2b40      	cmp	r3, #64	; 0x40
 8001f16:	d86f      	bhi.n	8001ff8 <HAL_TIM_ConfigClockSource+0x16c>
 8001f18:	2b30      	cmp	r3, #48	; 0x30
 8001f1a:	d064      	beq.n	8001fe6 <HAL_TIM_ConfigClockSource+0x15a>
 8001f1c:	2b30      	cmp	r3, #48	; 0x30
 8001f1e:	d86b      	bhi.n	8001ff8 <HAL_TIM_ConfigClockSource+0x16c>
 8001f20:	2b20      	cmp	r3, #32
 8001f22:	d060      	beq.n	8001fe6 <HAL_TIM_ConfigClockSource+0x15a>
 8001f24:	2b20      	cmp	r3, #32
 8001f26:	d867      	bhi.n	8001ff8 <HAL_TIM_ConfigClockSource+0x16c>
 8001f28:	2b00      	cmp	r3, #0
 8001f2a:	d05c      	beq.n	8001fe6 <HAL_TIM_ConfigClockSource+0x15a>
 8001f2c:	2b10      	cmp	r3, #16
 8001f2e:	d05a      	beq.n	8001fe6 <HAL_TIM_ConfigClockSource+0x15a>
 8001f30:	e062      	b.n	8001ff8 <HAL_TIM_ConfigClockSource+0x16c>
      assert_param(IS_TIM_CLOCKPRESCALER(sClockSourceConfig->ClockPrescaler));
      assert_param(IS_TIM_CLOCKPOLARITY(sClockSourceConfig->ClockPolarity));
      assert_param(IS_TIM_CLOCKFILTER(sClockSourceConfig->ClockFilter));

      /* Configure the ETR Clock source */
      TIM_ETR_SetConfig(htim->Instance,
 8001f32:	687b      	ldr	r3, [r7, #4]
 8001f34:	6818      	ldr	r0, [r3, #0]
 8001f36:	683b      	ldr	r3, [r7, #0]
 8001f38:	6899      	ldr	r1, [r3, #8]
 8001f3a:	683b      	ldr	r3, [r7, #0]
 8001f3c:	685a      	ldr	r2, [r3, #4]
 8001f3e:	683b      	ldr	r3, [r7, #0]
 8001f40:	68db      	ldr	r3, [r3, #12]
 8001f42:	f000 f95e 	bl	8002202 <TIM_ETR_SetConfig>
                        sClockSourceConfig->ClockPrescaler,
                        sClockSourceConfig->ClockPolarity,
                        sClockSourceConfig->ClockFilter);

      /* Select the External clock mode1 and the ETRF trigger */
      tmpsmcr = htim->Instance->SMCR;
 8001f46:	687b      	ldr	r3, [r7, #4]
 8001f48:	681b      	ldr	r3, [r3, #0]
 8001f4a:	689b      	ldr	r3, [r3, #8]
 8001f4c:	60bb      	str	r3, [r7, #8]
      tmpsmcr |= (TIM_SLAVEMODE_EXTERNAL1 | TIM_CLOCKSOURCE_ETRMODE1);
 8001f4e:	68bb      	ldr	r3, [r7, #8]
 8001f50:	f043 0377 	orr.w	r3, r3, #119	; 0x77
 8001f54:	60bb      	str	r3, [r7, #8]
      /* Write to TIMx SMCR */
      htim->Instance->SMCR = tmpsmcr;
 8001f56:	687b      	ldr	r3, [r7, #4]
 8001f58:	681b      	ldr	r3, [r3, #0]
 8001f5a:	68ba      	ldr	r2, [r7, #8]
 8001f5c:	609a      	str	r2, [r3, #8]
      break;
 8001f5e:	e04f      	b.n	8002000 <HAL_TIM_ConfigClockSource+0x174>
      assert_param(IS_TIM_CLOCKPRESCALER(sClockSourceConfig->ClockPrescaler));
      assert_param(IS_TIM_CLOCKPOLARITY(sClockSourceConfig->ClockPolarity));
      assert_param(IS_TIM_CLOCKFILTER(sClockSourceConfig->ClockFilter));

      /* Configure the ETR Clock source */
      TIM_ETR_SetConfig(htim->Instance,
 8001f60:	687b      	ldr	r3, [r7, #4]
 8001f62:	6818      	ldr	r0, [r3, #0]
 8001f64:	683b      	ldr	r3, [r7, #0]
 8001f66:	6899      	ldr	r1, [r3, #8]
 8001f68:	683b      	ldr	r3, [r7, #0]
 8001f6a:	685a      	ldr	r2, [r3, #4]
 8001f6c:	683b      	ldr	r3, [r7, #0]
 8001f6e:	68db      	ldr	r3, [r3, #12]
 8001f70:	f000 f947 	bl	8002202 <TIM_ETR_SetConfig>
                        sClockSourceConfig->ClockPrescaler,
                        sClockSourceConfig->ClockPolarity,
                        sClockSourceConfig->ClockFilter);
      /* Enable the External clock mode2 */
      htim->Instance->SMCR |= TIM_SMCR_ECE;
 8001f74:	687b      	ldr	r3, [r7, #4]
 8001f76:	681b      	ldr	r3, [r3, #0]
 8001f78:	689a      	ldr	r2, [r3, #8]
 8001f7a:	687b      	ldr	r3, [r7, #4]
 8001f7c:	681b      	ldr	r3, [r3, #0]
 8001f7e:	f442 4280 	orr.w	r2, r2, #16384	; 0x4000
 8001f82:	609a      	str	r2, [r3, #8]
      break;
 8001f84:	e03c      	b.n	8002000 <HAL_TIM_ConfigClockSource+0x174>

      /* Check TI1 input conditioning related parameters */
      assert_param(IS_TIM_CLOCKPOLARITY(sClockSourceConfig->ClockPolarity));
      assert_param(IS_TIM_CLOCKFILTER(sClockSourceConfig->ClockFilter));

      TIM_TI1_ConfigInputStage(htim->Instance,
 8001f86:	687b      	ldr	r3, [r7, #4]
 8001f88:	6818      	ldr	r0, [r3, #0]
 8001f8a:	683b      	ldr	r3, [r7, #0]
 8001f8c:	6859      	ldr	r1, [r3, #4]
 8001f8e:	683b      	ldr	r3, [r7, #0]
 8001f90:	68db      	ldr	r3, [r3, #12]
 8001f92:	461a      	mov	r2, r3
 8001f94:	f000 f8be 	bl	8002114 <TIM_TI1_ConfigInputStage>
                               sClockSourceConfig->ClockPolarity,
                               sClockSourceConfig->ClockFilter);
      TIM_ITRx_SetConfig(htim->Instance, TIM_CLOCKSOURCE_TI1);
 8001f98:	687b      	ldr	r3, [r7, #4]
 8001f9a:	681b      	ldr	r3, [r3, #0]
 8001f9c:	2150      	movs	r1, #80	; 0x50
 8001f9e:	4618      	mov	r0, r3
 8001fa0:	f000 f915 	bl	80021ce <TIM_ITRx_SetConfig>
      break;
 8001fa4:	e02c      	b.n	8002000 <HAL_TIM_ConfigClockSource+0x174>

      /* Check TI2 input conditioning related parameters */
      assert_param(IS_TIM_CLOCKPOLARITY(sClockSourceConfig->ClockPolarity));
      assert_param(IS_TIM_CLOCKFILTER(sClockSourceConfig->ClockFilter));

      TIM_TI2_ConfigInputStage(htim->Instance,
 8001fa6:	687b      	ldr	r3, [r7, #4]
 8001fa8:	6818      	ldr	r0, [r3, #0]
 8001faa:	683b      	ldr	r3, [r7, #0]
 8001fac:	6859      	ldr	r1, [r3, #4]
 8001fae:	683b      	ldr	r3, [r7, #0]
 8001fb0:	68db      	ldr	r3, [r3, #12]
 8001fb2:	461a      	mov	r2, r3
 8001fb4:	f000 f8dc 	bl	8002170 <TIM_TI2_ConfigInputStage>
                               sClockSourceConfig->ClockPolarity,
                               sClockSourceConfig->ClockFilter);
      TIM_ITRx_SetConfig(htim->Instance, TIM_CLOCKSOURCE_TI2);
 8001fb8:	687b      	ldr	r3, [r7, #4]
 8001fba:	681b      	ldr	r3, [r3, #0]
 8001fbc:	2160      	movs	r1, #96	; 0x60
 8001fbe:	4618      	mov	r0, r3
 8001fc0:	f000 f905 	bl	80021ce <TIM_ITRx_SetConfig>
      break;
 8001fc4:	e01c      	b.n	8002000 <HAL_TIM_ConfigClockSource+0x174>

      /* Check TI1 input conditioning related parameters */
      assert_param(IS_TIM_CLOCKPOLARITY(sClockSourceConfig->ClockPolarity));
      assert_param(IS_TIM_CLOCKFILTER(sClockSourceConfig->ClockFilter));

      TIM_TI1_ConfigInputStage(htim->Instance,
 8001fc6:	687b      	ldr	r3, [r7, #4]
 8001fc8:	6818      	ldr	r0, [r3, #0]
 8001fca:	683b      	ldr	r3, [r7, #0]
 8001fcc:	6859      	ldr	r1, [r3, #4]
 8001fce:	683b      	ldr	r3, [r7, #0]
 8001fd0:	68db      	ldr	r3, [r3, #12]
 8001fd2:	461a      	mov	r2, r3
 8001fd4:	f000 f89e 	bl	8002114 <TIM_TI1_ConfigInputStage>
                               sClockSourceConfig->ClockPolarity,
                               sClockSourceConfig->ClockFilter);
      TIM_ITRx_SetConfig(htim->Instance, TIM_CLOCKSOURCE_TI1ED);
 8001fd8:	687b      	ldr	r3, [r7, #4]
 8001fda:	681b      	ldr	r3, [r3, #0]
 8001fdc:	2140      	movs	r1, #64	; 0x40
 8001fde:	4618      	mov	r0, r3
 8001fe0:	f000 f8f5 	bl	80021ce <TIM_ITRx_SetConfig>
      break;
 8001fe4:	e00c      	b.n	8002000 <HAL_TIM_ConfigClockSource+0x174>
    case TIM_CLOCKSOURCE_ITR3:
    {
      /* Check whether or not the timer instance supports internal trigger input */
      assert_param(IS_TIM_CLOCKSOURCE_ITRX_INSTANCE(htim->Instance));

      TIM_ITRx_SetConfig(htim->Instance, sClockSourceConfig->ClockSource);
 8001fe6:	687b      	ldr	r3, [r7, #4]
 8001fe8:	681a      	ldr	r2, [r3, #0]
 8001fea:	683b      	ldr	r3, [r7, #0]
 8001fec:	681b      	ldr	r3, [r3, #0]
 8001fee:	4619      	mov	r1, r3
 8001ff0:	4610      	mov	r0, r2
 8001ff2:	f000 f8ec 	bl	80021ce <TIM_ITRx_SetConfig>
      break;
 8001ff6:	e003      	b.n	8002000 <HAL_TIM_ConfigClockSource+0x174>
    }

    default:
      status = HAL_ERROR;
 8001ff8:	2301      	movs	r3, #1
 8001ffa:	73fb      	strb	r3, [r7, #15]
      break;
 8001ffc:	e000      	b.n	8002000 <HAL_TIM_ConfigClockSource+0x174>
      break;
 8001ffe:	bf00      	nop
  }
  htim->State = HAL_TIM_STATE_READY;
 8002000:	687b      	ldr	r3, [r7, #4]
 8002002:	2201      	movs	r2, #1
 8002004:	f883 203d 	strb.w	r2, [r3, #61]	; 0x3d

  __HAL_UNLOCK(htim);
 8002008:	687b      	ldr	r3, [r7, #4]
 800200a:	2200      	movs	r2, #0
 800200c:	f883 203c 	strb.w	r2, [r3, #60]	; 0x3c

  return status;
 8002010:	7bfb      	ldrb	r3, [r7, #15]
}
 8002012:	4618      	mov	r0, r3
 8002014:	3710      	adds	r7, #16
 8002016:	46bd      	mov	sp, r7
 8002018:	bd80      	pop	{r7, pc}

0800201a <HAL_TIM_OC_DelayElapsedCallback>:
  * @brief  Output Compare callback in non-blocking mode
  * @param  htim TIM OC handle
  * @retval None
  */
__weak void HAL_TIM_OC_DelayElapsedCallback(TIM_HandleTypeDef *htim)
{
 800201a:	b480      	push	{r7}
 800201c:	b083      	sub	sp, #12
 800201e:	af00      	add	r7, sp, #0
 8002020:	6078      	str	r0, [r7, #4]
  UNUSED(htim);

  /* NOTE : This function should not be modified, when the callback is needed,
            the HAL_TIM_OC_DelayElapsedCallback could be implemented in the user file
   */
}
 8002022:	bf00      	nop
 8002024:	370c      	adds	r7, #12
 8002026:	46bd      	mov	sp, r7
 8002028:	bc80      	pop	{r7}
 800202a:	4770      	bx	lr

0800202c <HAL_TIM_IC_CaptureCallback>:
  * @brief  Input Capture callback in non-blocking mode
  * @param  htim TIM IC handle
  * @retval None
  */
__weak void HAL_TIM_IC_CaptureCallback(TIM_HandleTypeDef *htim)
{
 800202c:	b480      	push	{r7}
 800202e:	b083      	sub	sp, #12
 8002030:	af00      	add	r7, sp, #0
 8002032:	6078      	str	r0, [r7, #4]
  UNUSED(htim);

  /* NOTE : This function should not be modified, when the callback is needed,
            the HAL_TIM_IC_CaptureCallback could be implemented in the user file
   */
}
 8002034:	bf00      	nop
 8002036:	370c      	adds	r7, #12
 8002038:	46bd      	mov	sp, r7
 800203a:	bc80      	pop	{r7}
 800203c:	4770      	bx	lr

0800203e <HAL_TIM_PWM_PulseFinishedCallback>:
  * @brief  PWM Pulse finished callback in non-blocking mode
  * @param  htim TIM handle
  * @retval None
  */
__weak void HAL_TIM_PWM_PulseFinishedCallback(TIM_HandleTypeDef *htim)
{
 800203e:	b480      	push	{r7}
 8002040:	b083      	sub	sp, #12
 8002042:	af00      	add	r7, sp, #0
 8002044:	6078      	str	r0, [r7, #4]
  UNUSED(htim);

  /* NOTE : This function should not be modified, when the callback is needed,
            the HAL_TIM_PWM_PulseFinishedCallback could be implemented in the user file
   */
}
 8002046:	bf00      	nop
 8002048:	370c      	adds	r7, #12
 800204a:	46bd      	mov	sp, r7
 800204c:	bc80      	pop	{r7}
 800204e:	4770      	bx	lr

08002050 <HAL_TIM_TriggerCallback>:
  * @brief  Hall Trigger detection callback in non-blocking mode
  * @param  htim TIM handle
  * @retval None
  */
__weak void HAL_TIM_TriggerCallback(TIM_HandleTypeDef *htim)
{
 8002050:	b480      	push	{r7}
 8002052:	b083      	sub	sp, #12
 8002054:	af00      	add	r7, sp, #0
 8002056:	6078      	str	r0, [r7, #4]
  UNUSED(htim);

  /* NOTE : This function should not be modified, when the callback is needed,
            the HAL_TIM_TriggerCallback could be implemented in the user file
   */
}
 8002058:	bf00      	nop
 800205a:	370c      	adds	r7, #12
 800205c:	46bd      	mov	sp, r7
 800205e:	bc80      	pop	{r7}
 8002060:	4770      	bx	lr
	...

08002064 <TIM_Base_SetConfig>:
  * @param  TIMx TIM peripheral
  * @param  Structure TIM Base configuration structure
  * @retval None
  */
void TIM_Base_SetConfig(TIM_TypeDef *TIMx, const TIM_Base_InitTypeDef *Structure)
{
 8002064:	b480      	push	{r7}
 8002066:	b085      	sub	sp, #20
 8002068:	af00      	add	r7, sp, #0
 800206a:	6078      	str	r0, [r7, #4]
 800206c:	6039      	str	r1, [r7, #0]
  uint32_t tmpcr1;
  tmpcr1 = TIMx->CR1;
 800206e:	687b      	ldr	r3, [r7, #4]
 8002070:	681b      	ldr	r3, [r3, #0]
 8002072:	60fb      	str	r3, [r7, #12]

  /* Set TIM Time Base Unit parameters ---------------------------------------*/
  if (IS_TIM_COUNTER_MODE_SELECT_INSTANCE(TIMx))
 8002074:	687b      	ldr	r3, [r7, #4]
 8002076:	4a25      	ldr	r2, [pc, #148]	; (800210c <TIM_Base_SetConfig+0xa8>)
 8002078:	4293      	cmp	r3, r2
 800207a:	d007      	beq.n	800208c <TIM_Base_SetConfig+0x28>
 800207c:	687b      	ldr	r3, [r7, #4]
 800207e:	f1b3 4f80 	cmp.w	r3, #1073741824	; 0x40000000
 8002082:	d003      	beq.n	800208c <TIM_Base_SetConfig+0x28>
 8002084:	687b      	ldr	r3, [r7, #4]
 8002086:	4a22      	ldr	r2, [pc, #136]	; (8002110 <TIM_Base_SetConfig+0xac>)
 8002088:	4293      	cmp	r3, r2
 800208a:	d108      	bne.n	800209e <TIM_Base_SetConfig+0x3a>
  {
    /* Select the Counter Mode */
    tmpcr1 &= ~(TIM_CR1_DIR | TIM_CR1_CMS);
 800208c:	68fb      	ldr	r3, [r7, #12]
 800208e:	f023 0370 	bic.w	r3, r3, #112	; 0x70
 8002092:	60fb      	str	r3, [r7, #12]
    tmpcr1 |= Structure->CounterMode;
 8002094:	683b      	ldr	r3, [r7, #0]
 8002096:	685b      	ldr	r3, [r3, #4]
 8002098:	68fa      	ldr	r2, [r7, #12]
 800209a:	4313      	orrs	r3, r2
 800209c:	60fb      	str	r3, [r7, #12]
  }

  if (IS_TIM_CLOCK_DIVISION_INSTANCE(TIMx))
 800209e:	687b      	ldr	r3, [r7, #4]
 80020a0:	4a1a      	ldr	r2, [pc, #104]	; (800210c <TIM_Base_SetConfig+0xa8>)
 80020a2:	4293      	cmp	r3, r2
 80020a4:	d007      	beq.n	80020b6 <TIM_Base_SetConfig+0x52>
 80020a6:	687b      	ldr	r3, [r7, #4]
 80020a8:	f1b3 4f80 	cmp.w	r3, #1073741824	; 0x40000000
 80020ac:	d003      	beq.n	80020b6 <TIM_Base_SetConfig+0x52>
 80020ae:	687b      	ldr	r3, [r7, #4]
 80020b0:	4a17      	ldr	r2, [pc, #92]	; (8002110 <TIM_Base_SetConfig+0xac>)
 80020b2:	4293      	cmp	r3, r2
 80020b4:	d108      	bne.n	80020c8 <TIM_Base_SetConfig+0x64>
  {
    /* Set the clock division */
    tmpcr1 &= ~TIM_CR1_CKD;
 80020b6:	68fb      	ldr	r3, [r7, #12]
 80020b8:	f423 7340 	bic.w	r3, r3, #768	; 0x300
 80020bc:	60fb      	str	r3, [r7, #12]
    tmpcr1 |= (uint32_t)Structure->ClockDivision;
 80020be:	683b      	ldr	r3, [r7, #0]
 80020c0:	68db      	ldr	r3, [r3, #12]
 80020c2:	68fa      	ldr	r2, [r7, #12]
 80020c4:	4313      	orrs	r3, r2
 80020c6:	60fb      	str	r3, [r7, #12]
  }

  /* Set the auto-reload preload */
  MODIFY_REG(tmpcr1, TIM_CR1_ARPE, Structure->AutoReloadPreload);
 80020c8:	68fb      	ldr	r3, [r7, #12]
 80020ca:	f023 0280 	bic.w	r2, r3, #128	; 0x80
 80020ce:	683b      	ldr	r3, [r7, #0]
 80020d0:	695b      	ldr	r3, [r3, #20]
 80020d2:	4313      	orrs	r3, r2
 80020d4:	60fb      	str	r3, [r7, #12]

  TIMx->CR1 = tmpcr1;
 80020d6:	687b      	ldr	r3, [r7, #4]
 80020d8:	68fa      	ldr	r2, [r7, #12]
 80020da:	601a      	str	r2, [r3, #0]

  /* Set the Autoreload value */
  TIMx->ARR = (uint32_t)Structure->Period ;
 80020dc:	683b      	ldr	r3, [r7, #0]
 80020de:	689a      	ldr	r2, [r3, #8]
 80020e0:	687b      	ldr	r3, [r7, #4]
 80020e2:	62da      	str	r2, [r3, #44]	; 0x2c

  /* Set the Prescaler value */
  TIMx->PSC = Structure->Prescaler;
 80020e4:	683b      	ldr	r3, [r7, #0]
 80020e6:	681a      	ldr	r2, [r3, #0]
 80020e8:	687b      	ldr	r3, [r7, #4]
 80020ea:	629a      	str	r2, [r3, #40]	; 0x28

  if (IS_TIM_REPETITION_COUNTER_INSTANCE(TIMx))
 80020ec:	687b      	ldr	r3, [r7, #4]
 80020ee:	4a07      	ldr	r2, [pc, #28]	; (800210c <TIM_Base_SetConfig+0xa8>)
 80020f0:	4293      	cmp	r3, r2
 80020f2:	d103      	bne.n	80020fc <TIM_Base_SetConfig+0x98>
  {
    /* Set the Repetition Counter value */
    TIMx->RCR = Structure->RepetitionCounter;
 80020f4:	683b      	ldr	r3, [r7, #0]
 80020f6:	691a      	ldr	r2, [r3, #16]
 80020f8:	687b      	ldr	r3, [r7, #4]
 80020fa:	631a      	str	r2, [r3, #48]	; 0x30
  }

  /* Generate an update event to reload the Prescaler
     and the repetition counter (only for advanced timer) value immediately */
  TIMx->EGR = TIM_EGR_UG;
 80020fc:	687b      	ldr	r3, [r7, #4]
 80020fe:	2201      	movs	r2, #1
 8002100:	615a      	str	r2, [r3, #20]
}
 8002102:	bf00      	nop
 8002104:	3714      	adds	r7, #20
 8002106:	46bd      	mov	sp, r7
 8002108:	bc80      	pop	{r7}
 800210a:	4770      	bx	lr
 800210c:	40012c00 	.word	0x40012c00
 8002110:	40000400 	.word	0x40000400

08002114 <TIM_TI1_ConfigInputStage>:
  * @param  TIM_ICFilter Specifies the Input Capture Filter.
  *          This parameter must be a value between 0x00 and 0x0F.
  * @retval None
  */
static void TIM_TI1_ConfigInputStage(TIM_TypeDef *TIMx, uint32_t TIM_ICPolarity, uint32_t TIM_ICFilter)
{
 8002114:	b480      	push	{r7}
 8002116:	b087      	sub	sp, #28
 8002118:	af00      	add	r7, sp, #0
 800211a:	60f8      	str	r0, [r7, #12]
 800211c:	60b9      	str	r1, [r7, #8]
 800211e:	607a      	str	r2, [r7, #4]
  uint32_t tmpccmr1;
  uint32_t tmpccer;

  /* Disable the Channel 1: Reset the CC1E Bit */
  tmpccer = TIMx->CCER;
 8002120:	68fb      	ldr	r3, [r7, #12]
 8002122:	6a1b      	ldr	r3, [r3, #32]
 8002124:	617b      	str	r3, [r7, #20]
  TIMx->CCER &= ~TIM_CCER_CC1E;
 8002126:	68fb      	ldr	r3, [r7, #12]
 8002128:	6a1b      	ldr	r3, [r3, #32]
 800212a:	f023 0201 	bic.w	r2, r3, #1
 800212e:	68fb      	ldr	r3, [r7, #12]
 8002130:	621a      	str	r2, [r3, #32]
  tmpccmr1 = TIMx->CCMR1;
 8002132:	68fb      	ldr	r3, [r7, #12]
 8002134:	699b      	ldr	r3, [r3, #24]
 8002136:	613b      	str	r3, [r7, #16]

  /* Set the filter */
  tmpccmr1 &= ~TIM_CCMR1_IC1F;
 8002138:	693b      	ldr	r3, [r7, #16]
 800213a:	f023 03f0 	bic.w	r3, r3, #240	; 0xf0
 800213e:	613b      	str	r3, [r7, #16]
  tmpccmr1 |= (TIM_ICFilter << 4U);
 8002140:	687b      	ldr	r3, [r7, #4]
 8002142:	011b      	lsls	r3, r3, #4
 8002144:	693a      	ldr	r2, [r7, #16]
 8002146:	4313      	orrs	r3, r2
 8002148:	613b      	str	r3, [r7, #16]

  /* Select the Polarity and set the CC1E Bit */
  tmpccer &= ~(TIM_CCER_CC1P | TIM_CCER_CC1NP);
 800214a:	697b      	ldr	r3, [r7, #20]
 800214c:	f023 030a 	bic.w	r3, r3, #10
 8002150:	617b      	str	r3, [r7, #20]
  tmpccer |= TIM_ICPolarity;
 8002152:	697a      	ldr	r2, [r7, #20]
 8002154:	68bb      	ldr	r3, [r7, #8]
 8002156:	4313      	orrs	r3, r2
 8002158:	617b      	str	r3, [r7, #20]

  /* Write to TIMx CCMR1 and CCER registers */
  TIMx->CCMR1 = tmpccmr1;
 800215a:	68fb      	ldr	r3, [r7, #12]
 800215c:	693a      	ldr	r2, [r7, #16]
 800215e:	619a      	str	r2, [r3, #24]
  TIMx->CCER = tmpccer;
 8002160:	68fb      	ldr	r3, [r7, #12]
 8002162:	697a      	ldr	r2, [r7, #20]
 8002164:	621a      	str	r2, [r3, #32]
}
 8002166:	bf00      	nop
 8002168:	371c      	adds	r7, #28
 800216a:	46bd      	mov	sp, r7
 800216c:	bc80      	pop	{r7}
 800216e:	4770      	bx	lr

08002170 <TIM_TI2_ConfigInputStage>:
  * @param  TIM_ICFilter Specifies the Input Capture Filter.
  *          This parameter must be a value between 0x00 and 0x0F.
  * @retval None
  */
static void TIM_TI2_ConfigInputStage(TIM_TypeDef *TIMx, uint32_t TIM_ICPolarity, uint32_t TIM_ICFilter)
{
 8002170:	b480      	push	{r7}
 8002172:	b087      	sub	sp, #28
 8002174:	af00      	add	r7, sp, #0
 8002176:	60f8      	str	r0, [r7, #12]
 8002178:	60b9      	str	r1, [r7, #8]
 800217a:	607a      	str	r2, [r7, #4]
  uint32_t tmpccmr1;
  uint32_t tmpccer;

  /* Disable the Channel 2: Reset the CC2E Bit */
  tmpccer = TIMx->CCER;
 800217c:	68fb      	ldr	r3, [r7, #12]
 800217e:	6a1b      	ldr	r3, [r3, #32]
 8002180:	617b      	str	r3, [r7, #20]
  TIMx->CCER &= ~TIM_CCER_CC2E;
 8002182:	68fb      	ldr	r3, [r7, #12]
 8002184:	6a1b      	ldr	r3, [r3, #32]
 8002186:	f023 0210 	bic.w	r2, r3, #16
 800218a:	68fb      	ldr	r3, [r7, #12]
 800218c:	621a      	str	r2, [r3, #32]
  tmpccmr1 = TIMx->CCMR1;
 800218e:	68fb      	ldr	r3, [r7, #12]
 8002190:	699b      	ldr	r3, [r3, #24]
 8002192:	613b      	str	r3, [r7, #16]

  /* Set the filter */
  tmpccmr1 &= ~TIM_CCMR1_IC2F;
 8002194:	693b      	ldr	r3, [r7, #16]
 8002196:	f423 4370 	bic.w	r3, r3, #61440	; 0xf000
 800219a:	613b      	str	r3, [r7, #16]
  tmpccmr1 |= (TIM_ICFilter << 12U);
 800219c:	687b      	ldr	r3, [r7, #4]
 800219e:	031b      	lsls	r3, r3, #12
 80021a0:	693a      	ldr	r2, [r7, #16]
 80021a2:	4313      	orrs	r3, r2
 80021a4:	613b      	str	r3, [r7, #16]

  /* Select the Polarity and set the CC2E Bit */
  tmpccer &= ~(TIM_CCER_CC2P | TIM_CCER_CC2NP);
 80021a6:	697b      	ldr	r3, [r7, #20]
 80021a8:	f023 03a0 	bic.w	r3, r3, #160	; 0xa0
 80021ac:	617b      	str	r3, [r7, #20]
  tmpccer |= (TIM_ICPolarity << 4U);
 80021ae:	68bb      	ldr	r3, [r7, #8]
 80021b0:	011b      	lsls	r3, r3, #4
 80021b2:	697a      	ldr	r2, [r7, #20]
 80021b4:	4313      	orrs	r3, r2
 80021b6:	617b      	str	r3, [r7, #20]

  /* Write to TIMx CCMR1 and CCER registers */
  TIMx->CCMR1 = tmpccmr1 ;
 80021b8:	68fb      	ldr	r3, [r7, #12]
 80021ba:	693a      	ldr	r2, [r7, #16]
 80021bc:	619a      	str	r2, [r3, #24]
  TIMx->CCER = tmpccer;
 80021be:	68fb      	ldr	r3, [r7, #12]
 80021c0:	697a      	ldr	r2, [r7, #20]
 80021c2:	621a      	str	r2, [r3, #32]
}
 80021c4:	bf00      	nop
 80021c6:	371c      	adds	r7, #28
 80021c8:	46bd      	mov	sp, r7
 80021ca:	bc80      	pop	{r7}
 80021cc:	4770      	bx	lr

080021ce <TIM_ITRx_SetConfig>:
  *            @arg TIM_TS_TI2FP2: Filtered Timer Input 2
  *            @arg TIM_TS_ETRF: External Trigger input
  * @retval None
  */
static void TIM_ITRx_SetConfig(TIM_TypeDef *TIMx, uint32_t InputTriggerSource)
{
 80021ce:	b480      	push	{r7}
 80021d0:	b085      	sub	sp, #20
 80021d2:	af00      	add	r7, sp, #0
 80021d4:	6078      	str	r0, [r7, #4]
 80021d6:	6039      	str	r1, [r7, #0]
  uint32_t tmpsmcr;

  /* Get the TIMx SMCR register value */
  tmpsmcr = TIMx->SMCR;
 80021d8:	687b      	ldr	r3, [r7, #4]
 80021da:	689b      	ldr	r3, [r3, #8]
 80021dc:	60fb      	str	r3, [r7, #12]
  /* Reset the TS Bits */
  tmpsmcr &= ~TIM_SMCR_TS;
 80021de:	68fb      	ldr	r3, [r7, #12]
 80021e0:	f023 0370 	bic.w	r3, r3, #112	; 0x70
 80021e4:	60fb      	str	r3, [r7, #12]
  /* Set the Input Trigger source and the slave mode*/
  tmpsmcr |= (InputTriggerSource | TIM_SLAVEMODE_EXTERNAL1);
 80021e6:	683a      	ldr	r2, [r7, #0]
 80021e8:	68fb      	ldr	r3, [r7, #12]
 80021ea:	4313      	orrs	r3, r2
 80021ec:	f043 0307 	orr.w	r3, r3, #7
 80021f0:	60fb      	str	r3, [r7, #12]
  /* Write to TIMx SMCR */
  TIMx->SMCR = tmpsmcr;
 80021f2:	687b      	ldr	r3, [r7, #4]
 80021f4:	68fa      	ldr	r2, [r7, #12]
 80021f6:	609a      	str	r2, [r3, #8]
}
 80021f8:	bf00      	nop
 80021fa:	3714      	adds	r7, #20
 80021fc:	46bd      	mov	sp, r7
 80021fe:	bc80      	pop	{r7}
 8002200:	4770      	bx	lr

08002202 <TIM_ETR_SetConfig>:
  *          This parameter must be a value between 0x00 and 0x0F
  * @retval None
  */
void TIM_ETR_SetConfig(TIM_TypeDef *TIMx, uint32_t TIM_ExtTRGPrescaler,
                       uint32_t TIM_ExtTRGPolarity, uint32_t ExtTRGFilter)
{
 8002202:	b480      	push	{r7}
 8002204:	b087      	sub	sp, #28
 8002206:	af00      	add	r7, sp, #0
 8002208:	60f8      	str	r0, [r7, #12]
 800220a:	60b9      	str	r1, [r7, #8]
 800220c:	607a      	str	r2, [r7, #4]
 800220e:	603b      	str	r3, [r7, #0]
  uint32_t tmpsmcr;

  tmpsmcr = TIMx->SMCR;
 8002210:	68fb      	ldr	r3, [r7, #12]
 8002212:	689b      	ldr	r3, [r3, #8]
 8002214:	617b      	str	r3, [r7, #20]

  /* Reset the ETR Bits */
  tmpsmcr &= ~(TIM_SMCR_ETF | TIM_SMCR_ETPS | TIM_SMCR_ECE | TIM_SMCR_ETP);
 8002216:	697b      	ldr	r3, [r7, #20]
 8002218:	f423 437f 	bic.w	r3, r3, #65280	; 0xff00
 800221c:	617b      	str	r3, [r7, #20]

  /* Set the Prescaler, the Filter value and the Polarity */
  tmpsmcr |= (uint32_t)(TIM_ExtTRGPrescaler | (TIM_ExtTRGPolarity | (ExtTRGFilter << 8U)));
 800221e:	683b      	ldr	r3, [r7, #0]
 8002220:	021a      	lsls	r2, r3, #8
 8002222:	687b      	ldr	r3, [r7, #4]
 8002224:	431a      	orrs	r2, r3
 8002226:	68bb      	ldr	r3, [r7, #8]
 8002228:	4313      	orrs	r3, r2
 800222a:	697a      	ldr	r2, [r7, #20]
 800222c:	4313      	orrs	r3, r2
 800222e:	617b      	str	r3, [r7, #20]

  /* Write to TIMx SMCR */
  TIMx->SMCR = tmpsmcr;
 8002230:	68fb      	ldr	r3, [r7, #12]
 8002232:	697a      	ldr	r2, [r7, #20]
 8002234:	609a      	str	r2, [r3, #8]
}
 8002236:	bf00      	nop
 8002238:	371c      	adds	r7, #28
 800223a:	46bd      	mov	sp, r7
 800223c:	bc80      	pop	{r7}
 800223e:	4770      	bx	lr

08002240 <HAL_TIMEx_MasterConfigSynchronization>:
  *         mode.
  * @retval HAL status
  */
HAL_StatusTypeDef HAL_TIMEx_MasterConfigSynchronization(TIM_HandleTypeDef *htim,
                                                        const TIM_MasterConfigTypeDef *sMasterConfig)
{
 8002240:	b480      	push	{r7}
 8002242:	b085      	sub	sp, #20
 8002244:	af00      	add	r7, sp, #0
 8002246:	6078      	str	r0, [r7, #4]
 8002248:	6039      	str	r1, [r7, #0]
  assert_param(IS_TIM_MASTER_INSTANCE(htim->Instance));
  assert_param(IS_TIM_TRGO_SOURCE(sMasterConfig->MasterOutputTrigger));
  assert_param(IS_TIM_MSM_STATE(sMasterConfig->MasterSlaveMode));

  /* Check input state */
  __HAL_LOCK(htim);
 800224a:	687b      	ldr	r3, [r7, #4]
 800224c:	f893 303c 	ldrb.w	r3, [r3, #60]	; 0x3c
 8002250:	2b01      	cmp	r3, #1
 8002252:	d101      	bne.n	8002258 <HAL_TIMEx_MasterConfigSynchronization+0x18>
 8002254:	2302      	movs	r3, #2
 8002256:	e041      	b.n	80022dc <HAL_TIMEx_MasterConfigSynchronization+0x9c>
 8002258:	687b      	ldr	r3, [r7, #4]
 800225a:	2201      	movs	r2, #1
 800225c:	f883 203c 	strb.w	r2, [r3, #60]	; 0x3c

  /* Change the handler state */
  htim->State = HAL_TIM_STATE_BUSY;
 8002260:	687b      	ldr	r3, [r7, #4]
 8002262:	2202      	movs	r2, #2
 8002264:	f883 203d 	strb.w	r2, [r3, #61]	; 0x3d

  /* Get the TIMx CR2 register value */
  tmpcr2 = htim->Instance->CR2;
 8002268:	687b      	ldr	r3, [r7, #4]
 800226a:	681b      	ldr	r3, [r3, #0]
 800226c:	685b      	ldr	r3, [r3, #4]
 800226e:	60fb      	str	r3, [r7, #12]

  /* Get the TIMx SMCR register value */
  tmpsmcr = htim->Instance->SMCR;
 8002270:	687b      	ldr	r3, [r7, #4]
 8002272:	681b      	ldr	r3, [r3, #0]
 8002274:	689b      	ldr	r3, [r3, #8]
 8002276:	60bb      	str	r3, [r7, #8]

  /* Reset the MMS Bits */
  tmpcr2 &= ~TIM_CR2_MMS;
 8002278:	68fb      	ldr	r3, [r7, #12]
 800227a:	f023 0370 	bic.w	r3, r3, #112	; 0x70
 800227e:	60fb      	str	r3, [r7, #12]
  /* Select the TRGO source */
  tmpcr2 |=  sMasterConfig->MasterOutputTrigger;
 8002280:	683b      	ldr	r3, [r7, #0]
 8002282:	681b      	ldr	r3, [r3, #0]
 8002284:	68fa      	ldr	r2, [r7, #12]
 8002286:	4313      	orrs	r3, r2
 8002288:	60fb      	str	r3, [r7, #12]

  /* Update TIMx CR2 */
  htim->Instance->CR2 = tmpcr2;
 800228a:	687b      	ldr	r3, [r7, #4]
 800228c:	681b      	ldr	r3, [r3, #0]
 800228e:	68fa      	ldr	r2, [r7, #12]
 8002290:	605a      	str	r2, [r3, #4]

  if (IS_TIM_SLAVE_INSTANCE(htim->Instance))
 8002292:	687b      	ldr	r3, [r7, #4]
 8002294:	681b      	ldr	r3, [r3, #0]
 8002296:	4a14      	ldr	r2, [pc, #80]	; (80022e8 <HAL_TIMEx_MasterConfigSynchronization+0xa8>)
 8002298:	4293      	cmp	r3, r2
 800229a:	d009      	beq.n	80022b0 <HAL_TIMEx_MasterConfigSynchronization+0x70>
 800229c:	687b      	ldr	r3, [r7, #4]
 800229e:	681b      	ldr	r3, [r3, #0]
 80022a0:	f1b3 4f80 	cmp.w	r3, #1073741824	; 0x40000000
 80022a4:	d004      	beq.n	80022b0 <HAL_TIMEx_MasterConfigSynchronization+0x70>
 80022a6:	687b      	ldr	r3, [r7, #4]
 80022a8:	681b      	ldr	r3, [r3, #0]
 80022aa:	4a10      	ldr	r2, [pc, #64]	; (80022ec <HAL_TIMEx_MasterConfigSynchronization+0xac>)
 80022ac:	4293      	cmp	r3, r2
 80022ae:	d10c      	bne.n	80022ca <HAL_TIMEx_MasterConfigSynchronization+0x8a>
  {
    /* Reset the MSM Bit */
    tmpsmcr &= ~TIM_SMCR_MSM;
 80022b0:	68bb      	ldr	r3, [r7, #8]
 80022b2:	f023 0380 	bic.w	r3, r3, #128	; 0x80
 80022b6:	60bb      	str	r3, [r7, #8]
    /* Set master mode */
    tmpsmcr |= sMasterConfig->MasterSlaveMode;
 80022b8:	683b      	ldr	r3, [r7, #0]
 80022ba:	685b      	ldr	r3, [r3, #4]
 80022bc:	68ba      	ldr	r2, [r7, #8]
 80022be:	4313      	orrs	r3, r2
 80022c0:	60bb      	str	r3, [r7, #8]

    /* Update TIMx SMCR */
    htim->Instance->SMCR = tmpsmcr;
 80022c2:	687b      	ldr	r3, [r7, #4]
 80022c4:	681b      	ldr	r3, [r3, #0]
 80022c6:	68ba      	ldr	r2, [r7, #8]
 80022c8:	609a      	str	r2, [r3, #8]
  }

  /* Change the htim state */
  htim->State = HAL_TIM_STATE_READY;
 80022ca:	687b      	ldr	r3, [r7, #4]
 80022cc:	2201      	movs	r2, #1
 80022ce:	f883 203d 	strb.w	r2, [r3, #61]	; 0x3d

  __HAL_UNLOCK(htim);
 80022d2:	687b      	ldr	r3, [r7, #4]
 80022d4:	2200      	movs	r2, #0
 80022d6:	f883 203c 	strb.w	r2, [r3, #60]	; 0x3c

  return HAL_OK;
 80022da:	2300      	movs	r3, #0
}
 80022dc:	4618      	mov	r0, r3
 80022de:	3714      	adds	r7, #20
 80022e0:	46bd      	mov	sp, r7
 80022e2:	bc80      	pop	{r7}
 80022e4:	4770      	bx	lr
 80022e6:	bf00      	nop
 80022e8:	40012c00 	.word	0x40012c00
 80022ec:	40000400 	.word	0x40000400

080022f0 <HAL_TIMEx_CommutCallback>:
  * @brief  Hall commutation changed callback in non-blocking mode
  * @param  htim TIM handle
  * @retval None
  */
__weak void HAL_TIMEx_CommutCallback(TIM_HandleTypeDef *htim)
{
 80022f0:	b480      	push	{r7}
 80022f2:	b083      	sub	sp, #12
 80022f4:	af00      	add	r7, sp, #0
 80022f6:	6078      	str	r0, [r7, #4]
  UNUSED(htim);

  /* NOTE : This function should not be modified, when the callback is needed,
            the HAL_TIMEx_CommutCallback could be implemented in the user file
   */
}
 80022f8:	bf00      	nop
 80022fa:	370c      	adds	r7, #12
 80022fc:	46bd      	mov	sp, r7
 80022fe:	bc80      	pop	{r7}
 8002300:	4770      	bx	lr

08002302 <HAL_TIMEx_BreakCallback>:
  * @brief  Hall Break detection callback in non-blocking mode
  * @param  htim TIM handle
  * @retval None
  */
__weak void HAL_TIMEx_BreakCallback(TIM_HandleTypeDef *htim)
{
 8002302:	b480      	push	{r7}
 8002304:	b083      	sub	sp, #12
 8002306:	af00      	add	r7, sp, #0
 8002308:	6078      	str	r0, [r7, #4]
  UNUSED(htim);

  /* NOTE : This function should not be modified, when the callback is needed,
            the HAL_TIMEx_BreakCallback could be implemented in the user file
   */
}
 800230a:	bf00      	nop
 800230c:	370c      	adds	r7, #12
 800230e:	46bd      	mov	sp, r7
 8002310:	bc80      	pop	{r7}
 8002312:	4770      	bx	lr

08002314 <__libc_init_array>:
 8002314:	b570      	push	{r4, r5, r6, lr}
 8002316:	2600      	movs	r6, #0
 8002318:	4d0c      	ldr	r5, [pc, #48]	; (800234c <__libc_init_array+0x38>)
 800231a:	4c0d      	ldr	r4, [pc, #52]	; (8002350 <__libc_init_array+0x3c>)
 800231c:	1b64      	subs	r4, r4, r5
 800231e:	10a4      	asrs	r4, r4, #2
 8002320:	42a6      	cmp	r6, r4
 8002322:	d109      	bne.n	8002338 <__libc_init_array+0x24>
 8002324:	f000 f822 	bl	800236c <_init>
 8002328:	2600      	movs	r6, #0
 800232a:	4d0a      	ldr	r5, [pc, #40]	; (8002354 <__libc_init_array+0x40>)
 800232c:	4c0a      	ldr	r4, [pc, #40]	; (8002358 <__libc_init_array+0x44>)
 800232e:	1b64      	subs	r4, r4, r5
 8002330:	10a4      	asrs	r4, r4, #2
 8002332:	42a6      	cmp	r6, r4
 8002334:	d105      	bne.n	8002342 <__libc_init_array+0x2e>
 8002336:	bd70      	pop	{r4, r5, r6, pc}
 8002338:	f855 3b04 	ldr.w	r3, [r5], #4
 800233c:	4798      	blx	r3
 800233e:	3601      	adds	r6, #1
 8002340:	e7ee      	b.n	8002320 <__libc_init_array+0xc>
 8002342:	f855 3b04 	ldr.w	r3, [r5], #4
 8002346:	4798      	blx	r3
 8002348:	3601      	adds	r6, #1
 800234a:	e7f2      	b.n	8002332 <__libc_init_array+0x1e>
 800234c:	080023a8 	.word	0x080023a8
 8002350:	080023a8 	.word	0x080023a8
 8002354:	080023a8 	.word	0x080023a8
 8002358:	080023ac 	.word	0x080023ac

0800235c <memset>:
 800235c:	4603      	mov	r3, r0
 800235e:	4402      	add	r2, r0
 8002360:	4293      	cmp	r3, r2
 8002362:	d100      	bne.n	8002366 <memset+0xa>
 8002364:	4770      	bx	lr
 8002366:	f803 1b01 	strb.w	r1, [r3], #1
 800236a:	e7f9      	b.n	8002360 <memset+0x4>

0800236c <_init>:
 800236c:	b5f8      	push	{r3, r4, r5, r6, r7, lr}
 800236e:	bf00      	nop
 8002370:	bcf8      	pop	{r3, r4, r5, r6, r7}
 8002372:	bc08      	pop	{r3}
 8002374:	469e      	mov	lr, r3
 8002376:	4770      	bx	lr

08002378 <_fini>:
 8002378:	b5f8      	push	{r3, r4, r5, r6, r7, lr}
 800237a:	bf00      	nop
 800237c:	bcf8      	pop	{r3, r4, r5, r6, r7}
 800237e:	bc08      	pop	{r3}
 8002380:	469e      	mov	lr, r3
 8002382:	4770      	bx	lr
