
STM32ProjectForLab2.elf:     file format elf32-littlearm

Sections:
Idx Name          Size      VMA       LMA       File off  Algn
  0 .isr_vector   0000010c  08000000  08000000  00010000  2**0
                  CONTENTS, ALLOC, LOAD, READONLY, DATA
  1 .text         0000193c  0800010c  0800010c  0001010c  2**2
                  CONTENTS, ALLOC, LOAD, READONLY, CODE
  2 .rodata       00000024  08001a48  08001a48  00011a48  2**2
                  CONTENTS, ALLOC, LOAD, READONLY, DATA
  3 .ARM.extab    00000000  08001a6c  08001a6c  0002000c  2**0
                  CONTENTS
  4 .ARM          00000000  08001a6c  08001a6c  0002000c  2**0
                  CONTENTS
  5 .preinit_array 00000000  08001a6c  08001a6c  0002000c  2**0
                  CONTENTS, ALLOC, LOAD, DATA
  6 .init_array   00000004  08001a6c  08001a6c  00011a6c  2**2
                  CONTENTS, ALLOC, LOAD, DATA
  7 .fini_array   00000004  08001a70  08001a70  00011a70  2**2
                  CONTENTS, ALLOC, LOAD, DATA
  8 .data         0000000c  20000000  08001a74  00020000  2**2
                  CONTENTS, ALLOC, LOAD, DATA
  9 .bss          00000068  2000000c  08001a80  0002000c  2**2
                  ALLOC
 10 ._user_heap_stack 00000604  20000074  08001a80  00020074  2**0
                  ALLOC
 11 .ARM.attributes 00000029  00000000  00000000  0002000c  2**0
                  CONTENTS, READONLY
 12 .debug_info   00007fd5  00000000  00000000  00020035  2**0
                  CONTENTS, READONLY, DEBUGGING, OCTETS
 13 .debug_abbrev 000014de  00000000  00000000  0002800a  2**0
                  CONTENTS, READONLY, DEBUGGING, OCTETS
 14 .debug_aranges 00000930  00000000  00000000  000294e8  2**3
                  CONTENTS, READONLY, DEBUGGING, OCTETS
 15 .debug_ranges 00000888  00000000  00000000  00029e18  2**3
                  CONTENTS, READONLY, DEBUGGING, OCTETS
 16 .debug_macro  000010bf  00000000  00000000  0002a6a0  2**0
                  CONTENTS, READONLY, DEBUGGING, OCTETS
 17 .debug_line   0000929c  00000000  00000000  0002b75f  2**0
                  CONTENTS, READONLY, DEBUGGING, OCTETS
 18 .debug_str    00081c49  00000000  00000000  000349fb  2**0
                  CONTENTS, READONLY, DEBUGGING, OCTETS
 19 .comment      00000050  00000000  00000000  000b6644  2**0
                  CONTENTS, READONLY
 20 .debug_frame  000025cc  00000000  00000000  000b6694  2**2
                  CONTENTS, READONLY, DEBUGGING, OCTETS

Disassembly of section .text:

0800010c <__do_global_dtors_aux>:
 800010c:	b510      	push	{r4, lr}
 800010e:	4c05      	ldr	r4, [pc, #20]	; (8000124 <__do_global_dtors_aux+0x18>)
 8000110:	7823      	ldrb	r3, [r4, #0]
 8000112:	b933      	cbnz	r3, 8000122 <__do_global_dtors_aux+0x16>
 8000114:	4b04      	ldr	r3, [pc, #16]	; (8000128 <__do_global_dtors_aux+0x1c>)
 8000116:	b113      	cbz	r3, 800011e <__do_global_dtors_aux+0x12>
 8000118:	4804      	ldr	r0, [pc, #16]	; (800012c <__do_global_dtors_aux+0x20>)
 800011a:	f3af 8000 	nop.w
 800011e:	2301      	movs	r3, #1
 8000120:	7023      	strb	r3, [r4, #0]
 8000122:	bd10      	pop	{r4, pc}
 8000124:	2000000c 	.word	0x2000000c
 8000128:	00000000 	.word	0x00000000
 800012c:	08001a30 	.word	0x08001a30

08000130 <frame_dummy>:
 8000130:	b508      	push	{r3, lr}
 8000132:	4b03      	ldr	r3, [pc, #12]	; (8000140 <frame_dummy+0x10>)
 8000134:	b11b      	cbz	r3, 800013e <frame_dummy+0xe>
 8000136:	4903      	ldr	r1, [pc, #12]	; (8000144 <frame_dummy+0x14>)
 8000138:	4803      	ldr	r0, [pc, #12]	; (8000148 <frame_dummy+0x18>)
 800013a:	f3af 8000 	nop.w
 800013e:	bd08      	pop	{r3, pc}
 8000140:	00000000 	.word	0x00000000
 8000144:	20000010 	.word	0x20000010
 8000148:	08001a30 	.word	0x08001a30

0800014c <main>:
/**
  * @brief  The application entry point.
  * @retval int
  */
int main(void)
{
 800014c:	b580      	push	{r7, lr}
 800014e:	af00      	add	r7, sp, #0
  /* USER CODE END 1 */

  /* MCU Configuration--------------------------------------------------------*/

  /* Reset of all peripherals, Initializes the Flash interface and the Systick. */
  HAL_Init();
 8000150:	f000 f978 	bl	8000444 <HAL_Init>
  /* USER CODE BEGIN Init */

  /* USER CODE END Init */

  /* Configure the system clock */
  SystemClock_Config();
 8000154:	f000 f80a 	bl	800016c <SystemClock_Config>
  /* USER CODE BEGIN SysInit */

  /* USER CODE END SysInit */

  /* Initialize all configured peripherals */
  MX_GPIO_Init();
 8000158:	f000 f890 	bl	800027c <MX_GPIO_Init>
  MX_TIM2_Init();
 800015c:	f000 f842 	bl	80001e4 <MX_TIM2_Init>
  /* USER CODE BEGIN 2 */
  HAL_TIM_Base_Start_IT(& htim2);
 8000160:	4801      	ldr	r0, [pc, #4]	; (8000168 <main+0x1c>)
 8000162:	f001 f8a1 	bl	80012a8 <HAL_TIM_Base_Start_IT>
  /* USER CODE END 2 */

  /* Infinite loop */
  /* USER CODE BEGIN WHILE */
  while (1)
 8000166:	e7fe      	b.n	8000166 <main+0x1a>
 8000168:	20000028 	.word	0x20000028

0800016c <SystemClock_Config>:
/**
  * @brief System Clock Configuration
  * @retval None
  */
void SystemClock_Config(void)
{
 800016c:	b580      	push	{r7, lr}
 800016e:	b090      	sub	sp, #64	; 0x40
 8000170:	af00      	add	r7, sp, #0
  RCC_OscInitTypeDef RCC_OscInitStruct = {0};
 8000172:	f107 0318 	add.w	r3, r7, #24
 8000176:	2228      	movs	r2, #40	; 0x28
 8000178:	2100      	movs	r1, #0
 800017a:	4618      	mov	r0, r3
 800017c:	f001 fc50 	bl	8001a20 <memset>
  RCC_ClkInitTypeDef RCC_ClkInitStruct = {0};
 8000180:	1d3b      	adds	r3, r7, #4
 8000182:	2200      	movs	r2, #0
 8000184:	601a      	str	r2, [r3, #0]
 8000186:	605a      	str	r2, [r3, #4]
 8000188:	609a      	str	r2, [r3, #8]
 800018a:	60da      	str	r2, [r3, #12]
 800018c:	611a      	str	r2, [r3, #16]

  /** Initializes the RCC Oscillators according to the specified parameters
  * in the RCC_OscInitTypeDef structure.
  */
  RCC_OscInitStruct.OscillatorType = RCC_OSCILLATORTYPE_HSI;
 800018e:	2302      	movs	r3, #2
 8000190:	61bb      	str	r3, [r7, #24]
  RCC_OscInitStruct.HSIState = RCC_HSI_ON;
 8000192:	2301      	movs	r3, #1
 8000194:	62bb      	str	r3, [r7, #40]	; 0x28
  RCC_OscInitStruct.HSICalibrationValue = RCC_HSICALIBRATION_DEFAULT;
 8000196:	2310      	movs	r3, #16
 8000198:	62fb      	str	r3, [r7, #44]	; 0x2c
  RCC_OscInitStruct.PLL.PLLState = RCC_PLL_NONE;
 800019a:	2300      	movs	r3, #0
 800019c:	637b      	str	r3, [r7, #52]	; 0x34
  if (HAL_RCC_OscConfig(&RCC_OscInitStruct) != HAL_OK)
 800019e:	f107 0318 	add.w	r3, r7, #24
 80001a2:	4618      	mov	r0, r3
 80001a4:	f000 fc52 	bl	8000a4c <HAL_RCC_OscConfig>
 80001a8:	4603      	mov	r3, r0
 80001aa:	2b00      	cmp	r3, #0
 80001ac:	d001      	beq.n	80001b2 <SystemClock_Config+0x46>
  {
    Error_Handler();
 80001ae:	f000 f8a0 	bl	80002f2 <Error_Handler>
  }

  /** Initializes the CPU, AHB and APB buses clocks
  */
  RCC_ClkInitStruct.ClockType = RCC_CLOCKTYPE_HCLK|RCC_CLOCKTYPE_SYSCLK
 80001b2:	230f      	movs	r3, #15
 80001b4:	607b      	str	r3, [r7, #4]
                              |RCC_CLOCKTYPE_PCLK1|RCC_CLOCKTYPE_PCLK2;
  RCC_ClkInitStruct.SYSCLKSource = RCC_SYSCLKSOURCE_HSI;
 80001b6:	2300      	movs	r3, #0
 80001b8:	60bb      	str	r3, [r7, #8]
  RCC_ClkInitStruct.AHBCLKDivider = RCC_SYSCLK_DIV1;
 80001ba:	2300      	movs	r3, #0
 80001bc:	60fb      	str	r3, [r7, #12]
  RCC_ClkInitStruct.APB1CLKDivider = RCC_HCLK_DIV1;
 80001be:	2300      	movs	r3, #0
 80001c0:	613b      	str	r3, [r7, #16]
  RCC_ClkInitStruct.APB2CLKDivider = RCC_HCLK_DIV1;
 80001c2:	2300      	movs	r3, #0
 80001c4:	617b      	str	r3, [r7, #20]

  if (HAL_RCC_ClockConfig(&RCC_ClkInitStruct, FLASH_LATENCY_0) != HAL_OK)
 80001c6:	1d3b      	adds	r3, r7, #4
 80001c8:	2100      	movs	r1, #0
 80001ca:	4618      	mov	r0, r3
 80001cc:	f000 fec0 	bl	8000f50 <HAL_RCC_ClockConfig>
 80001d0:	4603      	mov	r3, r0
 80001d2:	2b00      	cmp	r3, #0
 80001d4:	d001      	beq.n	80001da <SystemClock_Config+0x6e>
  {
    Error_Handler();
 80001d6:	f000 f88c 	bl	80002f2 <Error_Handler>
  }
}
 80001da:	bf00      	nop
 80001dc:	3740      	adds	r7, #64	; 0x40
 80001de:	46bd      	mov	sp, r7
 80001e0:	bd80      	pop	{r7, pc}
	...

080001e4 <MX_TIM2_Init>:
  * @brief TIM2 Initialization Function
  * @param None
  * @retval None
  */
static void MX_TIM2_Init(void)
{
 80001e4:	b580      	push	{r7, lr}
 80001e6:	b086      	sub	sp, #24
 80001e8:	af00      	add	r7, sp, #0

  /* USER CODE BEGIN TIM2_Init 0 */

  /* USER CODE END TIM2_Init 0 */

  TIM_ClockConfigTypeDef sClockSourceConfig = {0};
 80001ea:	f107 0308 	add.w	r3, r7, #8
 80001ee:	2200      	movs	r2, #0
 80001f0:	601a      	str	r2, [r3, #0]
 80001f2:	605a      	str	r2, [r3, #4]
 80001f4:	609a      	str	r2, [r3, #8]
 80001f6:	60da      	str	r2, [r3, #12]
  TIM_MasterConfigTypeDef sMasterConfig = {0};
 80001f8:	463b      	mov	r3, r7
 80001fa:	2200      	movs	r2, #0
 80001fc:	601a      	str	r2, [r3, #0]
 80001fe:	605a      	str	r2, [r3, #4]

  /* USER CODE BEGIN TIM2_Init 1 */

  /* USER CODE END TIM2_Init 1 */
  htim2.Instance = TIM2;
 8000200:	4b1d      	ldr	r3, [pc, #116]	; (8000278 <MX_TIM2_Init+0x94>)
 8000202:	f04f 4280 	mov.w	r2, #1073741824	; 0x40000000
 8000206:	601a      	str	r2, [r3, #0]
  htim2.Init.Prescaler = 7999;
 8000208:	4b1b      	ldr	r3, [pc, #108]	; (8000278 <MX_TIM2_Init+0x94>)
 800020a:	f641 723f 	movw	r2, #7999	; 0x1f3f
 800020e:	605a      	str	r2, [r3, #4]
  htim2.Init.CounterMode = TIM_COUNTERMODE_UP;
 8000210:	4b19      	ldr	r3, [pc, #100]	; (8000278 <MX_TIM2_Init+0x94>)
 8000212:	2200      	movs	r2, #0
 8000214:	609a      	str	r2, [r3, #8]
  htim2.Init.Period = 9;
 8000216:	4b18      	ldr	r3, [pc, #96]	; (8000278 <MX_TIM2_Init+0x94>)
 8000218:	2209      	movs	r2, #9
 800021a:	60da      	str	r2, [r3, #12]
  htim2.Init.ClockDivision = TIM_CLOCKDIVISION_DIV1;
 800021c:	4b16      	ldr	r3, [pc, #88]	; (8000278 <MX_TIM2_Init+0x94>)
 800021e:	2200      	movs	r2, #0
 8000220:	611a      	str	r2, [r3, #16]
  htim2.Init.AutoReloadPreload = TIM_AUTORELOAD_PRELOAD_DISABLE;
 8000222:	4b15      	ldr	r3, [pc, #84]	; (8000278 <MX_TIM2_Init+0x94>)
 8000224:	2200      	movs	r2, #0
 8000226:	619a      	str	r2, [r3, #24]
  if (HAL_TIM_Base_Init(&htim2) != HAL_OK)
 8000228:	4813      	ldr	r0, [pc, #76]	; (8000278 <MX_TIM2_Init+0x94>)
 800022a:	f000 ffed 	bl	8001208 <HAL_TIM_Base_Init>
 800022e:	4603      	mov	r3, r0
 8000230:	2b00      	cmp	r3, #0
 8000232:	d001      	beq.n	8000238 <MX_TIM2_Init+0x54>
  {
    Error_Handler();
 8000234:	f000 f85d 	bl	80002f2 <Error_Handler>
  }
  sClockSourceConfig.ClockSource = TIM_CLOCKSOURCE_INTERNAL;
 8000238:	f44f 5380 	mov.w	r3, #4096	; 0x1000
 800023c:	60bb      	str	r3, [r7, #8]
  if (HAL_TIM_ConfigClockSource(&htim2, &sClockSourceConfig) != HAL_OK)
 800023e:	f107 0308 	add.w	r3, r7, #8
 8000242:	4619      	mov	r1, r3
 8000244:	480c      	ldr	r0, [pc, #48]	; (8000278 <MX_TIM2_Init+0x94>)
 8000246:	f001 f983 	bl	8001550 <HAL_TIM_ConfigClockSource>
 800024a:	4603      	mov	r3, r0
 800024c:	2b00      	cmp	r3, #0
 800024e:	d001      	beq.n	8000254 <MX_TIM2_Init+0x70>
  {
    Error_Handler();
 8000250:	f000 f84f 	bl	80002f2 <Error_Handler>
  }
  sMasterConfig.MasterOutputTrigger = TIM_TRGO_RESET;
 8000254:	2300      	movs	r3, #0
 8000256:	603b      	str	r3, [r7, #0]
  sMasterConfig.MasterSlaveMode = TIM_MASTERSLAVEMODE_DISABLE;
 8000258:	2300      	movs	r3, #0
 800025a:	607b      	str	r3, [r7, #4]
  if (HAL_TIMEx_MasterConfigSynchronization(&htim2, &sMasterConfig) != HAL_OK)
 800025c:	463b      	mov	r3, r7
 800025e:	4619      	mov	r1, r3
 8000260:	4805      	ldr	r0, [pc, #20]	; (8000278 <MX_TIM2_Init+0x94>)
 8000262:	f001 fb4f 	bl	8001904 <HAL_TIMEx_MasterConfigSynchronization>
 8000266:	4603      	mov	r3, r0
 8000268:	2b00      	cmp	r3, #0
 800026a:	d001      	beq.n	8000270 <MX_TIM2_Init+0x8c>
  {
    Error_Handler();
 800026c:	f000 f841 	bl	80002f2 <Error_Handler>
  }
  /* USER CODE BEGIN TIM2_Init 2 */

  /* USER CODE END TIM2_Init 2 */

}
 8000270:	bf00      	nop
 8000272:	3718      	adds	r7, #24
 8000274:	46bd      	mov	sp, r7
 8000276:	bd80      	pop	{r7, pc}
 8000278:	20000028 	.word	0x20000028

0800027c <MX_GPIO_Init>:
  * @brief GPIO Initialization Function
  * @param None
  * @retval None
  */
static void MX_GPIO_Init(void)
{
 800027c:	b580      	push	{r7, lr}
 800027e:	b086      	sub	sp, #24
 8000280:	af00      	add	r7, sp, #0
  GPIO_InitTypeDef GPIO_InitStruct = {0};
 8000282:	f107 0308 	add.w	r3, r7, #8
 8000286:	2200      	movs	r2, #0
 8000288:	601a      	str	r2, [r3, #0]
 800028a:	605a      	str	r2, [r3, #4]
 800028c:	609a      	str	r2, [r3, #8]
 800028e:	60da      	str	r2, [r3, #12]
/* USER CODE BEGIN MX_GPIO_Init_1 */
/* USER CODE END MX_GPIO_Init_1 */

  /* GPIO Ports Clock Enable */
  __HAL_RCC_GPIOA_CLK_ENABLE();
 8000290:	4b11      	ldr	r3, [pc, #68]	; (80002d8 <MX_GPIO_Init+0x5c>)
 8000292:	699b      	ldr	r3, [r3, #24]
 8000294:	4a10      	ldr	r2, [pc, #64]	; (80002d8 <MX_GPIO_Init+0x5c>)
 8000296:	f043 0304 	orr.w	r3, r3, #4
 800029a:	6193      	str	r3, [r2, #24]
 800029c:	4b0e      	ldr	r3, [pc, #56]	; (80002d8 <MX_GPIO_Init+0x5c>)
 800029e:	699b      	ldr	r3, [r3, #24]
 80002a0:	f003 0304 	and.w	r3, r3, #4
 80002a4:	607b      	str	r3, [r7, #4]
 80002a6:	687b      	ldr	r3, [r7, #4]

  /*Configure GPIO pin Output Level */
  HAL_GPIO_WritePin(LED_RED_GPIO_Port, LED_RED_Pin, GPIO_PIN_RESET);
 80002a8:	2200      	movs	r2, #0
 80002aa:	2140      	movs	r1, #64	; 0x40
 80002ac:	480b      	ldr	r0, [pc, #44]	; (80002dc <MX_GPIO_Init+0x60>)
 80002ae:	f000 fbb5 	bl	8000a1c <HAL_GPIO_WritePin>

  /*Configure GPIO pin : LED_RED_Pin */
  GPIO_InitStruct.Pin = LED_RED_Pin;
 80002b2:	2340      	movs	r3, #64	; 0x40
 80002b4:	60bb      	str	r3, [r7, #8]
  GPIO_InitStruct.Mode = GPIO_MODE_OUTPUT_PP;
 80002b6:	2301      	movs	r3, #1
 80002b8:	60fb      	str	r3, [r7, #12]
  GPIO_InitStruct.Pull = GPIO_NOPULL;
 80002ba:	2300      	movs	r3, #0
 80002bc:	613b      	str	r3, [r7, #16]
  GPIO_InitStruct.Speed = GPIO_SPEED_FREQ_LOW;
 80002be:	2302      	movs	r3, #2
 80002c0:	617b      	str	r3, [r7, #20]
  HAL_GPIO_Init(LED_RED_GPIO_Port, &GPIO_InitStruct);
 80002c2:	f107 0308 	add.w	r3, r7, #8
 80002c6:	4619      	mov	r1, r3
 80002c8:	4804      	ldr	r0, [pc, #16]	; (80002dc <MX_GPIO_Init+0x60>)
 80002ca:	f000 fa2b 	bl	8000724 <HAL_GPIO_Init>

/* USER CODE BEGIN MX_GPIO_Init_2 */
/* USER CODE END MX_GPIO_Init_2 */
}
 80002ce:	bf00      	nop
 80002d0:	3718      	adds	r7, #24
 80002d2:	46bd      	mov	sp, r7
 80002d4:	bd80      	pop	{r7, pc}
 80002d6:	bf00      	nop
 80002d8:	40021000 	.word	0x40021000
 80002dc:	40010800 	.word	0x40010800

080002e0 <HAL_TIM_PeriodElapsedCallback>:

/* USER CODE BEGIN 4 */
void HAL_TIM_PeriodElapsedCallback(TIM_HandleTypeDef *htim){
 80002e0:	b480      	push	{r7}
 80002e2:	b083      	sub	sp, #12
 80002e4:	af00      	add	r7, sp, #0
 80002e6:	6078      	str	r0, [r7, #4]

}
 80002e8:	bf00      	nop
 80002ea:	370c      	adds	r7, #12
 80002ec:	46bd      	mov	sp, r7
 80002ee:	bc80      	pop	{r7}
 80002f0:	4770      	bx	lr

080002f2 <Error_Handler>:
/**
  * @brief  This function is executed in case of error occurrence.
  * @retval None
  */
void Error_Handler(void)
{
 80002f2:	b480      	push	{r7}
 80002f4:	af00      	add	r7, sp, #0
  \details Disables IRQ interrupts by setting the I-bit in the CPSR.
           Can only be executed in Privileged modes.
 */
__STATIC_FORCEINLINE void __disable_irq(void)
{
  __ASM volatile ("cpsid i" : : : "memory");
 80002f6:	b672      	cpsid	i
}
 80002f8:	bf00      	nop
  /* USER CODE BEGIN Error_Handler_Debug */
  /* User can add his own implementation to report the HAL error return state */
  __disable_irq();
  while (1)
 80002fa:	e7fe      	b.n	80002fa <Error_Handler+0x8>

080002fc <HAL_MspInit>:
/* USER CODE END 0 */
/**
  * Initializes the Global MSP.
  */
void HAL_MspInit(void)
{
 80002fc:	b480      	push	{r7}
 80002fe:	b083      	sub	sp, #12
 8000300:	af00      	add	r7, sp, #0
  /* USER CODE BEGIN MspInit 0 */

  /* USER CODE END MspInit 0 */

  __HAL_RCC_AFIO_CLK_ENABLE();
 8000302:	4b0e      	ldr	r3, [pc, #56]	; (800033c <HAL_MspInit+0x40>)
 8000304:	699b      	ldr	r3, [r3, #24]
 8000306:	4a0d      	ldr	r2, [pc, #52]	; (800033c <HAL_MspInit+0x40>)
 8000308:	f043 0301 	orr.w	r3, r3, #1
 800030c:	6193      	str	r3, [r2, #24]
 800030e:	4b0b      	ldr	r3, [pc, #44]	; (800033c <HAL_MspInit+0x40>)
 8000310:	699b      	ldr	r3, [r3, #24]
 8000312:	f003 0301 	and.w	r3, r3, #1
 8000316:	607b      	str	r3, [r7, #4]
 8000318:	687b      	ldr	r3, [r7, #4]
  __HAL_RCC_PWR_CLK_ENABLE();
 800031a:	4b08      	ldr	r3, [pc, #32]	; (800033c <HAL_MspInit+0x40>)
 800031c:	69db      	ldr	r3, [r3, #28]
 800031e:	4a07      	ldr	r2, [pc, #28]	; (800033c <HAL_MspInit+0x40>)
 8000320:	f043 5380 	orr.w	r3, r3, #268435456	; 0x10000000
 8000324:	61d3      	str	r3, [r2, #28]
 8000326:	4b05      	ldr	r3, [pc, #20]	; (800033c <HAL_MspInit+0x40>)
 8000328:	69db      	ldr	r3, [r3, #28]
 800032a:	f003 5380 	and.w	r3, r3, #268435456	; 0x10000000
 800032e:	603b      	str	r3, [r7, #0]
 8000330:	683b      	ldr	r3, [r7, #0]
  /* System interrupt init*/

  /* USER CODE BEGIN MspInit 1 */

  /* USER CODE END MspInit 1 */
}
 8000332:	bf00      	nop
 8000334:	370c      	adds	r7, #12
 8000336:	46bd      	mov	sp, r7
 8000338:	bc80      	pop	{r7}
 800033a:	4770      	bx	lr
 800033c:	40021000 	.word	0x40021000

08000340 <HAL_TIM_Base_MspInit>:
* This function configures the hardware resources used in this example
* @param htim_base: TIM_Base handle pointer
* @retval None
*/
void HAL_TIM_Base_MspInit(TIM_HandleTypeDef* htim_base)
{
 8000340:	b580      	push	{r7, lr}
 8000342:	b084      	sub	sp, #16
 8000344:	af00      	add	r7, sp, #0
 8000346:	6078      	str	r0, [r7, #4]
  if(htim_base->Instance==TIM2)
 8000348:	687b      	ldr	r3, [r7, #4]
 800034a:	681b      	ldr	r3, [r3, #0]
 800034c:	f1b3 4f80 	cmp.w	r3, #1073741824	; 0x40000000
 8000350:	d113      	bne.n	800037a <HAL_TIM_Base_MspInit+0x3a>
  {
  /* USER CODE BEGIN TIM2_MspInit 0 */

  /* USER CODE END TIM2_MspInit 0 */
    /* Peripheral clock enable */
    __HAL_RCC_TIM2_CLK_ENABLE();
 8000352:	4b0c      	ldr	r3, [pc, #48]	; (8000384 <HAL_TIM_Base_MspInit+0x44>)
 8000354:	69db      	ldr	r3, [r3, #28]
 8000356:	4a0b      	ldr	r2, [pc, #44]	; (8000384 <HAL_TIM_Base_MspInit+0x44>)
 8000358:	f043 0301 	orr.w	r3, r3, #1
 800035c:	61d3      	str	r3, [r2, #28]
 800035e:	4b09      	ldr	r3, [pc, #36]	; (8000384 <HAL_TIM_Base_MspInit+0x44>)
 8000360:	69db      	ldr	r3, [r3, #28]
 8000362:	f003 0301 	and.w	r3, r3, #1
 8000366:	60fb      	str	r3, [r7, #12]
 8000368:	68fb      	ldr	r3, [r7, #12]
    /* TIM2 interrupt Init */
    HAL_NVIC_SetPriority(TIM2_IRQn, 0, 0);
 800036a:	2200      	movs	r2, #0
 800036c:	2100      	movs	r1, #0
 800036e:	201c      	movs	r0, #28
 8000370:	f000 f9a1 	bl	80006b6 <HAL_NVIC_SetPriority>
    HAL_NVIC_EnableIRQ(TIM2_IRQn);
 8000374:	201c      	movs	r0, #28
 8000376:	f000 f9ba 	bl	80006ee <HAL_NVIC_EnableIRQ>
  /* USER CODE BEGIN TIM2_MspInit 1 */

  /* USER CODE END TIM2_MspInit 1 */
  }

}
 800037a:	bf00      	nop
 800037c:	3710      	adds	r7, #16
 800037e:	46bd      	mov	sp, r7
 8000380:	bd80      	pop	{r7, pc}
 8000382:	bf00      	nop
 8000384:	40021000 	.word	0x40021000

08000388 <NMI_Handler>:
/******************************************************************************/
/**
  * @brief This function handles Non maskable interrupt.
  */
void NMI_Handler(void)
{
 8000388:	b480      	push	{r7}
 800038a:	af00      	add	r7, sp, #0
  /* USER CODE BEGIN NonMaskableInt_IRQn 0 */

  /* USER CODE END NonMaskableInt_IRQn 0 */
  /* USER CODE BEGIN NonMaskableInt_IRQn 1 */
  while (1)
 800038c:	e7fe      	b.n	800038c <NMI_Handler+0x4>

0800038e <HardFault_Handler>:

/**
  * @brief This function handles Hard fault interrupt.
  */
void HardFault_Handler(void)
{
 800038e:	b480      	push	{r7}
 8000390:	af00      	add	r7, sp, #0
  /* USER CODE BEGIN HardFault_IRQn 0 */

  /* USER CODE END HardFault_IRQn 0 */
  while (1)
 8000392:	e7fe      	b.n	8000392 <HardFault_Handler+0x4>

08000394 <MemManage_Handler>:

/**
  * @brief This function handles Memory management fault.
  */
void MemManage_Handler(void)
{
 8000394:	b480      	push	{r7}
 8000396:	af00      	add	r7, sp, #0
  /* USER CODE BEGIN MemoryManagement_IRQn 0 */

  /* USER CODE END MemoryManagement_IRQn 0 */
  while (1)
 8000398:	e7fe      	b.n	8000398 <MemManage_Handler+0x4>

0800039a <BusFault_Handler>:

/**
  * @brief This function handles Prefetch fault, memory access fault.
  */
void BusFault_Handler(void)
{
 800039a:	b480      	push	{r7}
 800039c:	af00      	add	r7, sp, #0
  /* USER CODE BEGIN BusFault_IRQn 0 */

  /* USER CODE END BusFault_IRQn 0 */
  while (1)
 800039e:	e7fe      	b.n	800039e <BusFault_Handler+0x4>

080003a0 <UsageFault_Handler>:

/**
  * @brief This function handles Undefined instruction or illegal state.
  */
void UsageFault_Handler(void)
{
 80003a0:	b480      	push	{r7}
 80003a2:	af00      	add	r7, sp, #0
  /* USER CODE BEGIN UsageFault_IRQn 0 */

  /* USER CODE END UsageFault_IRQn 0 */
  while (1)
 80003a4:	e7fe      	b.n	80003a4 <UsageFault_Handler+0x4>

080003a6 <SVC_Handler>:

/**
  * @brief This function handles System service call via SWI instruction.
  */
void SVC_Handler(void)
{
 80003a6:	b480      	push	{r7}
 80003a8:	af00      	add	r7, sp, #0

  /* USER CODE END SVCall_IRQn 0 */
  /* USER CODE BEGIN SVCall_IRQn 1 */

  /* USER CODE END SVCall_IRQn 1 */
}
 80003aa:	bf00      	nop
 80003ac:	46bd      	mov	sp, r7
 80003ae:	bc80      	pop	{r7}
 80003b0:	4770      	bx	lr

080003b2 <DebugMon_Handler>:

/**
  * @brief This function handles Debug monitor.
  */
void DebugMon_Handler(void)
{
 80003b2:	b480      	push	{r7}
 80003b4:	af00      	add	r7, sp, #0

  /* USER CODE END DebugMonitor_IRQn 0 */
  /* USER CODE BEGIN DebugMonitor_IRQn 1 */

  /* USER CODE END DebugMonitor_IRQn 1 */
}
 80003b6:	bf00      	nop
 80003b8:	46bd      	mov	sp, r7
 80003ba:	bc80      	pop	{r7}
 80003bc:	4770      	bx	lr

080003be <PendSV_Handler>:

/**
  * @brief This function handles Pendable request for system service.
  */
void PendSV_Handler(void)
{
 80003be:	b480      	push	{r7}
 80003c0:	af00      	add	r7, sp, #0

  /* USER CODE END PendSV_IRQn 0 */
  /* USER CODE BEGIN PendSV_IRQn 1 */

  /* USER CODE END PendSV_IRQn 1 */
}
 80003c2:	bf00      	nop
 80003c4:	46bd      	mov	sp, r7
 80003c6:	bc80      	pop	{r7}
 80003c8:	4770      	bx	lr

080003ca <SysTick_Handler>:

/**
  * @brief This function handles System tick timer.
  */
void SysTick_Handler(void)
{
 80003ca:	b580      	push	{r7, lr}
 80003cc:	af00      	add	r7, sp, #0
  /* USER CODE BEGIN SysTick_IRQn 0 */

  /* USER CODE END SysTick_IRQn 0 */
  HAL_IncTick();
 80003ce:	f000 f87f 	bl	80004d0 <HAL_IncTick>
  /* USER CODE BEGIN SysTick_IRQn 1 */

  /* USER CODE END SysTick_IRQn 1 */
}
 80003d2:	bf00      	nop
 80003d4:	bd80      	pop	{r7, pc}
	...

080003d8 <TIM2_IRQHandler>:

/**
  * @brief This function handles TIM2 global interrupt.
  */
void TIM2_IRQHandler(void)
{
 80003d8:	b580      	push	{r7, lr}
 80003da:	af00      	add	r7, sp, #0
  /* USER CODE BEGIN TIM2_IRQn 0 */

  /* USER CODE END TIM2_IRQn 0 */
  HAL_TIM_IRQHandler(&htim2);
 80003dc:	4802      	ldr	r0, [pc, #8]	; (80003e8 <TIM2_IRQHandler+0x10>)
 80003de:	f000 ffaf 	bl	8001340 <HAL_TIM_IRQHandler>
  /* USER CODE BEGIN TIM2_IRQn 1 */

  /* USER CODE END TIM2_IRQn 1 */
}
 80003e2:	bf00      	nop
 80003e4:	bd80      	pop	{r7, pc}
 80003e6:	bf00      	nop
 80003e8:	20000028 	.word	0x20000028

080003ec <SystemInit>:
  * @note   This function should be used only after reset.
  * @param  None
  * @retval None
  */
void SystemInit (void)
{
 80003ec:	b480      	push	{r7}
 80003ee:	af00      	add	r7, sp, #0

  /* Configure the Vector Table location -------------------------------------*/
#if defined(USER_VECT_TAB_ADDRESS)
  SCB->VTOR = VECT_TAB_BASE_ADDRESS | VECT_TAB_OFFSET; /* Vector Table Relocation in Internal SRAM. */
#endif /* USER_VECT_TAB_ADDRESS */
}
 80003f0:	bf00      	nop
 80003f2:	46bd      	mov	sp, r7
 80003f4:	bc80      	pop	{r7}
 80003f6:	4770      	bx	lr

080003f8 <Reset_Handler>:
  .weak Reset_Handler
  .type Reset_Handler, %function
Reset_Handler:

/* Call the clock system initialization function.*/
    bl  SystemInit
 80003f8:	f7ff fff8 	bl	80003ec <SystemInit>

/* Copy the data segment initializers from flash to SRAM */
  ldr r0, =_sdata
 80003fc:	480b      	ldr	r0, [pc, #44]	; (800042c <LoopFillZerobss+0xe>)
  ldr r1, =_edata
 80003fe:	490c      	ldr	r1, [pc, #48]	; (8000430 <LoopFillZerobss+0x12>)
  ldr r2, =_sidata
 8000400:	4a0c      	ldr	r2, [pc, #48]	; (8000434 <LoopFillZerobss+0x16>)
  movs r3, #0
 8000402:	2300      	movs	r3, #0
  b LoopCopyDataInit
 8000404:	e002      	b.n	800040c <LoopCopyDataInit>

08000406 <CopyDataInit>:

CopyDataInit:
  ldr r4, [r2, r3]
 8000406:	58d4      	ldr	r4, [r2, r3]
  str r4, [r0, r3]
 8000408:	50c4      	str	r4, [r0, r3]
  adds r3, r3, #4
 800040a:	3304      	adds	r3, #4

0800040c <LoopCopyDataInit>:

LoopCopyDataInit:
  adds r4, r0, r3
 800040c:	18c4      	adds	r4, r0, r3
  cmp r4, r1
 800040e:	428c      	cmp	r4, r1
  bcc CopyDataInit
 8000410:	d3f9      	bcc.n	8000406 <CopyDataInit>
  
/* Zero fill the bss segment. */
  ldr r2, =_sbss
 8000412:	4a09      	ldr	r2, [pc, #36]	; (8000438 <LoopFillZerobss+0x1a>)
  ldr r4, =_ebss
 8000414:	4c09      	ldr	r4, [pc, #36]	; (800043c <LoopFillZerobss+0x1e>)
  movs r3, #0
 8000416:	2300      	movs	r3, #0
  b LoopFillZerobss
 8000418:	e001      	b.n	800041e <LoopFillZerobss>

0800041a <FillZerobss>:

FillZerobss:
  str  r3, [r2]
 800041a:	6013      	str	r3, [r2, #0]
  adds r2, r2, #4
 800041c:	3204      	adds	r2, #4

0800041e <LoopFillZerobss>:

LoopFillZerobss:
  cmp r2, r4
 800041e:	42a2      	cmp	r2, r4
  bcc FillZerobss
 8000420:	d3fb      	bcc.n	800041a <FillZerobss>

/* Call static constructors */
    bl __libc_init_array
 8000422:	f001 fad9 	bl	80019d8 <__libc_init_array>
/* Call the application's entry point.*/
  bl main
 8000426:	f7ff fe91 	bl	800014c <main>
  bx lr
 800042a:	4770      	bx	lr
  ldr r0, =_sdata
 800042c:	20000000 	.word	0x20000000
  ldr r1, =_edata
 8000430:	2000000c 	.word	0x2000000c
  ldr r2, =_sidata
 8000434:	08001a74 	.word	0x08001a74
  ldr r2, =_sbss
 8000438:	2000000c 	.word	0x2000000c
  ldr r4, =_ebss
 800043c:	20000074 	.word	0x20000074

08000440 <ADC1_2_IRQHandler>:
 * @retval : None
*/
    .section .text.Default_Handler,"ax",%progbits
Default_Handler:
Infinite_Loop:
  b Infinite_Loop
 8000440:	e7fe      	b.n	8000440 <ADC1_2_IRQHandler>
	...

08000444 <HAL_Init>:
  *         need to ensure that the SysTick time base is always set to 1 millisecond
  *         to have correct HAL operation.
  * @retval HAL status
  */
HAL_StatusTypeDef HAL_Init(void)
{
 8000444:	b580      	push	{r7, lr}
 8000446:	af00      	add	r7, sp, #0
    defined(STM32F102x6) || defined(STM32F102xB) || \
    defined(STM32F103x6) || defined(STM32F103xB) || defined(STM32F103xE) || defined(STM32F103xG) || \
    defined(STM32F105xC) || defined(STM32F107xC)

  /* Prefetch buffer is not available on value line devices */
  __HAL_FLASH_PREFETCH_BUFFER_ENABLE();
 8000448:	4b08      	ldr	r3, [pc, #32]	; (800046c <HAL_Init+0x28>)
 800044a:	681b      	ldr	r3, [r3, #0]
 800044c:	4a07      	ldr	r2, [pc, #28]	; (800046c <HAL_Init+0x28>)
 800044e:	f043 0310 	orr.w	r3, r3, #16
 8000452:	6013      	str	r3, [r2, #0]
#endif
#endif /* PREFETCH_ENABLE */

  /* Set Interrupt Group Priority */
  HAL_NVIC_SetPriorityGrouping(NVIC_PRIORITYGROUP_4);
 8000454:	2003      	movs	r0, #3
 8000456:	f000 f923 	bl	80006a0 <HAL_NVIC_SetPriorityGrouping>

  /* Use systick as time base source and configure 1ms tick (default clock after Reset is HSI) */
  HAL_InitTick(TICK_INT_PRIORITY);
 800045a:	200f      	movs	r0, #15
 800045c:	f000 f808 	bl	8000470 <HAL_InitTick>

  /* Init the low level hardware */
  HAL_MspInit();
 8000460:	f7ff ff4c 	bl	80002fc <HAL_MspInit>

  /* Return function status */
  return HAL_OK;
 8000464:	2300      	movs	r3, #0
}
 8000466:	4618      	mov	r0, r3
 8000468:	bd80      	pop	{r7, pc}
 800046a:	bf00      	nop
 800046c:	40022000 	.word	0x40022000

08000470 <HAL_InitTick>:
  *       implementation  in user file.
  * @param TickPriority Tick interrupt priority.
  * @retval HAL status
  */
__weak HAL_StatusTypeDef HAL_InitTick(uint32_t TickPriority)
{
 8000470:	b580      	push	{r7, lr}
 8000472:	b082      	sub	sp, #8
 8000474:	af00      	add	r7, sp, #0
 8000476:	6078      	str	r0, [r7, #4]
  /* Configure the SysTick to have interrupt in 1ms time basis*/
  if (HAL_SYSTICK_Config(SystemCoreClock / (1000U / uwTickFreq)) > 0U)
 8000478:	4b12      	ldr	r3, [pc, #72]	; (80004c4 <HAL_InitTick+0x54>)
 800047a:	681a      	ldr	r2, [r3, #0]
 800047c:	4b12      	ldr	r3, [pc, #72]	; (80004c8 <HAL_InitTick+0x58>)
 800047e:	781b      	ldrb	r3, [r3, #0]
 8000480:	4619      	mov	r1, r3
 8000482:	f44f 737a 	mov.w	r3, #1000	; 0x3e8
 8000486:	fbb3 f3f1 	udiv	r3, r3, r1
 800048a:	fbb2 f3f3 	udiv	r3, r2, r3
 800048e:	4618      	mov	r0, r3
 8000490:	f000 f93b 	bl	800070a <HAL_SYSTICK_Config>
 8000494:	4603      	mov	r3, r0
 8000496:	2b00      	cmp	r3, #0
 8000498:	d001      	beq.n	800049e <HAL_InitTick+0x2e>
  {
    return HAL_ERROR;
 800049a:	2301      	movs	r3, #1
 800049c:	e00e      	b.n	80004bc <HAL_InitTick+0x4c>
  }

  /* Configure the SysTick IRQ priority */
  if (TickPriority < (1UL << __NVIC_PRIO_BITS))
 800049e:	687b      	ldr	r3, [r7, #4]
 80004a0:	2b0f      	cmp	r3, #15
 80004a2:	d80a      	bhi.n	80004ba <HAL_InitTick+0x4a>
  {
    HAL_NVIC_SetPriority(SysTick_IRQn, TickPriority, 0U);
 80004a4:	2200      	movs	r2, #0
 80004a6:	6879      	ldr	r1, [r7, #4]
 80004a8:	f04f 30ff 	mov.w	r0, #4294967295
 80004ac:	f000 f903 	bl	80006b6 <HAL_NVIC_SetPriority>
    uwTickPrio = TickPriority;
 80004b0:	4a06      	ldr	r2, [pc, #24]	; (80004cc <HAL_InitTick+0x5c>)
 80004b2:	687b      	ldr	r3, [r7, #4]
 80004b4:	6013      	str	r3, [r2, #0]
  {
    return HAL_ERROR;
  }

  /* Return function status */
  return HAL_OK;
 80004b6:	2300      	movs	r3, #0
 80004b8:	e000      	b.n	80004bc <HAL_InitTick+0x4c>
    return HAL_ERROR;
 80004ba:	2301      	movs	r3, #1
}
 80004bc:	4618      	mov	r0, r3
 80004be:	3708      	adds	r7, #8
 80004c0:	46bd      	mov	sp, r7
 80004c2:	bd80      	pop	{r7, pc}
 80004c4:	20000000 	.word	0x20000000
 80004c8:	20000008 	.word	0x20000008
 80004cc:	20000004 	.word	0x20000004

080004d0 <HAL_IncTick>:
  * @note This function is declared as __weak to be overwritten in case of other
  *      implementations in user file.
  * @retval None
  */
__weak void HAL_IncTick(void)
{
 80004d0:	b480      	push	{r7}
 80004d2:	af00      	add	r7, sp, #0
  uwTick += uwTickFreq;
 80004d4:	4b05      	ldr	r3, [pc, #20]	; (80004ec <HAL_IncTick+0x1c>)
 80004d6:	781b      	ldrb	r3, [r3, #0]
 80004d8:	461a      	mov	r2, r3
 80004da:	4b05      	ldr	r3, [pc, #20]	; (80004f0 <HAL_IncTick+0x20>)
 80004dc:	681b      	ldr	r3, [r3, #0]
 80004de:	4413      	add	r3, r2
 80004e0:	4a03      	ldr	r2, [pc, #12]	; (80004f0 <HAL_IncTick+0x20>)
 80004e2:	6013      	str	r3, [r2, #0]
}
 80004e4:	bf00      	nop
 80004e6:	46bd      	mov	sp, r7
 80004e8:	bc80      	pop	{r7}
 80004ea:	4770      	bx	lr
 80004ec:	20000008 	.word	0x20000008
 80004f0:	20000070 	.word	0x20000070

080004f4 <HAL_GetTick>:
  * @note  This function is declared as __weak to be overwritten in case of other
  *       implementations in user file.
  * @retval tick value
  */
__weak uint32_t HAL_GetTick(void)
{
 80004f4:	b480      	push	{r7}
 80004f6:	af00      	add	r7, sp, #0
  return uwTick;
 80004f8:	4b02      	ldr	r3, [pc, #8]	; (8000504 <HAL_GetTick+0x10>)
 80004fa:	681b      	ldr	r3, [r3, #0]
}
 80004fc:	4618      	mov	r0, r3
 80004fe:	46bd      	mov	sp, r7
 8000500:	bc80      	pop	{r7}
 8000502:	4770      	bx	lr
 8000504:	20000070 	.word	0x20000070

08000508 <__NVIC_SetPriorityGrouping>:
           In case of a conflict between priority grouping and available
           priority bits (__NVIC_PRIO_BITS), the smallest possible priority group is set.
  \param [in]      PriorityGroup  Priority grouping field.
 */
__STATIC_INLINE void __NVIC_SetPriorityGrouping(uint32_t PriorityGroup)
{
 8000508:	b480      	push	{r7}
 800050a:	b085      	sub	sp, #20
 800050c:	af00      	add	r7, sp, #0
 800050e:	6078      	str	r0, [r7, #4]
  uint32_t reg_value;
  uint32_t PriorityGroupTmp = (PriorityGroup & (uint32_t)0x07UL);             /* only values 0..7 are used          */
 8000510:	687b      	ldr	r3, [r7, #4]
 8000512:	f003 0307 	and.w	r3, r3, #7
 8000516:	60fb      	str	r3, [r7, #12]

  reg_value  =  SCB->AIRCR;                                                   /* read old register configuration    */
 8000518:	4b0c      	ldr	r3, [pc, #48]	; (800054c <__NVIC_SetPriorityGrouping+0x44>)
 800051a:	68db      	ldr	r3, [r3, #12]
 800051c:	60bb      	str	r3, [r7, #8]
  reg_value &= ~((uint32_t)(SCB_AIRCR_VECTKEY_Msk | SCB_AIRCR_PRIGROUP_Msk)); /* clear bits to change               */
 800051e:	68ba      	ldr	r2, [r7, #8]
 8000520:	f64f 03ff 	movw	r3, #63743	; 0xf8ff
 8000524:	4013      	ands	r3, r2
 8000526:	60bb      	str	r3, [r7, #8]
  reg_value  =  (reg_value                                   |
                ((uint32_t)0x5FAUL << SCB_AIRCR_VECTKEY_Pos) |
                (PriorityGroupTmp << SCB_AIRCR_PRIGROUP_Pos) );               /* Insert write key and priority group */
 8000528:	68fb      	ldr	r3, [r7, #12]
 800052a:	021a      	lsls	r2, r3, #8
                ((uint32_t)0x5FAUL << SCB_AIRCR_VECTKEY_Pos) |
 800052c:	68bb      	ldr	r3, [r7, #8]
 800052e:	4313      	orrs	r3, r2
  reg_value  =  (reg_value                                   |
 8000530:	f043 63bf 	orr.w	r3, r3, #100139008	; 0x5f80000
 8000534:	f443 3300 	orr.w	r3, r3, #131072	; 0x20000
 8000538:	60bb      	str	r3, [r7, #8]
  SCB->AIRCR =  reg_value;
 800053a:	4a04      	ldr	r2, [pc, #16]	; (800054c <__NVIC_SetPriorityGrouping+0x44>)
 800053c:	68bb      	ldr	r3, [r7, #8]
 800053e:	60d3      	str	r3, [r2, #12]
}
 8000540:	bf00      	nop
 8000542:	3714      	adds	r7, #20
 8000544:	46bd      	mov	sp, r7
 8000546:	bc80      	pop	{r7}
 8000548:	4770      	bx	lr
 800054a:	bf00      	nop
 800054c:	e000ed00 	.word	0xe000ed00

08000550 <__NVIC_GetPriorityGrouping>:
  \brief   Get Priority Grouping
  \details Reads the priority grouping field from the NVIC Interrupt Controller.
  \return                Priority grouping field (SCB->AIRCR [10:8] PRIGROUP field).
 */
__STATIC_INLINE uint32_t __NVIC_GetPriorityGrouping(void)
{
 8000550:	b480      	push	{r7}
 8000552:	af00      	add	r7, sp, #0
  return ((uint32_t)((SCB->AIRCR & SCB_AIRCR_PRIGROUP_Msk) >> SCB_AIRCR_PRIGROUP_Pos));
 8000554:	4b04      	ldr	r3, [pc, #16]	; (8000568 <__NVIC_GetPriorityGrouping+0x18>)
 8000556:	68db      	ldr	r3, [r3, #12]
 8000558:	0a1b      	lsrs	r3, r3, #8
 800055a:	f003 0307 	and.w	r3, r3, #7
}
 800055e:	4618      	mov	r0, r3
 8000560:	46bd      	mov	sp, r7
 8000562:	bc80      	pop	{r7}
 8000564:	4770      	bx	lr
 8000566:	bf00      	nop
 8000568:	e000ed00 	.word	0xe000ed00

0800056c <__NVIC_EnableIRQ>:
  \details Enables a device specific interrupt in the NVIC interrupt controller.
  \param [in]      IRQn  Device specific interrupt number.
  \note    IRQn must not be negative.
 */
__STATIC_INLINE void __NVIC_EnableIRQ(IRQn_Type IRQn)
{
 800056c:	b480      	push	{r7}
 800056e:	b083      	sub	sp, #12
 8000570:	af00      	add	r7, sp, #0
 8000572:	4603      	mov	r3, r0
 8000574:	71fb      	strb	r3, [r7, #7]
  if ((int32_t)(IRQn) >= 0)
 8000576:	f997 3007 	ldrsb.w	r3, [r7, #7]
 800057a:	2b00      	cmp	r3, #0
 800057c:	db0b      	blt.n	8000596 <__NVIC_EnableIRQ+0x2a>
  {
    NVIC->ISER[(((uint32_t)IRQn) >> 5UL)] = (uint32_t)(1UL << (((uint32_t)IRQn) & 0x1FUL));
 800057e:	79fb      	ldrb	r3, [r7, #7]
 8000580:	f003 021f 	and.w	r2, r3, #31
 8000584:	4906      	ldr	r1, [pc, #24]	; (80005a0 <__NVIC_EnableIRQ+0x34>)
 8000586:	f997 3007 	ldrsb.w	r3, [r7, #7]
 800058a:	095b      	lsrs	r3, r3, #5
 800058c:	2001      	movs	r0, #1
 800058e:	fa00 f202 	lsl.w	r2, r0, r2
 8000592:	f841 2023 	str.w	r2, [r1, r3, lsl #2]
  }
}
 8000596:	bf00      	nop
 8000598:	370c      	adds	r7, #12
 800059a:	46bd      	mov	sp, r7
 800059c:	bc80      	pop	{r7}
 800059e:	4770      	bx	lr
 80005a0:	e000e100 	.word	0xe000e100

080005a4 <__NVIC_SetPriority>:
  \param [in]      IRQn  Interrupt number.
  \param [in]  priority  Priority to set.
  \note    The priority cannot be set for every processor exception.
 */
__STATIC_INLINE void __NVIC_SetPriority(IRQn_Type IRQn, uint32_t priority)
{
 80005a4:	b480      	push	{r7}
 80005a6:	b083      	sub	sp, #12
 80005a8:	af00      	add	r7, sp, #0
 80005aa:	4603      	mov	r3, r0
 80005ac:	6039      	str	r1, [r7, #0]
 80005ae:	71fb      	strb	r3, [r7, #7]
  if ((int32_t)(IRQn) >= 0)
 80005b0:	f997 3007 	ldrsb.w	r3, [r7, #7]
 80005b4:	2b00      	cmp	r3, #0
 80005b6:	db0a      	blt.n	80005ce <__NVIC_SetPriority+0x2a>
  {
    NVIC->IP[((uint32_t)IRQn)]               = (uint8_t)((priority << (8U - __NVIC_PRIO_BITS)) & (uint32_t)0xFFUL);
 80005b8:	683b      	ldr	r3, [r7, #0]
 80005ba:	b2da      	uxtb	r2, r3
 80005bc:	490c      	ldr	r1, [pc, #48]	; (80005f0 <__NVIC_SetPriority+0x4c>)
 80005be:	f997 3007 	ldrsb.w	r3, [r7, #7]
 80005c2:	0112      	lsls	r2, r2, #4
 80005c4:	b2d2      	uxtb	r2, r2
 80005c6:	440b      	add	r3, r1
 80005c8:	f883 2300 	strb.w	r2, [r3, #768]	; 0x300
  }
  else
  {
    SCB->SHP[(((uint32_t)IRQn) & 0xFUL)-4UL] = (uint8_t)((priority << (8U - __NVIC_PRIO_BITS)) & (uint32_t)0xFFUL);
  }
}
 80005cc:	e00a      	b.n	80005e4 <__NVIC_SetPriority+0x40>
    SCB->SHP[(((uint32_t)IRQn) & 0xFUL)-4UL] = (uint8_t)((priority << (8U - __NVIC_PRIO_BITS)) & (uint32_t)0xFFUL);
 80005ce:	683b      	ldr	r3, [r7, #0]
 80005d0:	b2da      	uxtb	r2, r3
 80005d2:	4908      	ldr	r1, [pc, #32]	; (80005f4 <__NVIC_SetPriority+0x50>)
 80005d4:	79fb      	ldrb	r3, [r7, #7]
 80005d6:	f003 030f 	and.w	r3, r3, #15
 80005da:	3b04      	subs	r3, #4
 80005dc:	0112      	lsls	r2, r2, #4
 80005de:	b2d2      	uxtb	r2, r2
 80005e0:	440b      	add	r3, r1
 80005e2:	761a      	strb	r2, [r3, #24]
}
 80005e4:	bf00      	nop
 80005e6:	370c      	adds	r7, #12
 80005e8:	46bd      	mov	sp, r7
 80005ea:	bc80      	pop	{r7}
 80005ec:	4770      	bx	lr
 80005ee:	bf00      	nop
 80005f0:	e000e100 	.word	0xe000e100
 80005f4:	e000ed00 	.word	0xe000ed00

080005f8 <NVIC_EncodePriority>:
  \param [in]   PreemptPriority  Preemptive priority value (starting from 0).
  \param [in]       SubPriority  Subpriority value (starting from 0).
  \return                        Encoded priority. Value can be used in the function \ref NVIC_SetPriority().
 */
__STATIC_INLINE uint32_t NVIC_EncodePriority (uint32_t PriorityGroup, uint32_t PreemptPriority, uint32_t SubPriority)
{
 80005f8:	b480      	push	{r7}
 80005fa:	b089      	sub	sp, #36	; 0x24
 80005fc:	af00      	add	r7, sp, #0
 80005fe:	60f8      	str	r0, [r7, #12]
 8000600:	60b9      	str	r1, [r7, #8]
 8000602:	607a      	str	r2, [r7, #4]
  uint32_t PriorityGroupTmp = (PriorityGroup & (uint32_t)0x07UL);   /* only values 0..7 are used          */
 8000604:	68fb      	ldr	r3, [r7, #12]
 8000606:	f003 0307 	and.w	r3, r3, #7
 800060a:	61fb      	str	r3, [r7, #28]
  uint32_t PreemptPriorityBits;
  uint32_t SubPriorityBits;

  PreemptPriorityBits = ((7UL - PriorityGroupTmp) > (uint32_t)(__NVIC_PRIO_BITS)) ? (uint32_t)(__NVIC_PRIO_BITS) : (uint32_t)(7UL - PriorityGroupTmp);
 800060c:	69fb      	ldr	r3, [r7, #28]
 800060e:	f1c3 0307 	rsb	r3, r3, #7
 8000612:	2b04      	cmp	r3, #4
 8000614:	bf28      	it	cs
 8000616:	2304      	movcs	r3, #4
 8000618:	61bb      	str	r3, [r7, #24]
  SubPriorityBits     = ((PriorityGroupTmp + (uint32_t)(__NVIC_PRIO_BITS)) < (uint32_t)7UL) ? (uint32_t)0UL : (uint32_t)((PriorityGroupTmp - 7UL) + (uint32_t)(__NVIC_PRIO_BITS));
 800061a:	69fb      	ldr	r3, [r7, #28]
 800061c:	3304      	adds	r3, #4
 800061e:	2b06      	cmp	r3, #6
 8000620:	d902      	bls.n	8000628 <NVIC_EncodePriority+0x30>
 8000622:	69fb      	ldr	r3, [r7, #28]
 8000624:	3b03      	subs	r3, #3
 8000626:	e000      	b.n	800062a <NVIC_EncodePriority+0x32>
 8000628:	2300      	movs	r3, #0
 800062a:	617b      	str	r3, [r7, #20]

  return (
           ((PreemptPriority & (uint32_t)((1UL << (PreemptPriorityBits)) - 1UL)) << SubPriorityBits) |
 800062c:	f04f 32ff 	mov.w	r2, #4294967295
 8000630:	69bb      	ldr	r3, [r7, #24]
 8000632:	fa02 f303 	lsl.w	r3, r2, r3
 8000636:	43da      	mvns	r2, r3
 8000638:	68bb      	ldr	r3, [r7, #8]
 800063a:	401a      	ands	r2, r3
 800063c:	697b      	ldr	r3, [r7, #20]
 800063e:	409a      	lsls	r2, r3
           ((SubPriority     & (uint32_t)((1UL << (SubPriorityBits    )) - 1UL)))
 8000640:	f04f 31ff 	mov.w	r1, #4294967295
 8000644:	697b      	ldr	r3, [r7, #20]
 8000646:	fa01 f303 	lsl.w	r3, r1, r3
 800064a:	43d9      	mvns	r1, r3
 800064c:	687b      	ldr	r3, [r7, #4]
 800064e:	400b      	ands	r3, r1
           ((PreemptPriority & (uint32_t)((1UL << (PreemptPriorityBits)) - 1UL)) << SubPriorityBits) |
 8000650:	4313      	orrs	r3, r2
         );
}
 8000652:	4618      	mov	r0, r3
 8000654:	3724      	adds	r7, #36	; 0x24
 8000656:	46bd      	mov	sp, r7
 8000658:	bc80      	pop	{r7}
 800065a:	4770      	bx	lr

0800065c <SysTick_Config>:
  \note    When the variable <b>__Vendor_SysTickConfig</b> is set to 1, then the
           function <b>SysTick_Config</b> is not included. In this case, the file <b><i>device</i>.h</b>
           must contain a vendor-specific implementation of this function.
 */
__STATIC_INLINE uint32_t SysTick_Config(uint32_t ticks)
{
 800065c:	b580      	push	{r7, lr}
 800065e:	b082      	sub	sp, #8
 8000660:	af00      	add	r7, sp, #0
 8000662:	6078      	str	r0, [r7, #4]
  if ((ticks - 1UL) > SysTick_LOAD_RELOAD_Msk)
 8000664:	687b      	ldr	r3, [r7, #4]
 8000666:	3b01      	subs	r3, #1
 8000668:	f1b3 7f80 	cmp.w	r3, #16777216	; 0x1000000
 800066c:	d301      	bcc.n	8000672 <SysTick_Config+0x16>
  {
    return (1UL);                                                   /* Reload value impossible */
 800066e:	2301      	movs	r3, #1
 8000670:	e00f      	b.n	8000692 <SysTick_Config+0x36>
  }

  SysTick->LOAD  = (uint32_t)(ticks - 1UL);                         /* set reload register */
 8000672:	4a0a      	ldr	r2, [pc, #40]	; (800069c <SysTick_Config+0x40>)
 8000674:	687b      	ldr	r3, [r7, #4]
 8000676:	3b01      	subs	r3, #1
 8000678:	6053      	str	r3, [r2, #4]
  NVIC_SetPriority (SysTick_IRQn, (1UL << __NVIC_PRIO_BITS) - 1UL); /* set Priority for Systick Interrupt */
 800067a:	210f      	movs	r1, #15
 800067c:	f04f 30ff 	mov.w	r0, #4294967295
 8000680:	f7ff ff90 	bl	80005a4 <__NVIC_SetPriority>
  SysTick->VAL   = 0UL;                                             /* Load the SysTick Counter Value */
 8000684:	4b05      	ldr	r3, [pc, #20]	; (800069c <SysTick_Config+0x40>)
 8000686:	2200      	movs	r2, #0
 8000688:	609a      	str	r2, [r3, #8]
  SysTick->CTRL  = SysTick_CTRL_CLKSOURCE_Msk |
 800068a:	4b04      	ldr	r3, [pc, #16]	; (800069c <SysTick_Config+0x40>)
 800068c:	2207      	movs	r2, #7
 800068e:	601a      	str	r2, [r3, #0]
                   SysTick_CTRL_TICKINT_Msk   |
                   SysTick_CTRL_ENABLE_Msk;                         /* Enable SysTick IRQ and SysTick Timer */
  return (0UL);                                                     /* Function successful */
 8000690:	2300      	movs	r3, #0
}
 8000692:	4618      	mov	r0, r3
 8000694:	3708      	adds	r7, #8
 8000696:	46bd      	mov	sp, r7
 8000698:	bd80      	pop	{r7, pc}
 800069a:	bf00      	nop
 800069c:	e000e010 	.word	0xe000e010

080006a0 <HAL_NVIC_SetPriorityGrouping>:
  * @note   When the NVIC_PriorityGroup_0 is selected, IRQ preemption is no more possible. 
  *         The pending IRQ priority will be managed only by the subpriority. 
  * @retval None
  */
void HAL_NVIC_SetPriorityGrouping(uint32_t PriorityGroup)
{
 80006a0:	b580      	push	{r7, lr}
 80006a2:	b082      	sub	sp, #8
 80006a4:	af00      	add	r7, sp, #0
 80006a6:	6078      	str	r0, [r7, #4]
  /* Check the parameters */
  assert_param(IS_NVIC_PRIORITY_GROUP(PriorityGroup));
  
  /* Set the PRIGROUP[10:8] bits according to the PriorityGroup parameter value */
  NVIC_SetPriorityGrouping(PriorityGroup);
 80006a8:	6878      	ldr	r0, [r7, #4]
 80006aa:	f7ff ff2d 	bl	8000508 <__NVIC_SetPriorityGrouping>
}
 80006ae:	bf00      	nop
 80006b0:	3708      	adds	r7, #8
 80006b2:	46bd      	mov	sp, r7
 80006b4:	bd80      	pop	{r7, pc}

080006b6 <HAL_NVIC_SetPriority>:
  *         This parameter can be a value between 0 and 15
  *         A lower priority value indicates a higher priority.          
  * @retval None
  */
void HAL_NVIC_SetPriority(IRQn_Type IRQn, uint32_t PreemptPriority, uint32_t SubPriority)
{ 
 80006b6:	b580      	push	{r7, lr}
 80006b8:	b086      	sub	sp, #24
 80006ba:	af00      	add	r7, sp, #0
 80006bc:	4603      	mov	r3, r0
 80006be:	60b9      	str	r1, [r7, #8]
 80006c0:	607a      	str	r2, [r7, #4]
 80006c2:	73fb      	strb	r3, [r7, #15]
  uint32_t prioritygroup = 0x00U;
 80006c4:	2300      	movs	r3, #0
 80006c6:	617b      	str	r3, [r7, #20]
  
  /* Check the parameters */
  assert_param(IS_NVIC_SUB_PRIORITY(SubPriority));
  assert_param(IS_NVIC_PREEMPTION_PRIORITY(PreemptPriority));
  
  prioritygroup = NVIC_GetPriorityGrouping();
 80006c8:	f7ff ff42 	bl	8000550 <__NVIC_GetPriorityGrouping>
 80006cc:	6178      	str	r0, [r7, #20]
  
  NVIC_SetPriority(IRQn, NVIC_EncodePriority(prioritygroup, PreemptPriority, SubPriority));
 80006ce:	687a      	ldr	r2, [r7, #4]
 80006d0:	68b9      	ldr	r1, [r7, #8]
 80006d2:	6978      	ldr	r0, [r7, #20]
 80006d4:	f7ff ff90 	bl	80005f8 <NVIC_EncodePriority>
 80006d8:	4602      	mov	r2, r0
 80006da:	f997 300f 	ldrsb.w	r3, [r7, #15]
 80006de:	4611      	mov	r1, r2
 80006e0:	4618      	mov	r0, r3
 80006e2:	f7ff ff5f 	bl	80005a4 <__NVIC_SetPriority>
}
 80006e6:	bf00      	nop
 80006e8:	3718      	adds	r7, #24
 80006ea:	46bd      	mov	sp, r7
 80006ec:	bd80      	pop	{r7, pc}

080006ee <HAL_NVIC_EnableIRQ>:
  *         This parameter can be an enumerator of IRQn_Type enumeration
  *         (For the complete STM32 Devices IRQ Channels list, please refer to the appropriate CMSIS device file (stm32f10xxx.h))
  * @retval None
  */
void HAL_NVIC_EnableIRQ(IRQn_Type IRQn)
{
 80006ee:	b580      	push	{r7, lr}
 80006f0:	b082      	sub	sp, #8
 80006f2:	af00      	add	r7, sp, #0
 80006f4:	4603      	mov	r3, r0
 80006f6:	71fb      	strb	r3, [r7, #7]
  /* Check the parameters */
  assert_param(IS_NVIC_DEVICE_IRQ(IRQn));

  /* Enable interrupt */
  NVIC_EnableIRQ(IRQn);
 80006f8:	f997 3007 	ldrsb.w	r3, [r7, #7]
 80006fc:	4618      	mov	r0, r3
 80006fe:	f7ff ff35 	bl	800056c <__NVIC_EnableIRQ>
}
 8000702:	bf00      	nop
 8000704:	3708      	adds	r7, #8
 8000706:	46bd      	mov	sp, r7
 8000708:	bd80      	pop	{r7, pc}

0800070a <HAL_SYSTICK_Config>:
  * @param  TicksNumb: Specifies the ticks Number of ticks between two interrupts.
  * @retval status:  - 0  Function succeeded.
  *                  - 1  Function failed.
  */
uint32_t HAL_SYSTICK_Config(uint32_t TicksNumb)
{
 800070a:	b580      	push	{r7, lr}
 800070c:	b082      	sub	sp, #8
 800070e:	af00      	add	r7, sp, #0
 8000710:	6078      	str	r0, [r7, #4]
   return SysTick_Config(TicksNumb);
 8000712:	6878      	ldr	r0, [r7, #4]
 8000714:	f7ff ffa2 	bl	800065c <SysTick_Config>
 8000718:	4603      	mov	r3, r0
}
 800071a:	4618      	mov	r0, r3
 800071c:	3708      	adds	r7, #8
 800071e:	46bd      	mov	sp, r7
 8000720:	bd80      	pop	{r7, pc}
	...

08000724 <HAL_GPIO_Init>:
  * @param  GPIO_Init: pointer to a GPIO_InitTypeDef structure that contains
  *         the configuration information for the specified GPIO peripheral.
  * @retval None
  */
void HAL_GPIO_Init(GPIO_TypeDef  *GPIOx, GPIO_InitTypeDef *GPIO_Init)
{
 8000724:	b480      	push	{r7}
 8000726:	b08b      	sub	sp, #44	; 0x2c
 8000728:	af00      	add	r7, sp, #0
 800072a:	6078      	str	r0, [r7, #4]
 800072c:	6039      	str	r1, [r7, #0]
  uint32_t position = 0x00u;
 800072e:	2300      	movs	r3, #0
 8000730:	627b      	str	r3, [r7, #36]	; 0x24
  uint32_t ioposition;
  uint32_t iocurrent;
  uint32_t temp;
  uint32_t config = 0x00u;
 8000732:	2300      	movs	r3, #0
 8000734:	623b      	str	r3, [r7, #32]
  assert_param(IS_GPIO_ALL_INSTANCE(GPIOx));
  assert_param(IS_GPIO_PIN(GPIO_Init->Pin));
  assert_param(IS_GPIO_MODE(GPIO_Init->Mode));

  /* Configure the port pins */
  while (((GPIO_Init->Pin) >> position) != 0x00u)
 8000736:	e161      	b.n	80009fc <HAL_GPIO_Init+0x2d8>
  {
    /* Get the IO position */
    ioposition = (0x01uL << position);
 8000738:	2201      	movs	r2, #1
 800073a:	6a7b      	ldr	r3, [r7, #36]	; 0x24
 800073c:	fa02 f303 	lsl.w	r3, r2, r3
 8000740:	61fb      	str	r3, [r7, #28]

    /* Get the current IO position */
    iocurrent = (uint32_t)(GPIO_Init->Pin) & ioposition;
 8000742:	683b      	ldr	r3, [r7, #0]
 8000744:	681b      	ldr	r3, [r3, #0]
 8000746:	69fa      	ldr	r2, [r7, #28]
 8000748:	4013      	ands	r3, r2
 800074a:	61bb      	str	r3, [r7, #24]

    if (iocurrent == ioposition)
 800074c:	69ba      	ldr	r2, [r7, #24]
 800074e:	69fb      	ldr	r3, [r7, #28]
 8000750:	429a      	cmp	r2, r3
 8000752:	f040 8150 	bne.w	80009f6 <HAL_GPIO_Init+0x2d2>
    {
      /* Check the Alternate function parameters */
      assert_param(IS_GPIO_AF_INSTANCE(GPIOx));

      /* Based on the required mode, filling config variable with MODEy[1:0] and CNFy[3:2] corresponding bits */
      switch (GPIO_Init->Mode)
 8000756:	683b      	ldr	r3, [r7, #0]
 8000758:	685b      	ldr	r3, [r3, #4]
 800075a:	4a97      	ldr	r2, [pc, #604]	; (80009b8 <HAL_GPIO_Init+0x294>)
 800075c:	4293      	cmp	r3, r2
 800075e:	d05e      	beq.n	800081e <HAL_GPIO_Init+0xfa>
 8000760:	4a95      	ldr	r2, [pc, #596]	; (80009b8 <HAL_GPIO_Init+0x294>)
 8000762:	4293      	cmp	r3, r2
 8000764:	d875      	bhi.n	8000852 <HAL_GPIO_Init+0x12e>
 8000766:	4a95      	ldr	r2, [pc, #596]	; (80009bc <HAL_GPIO_Init+0x298>)
 8000768:	4293      	cmp	r3, r2
 800076a:	d058      	beq.n	800081e <HAL_GPIO_Init+0xfa>
 800076c:	4a93      	ldr	r2, [pc, #588]	; (80009bc <HAL_GPIO_Init+0x298>)
 800076e:	4293      	cmp	r3, r2
 8000770:	d86f      	bhi.n	8000852 <HAL_GPIO_Init+0x12e>
 8000772:	4a93      	ldr	r2, [pc, #588]	; (80009c0 <HAL_GPIO_Init+0x29c>)
 8000774:	4293      	cmp	r3, r2
 8000776:	d052      	beq.n	800081e <HAL_GPIO_Init+0xfa>
 8000778:	4a91      	ldr	r2, [pc, #580]	; (80009c0 <HAL_GPIO_Init+0x29c>)
 800077a:	4293      	cmp	r3, r2
 800077c:	d869      	bhi.n	8000852 <HAL_GPIO_Init+0x12e>
 800077e:	4a91      	ldr	r2, [pc, #580]	; (80009c4 <HAL_GPIO_Init+0x2a0>)
 8000780:	4293      	cmp	r3, r2
 8000782:	d04c      	beq.n	800081e <HAL_GPIO_Init+0xfa>
 8000784:	4a8f      	ldr	r2, [pc, #572]	; (80009c4 <HAL_GPIO_Init+0x2a0>)
 8000786:	4293      	cmp	r3, r2
 8000788:	d863      	bhi.n	8000852 <HAL_GPIO_Init+0x12e>
 800078a:	4a8f      	ldr	r2, [pc, #572]	; (80009c8 <HAL_GPIO_Init+0x2a4>)
 800078c:	4293      	cmp	r3, r2
 800078e:	d046      	beq.n	800081e <HAL_GPIO_Init+0xfa>
 8000790:	4a8d      	ldr	r2, [pc, #564]	; (80009c8 <HAL_GPIO_Init+0x2a4>)
 8000792:	4293      	cmp	r3, r2
 8000794:	d85d      	bhi.n	8000852 <HAL_GPIO_Init+0x12e>
 8000796:	2b12      	cmp	r3, #18
 8000798:	d82a      	bhi.n	80007f0 <HAL_GPIO_Init+0xcc>
 800079a:	2b12      	cmp	r3, #18
 800079c:	d859      	bhi.n	8000852 <HAL_GPIO_Init+0x12e>
 800079e:	a201      	add	r2, pc, #4	; (adr r2, 80007a4 <HAL_GPIO_Init+0x80>)
 80007a0:	f852 f023 	ldr.w	pc, [r2, r3, lsl #2]
 80007a4:	0800081f 	.word	0x0800081f
 80007a8:	080007f9 	.word	0x080007f9
 80007ac:	0800080b 	.word	0x0800080b
 80007b0:	0800084d 	.word	0x0800084d
 80007b4:	08000853 	.word	0x08000853
 80007b8:	08000853 	.word	0x08000853
 80007bc:	08000853 	.word	0x08000853
 80007c0:	08000853 	.word	0x08000853
 80007c4:	08000853 	.word	0x08000853
 80007c8:	08000853 	.word	0x08000853
 80007cc:	08000853 	.word	0x08000853
 80007d0:	08000853 	.word	0x08000853
 80007d4:	08000853 	.word	0x08000853
 80007d8:	08000853 	.word	0x08000853
 80007dc:	08000853 	.word	0x08000853
 80007e0:	08000853 	.word	0x08000853
 80007e4:	08000853 	.word	0x08000853
 80007e8:	08000801 	.word	0x08000801
 80007ec:	08000815 	.word	0x08000815
 80007f0:	4a76      	ldr	r2, [pc, #472]	; (80009cc <HAL_GPIO_Init+0x2a8>)
 80007f2:	4293      	cmp	r3, r2
 80007f4:	d013      	beq.n	800081e <HAL_GPIO_Init+0xfa>
          config = GPIO_CR_MODE_INPUT + GPIO_CR_CNF_ANALOG;
          break;

        /* Parameters are checked with assert_param */
        default:
          break;
 80007f6:	e02c      	b.n	8000852 <HAL_GPIO_Init+0x12e>
          config = GPIO_Init->Speed + GPIO_CR_CNF_GP_OUTPUT_PP;
 80007f8:	683b      	ldr	r3, [r7, #0]
 80007fa:	68db      	ldr	r3, [r3, #12]
 80007fc:	623b      	str	r3, [r7, #32]
          break;
 80007fe:	e029      	b.n	8000854 <HAL_GPIO_Init+0x130>
          config = GPIO_Init->Speed + GPIO_CR_CNF_GP_OUTPUT_OD;
 8000800:	683b      	ldr	r3, [r7, #0]
 8000802:	68db      	ldr	r3, [r3, #12]
 8000804:	3304      	adds	r3, #4
 8000806:	623b      	str	r3, [r7, #32]
          break;
 8000808:	e024      	b.n	8000854 <HAL_GPIO_Init+0x130>
          config = GPIO_Init->Speed + GPIO_CR_CNF_AF_OUTPUT_PP;
 800080a:	683b      	ldr	r3, [r7, #0]
 800080c:	68db      	ldr	r3, [r3, #12]
 800080e:	3308      	adds	r3, #8
 8000810:	623b      	str	r3, [r7, #32]
          break;
 8000812:	e01f      	b.n	8000854 <HAL_GPIO_Init+0x130>
          config = GPIO_Init->Speed + GPIO_CR_CNF_AF_OUTPUT_OD;
 8000814:	683b      	ldr	r3, [r7, #0]
 8000816:	68db      	ldr	r3, [r3, #12]
 8000818:	330c      	adds	r3, #12
 800081a:	623b      	str	r3, [r7, #32]
          break;
 800081c:	e01a      	b.n	8000854 <HAL_GPIO_Init+0x130>
          if (GPIO_Init->Pull == GPIO_NOPULL)
 800081e:	683b      	ldr	r3, [r7, #0]
 8000820:	689b      	ldr	r3, [r3, #8]
 8000822:	2b00      	cmp	r3, #0
 8000824:	d102      	bne.n	800082c <HAL_GPIO_Init+0x108>
            config = GPIO_CR_MODE_INPUT + GPIO_CR_CNF_INPUT_FLOATING;
 8000826:	2304      	movs	r3, #4
 8000828:	623b      	str	r3, [r7, #32]
          break;
 800082a:	e013      	b.n	8000854 <HAL_GPIO_Init+0x130>
          else if (GPIO_Init->Pull == GPIO_PULLUP)
 800082c:	683b      	ldr	r3, [r7, #0]
 800082e:	689b      	ldr	r3, [r3, #8]
 8000830:	2b01      	cmp	r3, #1
 8000832:	d105      	bne.n	8000840 <HAL_GPIO_Init+0x11c>
            config = GPIO_CR_MODE_INPUT + GPIO_CR_CNF_INPUT_PU_PD;
 8000834:	2308      	movs	r3, #8
 8000836:	623b      	str	r3, [r7, #32]
            GPIOx->BSRR = ioposition;
 8000838:	687b      	ldr	r3, [r7, #4]
 800083a:	69fa      	ldr	r2, [r7, #28]
 800083c:	611a      	str	r2, [r3, #16]
          break;
 800083e:	e009      	b.n	8000854 <HAL_GPIO_Init+0x130>
            config = GPIO_CR_MODE_INPUT + GPIO_CR_CNF_INPUT_PU_PD;
 8000840:	2308      	movs	r3, #8
 8000842:	623b      	str	r3, [r7, #32]
            GPIOx->BRR = ioposition;
 8000844:	687b      	ldr	r3, [r7, #4]
 8000846:	69fa      	ldr	r2, [r7, #28]
 8000848:	615a      	str	r2, [r3, #20]
          break;
 800084a:	e003      	b.n	8000854 <HAL_GPIO_Init+0x130>
          config = GPIO_CR_MODE_INPUT + GPIO_CR_CNF_ANALOG;
 800084c:	2300      	movs	r3, #0
 800084e:	623b      	str	r3, [r7, #32]
          break;
 8000850:	e000      	b.n	8000854 <HAL_GPIO_Init+0x130>
          break;
 8000852:	bf00      	nop
      }

      /* Check if the current bit belongs to first half or last half of the pin count number
       in order to address CRH or CRL register*/
      configregister = (iocurrent < GPIO_PIN_8) ? &GPIOx->CRL     : &GPIOx->CRH;
 8000854:	69bb      	ldr	r3, [r7, #24]
 8000856:	2bff      	cmp	r3, #255	; 0xff
 8000858:	d801      	bhi.n	800085e <HAL_GPIO_Init+0x13a>
 800085a:	687b      	ldr	r3, [r7, #4]
 800085c:	e001      	b.n	8000862 <HAL_GPIO_Init+0x13e>
 800085e:	687b      	ldr	r3, [r7, #4]
 8000860:	3304      	adds	r3, #4
 8000862:	617b      	str	r3, [r7, #20]
      registeroffset = (iocurrent < GPIO_PIN_8) ? (position << 2u) : ((position - 8u) << 2u);
 8000864:	69bb      	ldr	r3, [r7, #24]
 8000866:	2bff      	cmp	r3, #255	; 0xff
 8000868:	d802      	bhi.n	8000870 <HAL_GPIO_Init+0x14c>
 800086a:	6a7b      	ldr	r3, [r7, #36]	; 0x24
 800086c:	009b      	lsls	r3, r3, #2
 800086e:	e002      	b.n	8000876 <HAL_GPIO_Init+0x152>
 8000870:	6a7b      	ldr	r3, [r7, #36]	; 0x24
 8000872:	3b08      	subs	r3, #8
 8000874:	009b      	lsls	r3, r3, #2
 8000876:	613b      	str	r3, [r7, #16]

      /* Apply the new configuration of the pin to the register */
      MODIFY_REG((*configregister), ((GPIO_CRL_MODE0 | GPIO_CRL_CNF0) << registeroffset), (config << registeroffset));
 8000878:	697b      	ldr	r3, [r7, #20]
 800087a:	681a      	ldr	r2, [r3, #0]
 800087c:	210f      	movs	r1, #15
 800087e:	693b      	ldr	r3, [r7, #16]
 8000880:	fa01 f303 	lsl.w	r3, r1, r3
 8000884:	43db      	mvns	r3, r3
 8000886:	401a      	ands	r2, r3
 8000888:	6a39      	ldr	r1, [r7, #32]
 800088a:	693b      	ldr	r3, [r7, #16]
 800088c:	fa01 f303 	lsl.w	r3, r1, r3
 8000890:	431a      	orrs	r2, r3
 8000892:	697b      	ldr	r3, [r7, #20]
 8000894:	601a      	str	r2, [r3, #0]

      /*--------------------- EXTI Mode Configuration ------------------------*/
      /* Configure the External Interrupt or event for the current IO */
      if ((GPIO_Init->Mode & EXTI_MODE) == EXTI_MODE)
 8000896:	683b      	ldr	r3, [r7, #0]
 8000898:	685b      	ldr	r3, [r3, #4]
 800089a:	f003 5380 	and.w	r3, r3, #268435456	; 0x10000000
 800089e:	2b00      	cmp	r3, #0
 80008a0:	f000 80a9 	beq.w	80009f6 <HAL_GPIO_Init+0x2d2>
      {
        /* Enable AFIO Clock */
        __HAL_RCC_AFIO_CLK_ENABLE();
 80008a4:	4b4a      	ldr	r3, [pc, #296]	; (80009d0 <HAL_GPIO_Init+0x2ac>)
 80008a6:	699b      	ldr	r3, [r3, #24]
 80008a8:	4a49      	ldr	r2, [pc, #292]	; (80009d0 <HAL_GPIO_Init+0x2ac>)
 80008aa:	f043 0301 	orr.w	r3, r3, #1
 80008ae:	6193      	str	r3, [r2, #24]
 80008b0:	4b47      	ldr	r3, [pc, #284]	; (80009d0 <HAL_GPIO_Init+0x2ac>)
 80008b2:	699b      	ldr	r3, [r3, #24]
 80008b4:	f003 0301 	and.w	r3, r3, #1
 80008b8:	60bb      	str	r3, [r7, #8]
 80008ba:	68bb      	ldr	r3, [r7, #8]
        temp = AFIO->EXTICR[position >> 2u];
 80008bc:	4a45      	ldr	r2, [pc, #276]	; (80009d4 <HAL_GPIO_Init+0x2b0>)
 80008be:	6a7b      	ldr	r3, [r7, #36]	; 0x24
 80008c0:	089b      	lsrs	r3, r3, #2
 80008c2:	3302      	adds	r3, #2
 80008c4:	f852 3023 	ldr.w	r3, [r2, r3, lsl #2]
 80008c8:	60fb      	str	r3, [r7, #12]
        CLEAR_BIT(temp, (0x0Fu) << (4u * (position & 0x03u)));
 80008ca:	6a7b      	ldr	r3, [r7, #36]	; 0x24
 80008cc:	f003 0303 	and.w	r3, r3, #3
 80008d0:	009b      	lsls	r3, r3, #2
 80008d2:	220f      	movs	r2, #15
 80008d4:	fa02 f303 	lsl.w	r3, r2, r3
 80008d8:	43db      	mvns	r3, r3
 80008da:	68fa      	ldr	r2, [r7, #12]
 80008dc:	4013      	ands	r3, r2
 80008de:	60fb      	str	r3, [r7, #12]
        SET_BIT(temp, (GPIO_GET_INDEX(GPIOx)) << (4u * (position & 0x03u)));
 80008e0:	687b      	ldr	r3, [r7, #4]
 80008e2:	4a3d      	ldr	r2, [pc, #244]	; (80009d8 <HAL_GPIO_Init+0x2b4>)
 80008e4:	4293      	cmp	r3, r2
 80008e6:	d00d      	beq.n	8000904 <HAL_GPIO_Init+0x1e0>
 80008e8:	687b      	ldr	r3, [r7, #4]
 80008ea:	4a3c      	ldr	r2, [pc, #240]	; (80009dc <HAL_GPIO_Init+0x2b8>)
 80008ec:	4293      	cmp	r3, r2
 80008ee:	d007      	beq.n	8000900 <HAL_GPIO_Init+0x1dc>
 80008f0:	687b      	ldr	r3, [r7, #4]
 80008f2:	4a3b      	ldr	r2, [pc, #236]	; (80009e0 <HAL_GPIO_Init+0x2bc>)
 80008f4:	4293      	cmp	r3, r2
 80008f6:	d101      	bne.n	80008fc <HAL_GPIO_Init+0x1d8>
 80008f8:	2302      	movs	r3, #2
 80008fa:	e004      	b.n	8000906 <HAL_GPIO_Init+0x1e2>
 80008fc:	2303      	movs	r3, #3
 80008fe:	e002      	b.n	8000906 <HAL_GPIO_Init+0x1e2>
 8000900:	2301      	movs	r3, #1
 8000902:	e000      	b.n	8000906 <HAL_GPIO_Init+0x1e2>
 8000904:	2300      	movs	r3, #0
 8000906:	6a7a      	ldr	r2, [r7, #36]	; 0x24
 8000908:	f002 0203 	and.w	r2, r2, #3
 800090c:	0092      	lsls	r2, r2, #2
 800090e:	4093      	lsls	r3, r2
 8000910:	68fa      	ldr	r2, [r7, #12]
 8000912:	4313      	orrs	r3, r2
 8000914:	60fb      	str	r3, [r7, #12]
        AFIO->EXTICR[position >> 2u] = temp;
 8000916:	492f      	ldr	r1, [pc, #188]	; (80009d4 <HAL_GPIO_Init+0x2b0>)
 8000918:	6a7b      	ldr	r3, [r7, #36]	; 0x24
 800091a:	089b      	lsrs	r3, r3, #2
 800091c:	3302      	adds	r3, #2
 800091e:	68fa      	ldr	r2, [r7, #12]
 8000920:	f841 2023 	str.w	r2, [r1, r3, lsl #2]


        /* Enable or disable the rising trigger */
        if ((GPIO_Init->Mode & RISING_EDGE) == RISING_EDGE)
 8000924:	683b      	ldr	r3, [r7, #0]
 8000926:	685b      	ldr	r3, [r3, #4]
 8000928:	f403 1380 	and.w	r3, r3, #1048576	; 0x100000
 800092c:	2b00      	cmp	r3, #0
 800092e:	d006      	beq.n	800093e <HAL_GPIO_Init+0x21a>
        {
          SET_BIT(EXTI->RTSR, iocurrent);
 8000930:	4b2c      	ldr	r3, [pc, #176]	; (80009e4 <HAL_GPIO_Init+0x2c0>)
 8000932:	689a      	ldr	r2, [r3, #8]
 8000934:	492b      	ldr	r1, [pc, #172]	; (80009e4 <HAL_GPIO_Init+0x2c0>)
 8000936:	69bb      	ldr	r3, [r7, #24]
 8000938:	4313      	orrs	r3, r2
 800093a:	608b      	str	r3, [r1, #8]
 800093c:	e006      	b.n	800094c <HAL_GPIO_Init+0x228>
        }
        else
        {
          CLEAR_BIT(EXTI->RTSR, iocurrent);
 800093e:	4b29      	ldr	r3, [pc, #164]	; (80009e4 <HAL_GPIO_Init+0x2c0>)
 8000940:	689a      	ldr	r2, [r3, #8]
 8000942:	69bb      	ldr	r3, [r7, #24]
 8000944:	43db      	mvns	r3, r3
 8000946:	4927      	ldr	r1, [pc, #156]	; (80009e4 <HAL_GPIO_Init+0x2c0>)
 8000948:	4013      	ands	r3, r2
 800094a:	608b      	str	r3, [r1, #8]
        }

        /* Enable or disable the falling trigger */
        if ((GPIO_Init->Mode & FALLING_EDGE) == FALLING_EDGE)
 800094c:	683b      	ldr	r3, [r7, #0]
 800094e:	685b      	ldr	r3, [r3, #4]
 8000950:	f403 1300 	and.w	r3, r3, #2097152	; 0x200000
 8000954:	2b00      	cmp	r3, #0
 8000956:	d006      	beq.n	8000966 <HAL_GPIO_Init+0x242>
        {
          SET_BIT(EXTI->FTSR, iocurrent);
 8000958:	4b22      	ldr	r3, [pc, #136]	; (80009e4 <HAL_GPIO_Init+0x2c0>)
 800095a:	68da      	ldr	r2, [r3, #12]
 800095c:	4921      	ldr	r1, [pc, #132]	; (80009e4 <HAL_GPIO_Init+0x2c0>)
 800095e:	69bb      	ldr	r3, [r7, #24]
 8000960:	4313      	orrs	r3, r2
 8000962:	60cb      	str	r3, [r1, #12]
 8000964:	e006      	b.n	8000974 <HAL_GPIO_Init+0x250>
        }
        else
        {
          CLEAR_BIT(EXTI->FTSR, iocurrent);
 8000966:	4b1f      	ldr	r3, [pc, #124]	; (80009e4 <HAL_GPIO_Init+0x2c0>)
 8000968:	68da      	ldr	r2, [r3, #12]
 800096a:	69bb      	ldr	r3, [r7, #24]
 800096c:	43db      	mvns	r3, r3
 800096e:	491d      	ldr	r1, [pc, #116]	; (80009e4 <HAL_GPIO_Init+0x2c0>)
 8000970:	4013      	ands	r3, r2
 8000972:	60cb      	str	r3, [r1, #12]
        }

        /* Configure the event mask */
        if ((GPIO_Init->Mode & GPIO_MODE_EVT) == GPIO_MODE_EVT)
 8000974:	683b      	ldr	r3, [r7, #0]
 8000976:	685b      	ldr	r3, [r3, #4]
 8000978:	f403 3300 	and.w	r3, r3, #131072	; 0x20000
 800097c:	2b00      	cmp	r3, #0
 800097e:	d006      	beq.n	800098e <HAL_GPIO_Init+0x26a>
        {
          SET_BIT(EXTI->EMR, iocurrent);
 8000980:	4b18      	ldr	r3, [pc, #96]	; (80009e4 <HAL_GPIO_Init+0x2c0>)
 8000982:	685a      	ldr	r2, [r3, #4]
 8000984:	4917      	ldr	r1, [pc, #92]	; (80009e4 <HAL_GPIO_Init+0x2c0>)
 8000986:	69bb      	ldr	r3, [r7, #24]
 8000988:	4313      	orrs	r3, r2
 800098a:	604b      	str	r3, [r1, #4]
 800098c:	e006      	b.n	800099c <HAL_GPIO_Init+0x278>
        }
        else
        {
          CLEAR_BIT(EXTI->EMR, iocurrent);
 800098e:	4b15      	ldr	r3, [pc, #84]	; (80009e4 <HAL_GPIO_Init+0x2c0>)
 8000990:	685a      	ldr	r2, [r3, #4]
 8000992:	69bb      	ldr	r3, [r7, #24]
 8000994:	43db      	mvns	r3, r3
 8000996:	4913      	ldr	r1, [pc, #76]	; (80009e4 <HAL_GPIO_Init+0x2c0>)
 8000998:	4013      	ands	r3, r2
 800099a:	604b      	str	r3, [r1, #4]
        }

        /* Configure the interrupt mask */
        if ((GPIO_Init->Mode & GPIO_MODE_IT) == GPIO_MODE_IT)
 800099c:	683b      	ldr	r3, [r7, #0]
 800099e:	685b      	ldr	r3, [r3, #4]
 80009a0:	f403 3380 	and.w	r3, r3, #65536	; 0x10000
 80009a4:	2b00      	cmp	r3, #0
 80009a6:	d01f      	beq.n	80009e8 <HAL_GPIO_Init+0x2c4>
        {
          SET_BIT(EXTI->IMR, iocurrent);
 80009a8:	4b0e      	ldr	r3, [pc, #56]	; (80009e4 <HAL_GPIO_Init+0x2c0>)
 80009aa:	681a      	ldr	r2, [r3, #0]
 80009ac:	490d      	ldr	r1, [pc, #52]	; (80009e4 <HAL_GPIO_Init+0x2c0>)
 80009ae:	69bb      	ldr	r3, [r7, #24]
 80009b0:	4313      	orrs	r3, r2
 80009b2:	600b      	str	r3, [r1, #0]
 80009b4:	e01f      	b.n	80009f6 <HAL_GPIO_Init+0x2d2>
 80009b6:	bf00      	nop
 80009b8:	10320000 	.word	0x10320000
 80009bc:	10310000 	.word	0x10310000
 80009c0:	10220000 	.word	0x10220000
 80009c4:	10210000 	.word	0x10210000
 80009c8:	10120000 	.word	0x10120000
 80009cc:	10110000 	.word	0x10110000
 80009d0:	40021000 	.word	0x40021000
 80009d4:	40010000 	.word	0x40010000
 80009d8:	40010800 	.word	0x40010800
 80009dc:	40010c00 	.word	0x40010c00
 80009e0:	40011000 	.word	0x40011000
 80009e4:	40010400 	.word	0x40010400
        }
        else
        {
          CLEAR_BIT(EXTI->IMR, iocurrent);
 80009e8:	4b0b      	ldr	r3, [pc, #44]	; (8000a18 <HAL_GPIO_Init+0x2f4>)
 80009ea:	681a      	ldr	r2, [r3, #0]
 80009ec:	69bb      	ldr	r3, [r7, #24]
 80009ee:	43db      	mvns	r3, r3
 80009f0:	4909      	ldr	r1, [pc, #36]	; (8000a18 <HAL_GPIO_Init+0x2f4>)
 80009f2:	4013      	ands	r3, r2
 80009f4:	600b      	str	r3, [r1, #0]
        }
      }
    }

	position++;
 80009f6:	6a7b      	ldr	r3, [r7, #36]	; 0x24
 80009f8:	3301      	adds	r3, #1
 80009fa:	627b      	str	r3, [r7, #36]	; 0x24
  while (((GPIO_Init->Pin) >> position) != 0x00u)
 80009fc:	683b      	ldr	r3, [r7, #0]
 80009fe:	681a      	ldr	r2, [r3, #0]
 8000a00:	6a7b      	ldr	r3, [r7, #36]	; 0x24
 8000a02:	fa22 f303 	lsr.w	r3, r2, r3
 8000a06:	2b00      	cmp	r3, #0
 8000a08:	f47f ae96 	bne.w	8000738 <HAL_GPIO_Init+0x14>
  }
}
 8000a0c:	bf00      	nop
 8000a0e:	bf00      	nop
 8000a10:	372c      	adds	r7, #44	; 0x2c
 8000a12:	46bd      	mov	sp, r7
 8000a14:	bc80      	pop	{r7}
 8000a16:	4770      	bx	lr
 8000a18:	40010400 	.word	0x40010400

08000a1c <HAL_GPIO_WritePin>:
  *            @arg GPIO_PIN_RESET: to clear the port pin
  *            @arg GPIO_PIN_SET: to set the port pin
  * @retval None
  */
void HAL_GPIO_WritePin(GPIO_TypeDef *GPIOx, uint16_t GPIO_Pin, GPIO_PinState PinState)
{
 8000a1c:	b480      	push	{r7}
 8000a1e:	b083      	sub	sp, #12
 8000a20:	af00      	add	r7, sp, #0
 8000a22:	6078      	str	r0, [r7, #4]
 8000a24:	460b      	mov	r3, r1
 8000a26:	807b      	strh	r3, [r7, #2]
 8000a28:	4613      	mov	r3, r2
 8000a2a:	707b      	strb	r3, [r7, #1]
  /* Check the parameters */
  assert_param(IS_GPIO_PIN(GPIO_Pin));
  assert_param(IS_GPIO_PIN_ACTION(PinState));

  if (PinState != GPIO_PIN_RESET)
 8000a2c:	787b      	ldrb	r3, [r7, #1]
 8000a2e:	2b00      	cmp	r3, #0
 8000a30:	d003      	beq.n	8000a3a <HAL_GPIO_WritePin+0x1e>
  {
    GPIOx->BSRR = GPIO_Pin;
 8000a32:	887a      	ldrh	r2, [r7, #2]
 8000a34:	687b      	ldr	r3, [r7, #4]
 8000a36:	611a      	str	r2, [r3, #16]
  }
  else
  {
    GPIOx->BSRR = (uint32_t)GPIO_Pin << 16u;
  }
}
 8000a38:	e003      	b.n	8000a42 <HAL_GPIO_WritePin+0x26>
    GPIOx->BSRR = (uint32_t)GPIO_Pin << 16u;
 8000a3a:	887b      	ldrh	r3, [r7, #2]
 8000a3c:	041a      	lsls	r2, r3, #16
 8000a3e:	687b      	ldr	r3, [r7, #4]
 8000a40:	611a      	str	r2, [r3, #16]
}
 8000a42:	bf00      	nop
 8000a44:	370c      	adds	r7, #12
 8000a46:	46bd      	mov	sp, r7
 8000a48:	bc80      	pop	{r7}
 8000a4a:	4770      	bx	lr

08000a4c <HAL_RCC_OscConfig>:
  *         supported by this macro. User should request a transition to HSE Off
  *         first and then HSE On or HSE Bypass.
  * @retval HAL status
  */
HAL_StatusTypeDef HAL_RCC_OscConfig(RCC_OscInitTypeDef  *RCC_OscInitStruct)
{
 8000a4c:	b580      	push	{r7, lr}
 8000a4e:	b086      	sub	sp, #24
 8000a50:	af00      	add	r7, sp, #0
 8000a52:	6078      	str	r0, [r7, #4]
  uint32_t tickstart;
  uint32_t pll_config;

  /* Check Null pointer */
  if (RCC_OscInitStruct == NULL)
 8000a54:	687b      	ldr	r3, [r7, #4]
 8000a56:	2b00      	cmp	r3, #0
 8000a58:	d101      	bne.n	8000a5e <HAL_RCC_OscConfig+0x12>
  {
    return HAL_ERROR;
 8000a5a:	2301      	movs	r3, #1
 8000a5c:	e272      	b.n	8000f44 <HAL_RCC_OscConfig+0x4f8>

  /* Check the parameters */
  assert_param(IS_RCC_OSCILLATORTYPE(RCC_OscInitStruct->OscillatorType));

  /*------------------------------- HSE Configuration ------------------------*/
  if (((RCC_OscInitStruct->OscillatorType) & RCC_OSCILLATORTYPE_HSE) == RCC_OSCILLATORTYPE_HSE)
 8000a5e:	687b      	ldr	r3, [r7, #4]
 8000a60:	681b      	ldr	r3, [r3, #0]
 8000a62:	f003 0301 	and.w	r3, r3, #1
 8000a66:	2b00      	cmp	r3, #0
 8000a68:	f000 8087 	beq.w	8000b7a <HAL_RCC_OscConfig+0x12e>
  {
    /* Check the parameters */
    assert_param(IS_RCC_HSE(RCC_OscInitStruct->HSEState));

    /* When the HSE is used as system clock or clock source for PLL in these cases it is not allowed to be disabled */
    if ((__HAL_RCC_GET_SYSCLK_SOURCE() == RCC_SYSCLKSOURCE_STATUS_HSE)
 8000a6c:	4b92      	ldr	r3, [pc, #584]	; (8000cb8 <HAL_RCC_OscConfig+0x26c>)
 8000a6e:	685b      	ldr	r3, [r3, #4]
 8000a70:	f003 030c 	and.w	r3, r3, #12
 8000a74:	2b04      	cmp	r3, #4
 8000a76:	d00c      	beq.n	8000a92 <HAL_RCC_OscConfig+0x46>
        || ((__HAL_RCC_GET_SYSCLK_SOURCE() == RCC_SYSCLKSOURCE_STATUS_PLLCLK) && (__HAL_RCC_GET_PLL_OSCSOURCE() == RCC_PLLSOURCE_HSE)))
 8000a78:	4b8f      	ldr	r3, [pc, #572]	; (8000cb8 <HAL_RCC_OscConfig+0x26c>)
 8000a7a:	685b      	ldr	r3, [r3, #4]
 8000a7c:	f003 030c 	and.w	r3, r3, #12
 8000a80:	2b08      	cmp	r3, #8
 8000a82:	d112      	bne.n	8000aaa <HAL_RCC_OscConfig+0x5e>
 8000a84:	4b8c      	ldr	r3, [pc, #560]	; (8000cb8 <HAL_RCC_OscConfig+0x26c>)
 8000a86:	685b      	ldr	r3, [r3, #4]
 8000a88:	f403 3380 	and.w	r3, r3, #65536	; 0x10000
 8000a8c:	f5b3 3f80 	cmp.w	r3, #65536	; 0x10000
 8000a90:	d10b      	bne.n	8000aaa <HAL_RCC_OscConfig+0x5e>
    {
      if ((__HAL_RCC_GET_FLAG(RCC_FLAG_HSERDY) != RESET) && (RCC_OscInitStruct->HSEState == RCC_HSE_OFF))
 8000a92:	4b89      	ldr	r3, [pc, #548]	; (8000cb8 <HAL_RCC_OscConfig+0x26c>)
 8000a94:	681b      	ldr	r3, [r3, #0]
 8000a96:	f403 3300 	and.w	r3, r3, #131072	; 0x20000
 8000a9a:	2b00      	cmp	r3, #0
 8000a9c:	d06c      	beq.n	8000b78 <HAL_RCC_OscConfig+0x12c>
 8000a9e:	687b      	ldr	r3, [r7, #4]
 8000aa0:	685b      	ldr	r3, [r3, #4]
 8000aa2:	2b00      	cmp	r3, #0
 8000aa4:	d168      	bne.n	8000b78 <HAL_RCC_OscConfig+0x12c>
      {
        return HAL_ERROR;
 8000aa6:	2301      	movs	r3, #1
 8000aa8:	e24c      	b.n	8000f44 <HAL_RCC_OscConfig+0x4f8>
      }
    }
    else
    {
      /* Set the new HSE configuration ---------------------------------------*/
      __HAL_RCC_HSE_CONFIG(RCC_OscInitStruct->HSEState);
 8000aaa:	687b      	ldr	r3, [r7, #4]
 8000aac:	685b      	ldr	r3, [r3, #4]
 8000aae:	f5b3 3f80 	cmp.w	r3, #65536	; 0x10000
 8000ab2:	d106      	bne.n	8000ac2 <HAL_RCC_OscConfig+0x76>
 8000ab4:	4b80      	ldr	r3, [pc, #512]	; (8000cb8 <HAL_RCC_OscConfig+0x26c>)
 8000ab6:	681b      	ldr	r3, [r3, #0]
 8000ab8:	4a7f      	ldr	r2, [pc, #508]	; (8000cb8 <HAL_RCC_OscConfig+0x26c>)
 8000aba:	f443 3380 	orr.w	r3, r3, #65536	; 0x10000
 8000abe:	6013      	str	r3, [r2, #0]
 8000ac0:	e02e      	b.n	8000b20 <HAL_RCC_OscConfig+0xd4>
 8000ac2:	687b      	ldr	r3, [r7, #4]
 8000ac4:	685b      	ldr	r3, [r3, #4]
 8000ac6:	2b00      	cmp	r3, #0
 8000ac8:	d10c      	bne.n	8000ae4 <HAL_RCC_OscConfig+0x98>
 8000aca:	4b7b      	ldr	r3, [pc, #492]	; (8000cb8 <HAL_RCC_OscConfig+0x26c>)
 8000acc:	681b      	ldr	r3, [r3, #0]
 8000ace:	4a7a      	ldr	r2, [pc, #488]	; (8000cb8 <HAL_RCC_OscConfig+0x26c>)
 8000ad0:	f423 3380 	bic.w	r3, r3, #65536	; 0x10000
 8000ad4:	6013      	str	r3, [r2, #0]
 8000ad6:	4b78      	ldr	r3, [pc, #480]	; (8000cb8 <HAL_RCC_OscConfig+0x26c>)
 8000ad8:	681b      	ldr	r3, [r3, #0]
 8000ada:	4a77      	ldr	r2, [pc, #476]	; (8000cb8 <HAL_RCC_OscConfig+0x26c>)
 8000adc:	f423 2380 	bic.w	r3, r3, #262144	; 0x40000
 8000ae0:	6013      	str	r3, [r2, #0]
 8000ae2:	e01d      	b.n	8000b20 <HAL_RCC_OscConfig+0xd4>
 8000ae4:	687b      	ldr	r3, [r7, #4]
 8000ae6:	685b      	ldr	r3, [r3, #4]
 8000ae8:	f5b3 2fa0 	cmp.w	r3, #327680	; 0x50000
 8000aec:	d10c      	bne.n	8000b08 <HAL_RCC_OscConfig+0xbc>
 8000aee:	4b72      	ldr	r3, [pc, #456]	; (8000cb8 <HAL_RCC_OscConfig+0x26c>)
 8000af0:	681b      	ldr	r3, [r3, #0]
 8000af2:	4a71      	ldr	r2, [pc, #452]	; (8000cb8 <HAL_RCC_OscConfig+0x26c>)
 8000af4:	f443 2380 	orr.w	r3, r3, #262144	; 0x40000
 8000af8:	6013      	str	r3, [r2, #0]
 8000afa:	4b6f      	ldr	r3, [pc, #444]	; (8000cb8 <HAL_RCC_OscConfig+0x26c>)
 8000afc:	681b      	ldr	r3, [r3, #0]
 8000afe:	4a6e      	ldr	r2, [pc, #440]	; (8000cb8 <HAL_RCC_OscConfig+0x26c>)
 8000b00:	f443 3380 	orr.w	r3, r3, #65536	; 0x10000
 8000b04:	6013      	str	r3, [r2, #0]
 8000b06:	e00b      	b.n	8000b20 <HAL_RCC_OscConfig+0xd4>
 8000b08:	4b6b      	ldr	r3, [pc, #428]	; (8000cb8 <HAL_RCC_OscConfig+0x26c>)
 8000b0a:	681b      	ldr	r3, [r3, #0]
 8000b0c:	4a6a      	ldr	r2, [pc, #424]	; (8000cb8 <HAL_RCC_OscConfig+0x26c>)
 8000b0e:	f423 3380 	bic.w	r3, r3, #65536	; 0x10000
 8000b12:	6013      	str	r3, [r2, #0]
 8000b14:	4b68      	ldr	r3, [pc, #416]	; (8000cb8 <HAL_RCC_OscConfig+0x26c>)
 8000b16:	681b      	ldr	r3, [r3, #0]
 8000b18:	4a67      	ldr	r2, [pc, #412]	; (8000cb8 <HAL_RCC_OscConfig+0x26c>)
 8000b1a:	f423 2380 	bic.w	r3, r3, #262144	; 0x40000
 8000b1e:	6013      	str	r3, [r2, #0]


      /* Check the HSE State */
      if (RCC_OscInitStruct->HSEState != RCC_HSE_OFF)
 8000b20:	687b      	ldr	r3, [r7, #4]
 8000b22:	685b      	ldr	r3, [r3, #4]
 8000b24:	2b00      	cmp	r3, #0
 8000b26:	d013      	beq.n	8000b50 <HAL_RCC_OscConfig+0x104>
      {
        /* Get Start Tick */
        tickstart = HAL_GetTick();
 8000b28:	f7ff fce4 	bl	80004f4 <HAL_GetTick>
 8000b2c:	6138      	str	r0, [r7, #16]

        /* Wait till HSE is ready */
        while (__HAL_RCC_GET_FLAG(RCC_FLAG_HSERDY) == RESET)
 8000b2e:	e008      	b.n	8000b42 <HAL_RCC_OscConfig+0xf6>
        {
          if ((HAL_GetTick() - tickstart) > HSE_TIMEOUT_VALUE)
 8000b30:	f7ff fce0 	bl	80004f4 <HAL_GetTick>
 8000b34:	4602      	mov	r2, r0
 8000b36:	693b      	ldr	r3, [r7, #16]
 8000b38:	1ad3      	subs	r3, r2, r3
 8000b3a:	2b64      	cmp	r3, #100	; 0x64
 8000b3c:	d901      	bls.n	8000b42 <HAL_RCC_OscConfig+0xf6>
          {
            return HAL_TIMEOUT;
 8000b3e:	2303      	movs	r3, #3
 8000b40:	e200      	b.n	8000f44 <HAL_RCC_OscConfig+0x4f8>
        while (__HAL_RCC_GET_FLAG(RCC_FLAG_HSERDY) == RESET)
 8000b42:	4b5d      	ldr	r3, [pc, #372]	; (8000cb8 <HAL_RCC_OscConfig+0x26c>)
 8000b44:	681b      	ldr	r3, [r3, #0]
 8000b46:	f403 3300 	and.w	r3, r3, #131072	; 0x20000
 8000b4a:	2b00      	cmp	r3, #0
 8000b4c:	d0f0      	beq.n	8000b30 <HAL_RCC_OscConfig+0xe4>
 8000b4e:	e014      	b.n	8000b7a <HAL_RCC_OscConfig+0x12e>
        }
      }
      else
      {
        /* Get Start Tick */
        tickstart = HAL_GetTick();
 8000b50:	f7ff fcd0 	bl	80004f4 <HAL_GetTick>
 8000b54:	6138      	str	r0, [r7, #16]

        /* Wait till HSE is disabled */
        while (__HAL_RCC_GET_FLAG(RCC_FLAG_HSERDY) != RESET)
 8000b56:	e008      	b.n	8000b6a <HAL_RCC_OscConfig+0x11e>
        {
          if ((HAL_GetTick() - tickstart) > HSE_TIMEOUT_VALUE)
 8000b58:	f7ff fccc 	bl	80004f4 <HAL_GetTick>
 8000b5c:	4602      	mov	r2, r0
 8000b5e:	693b      	ldr	r3, [r7, #16]
 8000b60:	1ad3      	subs	r3, r2, r3
 8000b62:	2b64      	cmp	r3, #100	; 0x64
 8000b64:	d901      	bls.n	8000b6a <HAL_RCC_OscConfig+0x11e>
          {
            return HAL_TIMEOUT;
 8000b66:	2303      	movs	r3, #3
 8000b68:	e1ec      	b.n	8000f44 <HAL_RCC_OscConfig+0x4f8>
        while (__HAL_RCC_GET_FLAG(RCC_FLAG_HSERDY) != RESET)
 8000b6a:	4b53      	ldr	r3, [pc, #332]	; (8000cb8 <HAL_RCC_OscConfig+0x26c>)
 8000b6c:	681b      	ldr	r3, [r3, #0]
 8000b6e:	f403 3300 	and.w	r3, r3, #131072	; 0x20000
 8000b72:	2b00      	cmp	r3, #0
 8000b74:	d1f0      	bne.n	8000b58 <HAL_RCC_OscConfig+0x10c>
 8000b76:	e000      	b.n	8000b7a <HAL_RCC_OscConfig+0x12e>
      if ((__HAL_RCC_GET_FLAG(RCC_FLAG_HSERDY) != RESET) && (RCC_OscInitStruct->HSEState == RCC_HSE_OFF))
 8000b78:	bf00      	nop
        }
      }
    }
  }
  /*----------------------------- HSI Configuration --------------------------*/
  if (((RCC_OscInitStruct->OscillatorType) & RCC_OSCILLATORTYPE_HSI) == RCC_OSCILLATORTYPE_HSI)
 8000b7a:	687b      	ldr	r3, [r7, #4]
 8000b7c:	681b      	ldr	r3, [r3, #0]
 8000b7e:	f003 0302 	and.w	r3, r3, #2
 8000b82:	2b00      	cmp	r3, #0
 8000b84:	d063      	beq.n	8000c4e <HAL_RCC_OscConfig+0x202>
    /* Check the parameters */
    assert_param(IS_RCC_HSI(RCC_OscInitStruct->HSIState));
    assert_param(IS_RCC_CALIBRATION_VALUE(RCC_OscInitStruct->HSICalibrationValue));

    /* Check if HSI is used as system clock or as PLL source when PLL is selected as system clock */
    if ((__HAL_RCC_GET_SYSCLK_SOURCE() == RCC_SYSCLKSOURCE_STATUS_HSI)
 8000b86:	4b4c      	ldr	r3, [pc, #304]	; (8000cb8 <HAL_RCC_OscConfig+0x26c>)
 8000b88:	685b      	ldr	r3, [r3, #4]
 8000b8a:	f003 030c 	and.w	r3, r3, #12
 8000b8e:	2b00      	cmp	r3, #0
 8000b90:	d00b      	beq.n	8000baa <HAL_RCC_OscConfig+0x15e>
        || ((__HAL_RCC_GET_SYSCLK_SOURCE() == RCC_SYSCLKSOURCE_STATUS_PLLCLK) && (__HAL_RCC_GET_PLL_OSCSOURCE() == RCC_PLLSOURCE_HSI_DIV2)))
 8000b92:	4b49      	ldr	r3, [pc, #292]	; (8000cb8 <HAL_RCC_OscConfig+0x26c>)
 8000b94:	685b      	ldr	r3, [r3, #4]
 8000b96:	f003 030c 	and.w	r3, r3, #12
 8000b9a:	2b08      	cmp	r3, #8
 8000b9c:	d11c      	bne.n	8000bd8 <HAL_RCC_OscConfig+0x18c>
 8000b9e:	4b46      	ldr	r3, [pc, #280]	; (8000cb8 <HAL_RCC_OscConfig+0x26c>)
 8000ba0:	685b      	ldr	r3, [r3, #4]
 8000ba2:	f403 3380 	and.w	r3, r3, #65536	; 0x10000
 8000ba6:	2b00      	cmp	r3, #0
 8000ba8:	d116      	bne.n	8000bd8 <HAL_RCC_OscConfig+0x18c>
    {
      /* When HSI is used as system clock it will not disabled */
      if ((__HAL_RCC_GET_FLAG(RCC_FLAG_HSIRDY) != RESET) && (RCC_OscInitStruct->HSIState != RCC_HSI_ON))
 8000baa:	4b43      	ldr	r3, [pc, #268]	; (8000cb8 <HAL_RCC_OscConfig+0x26c>)
 8000bac:	681b      	ldr	r3, [r3, #0]
 8000bae:	f003 0302 	and.w	r3, r3, #2
 8000bb2:	2b00      	cmp	r3, #0
 8000bb4:	d005      	beq.n	8000bc2 <HAL_RCC_OscConfig+0x176>
 8000bb6:	687b      	ldr	r3, [r7, #4]
 8000bb8:	691b      	ldr	r3, [r3, #16]
 8000bba:	2b01      	cmp	r3, #1
 8000bbc:	d001      	beq.n	8000bc2 <HAL_RCC_OscConfig+0x176>
      {
        return HAL_ERROR;
 8000bbe:	2301      	movs	r3, #1
 8000bc0:	e1c0      	b.n	8000f44 <HAL_RCC_OscConfig+0x4f8>
      }
      /* Otherwise, just the calibration is allowed */
      else
      {
        /* Adjusts the Internal High Speed oscillator (HSI) calibration value.*/
        __HAL_RCC_HSI_CALIBRATIONVALUE_ADJUST(RCC_OscInitStruct->HSICalibrationValue);
 8000bc2:	4b3d      	ldr	r3, [pc, #244]	; (8000cb8 <HAL_RCC_OscConfig+0x26c>)
 8000bc4:	681b      	ldr	r3, [r3, #0]
 8000bc6:	f023 02f8 	bic.w	r2, r3, #248	; 0xf8
 8000bca:	687b      	ldr	r3, [r7, #4]
 8000bcc:	695b      	ldr	r3, [r3, #20]
 8000bce:	00db      	lsls	r3, r3, #3
 8000bd0:	4939      	ldr	r1, [pc, #228]	; (8000cb8 <HAL_RCC_OscConfig+0x26c>)
 8000bd2:	4313      	orrs	r3, r2
 8000bd4:	600b      	str	r3, [r1, #0]
      if ((__HAL_RCC_GET_FLAG(RCC_FLAG_HSIRDY) != RESET) && (RCC_OscInitStruct->HSIState != RCC_HSI_ON))
 8000bd6:	e03a      	b.n	8000c4e <HAL_RCC_OscConfig+0x202>
      }
    }
    else
    {
      /* Check the HSI State */
      if (RCC_OscInitStruct->HSIState != RCC_HSI_OFF)
 8000bd8:	687b      	ldr	r3, [r7, #4]
 8000bda:	691b      	ldr	r3, [r3, #16]
 8000bdc:	2b00      	cmp	r3, #0
 8000bde:	d020      	beq.n	8000c22 <HAL_RCC_OscConfig+0x1d6>
      {
        /* Enable the Internal High Speed oscillator (HSI). */
        __HAL_RCC_HSI_ENABLE();
 8000be0:	4b36      	ldr	r3, [pc, #216]	; (8000cbc <HAL_RCC_OscConfig+0x270>)
 8000be2:	2201      	movs	r2, #1
 8000be4:	601a      	str	r2, [r3, #0]

        /* Get Start Tick */
        tickstart = HAL_GetTick();
 8000be6:	f7ff fc85 	bl	80004f4 <HAL_GetTick>
 8000bea:	6138      	str	r0, [r7, #16]

        /* Wait till HSI is ready */
        while (__HAL_RCC_GET_FLAG(RCC_FLAG_HSIRDY) == RESET)
 8000bec:	e008      	b.n	8000c00 <HAL_RCC_OscConfig+0x1b4>
        {
          if ((HAL_GetTick() - tickstart) > HSI_TIMEOUT_VALUE)
 8000bee:	f7ff fc81 	bl	80004f4 <HAL_GetTick>
 8000bf2:	4602      	mov	r2, r0
 8000bf4:	693b      	ldr	r3, [r7, #16]
 8000bf6:	1ad3      	subs	r3, r2, r3
 8000bf8:	2b02      	cmp	r3, #2
 8000bfa:	d901      	bls.n	8000c00 <HAL_RCC_OscConfig+0x1b4>
          {
            return HAL_TIMEOUT;
 8000bfc:	2303      	movs	r3, #3
 8000bfe:	e1a1      	b.n	8000f44 <HAL_RCC_OscConfig+0x4f8>
        while (__HAL_RCC_GET_FLAG(RCC_FLAG_HSIRDY) == RESET)
 8000c00:	4b2d      	ldr	r3, [pc, #180]	; (8000cb8 <HAL_RCC_OscConfig+0x26c>)
 8000c02:	681b      	ldr	r3, [r3, #0]
 8000c04:	f003 0302 	and.w	r3, r3, #2
 8000c08:	2b00      	cmp	r3, #0
 8000c0a:	d0f0      	beq.n	8000bee <HAL_RCC_OscConfig+0x1a2>
          }
        }

        /* Adjusts the Internal High Speed oscillator (HSI) calibration value.*/
        __HAL_RCC_HSI_CALIBRATIONVALUE_ADJUST(RCC_OscInitStruct->HSICalibrationValue);
 8000c0c:	4b2a      	ldr	r3, [pc, #168]	; (8000cb8 <HAL_RCC_OscConfig+0x26c>)
 8000c0e:	681b      	ldr	r3, [r3, #0]
 8000c10:	f023 02f8 	bic.w	r2, r3, #248	; 0xf8
 8000c14:	687b      	ldr	r3, [r7, #4]
 8000c16:	695b      	ldr	r3, [r3, #20]
 8000c18:	00db      	lsls	r3, r3, #3
 8000c1a:	4927      	ldr	r1, [pc, #156]	; (8000cb8 <HAL_RCC_OscConfig+0x26c>)
 8000c1c:	4313      	orrs	r3, r2
 8000c1e:	600b      	str	r3, [r1, #0]
 8000c20:	e015      	b.n	8000c4e <HAL_RCC_OscConfig+0x202>
      }
      else
      {
        /* Disable the Internal High Speed oscillator (HSI). */
        __HAL_RCC_HSI_DISABLE();
 8000c22:	4b26      	ldr	r3, [pc, #152]	; (8000cbc <HAL_RCC_OscConfig+0x270>)
 8000c24:	2200      	movs	r2, #0
 8000c26:	601a      	str	r2, [r3, #0]

        /* Get Start Tick */
        tickstart = HAL_GetTick();
 8000c28:	f7ff fc64 	bl	80004f4 <HAL_GetTick>
 8000c2c:	6138      	str	r0, [r7, #16]

        /* Wait till HSI is disabled */
        while (__HAL_RCC_GET_FLAG(RCC_FLAG_HSIRDY) != RESET)
 8000c2e:	e008      	b.n	8000c42 <HAL_RCC_OscConfig+0x1f6>
        {
          if ((HAL_GetTick() - tickstart) > HSI_TIMEOUT_VALUE)
 8000c30:	f7ff fc60 	bl	80004f4 <HAL_GetTick>
 8000c34:	4602      	mov	r2, r0
 8000c36:	693b      	ldr	r3, [r7, #16]
 8000c38:	1ad3      	subs	r3, r2, r3
 8000c3a:	2b02      	cmp	r3, #2
 8000c3c:	d901      	bls.n	8000c42 <HAL_RCC_OscConfig+0x1f6>
          {
            return HAL_TIMEOUT;
 8000c3e:	2303      	movs	r3, #3
 8000c40:	e180      	b.n	8000f44 <HAL_RCC_OscConfig+0x4f8>
        while (__HAL_RCC_GET_FLAG(RCC_FLAG_HSIRDY) != RESET)
 8000c42:	4b1d      	ldr	r3, [pc, #116]	; (8000cb8 <HAL_RCC_OscConfig+0x26c>)
 8000c44:	681b      	ldr	r3, [r3, #0]
 8000c46:	f003 0302 	and.w	r3, r3, #2
 8000c4a:	2b00      	cmp	r3, #0
 8000c4c:	d1f0      	bne.n	8000c30 <HAL_RCC_OscConfig+0x1e4>
        }
      }
    }
  }
  /*------------------------------ LSI Configuration -------------------------*/
  if (((RCC_OscInitStruct->OscillatorType) & RCC_OSCILLATORTYPE_LSI) == RCC_OSCILLATORTYPE_LSI)
 8000c4e:	687b      	ldr	r3, [r7, #4]
 8000c50:	681b      	ldr	r3, [r3, #0]
 8000c52:	f003 0308 	and.w	r3, r3, #8
 8000c56:	2b00      	cmp	r3, #0
 8000c58:	d03a      	beq.n	8000cd0 <HAL_RCC_OscConfig+0x284>
  {
    /* Check the parameters */
    assert_param(IS_RCC_LSI(RCC_OscInitStruct->LSIState));

    /* Check the LSI State */
    if (RCC_OscInitStruct->LSIState != RCC_LSI_OFF)
 8000c5a:	687b      	ldr	r3, [r7, #4]
 8000c5c:	699b      	ldr	r3, [r3, #24]
 8000c5e:	2b00      	cmp	r3, #0
 8000c60:	d019      	beq.n	8000c96 <HAL_RCC_OscConfig+0x24a>
    {
      /* Enable the Internal Low Speed oscillator (LSI). */
      __HAL_RCC_LSI_ENABLE();
 8000c62:	4b17      	ldr	r3, [pc, #92]	; (8000cc0 <HAL_RCC_OscConfig+0x274>)
 8000c64:	2201      	movs	r2, #1
 8000c66:	601a      	str	r2, [r3, #0]

      /* Get Start Tick */
      tickstart = HAL_GetTick();
 8000c68:	f7ff fc44 	bl	80004f4 <HAL_GetTick>
 8000c6c:	6138      	str	r0, [r7, #16]

      /* Wait till LSI is ready */
      while (__HAL_RCC_GET_FLAG(RCC_FLAG_LSIRDY) == RESET)
 8000c6e:	e008      	b.n	8000c82 <HAL_RCC_OscConfig+0x236>
      {
        if ((HAL_GetTick() - tickstart) > LSI_TIMEOUT_VALUE)
 8000c70:	f7ff fc40 	bl	80004f4 <HAL_GetTick>
 8000c74:	4602      	mov	r2, r0
 8000c76:	693b      	ldr	r3, [r7, #16]
 8000c78:	1ad3      	subs	r3, r2, r3
 8000c7a:	2b02      	cmp	r3, #2
 8000c7c:	d901      	bls.n	8000c82 <HAL_RCC_OscConfig+0x236>
        {
          return HAL_TIMEOUT;
 8000c7e:	2303      	movs	r3, #3
 8000c80:	e160      	b.n	8000f44 <HAL_RCC_OscConfig+0x4f8>
      while (__HAL_RCC_GET_FLAG(RCC_FLAG_LSIRDY) == RESET)
 8000c82:	4b0d      	ldr	r3, [pc, #52]	; (8000cb8 <HAL_RCC_OscConfig+0x26c>)
 8000c84:	6a5b      	ldr	r3, [r3, #36]	; 0x24
 8000c86:	f003 0302 	and.w	r3, r3, #2
 8000c8a:	2b00      	cmp	r3, #0
 8000c8c:	d0f0      	beq.n	8000c70 <HAL_RCC_OscConfig+0x224>
        }
      }
      /*  To have a fully stabilized clock in the specified range, a software delay of 1ms
          should be added.*/
      RCC_Delay(1);
 8000c8e:	2001      	movs	r0, #1
 8000c90:	f000 fa9c 	bl	80011cc <RCC_Delay>
 8000c94:	e01c      	b.n	8000cd0 <HAL_RCC_OscConfig+0x284>
    }
    else
    {
      /* Disable the Internal Low Speed oscillator (LSI). */
      __HAL_RCC_LSI_DISABLE();
 8000c96:	4b0a      	ldr	r3, [pc, #40]	; (8000cc0 <HAL_RCC_OscConfig+0x274>)
 8000c98:	2200      	movs	r2, #0
 8000c9a:	601a      	str	r2, [r3, #0]

      /* Get Start Tick */
      tickstart = HAL_GetTick();
 8000c9c:	f7ff fc2a 	bl	80004f4 <HAL_GetTick>
 8000ca0:	6138      	str	r0, [r7, #16]

      /* Wait till LSI is disabled */
      while (__HAL_RCC_GET_FLAG(RCC_FLAG_LSIRDY) != RESET)
 8000ca2:	e00f      	b.n	8000cc4 <HAL_RCC_OscConfig+0x278>
      {
        if ((HAL_GetTick() - tickstart) > LSI_TIMEOUT_VALUE)
 8000ca4:	f7ff fc26 	bl	80004f4 <HAL_GetTick>
 8000ca8:	4602      	mov	r2, r0
 8000caa:	693b      	ldr	r3, [r7, #16]
 8000cac:	1ad3      	subs	r3, r2, r3
 8000cae:	2b02      	cmp	r3, #2
 8000cb0:	d908      	bls.n	8000cc4 <HAL_RCC_OscConfig+0x278>
        {
          return HAL_TIMEOUT;
 8000cb2:	2303      	movs	r3, #3
 8000cb4:	e146      	b.n	8000f44 <HAL_RCC_OscConfig+0x4f8>
 8000cb6:	bf00      	nop
 8000cb8:	40021000 	.word	0x40021000
 8000cbc:	42420000 	.word	0x42420000
 8000cc0:	42420480 	.word	0x42420480
      while (__HAL_RCC_GET_FLAG(RCC_FLAG_LSIRDY) != RESET)
 8000cc4:	4b92      	ldr	r3, [pc, #584]	; (8000f10 <HAL_RCC_OscConfig+0x4c4>)
 8000cc6:	6a5b      	ldr	r3, [r3, #36]	; 0x24
 8000cc8:	f003 0302 	and.w	r3, r3, #2
 8000ccc:	2b00      	cmp	r3, #0
 8000cce:	d1e9      	bne.n	8000ca4 <HAL_RCC_OscConfig+0x258>
        }
      }
    }
  }
  /*------------------------------ LSE Configuration -------------------------*/
  if (((RCC_OscInitStruct->OscillatorType) & RCC_OSCILLATORTYPE_LSE) == RCC_OSCILLATORTYPE_LSE)
 8000cd0:	687b      	ldr	r3, [r7, #4]
 8000cd2:	681b      	ldr	r3, [r3, #0]
 8000cd4:	f003 0304 	and.w	r3, r3, #4
 8000cd8:	2b00      	cmp	r3, #0
 8000cda:	f000 80a6 	beq.w	8000e2a <HAL_RCC_OscConfig+0x3de>
  {
    FlagStatus       pwrclkchanged = RESET;
 8000cde:	2300      	movs	r3, #0
 8000ce0:	75fb      	strb	r3, [r7, #23]
    /* Check the parameters */
    assert_param(IS_RCC_LSE(RCC_OscInitStruct->LSEState));

    /* Update LSE configuration in Backup Domain control register    */
    /* Requires to enable write access to Backup Domain of necessary */
    if (__HAL_RCC_PWR_IS_CLK_DISABLED())
 8000ce2:	4b8b      	ldr	r3, [pc, #556]	; (8000f10 <HAL_RCC_OscConfig+0x4c4>)
 8000ce4:	69db      	ldr	r3, [r3, #28]
 8000ce6:	f003 5380 	and.w	r3, r3, #268435456	; 0x10000000
 8000cea:	2b00      	cmp	r3, #0
 8000cec:	d10d      	bne.n	8000d0a <HAL_RCC_OscConfig+0x2be>
    {
      __HAL_RCC_PWR_CLK_ENABLE();
 8000cee:	4b88      	ldr	r3, [pc, #544]	; (8000f10 <HAL_RCC_OscConfig+0x4c4>)
 8000cf0:	69db      	ldr	r3, [r3, #28]
 8000cf2:	4a87      	ldr	r2, [pc, #540]	; (8000f10 <HAL_RCC_OscConfig+0x4c4>)
 8000cf4:	f043 5380 	orr.w	r3, r3, #268435456	; 0x10000000
 8000cf8:	61d3      	str	r3, [r2, #28]
 8000cfa:	4b85      	ldr	r3, [pc, #532]	; (8000f10 <HAL_RCC_OscConfig+0x4c4>)
 8000cfc:	69db      	ldr	r3, [r3, #28]
 8000cfe:	f003 5380 	and.w	r3, r3, #268435456	; 0x10000000
 8000d02:	60bb      	str	r3, [r7, #8]
 8000d04:	68bb      	ldr	r3, [r7, #8]
      pwrclkchanged = SET;
 8000d06:	2301      	movs	r3, #1
 8000d08:	75fb      	strb	r3, [r7, #23]
    }

    if (HAL_IS_BIT_CLR(PWR->CR, PWR_CR_DBP))
 8000d0a:	4b82      	ldr	r3, [pc, #520]	; (8000f14 <HAL_RCC_OscConfig+0x4c8>)
 8000d0c:	681b      	ldr	r3, [r3, #0]
 8000d0e:	f403 7380 	and.w	r3, r3, #256	; 0x100
 8000d12:	2b00      	cmp	r3, #0
 8000d14:	d118      	bne.n	8000d48 <HAL_RCC_OscConfig+0x2fc>
    {
      /* Enable write access to Backup domain */
      SET_BIT(PWR->CR, PWR_CR_DBP);
 8000d16:	4b7f      	ldr	r3, [pc, #508]	; (8000f14 <HAL_RCC_OscConfig+0x4c8>)
 8000d18:	681b      	ldr	r3, [r3, #0]
 8000d1a:	4a7e      	ldr	r2, [pc, #504]	; (8000f14 <HAL_RCC_OscConfig+0x4c8>)
 8000d1c:	f443 7380 	orr.w	r3, r3, #256	; 0x100
 8000d20:	6013      	str	r3, [r2, #0]

      /* Wait for Backup domain Write protection disable */
      tickstart = HAL_GetTick();
 8000d22:	f7ff fbe7 	bl	80004f4 <HAL_GetTick>
 8000d26:	6138      	str	r0, [r7, #16]

      while (HAL_IS_BIT_CLR(PWR->CR, PWR_CR_DBP))
 8000d28:	e008      	b.n	8000d3c <HAL_RCC_OscConfig+0x2f0>
      {
        if ((HAL_GetTick() - tickstart) > RCC_DBP_TIMEOUT_VALUE)
 8000d2a:	f7ff fbe3 	bl	80004f4 <HAL_GetTick>
 8000d2e:	4602      	mov	r2, r0
 8000d30:	693b      	ldr	r3, [r7, #16]
 8000d32:	1ad3      	subs	r3, r2, r3
 8000d34:	2b64      	cmp	r3, #100	; 0x64
 8000d36:	d901      	bls.n	8000d3c <HAL_RCC_OscConfig+0x2f0>
        {
          return HAL_TIMEOUT;
 8000d38:	2303      	movs	r3, #3
 8000d3a:	e103      	b.n	8000f44 <HAL_RCC_OscConfig+0x4f8>
      while (HAL_IS_BIT_CLR(PWR->CR, PWR_CR_DBP))
 8000d3c:	4b75      	ldr	r3, [pc, #468]	; (8000f14 <HAL_RCC_OscConfig+0x4c8>)
 8000d3e:	681b      	ldr	r3, [r3, #0]
 8000d40:	f403 7380 	and.w	r3, r3, #256	; 0x100
 8000d44:	2b00      	cmp	r3, #0
 8000d46:	d0f0      	beq.n	8000d2a <HAL_RCC_OscConfig+0x2de>
        }
      }
    }

    /* Set the new LSE configuration -----------------------------------------*/
    __HAL_RCC_LSE_CONFIG(RCC_OscInitStruct->LSEState);
 8000d48:	687b      	ldr	r3, [r7, #4]
 8000d4a:	68db      	ldr	r3, [r3, #12]
 8000d4c:	2b01      	cmp	r3, #1
 8000d4e:	d106      	bne.n	8000d5e <HAL_RCC_OscConfig+0x312>
 8000d50:	4b6f      	ldr	r3, [pc, #444]	; (8000f10 <HAL_RCC_OscConfig+0x4c4>)
 8000d52:	6a1b      	ldr	r3, [r3, #32]
 8000d54:	4a6e      	ldr	r2, [pc, #440]	; (8000f10 <HAL_RCC_OscConfig+0x4c4>)
 8000d56:	f043 0301 	orr.w	r3, r3, #1
 8000d5a:	6213      	str	r3, [r2, #32]
 8000d5c:	e02d      	b.n	8000dba <HAL_RCC_OscConfig+0x36e>
 8000d5e:	687b      	ldr	r3, [r7, #4]
 8000d60:	68db      	ldr	r3, [r3, #12]
 8000d62:	2b00      	cmp	r3, #0
 8000d64:	d10c      	bne.n	8000d80 <HAL_RCC_OscConfig+0x334>
 8000d66:	4b6a      	ldr	r3, [pc, #424]	; (8000f10 <HAL_RCC_OscConfig+0x4c4>)
 8000d68:	6a1b      	ldr	r3, [r3, #32]
 8000d6a:	4a69      	ldr	r2, [pc, #420]	; (8000f10 <HAL_RCC_OscConfig+0x4c4>)
 8000d6c:	f023 0301 	bic.w	r3, r3, #1
 8000d70:	6213      	str	r3, [r2, #32]
 8000d72:	4b67      	ldr	r3, [pc, #412]	; (8000f10 <HAL_RCC_OscConfig+0x4c4>)
 8000d74:	6a1b      	ldr	r3, [r3, #32]
 8000d76:	4a66      	ldr	r2, [pc, #408]	; (8000f10 <HAL_RCC_OscConfig+0x4c4>)
 8000d78:	f023 0304 	bic.w	r3, r3, #4
 8000d7c:	6213      	str	r3, [r2, #32]
 8000d7e:	e01c      	b.n	8000dba <HAL_RCC_OscConfig+0x36e>
 8000d80:	687b      	ldr	r3, [r7, #4]
 8000d82:	68db      	ldr	r3, [r3, #12]
 8000d84:	2b05      	cmp	r3, #5
 8000d86:	d10c      	bne.n	8000da2 <HAL_RCC_OscConfig+0x356>
 8000d88:	4b61      	ldr	r3, [pc, #388]	; (8000f10 <HAL_RCC_OscConfig+0x4c4>)
 8000d8a:	6a1b      	ldr	r3, [r3, #32]
 8000d8c:	4a60      	ldr	r2, [pc, #384]	; (8000f10 <HAL_RCC_OscConfig+0x4c4>)
 8000d8e:	f043 0304 	orr.w	r3, r3, #4
 8000d92:	6213      	str	r3, [r2, #32]
 8000d94:	4b5e      	ldr	r3, [pc, #376]	; (8000f10 <HAL_RCC_OscConfig+0x4c4>)
 8000d96:	6a1b      	ldr	r3, [r3, #32]
 8000d98:	4a5d      	ldr	r2, [pc, #372]	; (8000f10 <HAL_RCC_OscConfig+0x4c4>)
 8000d9a:	f043 0301 	orr.w	r3, r3, #1
 8000d9e:	6213      	str	r3, [r2, #32]
 8000da0:	e00b      	b.n	8000dba <HAL_RCC_OscConfig+0x36e>
 8000da2:	4b5b      	ldr	r3, [pc, #364]	; (8000f10 <HAL_RCC_OscConfig+0x4c4>)
 8000da4:	6a1b      	ldr	r3, [r3, #32]
 8000da6:	4a5a      	ldr	r2, [pc, #360]	; (8000f10 <HAL_RCC_OscConfig+0x4c4>)
 8000da8:	f023 0301 	bic.w	r3, r3, #1
 8000dac:	6213      	str	r3, [r2, #32]
 8000dae:	4b58      	ldr	r3, [pc, #352]	; (8000f10 <HAL_RCC_OscConfig+0x4c4>)
 8000db0:	6a1b      	ldr	r3, [r3, #32]
 8000db2:	4a57      	ldr	r2, [pc, #348]	; (8000f10 <HAL_RCC_OscConfig+0x4c4>)
 8000db4:	f023 0304 	bic.w	r3, r3, #4
 8000db8:	6213      	str	r3, [r2, #32]
    /* Check the LSE State */
    if (RCC_OscInitStruct->LSEState != RCC_LSE_OFF)
 8000dba:	687b      	ldr	r3, [r7, #4]
 8000dbc:	68db      	ldr	r3, [r3, #12]
 8000dbe:	2b00      	cmp	r3, #0
 8000dc0:	d015      	beq.n	8000dee <HAL_RCC_OscConfig+0x3a2>
    {
      /* Get Start Tick */
      tickstart = HAL_GetTick();
 8000dc2:	f7ff fb97 	bl	80004f4 <HAL_GetTick>
 8000dc6:	6138      	str	r0, [r7, #16]

      /* Wait till LSE is ready */
      while (__HAL_RCC_GET_FLAG(RCC_FLAG_LSERDY) == RESET)
 8000dc8:	e00a      	b.n	8000de0 <HAL_RCC_OscConfig+0x394>
      {
        if ((HAL_GetTick() - tickstart) > RCC_LSE_TIMEOUT_VALUE)
 8000dca:	f7ff fb93 	bl	80004f4 <HAL_GetTick>
 8000dce:	4602      	mov	r2, r0
 8000dd0:	693b      	ldr	r3, [r7, #16]
 8000dd2:	1ad3      	subs	r3, r2, r3
 8000dd4:	f241 3288 	movw	r2, #5000	; 0x1388
 8000dd8:	4293      	cmp	r3, r2
 8000dda:	d901      	bls.n	8000de0 <HAL_RCC_OscConfig+0x394>
        {
          return HAL_TIMEOUT;
 8000ddc:	2303      	movs	r3, #3
 8000dde:	e0b1      	b.n	8000f44 <HAL_RCC_OscConfig+0x4f8>
      while (__HAL_RCC_GET_FLAG(RCC_FLAG_LSERDY) == RESET)
 8000de0:	4b4b      	ldr	r3, [pc, #300]	; (8000f10 <HAL_RCC_OscConfig+0x4c4>)
 8000de2:	6a1b      	ldr	r3, [r3, #32]
 8000de4:	f003 0302 	and.w	r3, r3, #2
 8000de8:	2b00      	cmp	r3, #0
 8000dea:	d0ee      	beq.n	8000dca <HAL_RCC_OscConfig+0x37e>
 8000dec:	e014      	b.n	8000e18 <HAL_RCC_OscConfig+0x3cc>
      }
    }
    else
    {
      /* Get Start Tick */
      tickstart = HAL_GetTick();
 8000dee:	f7ff fb81 	bl	80004f4 <HAL_GetTick>
 8000df2:	6138      	str	r0, [r7, #16]

      /* Wait till LSE is disabled */
      while (__HAL_RCC_GET_FLAG(RCC_FLAG_LSERDY) != RESET)
 8000df4:	e00a      	b.n	8000e0c <HAL_RCC_OscConfig+0x3c0>
      {
        if ((HAL_GetTick() - tickstart) > RCC_LSE_TIMEOUT_VALUE)
 8000df6:	f7ff fb7d 	bl	80004f4 <HAL_GetTick>
 8000dfa:	4602      	mov	r2, r0
 8000dfc:	693b      	ldr	r3, [r7, #16]
 8000dfe:	1ad3      	subs	r3, r2, r3
 8000e00:	f241 3288 	movw	r2, #5000	; 0x1388
 8000e04:	4293      	cmp	r3, r2
 8000e06:	d901      	bls.n	8000e0c <HAL_RCC_OscConfig+0x3c0>
        {
          return HAL_TIMEOUT;
 8000e08:	2303      	movs	r3, #3
 8000e0a:	e09b      	b.n	8000f44 <HAL_RCC_OscConfig+0x4f8>
      while (__HAL_RCC_GET_FLAG(RCC_FLAG_LSERDY) != RESET)
 8000e0c:	4b40      	ldr	r3, [pc, #256]	; (8000f10 <HAL_RCC_OscConfig+0x4c4>)
 8000e0e:	6a1b      	ldr	r3, [r3, #32]
 8000e10:	f003 0302 	and.w	r3, r3, #2
 8000e14:	2b00      	cmp	r3, #0
 8000e16:	d1ee      	bne.n	8000df6 <HAL_RCC_OscConfig+0x3aa>
        }
      }
    }

    /* Require to disable power clock if necessary */
    if (pwrclkchanged == SET)
 8000e18:	7dfb      	ldrb	r3, [r7, #23]
 8000e1a:	2b01      	cmp	r3, #1
 8000e1c:	d105      	bne.n	8000e2a <HAL_RCC_OscConfig+0x3de>
    {
      __HAL_RCC_PWR_CLK_DISABLE();
 8000e1e:	4b3c      	ldr	r3, [pc, #240]	; (8000f10 <HAL_RCC_OscConfig+0x4c4>)
 8000e20:	69db      	ldr	r3, [r3, #28]
 8000e22:	4a3b      	ldr	r2, [pc, #236]	; (8000f10 <HAL_RCC_OscConfig+0x4c4>)
 8000e24:	f023 5380 	bic.w	r3, r3, #268435456	; 0x10000000
 8000e28:	61d3      	str	r3, [r2, #28]

#endif /* RCC_CR_PLL2ON */
  /*-------------------------------- PLL Configuration -----------------------*/
  /* Check the parameters */
  assert_param(IS_RCC_PLL(RCC_OscInitStruct->PLL.PLLState));
  if ((RCC_OscInitStruct->PLL.PLLState) != RCC_PLL_NONE)
 8000e2a:	687b      	ldr	r3, [r7, #4]
 8000e2c:	69db      	ldr	r3, [r3, #28]
 8000e2e:	2b00      	cmp	r3, #0
 8000e30:	f000 8087 	beq.w	8000f42 <HAL_RCC_OscConfig+0x4f6>
  {
    /* Check if the PLL is used as system clock or not */
    if (__HAL_RCC_GET_SYSCLK_SOURCE() != RCC_SYSCLKSOURCE_STATUS_PLLCLK)
 8000e34:	4b36      	ldr	r3, [pc, #216]	; (8000f10 <HAL_RCC_OscConfig+0x4c4>)
 8000e36:	685b      	ldr	r3, [r3, #4]
 8000e38:	f003 030c 	and.w	r3, r3, #12
 8000e3c:	2b08      	cmp	r3, #8
 8000e3e:	d061      	beq.n	8000f04 <HAL_RCC_OscConfig+0x4b8>
    {
      if ((RCC_OscInitStruct->PLL.PLLState) == RCC_PLL_ON)
 8000e40:	687b      	ldr	r3, [r7, #4]
 8000e42:	69db      	ldr	r3, [r3, #28]
 8000e44:	2b02      	cmp	r3, #2
 8000e46:	d146      	bne.n	8000ed6 <HAL_RCC_OscConfig+0x48a>
        /* Check the parameters */
        assert_param(IS_RCC_PLLSOURCE(RCC_OscInitStruct->PLL.PLLSource));
        assert_param(IS_RCC_PLL_MUL(RCC_OscInitStruct->PLL.PLLMUL));

        /* Disable the main PLL. */
        __HAL_RCC_PLL_DISABLE();
 8000e48:	4b33      	ldr	r3, [pc, #204]	; (8000f18 <HAL_RCC_OscConfig+0x4cc>)
 8000e4a:	2200      	movs	r2, #0
 8000e4c:	601a      	str	r2, [r3, #0]

        /* Get Start Tick */
        tickstart = HAL_GetTick();
 8000e4e:	f7ff fb51 	bl	80004f4 <HAL_GetTick>
 8000e52:	6138      	str	r0, [r7, #16]

        /* Wait till PLL is disabled */
        while (__HAL_RCC_GET_FLAG(RCC_FLAG_PLLRDY)  != RESET)
 8000e54:	e008      	b.n	8000e68 <HAL_RCC_OscConfig+0x41c>
        {
          if ((HAL_GetTick() - tickstart) > PLL_TIMEOUT_VALUE)
 8000e56:	f7ff fb4d 	bl	80004f4 <HAL_GetTick>
 8000e5a:	4602      	mov	r2, r0
 8000e5c:	693b      	ldr	r3, [r7, #16]
 8000e5e:	1ad3      	subs	r3, r2, r3
 8000e60:	2b02      	cmp	r3, #2
 8000e62:	d901      	bls.n	8000e68 <HAL_RCC_OscConfig+0x41c>
          {
            return HAL_TIMEOUT;
 8000e64:	2303      	movs	r3, #3
 8000e66:	e06d      	b.n	8000f44 <HAL_RCC_OscConfig+0x4f8>
        while (__HAL_RCC_GET_FLAG(RCC_FLAG_PLLRDY)  != RESET)
 8000e68:	4b29      	ldr	r3, [pc, #164]	; (8000f10 <HAL_RCC_OscConfig+0x4c4>)
 8000e6a:	681b      	ldr	r3, [r3, #0]
 8000e6c:	f003 7300 	and.w	r3, r3, #33554432	; 0x2000000
 8000e70:	2b00      	cmp	r3, #0
 8000e72:	d1f0      	bne.n	8000e56 <HAL_RCC_OscConfig+0x40a>
          }
        }

        /* Configure the HSE prediv factor --------------------------------*/
        /* It can be written only when the PLL is disabled. Not used in PLL source is different than HSE */
        if (RCC_OscInitStruct->PLL.PLLSource == RCC_PLLSOURCE_HSE)
 8000e74:	687b      	ldr	r3, [r7, #4]
 8000e76:	6a1b      	ldr	r3, [r3, #32]
 8000e78:	f5b3 3f80 	cmp.w	r3, #65536	; 0x10000
 8000e7c:	d108      	bne.n	8000e90 <HAL_RCC_OscConfig+0x444>
          /* Set PREDIV1 source */
          SET_BIT(RCC->CFGR2, RCC_OscInitStruct->Prediv1Source);
#endif /* RCC_CFGR2_PREDIV1SRC */

          /* Set PREDIV1 Value */
          __HAL_RCC_HSE_PREDIV_CONFIG(RCC_OscInitStruct->HSEPredivValue);
 8000e7e:	4b24      	ldr	r3, [pc, #144]	; (8000f10 <HAL_RCC_OscConfig+0x4c4>)
 8000e80:	685b      	ldr	r3, [r3, #4]
 8000e82:	f423 3200 	bic.w	r2, r3, #131072	; 0x20000
 8000e86:	687b      	ldr	r3, [r7, #4]
 8000e88:	689b      	ldr	r3, [r3, #8]
 8000e8a:	4921      	ldr	r1, [pc, #132]	; (8000f10 <HAL_RCC_OscConfig+0x4c4>)
 8000e8c:	4313      	orrs	r3, r2
 8000e8e:	604b      	str	r3, [r1, #4]
        }

        /* Configure the main PLL clock source and multiplication factors. */
        __HAL_RCC_PLL_CONFIG(RCC_OscInitStruct->PLL.PLLSource,
 8000e90:	4b1f      	ldr	r3, [pc, #124]	; (8000f10 <HAL_RCC_OscConfig+0x4c4>)
 8000e92:	685b      	ldr	r3, [r3, #4]
 8000e94:	f423 1274 	bic.w	r2, r3, #3997696	; 0x3d0000
 8000e98:	687b      	ldr	r3, [r7, #4]
 8000e9a:	6a19      	ldr	r1, [r3, #32]
 8000e9c:	687b      	ldr	r3, [r7, #4]
 8000e9e:	6a5b      	ldr	r3, [r3, #36]	; 0x24
 8000ea0:	430b      	orrs	r3, r1
 8000ea2:	491b      	ldr	r1, [pc, #108]	; (8000f10 <HAL_RCC_OscConfig+0x4c4>)
 8000ea4:	4313      	orrs	r3, r2
 8000ea6:	604b      	str	r3, [r1, #4]
                             RCC_OscInitStruct->PLL.PLLMUL);
        /* Enable the main PLL. */
        __HAL_RCC_PLL_ENABLE();
 8000ea8:	4b1b      	ldr	r3, [pc, #108]	; (8000f18 <HAL_RCC_OscConfig+0x4cc>)
 8000eaa:	2201      	movs	r2, #1
 8000eac:	601a      	str	r2, [r3, #0]

        /* Get Start Tick */
        tickstart = HAL_GetTick();
 8000eae:	f7ff fb21 	bl	80004f4 <HAL_GetTick>
 8000eb2:	6138      	str	r0, [r7, #16]

        /* Wait till PLL is ready */
        while (__HAL_RCC_GET_FLAG(RCC_FLAG_PLLRDY)  == RESET)
 8000eb4:	e008      	b.n	8000ec8 <HAL_RCC_OscConfig+0x47c>
        {
          if ((HAL_GetTick() - tickstart) > PLL_TIMEOUT_VALUE)
 8000eb6:	f7ff fb1d 	bl	80004f4 <HAL_GetTick>
 8000eba:	4602      	mov	r2, r0
 8000ebc:	693b      	ldr	r3, [r7, #16]
 8000ebe:	1ad3      	subs	r3, r2, r3
 8000ec0:	2b02      	cmp	r3, #2
 8000ec2:	d901      	bls.n	8000ec8 <HAL_RCC_OscConfig+0x47c>
          {
            return HAL_TIMEOUT;
 8000ec4:	2303      	movs	r3, #3
 8000ec6:	e03d      	b.n	8000f44 <HAL_RCC_OscConfig+0x4f8>
        while (__HAL_RCC_GET_FLAG(RCC_FLAG_PLLRDY)  == RESET)
 8000ec8:	4b11      	ldr	r3, [pc, #68]	; (8000f10 <HAL_RCC_OscConfig+0x4c4>)
 8000eca:	681b      	ldr	r3, [r3, #0]
 8000ecc:	f003 7300 	and.w	r3, r3, #33554432	; 0x2000000
 8000ed0:	2b00      	cmp	r3, #0
 8000ed2:	d0f0      	beq.n	8000eb6 <HAL_RCC_OscConfig+0x46a>
 8000ed4:	e035      	b.n	8000f42 <HAL_RCC_OscConfig+0x4f6>
        }
      }
      else
      {
        /* Disable the main PLL. */
        __HAL_RCC_PLL_DISABLE();
 8000ed6:	4b10      	ldr	r3, [pc, #64]	; (8000f18 <HAL_RCC_OscConfig+0x4cc>)
 8000ed8:	2200      	movs	r2, #0
 8000eda:	601a      	str	r2, [r3, #0]

        /* Get Start Tick */
        tickstart = HAL_GetTick();
 8000edc:	f7ff fb0a 	bl	80004f4 <HAL_GetTick>
 8000ee0:	6138      	str	r0, [r7, #16]

        /* Wait till PLL is disabled */
        while (__HAL_RCC_GET_FLAG(RCC_FLAG_PLLRDY)  != RESET)
 8000ee2:	e008      	b.n	8000ef6 <HAL_RCC_OscConfig+0x4aa>
        {
          if ((HAL_GetTick() - tickstart) > PLL_TIMEOUT_VALUE)
 8000ee4:	f7ff fb06 	bl	80004f4 <HAL_GetTick>
 8000ee8:	4602      	mov	r2, r0
 8000eea:	693b      	ldr	r3, [r7, #16]
 8000eec:	1ad3      	subs	r3, r2, r3
 8000eee:	2b02      	cmp	r3, #2
 8000ef0:	d901      	bls.n	8000ef6 <HAL_RCC_OscConfig+0x4aa>
          {
            return HAL_TIMEOUT;
 8000ef2:	2303      	movs	r3, #3
 8000ef4:	e026      	b.n	8000f44 <HAL_RCC_OscConfig+0x4f8>
        while (__HAL_RCC_GET_FLAG(RCC_FLAG_PLLRDY)  != RESET)
 8000ef6:	4b06      	ldr	r3, [pc, #24]	; (8000f10 <HAL_RCC_OscConfig+0x4c4>)
 8000ef8:	681b      	ldr	r3, [r3, #0]
 8000efa:	f003 7300 	and.w	r3, r3, #33554432	; 0x2000000
 8000efe:	2b00      	cmp	r3, #0
 8000f00:	d1f0      	bne.n	8000ee4 <HAL_RCC_OscConfig+0x498>
 8000f02:	e01e      	b.n	8000f42 <HAL_RCC_OscConfig+0x4f6>
      }
    }
    else
    {
      /* Check if there is a request to disable the PLL used as System clock source */
      if ((RCC_OscInitStruct->PLL.PLLState) == RCC_PLL_OFF)
 8000f04:	687b      	ldr	r3, [r7, #4]
 8000f06:	69db      	ldr	r3, [r3, #28]
 8000f08:	2b01      	cmp	r3, #1
 8000f0a:	d107      	bne.n	8000f1c <HAL_RCC_OscConfig+0x4d0>
      {
        return HAL_ERROR;
 8000f0c:	2301      	movs	r3, #1
 8000f0e:	e019      	b.n	8000f44 <HAL_RCC_OscConfig+0x4f8>
 8000f10:	40021000 	.word	0x40021000
 8000f14:	40007000 	.word	0x40007000
 8000f18:	42420060 	.word	0x42420060
      }
      else
      {
        /* Do not return HAL_ERROR if request repeats the current configuration */
        pll_config = RCC->CFGR;
 8000f1c:	4b0b      	ldr	r3, [pc, #44]	; (8000f4c <HAL_RCC_OscConfig+0x500>)
 8000f1e:	685b      	ldr	r3, [r3, #4]
 8000f20:	60fb      	str	r3, [r7, #12]
        if ((READ_BIT(pll_config, RCC_CFGR_PLLSRC) != RCC_OscInitStruct->PLL.PLLSource) ||
 8000f22:	68fb      	ldr	r3, [r7, #12]
 8000f24:	f403 3280 	and.w	r2, r3, #65536	; 0x10000
 8000f28:	687b      	ldr	r3, [r7, #4]
 8000f2a:	6a1b      	ldr	r3, [r3, #32]
 8000f2c:	429a      	cmp	r2, r3
 8000f2e:	d106      	bne.n	8000f3e <HAL_RCC_OscConfig+0x4f2>
            (READ_BIT(pll_config, RCC_CFGR_PLLMULL) != RCC_OscInitStruct->PLL.PLLMUL))
 8000f30:	68fb      	ldr	r3, [r7, #12]
 8000f32:	f403 1270 	and.w	r2, r3, #3932160	; 0x3c0000
 8000f36:	687b      	ldr	r3, [r7, #4]
 8000f38:	6a5b      	ldr	r3, [r3, #36]	; 0x24
        if ((READ_BIT(pll_config, RCC_CFGR_PLLSRC) != RCC_OscInitStruct->PLL.PLLSource) ||
 8000f3a:	429a      	cmp	r2, r3
 8000f3c:	d001      	beq.n	8000f42 <HAL_RCC_OscConfig+0x4f6>
        {
          return HAL_ERROR;
 8000f3e:	2301      	movs	r3, #1
 8000f40:	e000      	b.n	8000f44 <HAL_RCC_OscConfig+0x4f8>
        }
      }
    }
  }

  return HAL_OK;
 8000f42:	2300      	movs	r3, #0
}
 8000f44:	4618      	mov	r0, r3
 8000f46:	3718      	adds	r7, #24
 8000f48:	46bd      	mov	sp, r7
 8000f4a:	bd80      	pop	{r7, pc}
 8000f4c:	40021000 	.word	0x40021000

08000f50 <HAL_RCC_ClockConfig>:
  *         You can use @ref HAL_RCC_GetClockConfig() function to know which clock is
  *         currently used as system clock source.
  * @retval HAL status
  */
HAL_StatusTypeDef HAL_RCC_ClockConfig(RCC_ClkInitTypeDef  *RCC_ClkInitStruct, uint32_t FLatency)
{
 8000f50:	b580      	push	{r7, lr}
 8000f52:	b084      	sub	sp, #16
 8000f54:	af00      	add	r7, sp, #0
 8000f56:	6078      	str	r0, [r7, #4]
 8000f58:	6039      	str	r1, [r7, #0]
  uint32_t tickstart;

  /* Check Null pointer */
  if (RCC_ClkInitStruct == NULL)
 8000f5a:	687b      	ldr	r3, [r7, #4]
 8000f5c:	2b00      	cmp	r3, #0
 8000f5e:	d101      	bne.n	8000f64 <HAL_RCC_ClockConfig+0x14>
  {
    return HAL_ERROR;
 8000f60:	2301      	movs	r3, #1
 8000f62:	e0d0      	b.n	8001106 <HAL_RCC_ClockConfig+0x1b6>
  must be correctly programmed according to the frequency of the CPU clock
    (HCLK) of the device. */

#if defined(FLASH_ACR_LATENCY)
  /* Increasing the number of wait states because of higher CPU frequency */
  if (FLatency > __HAL_FLASH_GET_LATENCY())
 8000f64:	4b6a      	ldr	r3, [pc, #424]	; (8001110 <HAL_RCC_ClockConfig+0x1c0>)
 8000f66:	681b      	ldr	r3, [r3, #0]
 8000f68:	f003 0307 	and.w	r3, r3, #7
 8000f6c:	683a      	ldr	r2, [r7, #0]
 8000f6e:	429a      	cmp	r2, r3
 8000f70:	d910      	bls.n	8000f94 <HAL_RCC_ClockConfig+0x44>
  {
    /* Program the new number of wait states to the LATENCY bits in the FLASH_ACR register */
    __HAL_FLASH_SET_LATENCY(FLatency);
 8000f72:	4b67      	ldr	r3, [pc, #412]	; (8001110 <HAL_RCC_ClockConfig+0x1c0>)
 8000f74:	681b      	ldr	r3, [r3, #0]
 8000f76:	f023 0207 	bic.w	r2, r3, #7
 8000f7a:	4965      	ldr	r1, [pc, #404]	; (8001110 <HAL_RCC_ClockConfig+0x1c0>)
 8000f7c:	683b      	ldr	r3, [r7, #0]
 8000f7e:	4313      	orrs	r3, r2
 8000f80:	600b      	str	r3, [r1, #0]

    /* Check that the new number of wait states is taken into account to access the Flash
    memory by reading the FLASH_ACR register */
    if (__HAL_FLASH_GET_LATENCY() != FLatency)
 8000f82:	4b63      	ldr	r3, [pc, #396]	; (8001110 <HAL_RCC_ClockConfig+0x1c0>)
 8000f84:	681b      	ldr	r3, [r3, #0]
 8000f86:	f003 0307 	and.w	r3, r3, #7
 8000f8a:	683a      	ldr	r2, [r7, #0]
 8000f8c:	429a      	cmp	r2, r3
 8000f8e:	d001      	beq.n	8000f94 <HAL_RCC_ClockConfig+0x44>
  {
    return HAL_ERROR;
 8000f90:	2301      	movs	r3, #1
 8000f92:	e0b8      	b.n	8001106 <HAL_RCC_ClockConfig+0x1b6>
  }
}

#endif /* FLASH_ACR_LATENCY */
/*-------------------------- HCLK Configuration --------------------------*/
if (((RCC_ClkInitStruct->ClockType) & RCC_CLOCKTYPE_HCLK) == RCC_CLOCKTYPE_HCLK)
 8000f94:	687b      	ldr	r3, [r7, #4]
 8000f96:	681b      	ldr	r3, [r3, #0]
 8000f98:	f003 0302 	and.w	r3, r3, #2
 8000f9c:	2b00      	cmp	r3, #0
 8000f9e:	d020      	beq.n	8000fe2 <HAL_RCC_ClockConfig+0x92>
  {
    /* Set the highest APBx dividers in order to ensure that we do not go through
    a non-spec phase whatever we decrease or increase HCLK. */
    if (((RCC_ClkInitStruct->ClockType) & RCC_CLOCKTYPE_PCLK1) == RCC_CLOCKTYPE_PCLK1)
 8000fa0:	687b      	ldr	r3, [r7, #4]
 8000fa2:	681b      	ldr	r3, [r3, #0]
 8000fa4:	f003 0304 	and.w	r3, r3, #4
 8000fa8:	2b00      	cmp	r3, #0
 8000faa:	d005      	beq.n	8000fb8 <HAL_RCC_ClockConfig+0x68>
    {
      MODIFY_REG(RCC->CFGR, RCC_CFGR_PPRE1, RCC_HCLK_DIV16);
 8000fac:	4b59      	ldr	r3, [pc, #356]	; (8001114 <HAL_RCC_ClockConfig+0x1c4>)
 8000fae:	685b      	ldr	r3, [r3, #4]
 8000fb0:	4a58      	ldr	r2, [pc, #352]	; (8001114 <HAL_RCC_ClockConfig+0x1c4>)
 8000fb2:	f443 63e0 	orr.w	r3, r3, #1792	; 0x700
 8000fb6:	6053      	str	r3, [r2, #4]
    }

    if (((RCC_ClkInitStruct->ClockType) & RCC_CLOCKTYPE_PCLK2) == RCC_CLOCKTYPE_PCLK2)
 8000fb8:	687b      	ldr	r3, [r7, #4]
 8000fba:	681b      	ldr	r3, [r3, #0]
 8000fbc:	f003 0308 	and.w	r3, r3, #8
 8000fc0:	2b00      	cmp	r3, #0
 8000fc2:	d005      	beq.n	8000fd0 <HAL_RCC_ClockConfig+0x80>
    {
      MODIFY_REG(RCC->CFGR, RCC_CFGR_PPRE2, (RCC_HCLK_DIV16 << 3));
 8000fc4:	4b53      	ldr	r3, [pc, #332]	; (8001114 <HAL_RCC_ClockConfig+0x1c4>)
 8000fc6:	685b      	ldr	r3, [r3, #4]
 8000fc8:	4a52      	ldr	r2, [pc, #328]	; (8001114 <HAL_RCC_ClockConfig+0x1c4>)
 8000fca:	f443 5360 	orr.w	r3, r3, #14336	; 0x3800
 8000fce:	6053      	str	r3, [r2, #4]
    }

    /* Set the new HCLK clock divider */
    assert_param(IS_RCC_HCLK(RCC_ClkInitStruct->AHBCLKDivider));
    MODIFY_REG(RCC->CFGR, RCC_CFGR_HPRE, RCC_ClkInitStruct->AHBCLKDivider);
 8000fd0:	4b50      	ldr	r3, [pc, #320]	; (8001114 <HAL_RCC_ClockConfig+0x1c4>)
 8000fd2:	685b      	ldr	r3, [r3, #4]
 8000fd4:	f023 02f0 	bic.w	r2, r3, #240	; 0xf0
 8000fd8:	687b      	ldr	r3, [r7, #4]
 8000fda:	689b      	ldr	r3, [r3, #8]
 8000fdc:	494d      	ldr	r1, [pc, #308]	; (8001114 <HAL_RCC_ClockConfig+0x1c4>)
 8000fde:	4313      	orrs	r3, r2
 8000fe0:	604b      	str	r3, [r1, #4]
  }

  /*------------------------- SYSCLK Configuration ---------------------------*/
  if (((RCC_ClkInitStruct->ClockType) & RCC_CLOCKTYPE_SYSCLK) == RCC_CLOCKTYPE_SYSCLK)
 8000fe2:	687b      	ldr	r3, [r7, #4]
 8000fe4:	681b      	ldr	r3, [r3, #0]
 8000fe6:	f003 0301 	and.w	r3, r3, #1
 8000fea:	2b00      	cmp	r3, #0
 8000fec:	d040      	beq.n	8001070 <HAL_RCC_ClockConfig+0x120>
  {
    assert_param(IS_RCC_SYSCLKSOURCE(RCC_ClkInitStruct->SYSCLKSource));

    /* HSE is selected as System Clock Source */
    if (RCC_ClkInitStruct->SYSCLKSource == RCC_SYSCLKSOURCE_HSE)
 8000fee:	687b      	ldr	r3, [r7, #4]
 8000ff0:	685b      	ldr	r3, [r3, #4]
 8000ff2:	2b01      	cmp	r3, #1
 8000ff4:	d107      	bne.n	8001006 <HAL_RCC_ClockConfig+0xb6>
    {
      /* Check the HSE ready flag */
      if (__HAL_RCC_GET_FLAG(RCC_FLAG_HSERDY) == RESET)
 8000ff6:	4b47      	ldr	r3, [pc, #284]	; (8001114 <HAL_RCC_ClockConfig+0x1c4>)
 8000ff8:	681b      	ldr	r3, [r3, #0]
 8000ffa:	f403 3300 	and.w	r3, r3, #131072	; 0x20000
 8000ffe:	2b00      	cmp	r3, #0
 8001000:	d115      	bne.n	800102e <HAL_RCC_ClockConfig+0xde>
      {
        return HAL_ERROR;
 8001002:	2301      	movs	r3, #1
 8001004:	e07f      	b.n	8001106 <HAL_RCC_ClockConfig+0x1b6>
      }
    }
    /* PLL is selected as System Clock Source */
    else if (RCC_ClkInitStruct->SYSCLKSource == RCC_SYSCLKSOURCE_PLLCLK)
 8001006:	687b      	ldr	r3, [r7, #4]
 8001008:	685b      	ldr	r3, [r3, #4]
 800100a:	2b02      	cmp	r3, #2
 800100c:	d107      	bne.n	800101e <HAL_RCC_ClockConfig+0xce>
    {
      /* Check the PLL ready flag */
      if (__HAL_RCC_GET_FLAG(RCC_FLAG_PLLRDY) == RESET)
 800100e:	4b41      	ldr	r3, [pc, #260]	; (8001114 <HAL_RCC_ClockConfig+0x1c4>)
 8001010:	681b      	ldr	r3, [r3, #0]
 8001012:	f003 7300 	and.w	r3, r3, #33554432	; 0x2000000
 8001016:	2b00      	cmp	r3, #0
 8001018:	d109      	bne.n	800102e <HAL_RCC_ClockConfig+0xde>
      {
        return HAL_ERROR;
 800101a:	2301      	movs	r3, #1
 800101c:	e073      	b.n	8001106 <HAL_RCC_ClockConfig+0x1b6>
    }
    /* HSI is selected as System Clock Source */
    else
    {
      /* Check the HSI ready flag */
      if (__HAL_RCC_GET_FLAG(RCC_FLAG_HSIRDY) == RESET)
 800101e:	4b3d      	ldr	r3, [pc, #244]	; (8001114 <HAL_RCC_ClockConfig+0x1c4>)
 8001020:	681b      	ldr	r3, [r3, #0]
 8001022:	f003 0302 	and.w	r3, r3, #2
 8001026:	2b00      	cmp	r3, #0
 8001028:	d101      	bne.n	800102e <HAL_RCC_ClockConfig+0xde>
      {
        return HAL_ERROR;
 800102a:	2301      	movs	r3, #1
 800102c:	e06b      	b.n	8001106 <HAL_RCC_ClockConfig+0x1b6>
      }
    }
    __HAL_RCC_SYSCLK_CONFIG(RCC_ClkInitStruct->SYSCLKSource);
 800102e:	4b39      	ldr	r3, [pc, #228]	; (8001114 <HAL_RCC_ClockConfig+0x1c4>)
 8001030:	685b      	ldr	r3, [r3, #4]
 8001032:	f023 0203 	bic.w	r2, r3, #3
 8001036:	687b      	ldr	r3, [r7, #4]
 8001038:	685b      	ldr	r3, [r3, #4]
 800103a:	4936      	ldr	r1, [pc, #216]	; (8001114 <HAL_RCC_ClockConfig+0x1c4>)
 800103c:	4313      	orrs	r3, r2
 800103e:	604b      	str	r3, [r1, #4]

    /* Get Start Tick */
    tickstart = HAL_GetTick();
 8001040:	f7ff fa58 	bl	80004f4 <HAL_GetTick>
 8001044:	60f8      	str	r0, [r7, #12]

    while (__HAL_RCC_GET_SYSCLK_SOURCE() != (RCC_ClkInitStruct->SYSCLKSource << RCC_CFGR_SWS_Pos))
 8001046:	e00a      	b.n	800105e <HAL_RCC_ClockConfig+0x10e>
    {
      if ((HAL_GetTick() - tickstart) > CLOCKSWITCH_TIMEOUT_VALUE)
 8001048:	f7ff fa54 	bl	80004f4 <HAL_GetTick>
 800104c:	4602      	mov	r2, r0
 800104e:	68fb      	ldr	r3, [r7, #12]
 8001050:	1ad3      	subs	r3, r2, r3
 8001052:	f241 3288 	movw	r2, #5000	; 0x1388
 8001056:	4293      	cmp	r3, r2
 8001058:	d901      	bls.n	800105e <HAL_RCC_ClockConfig+0x10e>
      {
        return HAL_TIMEOUT;
 800105a:	2303      	movs	r3, #3
 800105c:	e053      	b.n	8001106 <HAL_RCC_ClockConfig+0x1b6>
    while (__HAL_RCC_GET_SYSCLK_SOURCE() != (RCC_ClkInitStruct->SYSCLKSource << RCC_CFGR_SWS_Pos))
 800105e:	4b2d      	ldr	r3, [pc, #180]	; (8001114 <HAL_RCC_ClockConfig+0x1c4>)
 8001060:	685b      	ldr	r3, [r3, #4]
 8001062:	f003 020c 	and.w	r2, r3, #12
 8001066:	687b      	ldr	r3, [r7, #4]
 8001068:	685b      	ldr	r3, [r3, #4]
 800106a:	009b      	lsls	r3, r3, #2
 800106c:	429a      	cmp	r2, r3
 800106e:	d1eb      	bne.n	8001048 <HAL_RCC_ClockConfig+0xf8>
    }
  }

#if defined(FLASH_ACR_LATENCY)
  /* Decreasing the number of wait states because of lower CPU frequency */
  if (FLatency < __HAL_FLASH_GET_LATENCY())
 8001070:	4b27      	ldr	r3, [pc, #156]	; (8001110 <HAL_RCC_ClockConfig+0x1c0>)
 8001072:	681b      	ldr	r3, [r3, #0]
 8001074:	f003 0307 	and.w	r3, r3, #7
 8001078:	683a      	ldr	r2, [r7, #0]
 800107a:	429a      	cmp	r2, r3
 800107c:	d210      	bcs.n	80010a0 <HAL_RCC_ClockConfig+0x150>
  {
    /* Program the new number of wait states to the LATENCY bits in the FLASH_ACR register */
    __HAL_FLASH_SET_LATENCY(FLatency);
 800107e:	4b24      	ldr	r3, [pc, #144]	; (8001110 <HAL_RCC_ClockConfig+0x1c0>)
 8001080:	681b      	ldr	r3, [r3, #0]
 8001082:	f023 0207 	bic.w	r2, r3, #7
 8001086:	4922      	ldr	r1, [pc, #136]	; (8001110 <HAL_RCC_ClockConfig+0x1c0>)
 8001088:	683b      	ldr	r3, [r7, #0]
 800108a:	4313      	orrs	r3, r2
 800108c:	600b      	str	r3, [r1, #0]

    /* Check that the new number of wait states is taken into account to access the Flash
    memory by reading the FLASH_ACR register */
    if (__HAL_FLASH_GET_LATENCY() != FLatency)
 800108e:	4b20      	ldr	r3, [pc, #128]	; (8001110 <HAL_RCC_ClockConfig+0x1c0>)
 8001090:	681b      	ldr	r3, [r3, #0]
 8001092:	f003 0307 	and.w	r3, r3, #7
 8001096:	683a      	ldr	r2, [r7, #0]
 8001098:	429a      	cmp	r2, r3
 800109a:	d001      	beq.n	80010a0 <HAL_RCC_ClockConfig+0x150>
  {
    return HAL_ERROR;
 800109c:	2301      	movs	r3, #1
 800109e:	e032      	b.n	8001106 <HAL_RCC_ClockConfig+0x1b6>
  }
}
#endif /* FLASH_ACR_LATENCY */

/*-------------------------- PCLK1 Configuration ---------------------------*/
if (((RCC_ClkInitStruct->ClockType) & RCC_CLOCKTYPE_PCLK1) == RCC_CLOCKTYPE_PCLK1)
 80010a0:	687b      	ldr	r3, [r7, #4]
 80010a2:	681b      	ldr	r3, [r3, #0]
 80010a4:	f003 0304 	and.w	r3, r3, #4
 80010a8:	2b00      	cmp	r3, #0
 80010aa:	d008      	beq.n	80010be <HAL_RCC_ClockConfig+0x16e>
  {
    assert_param(IS_RCC_PCLK(RCC_ClkInitStruct->APB1CLKDivider));
    MODIFY_REG(RCC->CFGR, RCC_CFGR_PPRE1, RCC_ClkInitStruct->APB1CLKDivider);
 80010ac:	4b19      	ldr	r3, [pc, #100]	; (8001114 <HAL_RCC_ClockConfig+0x1c4>)
 80010ae:	685b      	ldr	r3, [r3, #4]
 80010b0:	f423 62e0 	bic.w	r2, r3, #1792	; 0x700
 80010b4:	687b      	ldr	r3, [r7, #4]
 80010b6:	68db      	ldr	r3, [r3, #12]
 80010b8:	4916      	ldr	r1, [pc, #88]	; (8001114 <HAL_RCC_ClockConfig+0x1c4>)
 80010ba:	4313      	orrs	r3, r2
 80010bc:	604b      	str	r3, [r1, #4]
  }

  /*-------------------------- PCLK2 Configuration ---------------------------*/
  if (((RCC_ClkInitStruct->ClockType) & RCC_CLOCKTYPE_PCLK2) == RCC_CLOCKTYPE_PCLK2)
 80010be:	687b      	ldr	r3, [r7, #4]
 80010c0:	681b      	ldr	r3, [r3, #0]
 80010c2:	f003 0308 	and.w	r3, r3, #8
 80010c6:	2b00      	cmp	r3, #0
 80010c8:	d009      	beq.n	80010de <HAL_RCC_ClockConfig+0x18e>
  {
    assert_param(IS_RCC_PCLK(RCC_ClkInitStruct->APB2CLKDivider));
    MODIFY_REG(RCC->CFGR, RCC_CFGR_PPRE2, ((RCC_ClkInitStruct->APB2CLKDivider) << 3));
 80010ca:	4b12      	ldr	r3, [pc, #72]	; (8001114 <HAL_RCC_ClockConfig+0x1c4>)
 80010cc:	685b      	ldr	r3, [r3, #4]
 80010ce:	f423 5260 	bic.w	r2, r3, #14336	; 0x3800
 80010d2:	687b      	ldr	r3, [r7, #4]
 80010d4:	691b      	ldr	r3, [r3, #16]
 80010d6:	00db      	lsls	r3, r3, #3
 80010d8:	490e      	ldr	r1, [pc, #56]	; (8001114 <HAL_RCC_ClockConfig+0x1c4>)
 80010da:	4313      	orrs	r3, r2
 80010dc:	604b      	str	r3, [r1, #4]
  }

  /* Update the SystemCoreClock global variable */
  SystemCoreClock = HAL_RCC_GetSysClockFreq() >> AHBPrescTable[(RCC->CFGR & RCC_CFGR_HPRE) >> RCC_CFGR_HPRE_Pos];
 80010de:	f000 f821 	bl	8001124 <HAL_RCC_GetSysClockFreq>
 80010e2:	4602      	mov	r2, r0
 80010e4:	4b0b      	ldr	r3, [pc, #44]	; (8001114 <HAL_RCC_ClockConfig+0x1c4>)
 80010e6:	685b      	ldr	r3, [r3, #4]
 80010e8:	091b      	lsrs	r3, r3, #4
 80010ea:	f003 030f 	and.w	r3, r3, #15
 80010ee:	490a      	ldr	r1, [pc, #40]	; (8001118 <HAL_RCC_ClockConfig+0x1c8>)
 80010f0:	5ccb      	ldrb	r3, [r1, r3]
 80010f2:	fa22 f303 	lsr.w	r3, r2, r3
 80010f6:	4a09      	ldr	r2, [pc, #36]	; (800111c <HAL_RCC_ClockConfig+0x1cc>)
 80010f8:	6013      	str	r3, [r2, #0]

  /* Configure the source of time base considering new system clocks settings*/
  HAL_InitTick(uwTickPrio);
 80010fa:	4b09      	ldr	r3, [pc, #36]	; (8001120 <HAL_RCC_ClockConfig+0x1d0>)
 80010fc:	681b      	ldr	r3, [r3, #0]
 80010fe:	4618      	mov	r0, r3
 8001100:	f7ff f9b6 	bl	8000470 <HAL_InitTick>

  return HAL_OK;
 8001104:	2300      	movs	r3, #0
}
 8001106:	4618      	mov	r0, r3
 8001108:	3710      	adds	r7, #16
 800110a:	46bd      	mov	sp, r7
 800110c:	bd80      	pop	{r7, pc}
 800110e:	bf00      	nop
 8001110:	40022000 	.word	0x40022000
 8001114:	40021000 	.word	0x40021000
 8001118:	08001a48 	.word	0x08001a48
 800111c:	20000000 	.word	0x20000000
 8001120:	20000004 	.word	0x20000004

08001124 <HAL_RCC_GetSysClockFreq>:
  *         right SYSCLK value. Otherwise, any configuration based on this function will be incorrect.
  *
  * @retval SYSCLK frequency
  */
uint32_t HAL_RCC_GetSysClockFreq(void)
{
 8001124:	b480      	push	{r7}
 8001126:	b087      	sub	sp, #28
 8001128:	af00      	add	r7, sp, #0
#else
  static const uint8_t aPredivFactorTable[2U] = {1, 2};
#endif /*RCC_CFGR2_PREDIV1*/

#endif
  uint32_t tmpreg = 0U, prediv = 0U, pllclk = 0U, pllmul = 0U;
 800112a:	2300      	movs	r3, #0
 800112c:	60fb      	str	r3, [r7, #12]
 800112e:	2300      	movs	r3, #0
 8001130:	60bb      	str	r3, [r7, #8]
 8001132:	2300      	movs	r3, #0
 8001134:	617b      	str	r3, [r7, #20]
 8001136:	2300      	movs	r3, #0
 8001138:	607b      	str	r3, [r7, #4]
  uint32_t sysclockfreq = 0U;
 800113a:	2300      	movs	r3, #0
 800113c:	613b      	str	r3, [r7, #16]
#if defined(RCC_CFGR2_PREDIV1SRC)
  uint32_t prediv2 = 0U, pll2mul = 0U;
#endif /*RCC_CFGR2_PREDIV1SRC*/

  tmpreg = RCC->CFGR;
 800113e:	4b1e      	ldr	r3, [pc, #120]	; (80011b8 <HAL_RCC_GetSysClockFreq+0x94>)
 8001140:	685b      	ldr	r3, [r3, #4]
 8001142:	60fb      	str	r3, [r7, #12]

  /* Get SYSCLK source -------------------------------------------------------*/
  switch (tmpreg & RCC_CFGR_SWS)
 8001144:	68fb      	ldr	r3, [r7, #12]
 8001146:	f003 030c 	and.w	r3, r3, #12
 800114a:	2b04      	cmp	r3, #4
 800114c:	d002      	beq.n	8001154 <HAL_RCC_GetSysClockFreq+0x30>
 800114e:	2b08      	cmp	r3, #8
 8001150:	d003      	beq.n	800115a <HAL_RCC_GetSysClockFreq+0x36>
 8001152:	e027      	b.n	80011a4 <HAL_RCC_GetSysClockFreq+0x80>
  {
    case RCC_SYSCLKSOURCE_STATUS_HSE:  /* HSE used as system clock */
    {
      sysclockfreq = HSE_VALUE;
 8001154:	4b19      	ldr	r3, [pc, #100]	; (80011bc <HAL_RCC_GetSysClockFreq+0x98>)
 8001156:	613b      	str	r3, [r7, #16]
      break;
 8001158:	e027      	b.n	80011aa <HAL_RCC_GetSysClockFreq+0x86>
    }
    case RCC_SYSCLKSOURCE_STATUS_PLLCLK:  /* PLL used as system clock */
    {
      pllmul = aPLLMULFactorTable[(uint32_t)(tmpreg & RCC_CFGR_PLLMULL) >> RCC_CFGR_PLLMULL_Pos];
 800115a:	68fb      	ldr	r3, [r7, #12]
 800115c:	0c9b      	lsrs	r3, r3, #18
 800115e:	f003 030f 	and.w	r3, r3, #15
 8001162:	4a17      	ldr	r2, [pc, #92]	; (80011c0 <HAL_RCC_GetSysClockFreq+0x9c>)
 8001164:	5cd3      	ldrb	r3, [r2, r3]
 8001166:	607b      	str	r3, [r7, #4]
      if ((tmpreg & RCC_CFGR_PLLSRC) != RCC_PLLSOURCE_HSI_DIV2)
 8001168:	68fb      	ldr	r3, [r7, #12]
 800116a:	f403 3380 	and.w	r3, r3, #65536	; 0x10000
 800116e:	2b00      	cmp	r3, #0
 8001170:	d010      	beq.n	8001194 <HAL_RCC_GetSysClockFreq+0x70>
      {
#if defined(RCC_CFGR2_PREDIV1)
        prediv = aPredivFactorTable[(uint32_t)(RCC->CFGR2 & RCC_CFGR2_PREDIV1) >> RCC_CFGR2_PREDIV1_Pos];
#else
        prediv = aPredivFactorTable[(uint32_t)(RCC->CFGR & RCC_CFGR_PLLXTPRE) >> RCC_CFGR_PLLXTPRE_Pos];
 8001172:	4b11      	ldr	r3, [pc, #68]	; (80011b8 <HAL_RCC_GetSysClockFreq+0x94>)
 8001174:	685b      	ldr	r3, [r3, #4]
 8001176:	0c5b      	lsrs	r3, r3, #17
 8001178:	f003 0301 	and.w	r3, r3, #1
 800117c:	4a11      	ldr	r2, [pc, #68]	; (80011c4 <HAL_RCC_GetSysClockFreq+0xa0>)
 800117e:	5cd3      	ldrb	r3, [r2, r3]
 8001180:	60bb      	str	r3, [r7, #8]
        {
          pllclk = pllclk / 2;
        }
#else
        /* HSE used as PLL clock source : PLLCLK = HSE/PREDIV1 * PLLMUL */
        pllclk = (uint32_t)((HSE_VALUE  * pllmul) / prediv);
 8001182:	687b      	ldr	r3, [r7, #4]
 8001184:	4a0d      	ldr	r2, [pc, #52]	; (80011bc <HAL_RCC_GetSysClockFreq+0x98>)
 8001186:	fb03 f202 	mul.w	r2, r3, r2
 800118a:	68bb      	ldr	r3, [r7, #8]
 800118c:	fbb2 f3f3 	udiv	r3, r2, r3
 8001190:	617b      	str	r3, [r7, #20]
 8001192:	e004      	b.n	800119e <HAL_RCC_GetSysClockFreq+0x7a>
#endif /*RCC_CFGR2_PREDIV1SRC*/
      }
      else
      {
        /* HSI used as PLL clock source : PLLCLK = HSI/2 * PLLMUL */
        pllclk = (uint32_t)((HSI_VALUE >> 1) * pllmul);
 8001194:	687b      	ldr	r3, [r7, #4]
 8001196:	4a0c      	ldr	r2, [pc, #48]	; (80011c8 <HAL_RCC_GetSysClockFreq+0xa4>)
 8001198:	fb02 f303 	mul.w	r3, r2, r3
 800119c:	617b      	str	r3, [r7, #20]
      }
      sysclockfreq = pllclk;
 800119e:	697b      	ldr	r3, [r7, #20]
 80011a0:	613b      	str	r3, [r7, #16]
      break;
 80011a2:	e002      	b.n	80011aa <HAL_RCC_GetSysClockFreq+0x86>
    }
    case RCC_SYSCLKSOURCE_STATUS_HSI:  /* HSI used as system clock source */
    default: /* HSI used as system clock */
    {
      sysclockfreq = HSI_VALUE;
 80011a4:	4b05      	ldr	r3, [pc, #20]	; (80011bc <HAL_RCC_GetSysClockFreq+0x98>)
 80011a6:	613b      	str	r3, [r7, #16]
      break;
 80011a8:	bf00      	nop
    }
  }
  return sysclockfreq;
 80011aa:	693b      	ldr	r3, [r7, #16]
}
 80011ac:	4618      	mov	r0, r3
 80011ae:	371c      	adds	r7, #28
 80011b0:	46bd      	mov	sp, r7
 80011b2:	bc80      	pop	{r7}
 80011b4:	4770      	bx	lr
 80011b6:	bf00      	nop
 80011b8:	40021000 	.word	0x40021000
 80011bc:	007a1200 	.word	0x007a1200
 80011c0:	08001a58 	.word	0x08001a58
 80011c4:	08001a68 	.word	0x08001a68
 80011c8:	003d0900 	.word	0x003d0900

080011cc <RCC_Delay>:
  * @brief  This function provides delay (in milliseconds) based on CPU cycles method.
  * @param  mdelay: specifies the delay time length, in milliseconds.
  * @retval None
  */
static void RCC_Delay(uint32_t mdelay)
{
 80011cc:	b480      	push	{r7}
 80011ce:	b085      	sub	sp, #20
 80011d0:	af00      	add	r7, sp, #0
 80011d2:	6078      	str	r0, [r7, #4]
  __IO uint32_t Delay = mdelay * (SystemCoreClock / 8U / 1000U);
 80011d4:	4b0a      	ldr	r3, [pc, #40]	; (8001200 <RCC_Delay+0x34>)
 80011d6:	681b      	ldr	r3, [r3, #0]
 80011d8:	4a0a      	ldr	r2, [pc, #40]	; (8001204 <RCC_Delay+0x38>)
 80011da:	fba2 2303 	umull	r2, r3, r2, r3
 80011de:	0a5b      	lsrs	r3, r3, #9
 80011e0:	687a      	ldr	r2, [r7, #4]
 80011e2:	fb02 f303 	mul.w	r3, r2, r3
 80011e6:	60fb      	str	r3, [r7, #12]
  do
  {
    __NOP();
 80011e8:	bf00      	nop
  }
  while (Delay --);
 80011ea:	68fb      	ldr	r3, [r7, #12]
 80011ec:	1e5a      	subs	r2, r3, #1
 80011ee:	60fa      	str	r2, [r7, #12]
 80011f0:	2b00      	cmp	r3, #0
 80011f2:	d1f9      	bne.n	80011e8 <RCC_Delay+0x1c>
}
 80011f4:	bf00      	nop
 80011f6:	bf00      	nop
 80011f8:	3714      	adds	r7, #20
 80011fa:	46bd      	mov	sp, r7
 80011fc:	bc80      	pop	{r7}
 80011fe:	4770      	bx	lr
 8001200:	20000000 	.word	0x20000000
 8001204:	10624dd3 	.word	0x10624dd3

08001208 <HAL_TIM_Base_Init>:
  *         Ex: call @ref HAL_TIM_Base_DeInit() before HAL_TIM_Base_Init()
  * @param  htim TIM Base handle
  * @retval HAL status
  */
HAL_StatusTypeDef HAL_TIM_Base_Init(TIM_HandleTypeDef *htim)
{
 8001208:	b580      	push	{r7, lr}
 800120a:	b082      	sub	sp, #8
 800120c:	af00      	add	r7, sp, #0
 800120e:	6078      	str	r0, [r7, #4]
  /* Check the TIM handle allocation */
  if (htim == NULL)
 8001210:	687b      	ldr	r3, [r7, #4]
 8001212:	2b00      	cmp	r3, #0
 8001214:	d101      	bne.n	800121a <HAL_TIM_Base_Init+0x12>
  {
    return HAL_ERROR;
 8001216:	2301      	movs	r3, #1
 8001218:	e041      	b.n	800129e <HAL_TIM_Base_Init+0x96>
  assert_param(IS_TIM_COUNTER_MODE(htim->Init.CounterMode));
  assert_param(IS_TIM_CLOCKDIVISION_DIV(htim->Init.ClockDivision));
  assert_param(IS_TIM_PERIOD(htim->Init.Period));
  assert_param(IS_TIM_AUTORELOAD_PRELOAD(htim->Init.AutoReloadPreload));

  if (htim->State == HAL_TIM_STATE_RESET)
 800121a:	687b      	ldr	r3, [r7, #4]
 800121c:	f893 303d 	ldrb.w	r3, [r3, #61]	; 0x3d
 8001220:	b2db      	uxtb	r3, r3
 8001222:	2b00      	cmp	r3, #0
 8001224:	d106      	bne.n	8001234 <HAL_TIM_Base_Init+0x2c>
  {
    /* Allocate lock resource and initialize it */
    htim->Lock = HAL_UNLOCKED;
 8001226:	687b      	ldr	r3, [r7, #4]
 8001228:	2200      	movs	r2, #0
 800122a:	f883 203c 	strb.w	r2, [r3, #60]	; 0x3c
    }
    /* Init the low level hardware : GPIO, CLOCK, NVIC */
    htim->Base_MspInitCallback(htim);
#else
    /* Init the low level hardware : GPIO, CLOCK, NVIC */
    HAL_TIM_Base_MspInit(htim);
 800122e:	6878      	ldr	r0, [r7, #4]
 8001230:	f7ff f886 	bl	8000340 <HAL_TIM_Base_MspInit>
#endif /* USE_HAL_TIM_REGISTER_CALLBACKS */
  }

  /* Set the TIM state */
  htim->State = HAL_TIM_STATE_BUSY;
 8001234:	687b      	ldr	r3, [r7, #4]
 8001236:	2202      	movs	r2, #2
 8001238:	f883 203d 	strb.w	r2, [r3, #61]	; 0x3d

  /* Set the Time Base configuration */
  TIM_Base_SetConfig(htim->Instance, &htim->Init);
 800123c:	687b      	ldr	r3, [r7, #4]
 800123e:	681a      	ldr	r2, [r3, #0]
 8001240:	687b      	ldr	r3, [r7, #4]
 8001242:	3304      	adds	r3, #4
 8001244:	4619      	mov	r1, r3
 8001246:	4610      	mov	r0, r2
 8001248:	f000 fa6e 	bl	8001728 <TIM_Base_SetConfig>

  /* Initialize the DMA burst operation state */
  htim->DMABurstState = HAL_DMA_BURST_STATE_READY;
 800124c:	687b      	ldr	r3, [r7, #4]
 800124e:	2201      	movs	r2, #1
 8001250:	f883 2046 	strb.w	r2, [r3, #70]	; 0x46

  /* Initialize the TIM channels state */
  TIM_CHANNEL_STATE_SET_ALL(htim, HAL_TIM_CHANNEL_STATE_READY);
 8001254:	687b      	ldr	r3, [r7, #4]
 8001256:	2201      	movs	r2, #1
 8001258:	f883 203e 	strb.w	r2, [r3, #62]	; 0x3e
 800125c:	687b      	ldr	r3, [r7, #4]
 800125e:	2201      	movs	r2, #1
 8001260:	f883 203f 	strb.w	r2, [r3, #63]	; 0x3f
 8001264:	687b      	ldr	r3, [r7, #4]
 8001266:	2201      	movs	r2, #1
 8001268:	f883 2040 	strb.w	r2, [r3, #64]	; 0x40
 800126c:	687b      	ldr	r3, [r7, #4]
 800126e:	2201      	movs	r2, #1
 8001270:	f883 2041 	strb.w	r2, [r3, #65]	; 0x41
  TIM_CHANNEL_N_STATE_SET_ALL(htim, HAL_TIM_CHANNEL_STATE_READY);
 8001274:	687b      	ldr	r3, [r7, #4]
 8001276:	2201      	movs	r2, #1
 8001278:	f883 2042 	strb.w	r2, [r3, #66]	; 0x42
 800127c:	687b      	ldr	r3, [r7, #4]
 800127e:	2201      	movs	r2, #1
 8001280:	f883 2043 	strb.w	r2, [r3, #67]	; 0x43
 8001284:	687b      	ldr	r3, [r7, #4]
 8001286:	2201      	movs	r2, #1
 8001288:	f883 2044 	strb.w	r2, [r3, #68]	; 0x44
 800128c:	687b      	ldr	r3, [r7, #4]
 800128e:	2201      	movs	r2, #1
 8001290:	f883 2045 	strb.w	r2, [r3, #69]	; 0x45

  /* Initialize the TIM state*/
  htim->State = HAL_TIM_STATE_READY;
 8001294:	687b      	ldr	r3, [r7, #4]
 8001296:	2201      	movs	r2, #1
 8001298:	f883 203d 	strb.w	r2, [r3, #61]	; 0x3d

  return HAL_OK;
 800129c:	2300      	movs	r3, #0
}
 800129e:	4618      	mov	r0, r3
 80012a0:	3708      	adds	r7, #8
 80012a2:	46bd      	mov	sp, r7
 80012a4:	bd80      	pop	{r7, pc}
	...

080012a8 <HAL_TIM_Base_Start_IT>:
  * @brief  Starts the TIM Base generation in interrupt mode.
  * @param  htim TIM Base handle
  * @retval HAL status
  */
HAL_StatusTypeDef HAL_TIM_Base_Start_IT(TIM_HandleTypeDef *htim)
{
 80012a8:	b480      	push	{r7}
 80012aa:	b085      	sub	sp, #20
 80012ac:	af00      	add	r7, sp, #0
 80012ae:	6078      	str	r0, [r7, #4]

  /* Check the parameters */
  assert_param(IS_TIM_INSTANCE(htim->Instance));

  /* Check the TIM state */
  if (htim->State != HAL_TIM_STATE_READY)
 80012b0:	687b      	ldr	r3, [r7, #4]
 80012b2:	f893 303d 	ldrb.w	r3, [r3, #61]	; 0x3d
 80012b6:	b2db      	uxtb	r3, r3
 80012b8:	2b01      	cmp	r3, #1
 80012ba:	d001      	beq.n	80012c0 <HAL_TIM_Base_Start_IT+0x18>
  {
    return HAL_ERROR;
 80012bc:	2301      	movs	r3, #1
 80012be:	e035      	b.n	800132c <HAL_TIM_Base_Start_IT+0x84>
  }

  /* Set the TIM state */
  htim->State = HAL_TIM_STATE_BUSY;
 80012c0:	687b      	ldr	r3, [r7, #4]
 80012c2:	2202      	movs	r2, #2
 80012c4:	f883 203d 	strb.w	r2, [r3, #61]	; 0x3d

  /* Enable the TIM Update interrupt */
  __HAL_TIM_ENABLE_IT(htim, TIM_IT_UPDATE);
 80012c8:	687b      	ldr	r3, [r7, #4]
 80012ca:	681b      	ldr	r3, [r3, #0]
 80012cc:	68da      	ldr	r2, [r3, #12]
 80012ce:	687b      	ldr	r3, [r7, #4]
 80012d0:	681b      	ldr	r3, [r3, #0]
 80012d2:	f042 0201 	orr.w	r2, r2, #1
 80012d6:	60da      	str	r2, [r3, #12]

  /* Enable the Peripheral, except in trigger mode where enable is automatically done with trigger */
  if (IS_TIM_SLAVE_INSTANCE(htim->Instance))
 80012d8:	687b      	ldr	r3, [r7, #4]
 80012da:	681b      	ldr	r3, [r3, #0]
 80012dc:	4a16      	ldr	r2, [pc, #88]	; (8001338 <HAL_TIM_Base_Start_IT+0x90>)
 80012de:	4293      	cmp	r3, r2
 80012e0:	d009      	beq.n	80012f6 <HAL_TIM_Base_Start_IT+0x4e>
 80012e2:	687b      	ldr	r3, [r7, #4]
 80012e4:	681b      	ldr	r3, [r3, #0]
 80012e6:	f1b3 4f80 	cmp.w	r3, #1073741824	; 0x40000000
 80012ea:	d004      	beq.n	80012f6 <HAL_TIM_Base_Start_IT+0x4e>
 80012ec:	687b      	ldr	r3, [r7, #4]
 80012ee:	681b      	ldr	r3, [r3, #0]
 80012f0:	4a12      	ldr	r2, [pc, #72]	; (800133c <HAL_TIM_Base_Start_IT+0x94>)
 80012f2:	4293      	cmp	r3, r2
 80012f4:	d111      	bne.n	800131a <HAL_TIM_Base_Start_IT+0x72>
  {
    tmpsmcr = htim->Instance->SMCR & TIM_SMCR_SMS;
 80012f6:	687b      	ldr	r3, [r7, #4]
 80012f8:	681b      	ldr	r3, [r3, #0]
 80012fa:	689b      	ldr	r3, [r3, #8]
 80012fc:	f003 0307 	and.w	r3, r3, #7
 8001300:	60fb      	str	r3, [r7, #12]
    if (!IS_TIM_SLAVEMODE_TRIGGER_ENABLED(tmpsmcr))
 8001302:	68fb      	ldr	r3, [r7, #12]
 8001304:	2b06      	cmp	r3, #6
 8001306:	d010      	beq.n	800132a <HAL_TIM_Base_Start_IT+0x82>
    {
      __HAL_TIM_ENABLE(htim);
 8001308:	687b      	ldr	r3, [r7, #4]
 800130a:	681b      	ldr	r3, [r3, #0]
 800130c:	681a      	ldr	r2, [r3, #0]
 800130e:	687b      	ldr	r3, [r7, #4]
 8001310:	681b      	ldr	r3, [r3, #0]
 8001312:	f042 0201 	orr.w	r2, r2, #1
 8001316:	601a      	str	r2, [r3, #0]
    if (!IS_TIM_SLAVEMODE_TRIGGER_ENABLED(tmpsmcr))
 8001318:	e007      	b.n	800132a <HAL_TIM_Base_Start_IT+0x82>
    }
  }
  else
  {
    __HAL_TIM_ENABLE(htim);
 800131a:	687b      	ldr	r3, [r7, #4]
 800131c:	681b      	ldr	r3, [r3, #0]
 800131e:	681a      	ldr	r2, [r3, #0]
 8001320:	687b      	ldr	r3, [r7, #4]
 8001322:	681b      	ldr	r3, [r3, #0]
 8001324:	f042 0201 	orr.w	r2, r2, #1
 8001328:	601a      	str	r2, [r3, #0]
  }

  /* Return function status */
  return HAL_OK;
 800132a:	2300      	movs	r3, #0
}
 800132c:	4618      	mov	r0, r3
 800132e:	3714      	adds	r7, #20
 8001330:	46bd      	mov	sp, r7
 8001332:	bc80      	pop	{r7}
 8001334:	4770      	bx	lr
 8001336:	bf00      	nop
 8001338:	40012c00 	.word	0x40012c00
 800133c:	40000400 	.word	0x40000400

08001340 <HAL_TIM_IRQHandler>:
  * @brief  This function handles TIM interrupts requests.
  * @param  htim TIM  handle
  * @retval None
  */
void HAL_TIM_IRQHandler(TIM_HandleTypeDef *htim)
{
 8001340:	b580      	push	{r7, lr}
 8001342:	b082      	sub	sp, #8
 8001344:	af00      	add	r7, sp, #0
 8001346:	6078      	str	r0, [r7, #4]
  /* Capture compare 1 event */
  if (__HAL_TIM_GET_FLAG(htim, TIM_FLAG_CC1) != RESET)
 8001348:	687b      	ldr	r3, [r7, #4]
 800134a:	681b      	ldr	r3, [r3, #0]
 800134c:	691b      	ldr	r3, [r3, #16]
 800134e:	f003 0302 	and.w	r3, r3, #2
 8001352:	2b02      	cmp	r3, #2
 8001354:	d122      	bne.n	800139c <HAL_TIM_IRQHandler+0x5c>
  {
    if (__HAL_TIM_GET_IT_SOURCE(htim, TIM_IT_CC1) != RESET)
 8001356:	687b      	ldr	r3, [r7, #4]
 8001358:	681b      	ldr	r3, [r3, #0]
 800135a:	68db      	ldr	r3, [r3, #12]
 800135c:	f003 0302 	and.w	r3, r3, #2
 8001360:	2b02      	cmp	r3, #2
 8001362:	d11b      	bne.n	800139c <HAL_TIM_IRQHandler+0x5c>
    {
      {
        __HAL_TIM_CLEAR_IT(htim, TIM_IT_CC1);
 8001364:	687b      	ldr	r3, [r7, #4]
 8001366:	681b      	ldr	r3, [r3, #0]
 8001368:	f06f 0202 	mvn.w	r2, #2
 800136c:	611a      	str	r2, [r3, #16]
        htim->Channel = HAL_TIM_ACTIVE_CHANNEL_1;
 800136e:	687b      	ldr	r3, [r7, #4]
 8001370:	2201      	movs	r2, #1
 8001372:	771a      	strb	r2, [r3, #28]

        /* Input capture event */
        if ((htim->Instance->CCMR1 & TIM_CCMR1_CC1S) != 0x00U)
 8001374:	687b      	ldr	r3, [r7, #4]
 8001376:	681b      	ldr	r3, [r3, #0]
 8001378:	699b      	ldr	r3, [r3, #24]
 800137a:	f003 0303 	and.w	r3, r3, #3
 800137e:	2b00      	cmp	r3, #0
 8001380:	d003      	beq.n	800138a <HAL_TIM_IRQHandler+0x4a>
        {
#if (USE_HAL_TIM_REGISTER_CALLBACKS == 1)
          htim->IC_CaptureCallback(htim);
#else
          HAL_TIM_IC_CaptureCallback(htim);
 8001382:	6878      	ldr	r0, [r7, #4]
 8001384:	f000 f9b4 	bl	80016f0 <HAL_TIM_IC_CaptureCallback>
 8001388:	e005      	b.n	8001396 <HAL_TIM_IRQHandler+0x56>
        {
#if (USE_HAL_TIM_REGISTER_CALLBACKS == 1)
          htim->OC_DelayElapsedCallback(htim);
          htim->PWM_PulseFinishedCallback(htim);
#else
          HAL_TIM_OC_DelayElapsedCallback(htim);
 800138a:	6878      	ldr	r0, [r7, #4]
 800138c:	f000 f9a7 	bl	80016de <HAL_TIM_OC_DelayElapsedCallback>
          HAL_TIM_PWM_PulseFinishedCallback(htim);
 8001390:	6878      	ldr	r0, [r7, #4]
 8001392:	f000 f9b6 	bl	8001702 <HAL_TIM_PWM_PulseFinishedCallback>
#endif /* USE_HAL_TIM_REGISTER_CALLBACKS */
        }
        htim->Channel = HAL_TIM_ACTIVE_CHANNEL_CLEARED;
 8001396:	687b      	ldr	r3, [r7, #4]
 8001398:	2200      	movs	r2, #0
 800139a:	771a      	strb	r2, [r3, #28]
      }
    }
  }
  /* Capture compare 2 event */
  if (__HAL_TIM_GET_FLAG(htim, TIM_FLAG_CC2) != RESET)
 800139c:	687b      	ldr	r3, [r7, #4]
 800139e:	681b      	ldr	r3, [r3, #0]
 80013a0:	691b      	ldr	r3, [r3, #16]
 80013a2:	f003 0304 	and.w	r3, r3, #4
 80013a6:	2b04      	cmp	r3, #4
 80013a8:	d122      	bne.n	80013f0 <HAL_TIM_IRQHandler+0xb0>
  {
    if (__HAL_TIM_GET_IT_SOURCE(htim, TIM_IT_CC2) != RESET)
 80013aa:	687b      	ldr	r3, [r7, #4]
 80013ac:	681b      	ldr	r3, [r3, #0]
 80013ae:	68db      	ldr	r3, [r3, #12]
 80013b0:	f003 0304 	and.w	r3, r3, #4
 80013b4:	2b04      	cmp	r3, #4
 80013b6:	d11b      	bne.n	80013f0 <HAL_TIM_IRQHandler+0xb0>
    {
      __HAL_TIM_CLEAR_IT(htim, TIM_IT_CC2);
 80013b8:	687b      	ldr	r3, [r7, #4]
 80013ba:	681b      	ldr	r3, [r3, #0]
 80013bc:	f06f 0204 	mvn.w	r2, #4
 80013c0:	611a      	str	r2, [r3, #16]
      htim->Channel = HAL_TIM_ACTIVE_CHANNEL_2;
 80013c2:	687b      	ldr	r3, [r7, #4]
 80013c4:	2202      	movs	r2, #2
 80013c6:	771a      	strb	r2, [r3, #28]
      /* Input capture event */
      if ((htim->Instance->CCMR1 & TIM_CCMR1_CC2S) != 0x00U)
 80013c8:	687b      	ldr	r3, [r7, #4]
 80013ca:	681b      	ldr	r3, [r3, #0]
 80013cc:	699b      	ldr	r3, [r3, #24]
 80013ce:	f403 7340 	and.w	r3, r3, #768	; 0x300
 80013d2:	2b00      	cmp	r3, #0
 80013d4:	d003      	beq.n	80013de <HAL_TIM_IRQHandler+0x9e>
      {
#if (USE_HAL_TIM_REGISTER_CALLBACKS == 1)
        htim->IC_CaptureCallback(htim);
#else
        HAL_TIM_IC_CaptureCallback(htim);
 80013d6:	6878      	ldr	r0, [r7, #4]
 80013d8:	f000 f98a 	bl	80016f0 <HAL_TIM_IC_CaptureCallback>
 80013dc:	e005      	b.n	80013ea <HAL_TIM_IRQHandler+0xaa>
      {
#if (USE_HAL_TIM_REGISTER_CALLBACKS == 1)
        htim->OC_DelayElapsedCallback(htim);
        htim->PWM_PulseFinishedCallback(htim);
#else
        HAL_TIM_OC_DelayElapsedCallback(htim);
 80013de:	6878      	ldr	r0, [r7, #4]
 80013e0:	f000 f97d 	bl	80016de <HAL_TIM_OC_DelayElapsedCallback>
        HAL_TIM_PWM_PulseFinishedCallback(htim);
 80013e4:	6878      	ldr	r0, [r7, #4]
 80013e6:	f000 f98c 	bl	8001702 <HAL_TIM_PWM_PulseFinishedCallback>
#endif /* USE_HAL_TIM_REGISTER_CALLBACKS */
      }
      htim->Channel = HAL_TIM_ACTIVE_CHANNEL_CLEARED;
 80013ea:	687b      	ldr	r3, [r7, #4]
 80013ec:	2200      	movs	r2, #0
 80013ee:	771a      	strb	r2, [r3, #28]
    }
  }
  /* Capture compare 3 event */
  if (__HAL_TIM_GET_FLAG(htim, TIM_FLAG_CC3) != RESET)
 80013f0:	687b      	ldr	r3, [r7, #4]
 80013f2:	681b      	ldr	r3, [r3, #0]
 80013f4:	691b      	ldr	r3, [r3, #16]
 80013f6:	f003 0308 	and.w	r3, r3, #8
 80013fa:	2b08      	cmp	r3, #8
 80013fc:	d122      	bne.n	8001444 <HAL_TIM_IRQHandler+0x104>
  {
    if (__HAL_TIM_GET_IT_SOURCE(htim, TIM_IT_CC3) != RESET)
 80013fe:	687b      	ldr	r3, [r7, #4]
 8001400:	681b      	ldr	r3, [r3, #0]
 8001402:	68db      	ldr	r3, [r3, #12]
 8001404:	f003 0308 	and.w	r3, r3, #8
 8001408:	2b08      	cmp	r3, #8
 800140a:	d11b      	bne.n	8001444 <HAL_TIM_IRQHandler+0x104>
    {
      __HAL_TIM_CLEAR_IT(htim, TIM_IT_CC3);
 800140c:	687b      	ldr	r3, [r7, #4]
 800140e:	681b      	ldr	r3, [r3, #0]
 8001410:	f06f 0208 	mvn.w	r2, #8
 8001414:	611a      	str	r2, [r3, #16]
      htim->Channel = HAL_TIM_ACTIVE_CHANNEL_3;
 8001416:	687b      	ldr	r3, [r7, #4]
 8001418:	2204      	movs	r2, #4
 800141a:	771a      	strb	r2, [r3, #28]
      /* Input capture event */
      if ((htim->Instance->CCMR2 & TIM_CCMR2_CC3S) != 0x00U)
 800141c:	687b      	ldr	r3, [r7, #4]
 800141e:	681b      	ldr	r3, [r3, #0]
 8001420:	69db      	ldr	r3, [r3, #28]
 8001422:	f003 0303 	and.w	r3, r3, #3
 8001426:	2b00      	cmp	r3, #0
 8001428:	d003      	beq.n	8001432 <HAL_TIM_IRQHandler+0xf2>
      {
#if (USE_HAL_TIM_REGISTER_CALLBACKS == 1)
        htim->IC_CaptureCallback(htim);
#else
        HAL_TIM_IC_CaptureCallback(htim);
 800142a:	6878      	ldr	r0, [r7, #4]
 800142c:	f000 f960 	bl	80016f0 <HAL_TIM_IC_CaptureCallback>
 8001430:	e005      	b.n	800143e <HAL_TIM_IRQHandler+0xfe>
      {
#if (USE_HAL_TIM_REGISTER_CALLBACKS == 1)
        htim->OC_DelayElapsedCallback(htim);
        htim->PWM_PulseFinishedCallback(htim);
#else
        HAL_TIM_OC_DelayElapsedCallback(htim);
 8001432:	6878      	ldr	r0, [r7, #4]
 8001434:	f000 f953 	bl	80016de <HAL_TIM_OC_DelayElapsedCallback>
        HAL_TIM_PWM_PulseFinishedCallback(htim);
 8001438:	6878      	ldr	r0, [r7, #4]
 800143a:	f000 f962 	bl	8001702 <HAL_TIM_PWM_PulseFinishedCallback>
#endif /* USE_HAL_TIM_REGISTER_CALLBACKS */
      }
      htim->Channel = HAL_TIM_ACTIVE_CHANNEL_CLEARED;
 800143e:	687b      	ldr	r3, [r7, #4]
 8001440:	2200      	movs	r2, #0
 8001442:	771a      	strb	r2, [r3, #28]
    }
  }
  /* Capture compare 4 event */
  if (__HAL_TIM_GET_FLAG(htim, TIM_FLAG_CC4) != RESET)
 8001444:	687b      	ldr	r3, [r7, #4]
 8001446:	681b      	ldr	r3, [r3, #0]
 8001448:	691b      	ldr	r3, [r3, #16]
 800144a:	f003 0310 	and.w	r3, r3, #16
 800144e:	2b10      	cmp	r3, #16
 8001450:	d122      	bne.n	8001498 <HAL_TIM_IRQHandler+0x158>
  {
    if (__HAL_TIM_GET_IT_SOURCE(htim, TIM_IT_CC4) != RESET)
 8001452:	687b      	ldr	r3, [r7, #4]
 8001454:	681b      	ldr	r3, [r3, #0]
 8001456:	68db      	ldr	r3, [r3, #12]
 8001458:	f003 0310 	and.w	r3, r3, #16
 800145c:	2b10      	cmp	r3, #16
 800145e:	d11b      	bne.n	8001498 <HAL_TIM_IRQHandler+0x158>
    {
      __HAL_TIM_CLEAR_IT(htim, TIM_IT_CC4);
 8001460:	687b      	ldr	r3, [r7, #4]
 8001462:	681b      	ldr	r3, [r3, #0]
 8001464:	f06f 0210 	mvn.w	r2, #16
 8001468:	611a      	str	r2, [r3, #16]
      htim->Channel = HAL_TIM_ACTIVE_CHANNEL_4;
 800146a:	687b      	ldr	r3, [r7, #4]
 800146c:	2208      	movs	r2, #8
 800146e:	771a      	strb	r2, [r3, #28]
      /* Input capture event */
      if ((htim->Instance->CCMR2 & TIM_CCMR2_CC4S) != 0x00U)
 8001470:	687b      	ldr	r3, [r7, #4]
 8001472:	681b      	ldr	r3, [r3, #0]
 8001474:	69db      	ldr	r3, [r3, #28]
 8001476:	f403 7340 	and.w	r3, r3, #768	; 0x300
 800147a:	2b00      	cmp	r3, #0
 800147c:	d003      	beq.n	8001486 <HAL_TIM_IRQHandler+0x146>
      {
#if (USE_HAL_TIM_REGISTER_CALLBACKS == 1)
        htim->IC_CaptureCallback(htim);
#else
        HAL_TIM_IC_CaptureCallback(htim);
 800147e:	6878      	ldr	r0, [r7, #4]
 8001480:	f000 f936 	bl	80016f0 <HAL_TIM_IC_CaptureCallback>
 8001484:	e005      	b.n	8001492 <HAL_TIM_IRQHandler+0x152>
      {
#if (USE_HAL_TIM_REGISTER_CALLBACKS == 1)
        htim->OC_DelayElapsedCallback(htim);
        htim->PWM_PulseFinishedCallback(htim);
#else
        HAL_TIM_OC_DelayElapsedCallback(htim);
 8001486:	6878      	ldr	r0, [r7, #4]
 8001488:	f000 f929 	bl	80016de <HAL_TIM_OC_DelayElapsedCallback>
        HAL_TIM_PWM_PulseFinishedCallback(htim);
 800148c:	6878      	ldr	r0, [r7, #4]
 800148e:	f000 f938 	bl	8001702 <HAL_TIM_PWM_PulseFinishedCallback>
#endif /* USE_HAL_TIM_REGISTER_CALLBACKS */
      }
      htim->Channel = HAL_TIM_ACTIVE_CHANNEL_CLEARED;
 8001492:	687b      	ldr	r3, [r7, #4]
 8001494:	2200      	movs	r2, #0
 8001496:	771a      	strb	r2, [r3, #28]
    }
  }
  /* TIM Update event */
  if (__HAL_TIM_GET_FLAG(htim, TIM_FLAG_UPDATE) != RESET)
 8001498:	687b      	ldr	r3, [r7, #4]
 800149a:	681b      	ldr	r3, [r3, #0]
 800149c:	691b      	ldr	r3, [r3, #16]
 800149e:	f003 0301 	and.w	r3, r3, #1
 80014a2:	2b01      	cmp	r3, #1
 80014a4:	d10e      	bne.n	80014c4 <HAL_TIM_IRQHandler+0x184>
  {
    if (__HAL_TIM_GET_IT_SOURCE(htim, TIM_IT_UPDATE) != RESET)
 80014a6:	687b      	ldr	r3, [r7, #4]
 80014a8:	681b      	ldr	r3, [r3, #0]
 80014aa:	68db      	ldr	r3, [r3, #12]
 80014ac:	f003 0301 	and.w	r3, r3, #1
 80014b0:	2b01      	cmp	r3, #1
 80014b2:	d107      	bne.n	80014c4 <HAL_TIM_IRQHandler+0x184>
    {
      __HAL_TIM_CLEAR_IT(htim, TIM_IT_UPDATE);
 80014b4:	687b      	ldr	r3, [r7, #4]
 80014b6:	681b      	ldr	r3, [r3, #0]
 80014b8:	f06f 0201 	mvn.w	r2, #1
 80014bc:	611a      	str	r2, [r3, #16]
#if (USE_HAL_TIM_REGISTER_CALLBACKS == 1)
      htim->PeriodElapsedCallback(htim);
#else
      HAL_TIM_PeriodElapsedCallback(htim);
 80014be:	6878      	ldr	r0, [r7, #4]
 80014c0:	f7fe ff0e 	bl	80002e0 <HAL_TIM_PeriodElapsedCallback>
#endif /* USE_HAL_TIM_REGISTER_CALLBACKS */
    }
  }
  /* TIM Break input event */
  if (__HAL_TIM_GET_FLAG(htim, TIM_FLAG_BREAK) != RESET)
 80014c4:	687b      	ldr	r3, [r7, #4]
 80014c6:	681b      	ldr	r3, [r3, #0]
 80014c8:	691b      	ldr	r3, [r3, #16]
 80014ca:	f003 0380 	and.w	r3, r3, #128	; 0x80
 80014ce:	2b80      	cmp	r3, #128	; 0x80
 80014d0:	d10e      	bne.n	80014f0 <HAL_TIM_IRQHandler+0x1b0>
  {
    if (__HAL_TIM_GET_IT_SOURCE(htim, TIM_IT_BREAK) != RESET)
 80014d2:	687b      	ldr	r3, [r7, #4]
 80014d4:	681b      	ldr	r3, [r3, #0]
 80014d6:	68db      	ldr	r3, [r3, #12]
 80014d8:	f003 0380 	and.w	r3, r3, #128	; 0x80
 80014dc:	2b80      	cmp	r3, #128	; 0x80
 80014de:	d107      	bne.n	80014f0 <HAL_TIM_IRQHandler+0x1b0>
    {
      __HAL_TIM_CLEAR_IT(htim, TIM_IT_BREAK);
 80014e0:	687b      	ldr	r3, [r7, #4]
 80014e2:	681b      	ldr	r3, [r3, #0]
 80014e4:	f06f 0280 	mvn.w	r2, #128	; 0x80
 80014e8:	611a      	str	r2, [r3, #16]
#if (USE_HAL_TIM_REGISTER_CALLBACKS == 1)
      htim->BreakCallback(htim);
#else
      HAL_TIMEx_BreakCallback(htim);
 80014ea:	6878      	ldr	r0, [r7, #4]
 80014ec:	f000 fa6b 	bl	80019c6 <HAL_TIMEx_BreakCallback>
#endif /* USE_HAL_TIM_REGISTER_CALLBACKS */
    }
  }
  /* TIM Trigger detection event */
  if (__HAL_TIM_GET_FLAG(htim, TIM_FLAG_TRIGGER) != RESET)
 80014f0:	687b      	ldr	r3, [r7, #4]
 80014f2:	681b      	ldr	r3, [r3, #0]
 80014f4:	691b      	ldr	r3, [r3, #16]
 80014f6:	f003 0340 	and.w	r3, r3, #64	; 0x40
 80014fa:	2b40      	cmp	r3, #64	; 0x40
 80014fc:	d10e      	bne.n	800151c <HAL_TIM_IRQHandler+0x1dc>
  {
    if (__HAL_TIM_GET_IT_SOURCE(htim, TIM_IT_TRIGGER) != RESET)
 80014fe:	687b      	ldr	r3, [r7, #4]
 8001500:	681b      	ldr	r3, [r3, #0]
 8001502:	68db      	ldr	r3, [r3, #12]
 8001504:	f003 0340 	and.w	r3, r3, #64	; 0x40
 8001508:	2b40      	cmp	r3, #64	; 0x40
 800150a:	d107      	bne.n	800151c <HAL_TIM_IRQHandler+0x1dc>
    {
      __HAL_TIM_CLEAR_IT(htim, TIM_IT_TRIGGER);
 800150c:	687b      	ldr	r3, [r7, #4]
 800150e:	681b      	ldr	r3, [r3, #0]
 8001510:	f06f 0240 	mvn.w	r2, #64	; 0x40
 8001514:	611a      	str	r2, [r3, #16]
#if (USE_HAL_TIM_REGISTER_CALLBACKS == 1)
      htim->TriggerCallback(htim);
#else
      HAL_TIM_TriggerCallback(htim);
 8001516:	6878      	ldr	r0, [r7, #4]
 8001518:	f000 f8fc 	bl	8001714 <HAL_TIM_TriggerCallback>
#endif /* USE_HAL_TIM_REGISTER_CALLBACKS */
    }
  }
  /* TIM commutation event */
  if (__HAL_TIM_GET_FLAG(htim, TIM_FLAG_COM) != RESET)
 800151c:	687b      	ldr	r3, [r7, #4]
 800151e:	681b      	ldr	r3, [r3, #0]
 8001520:	691b      	ldr	r3, [r3, #16]
 8001522:	f003 0320 	and.w	r3, r3, #32
 8001526:	2b20      	cmp	r3, #32
 8001528:	d10e      	bne.n	8001548 <HAL_TIM_IRQHandler+0x208>
  {
    if (__HAL_TIM_GET_IT_SOURCE(htim, TIM_IT_COM) != RESET)
 800152a:	687b      	ldr	r3, [r7, #4]
 800152c:	681b      	ldr	r3, [r3, #0]
 800152e:	68db      	ldr	r3, [r3, #12]
 8001530:	f003 0320 	and.w	r3, r3, #32
 8001534:	2b20      	cmp	r3, #32
 8001536:	d107      	bne.n	8001548 <HAL_TIM_IRQHandler+0x208>
    {
      __HAL_TIM_CLEAR_IT(htim, TIM_FLAG_COM);
 8001538:	687b      	ldr	r3, [r7, #4]
 800153a:	681b      	ldr	r3, [r3, #0]
 800153c:	f06f 0220 	mvn.w	r2, #32
 8001540:	611a      	str	r2, [r3, #16]
#if (USE_HAL_TIM_REGISTER_CALLBACKS == 1)
      htim->CommutationCallback(htim);
#else
      HAL_TIMEx_CommutCallback(htim);
 8001542:	6878      	ldr	r0, [r7, #4]
 8001544:	f000 fa36 	bl	80019b4 <HAL_TIMEx_CommutCallback>
#endif /* USE_HAL_TIM_REGISTER_CALLBACKS */
    }
  }
}
 8001548:	bf00      	nop
 800154a:	3708      	adds	r7, #8
 800154c:	46bd      	mov	sp, r7
 800154e:	bd80      	pop	{r7, pc}

08001550 <HAL_TIM_ConfigClockSource>:
  * @param  sClockSourceConfig pointer to a TIM_ClockConfigTypeDef structure that
  *         contains the clock source information for the TIM peripheral.
  * @retval HAL status
  */
HAL_StatusTypeDef HAL_TIM_ConfigClockSource(TIM_HandleTypeDef *htim, const TIM_ClockConfigTypeDef *sClockSourceConfig)
{
 8001550:	b580      	push	{r7, lr}
 8001552:	b084      	sub	sp, #16
 8001554:	af00      	add	r7, sp, #0
 8001556:	6078      	str	r0, [r7, #4]
 8001558:	6039      	str	r1, [r7, #0]
  HAL_StatusTypeDef status = HAL_OK;
 800155a:	2300      	movs	r3, #0
 800155c:	73fb      	strb	r3, [r7, #15]
  uint32_t tmpsmcr;

  /* Process Locked */
  __HAL_LOCK(htim);
 800155e:	687b      	ldr	r3, [r7, #4]
 8001560:	f893 303c 	ldrb.w	r3, [r3, #60]	; 0x3c
 8001564:	2b01      	cmp	r3, #1
 8001566:	d101      	bne.n	800156c <HAL_TIM_ConfigClockSource+0x1c>
 8001568:	2302      	movs	r3, #2
 800156a:	e0b4      	b.n	80016d6 <HAL_TIM_ConfigClockSource+0x186>
 800156c:	687b      	ldr	r3, [r7, #4]
 800156e:	2201      	movs	r2, #1
 8001570:	f883 203c 	strb.w	r2, [r3, #60]	; 0x3c

  htim->State = HAL_TIM_STATE_BUSY;
 8001574:	687b      	ldr	r3, [r7, #4]
 8001576:	2202      	movs	r2, #2
 8001578:	f883 203d 	strb.w	r2, [r3, #61]	; 0x3d

  /* Check the parameters */
  assert_param(IS_TIM_CLOCKSOURCE(sClockSourceConfig->ClockSource));

  /* Reset the SMS, TS, ECE, ETPS and ETRF bits */
  tmpsmcr = htim->Instance->SMCR;
 800157c:	687b      	ldr	r3, [r7, #4]
 800157e:	681b      	ldr	r3, [r3, #0]
 8001580:	689b      	ldr	r3, [r3, #8]
 8001582:	60bb      	str	r3, [r7, #8]
  tmpsmcr &= ~(TIM_SMCR_SMS | TIM_SMCR_TS);
 8001584:	68bb      	ldr	r3, [r7, #8]
 8001586:	f023 0377 	bic.w	r3, r3, #119	; 0x77
 800158a:	60bb      	str	r3, [r7, #8]
  tmpsmcr &= ~(TIM_SMCR_ETF | TIM_SMCR_ETPS | TIM_SMCR_ECE | TIM_SMCR_ETP);
 800158c:	68bb      	ldr	r3, [r7, #8]
 800158e:	f423 437f 	bic.w	r3, r3, #65280	; 0xff00
 8001592:	60bb      	str	r3, [r7, #8]
  htim->Instance->SMCR = tmpsmcr;
 8001594:	687b      	ldr	r3, [r7, #4]
 8001596:	681b      	ldr	r3, [r3, #0]
 8001598:	68ba      	ldr	r2, [r7, #8]
 800159a:	609a      	str	r2, [r3, #8]

  switch (sClockSourceConfig->ClockSource)
 800159c:	683b      	ldr	r3, [r7, #0]
 800159e:	681b      	ldr	r3, [r3, #0]
 80015a0:	f5b3 5f00 	cmp.w	r3, #8192	; 0x2000
 80015a4:	d03e      	beq.n	8001624 <HAL_TIM_ConfigClockSource+0xd4>
 80015a6:	f5b3 5f00 	cmp.w	r3, #8192	; 0x2000
 80015aa:	f200 8087 	bhi.w	80016bc <HAL_TIM_ConfigClockSource+0x16c>
 80015ae:	f5b3 5f80 	cmp.w	r3, #4096	; 0x1000
 80015b2:	f000 8086 	beq.w	80016c2 <HAL_TIM_ConfigClockSource+0x172>
 80015b6:	f5b3 5f80 	cmp.w	r3, #4096	; 0x1000
 80015ba:	d87f      	bhi.n	80016bc <HAL_TIM_ConfigClockSource+0x16c>
 80015bc:	2b70      	cmp	r3, #112	; 0x70
 80015be:	d01a      	beq.n	80015f6 <HAL_TIM_ConfigClockSource+0xa6>
 80015c0:	2b70      	cmp	r3, #112	; 0x70
 80015c2:	d87b      	bhi.n	80016bc <HAL_TIM_ConfigClockSource+0x16c>
 80015c4:	2b60      	cmp	r3, #96	; 0x60
 80015c6:	d050      	beq.n	800166a <HAL_TIM_ConfigClockSource+0x11a>
 80015c8:	2b60      	cmp	r3, #96	; 0x60
 80015ca:	d877      	bhi.n	80016bc <HAL_TIM_ConfigClockSource+0x16c>
 80015cc:	2b50      	cmp	r3, #80	; 0x50
 80015ce:	d03c      	beq.n	800164a <HAL_TIM_ConfigClockSource+0xfa>
 80015d0:	2b50      	cmp	r3, #80	; 0x50
 80015d2:	d873      	bhi.n	80016bc <HAL_TIM_ConfigClockSource+0x16c>
 80015d4:	2b40      	cmp	r3, #64	; 0x40
 80015d6:	d058      	beq.n	800168a <HAL_TIM_ConfigClockSource+0x13a>
 80015d8:	2b40      	cmp	r3, #64	; 0x40
 80015da:	d86f      	bhi.n	80016bc <HAL_TIM_ConfigClockSource+0x16c>
 80015dc:	2b30      	cmp	r3, #48	; 0x30
 80015de:	d064      	beq.n	80016aa <HAL_TIM_ConfigClockSource+0x15a>
 80015e0:	2b30      	cmp	r3, #48	; 0x30
 80015e2:	d86b      	bhi.n	80016bc <HAL_TIM_ConfigClockSource+0x16c>
 80015e4:	2b20      	cmp	r3, #32
 80015e6:	d060      	beq.n	80016aa <HAL_TIM_ConfigClockSource+0x15a>
 80015e8:	2b20      	cmp	r3, #32
 80015ea:	d867      	bhi.n	80016bc <HAL_TIM_ConfigClockSource+0x16c>
 80015ec:	2b00      	cmp	r3, #0
 80015ee:	d05c      	beq.n	80016aa <HAL_TIM_ConfigClockSource+0x15a>
 80015f0:	2b10      	cmp	r3, #16
 80015f2:	d05a      	beq.n	80016aa <HAL_TIM_ConfigClockSource+0x15a>
 80015f4:	e062      	b.n	80016bc <HAL_TIM_ConfigClockSource+0x16c>
      assert_param(IS_TIM_CLOCKPRESCALER(sClockSourceConfig->ClockPrescaler));
      assert_param(IS_TIM_CLOCKPOLARITY(sClockSourceConfig->ClockPolarity));
      assert_param(IS_TIM_CLOCKFILTER(sClockSourceConfig->ClockFilter));

      /* Configure the ETR Clock source */
      TIM_ETR_SetConfig(htim->Instance,
 80015f6:	687b      	ldr	r3, [r7, #4]
 80015f8:	6818      	ldr	r0, [r3, #0]
 80015fa:	683b      	ldr	r3, [r7, #0]
 80015fc:	6899      	ldr	r1, [r3, #8]
 80015fe:	683b      	ldr	r3, [r7, #0]
 8001600:	685a      	ldr	r2, [r3, #4]
 8001602:	683b      	ldr	r3, [r7, #0]
 8001604:	68db      	ldr	r3, [r3, #12]
 8001606:	f000 f95e 	bl	80018c6 <TIM_ETR_SetConfig>
                        sClockSourceConfig->ClockPrescaler,
                        sClockSourceConfig->ClockPolarity,
                        sClockSourceConfig->ClockFilter);

      /* Select the External clock mode1 and the ETRF trigger */
      tmpsmcr = htim->Instance->SMCR;
 800160a:	687b      	ldr	r3, [r7, #4]
 800160c:	681b      	ldr	r3, [r3, #0]
 800160e:	689b      	ldr	r3, [r3, #8]
 8001610:	60bb      	str	r3, [r7, #8]
      tmpsmcr |= (TIM_SLAVEMODE_EXTERNAL1 | TIM_CLOCKSOURCE_ETRMODE1);
 8001612:	68bb      	ldr	r3, [r7, #8]
 8001614:	f043 0377 	orr.w	r3, r3, #119	; 0x77
 8001618:	60bb      	str	r3, [r7, #8]
      /* Write to TIMx SMCR */
      htim->Instance->SMCR = tmpsmcr;
 800161a:	687b      	ldr	r3, [r7, #4]
 800161c:	681b      	ldr	r3, [r3, #0]
 800161e:	68ba      	ldr	r2, [r7, #8]
 8001620:	609a      	str	r2, [r3, #8]
      break;
 8001622:	e04f      	b.n	80016c4 <HAL_TIM_ConfigClockSource+0x174>
      assert_param(IS_TIM_CLOCKPRESCALER(sClockSourceConfig->ClockPrescaler));
      assert_param(IS_TIM_CLOCKPOLARITY(sClockSourceConfig->ClockPolarity));
      assert_param(IS_TIM_CLOCKFILTER(sClockSourceConfig->ClockFilter));

      /* Configure the ETR Clock source */
      TIM_ETR_SetConfig(htim->Instance,
 8001624:	687b      	ldr	r3, [r7, #4]
 8001626:	6818      	ldr	r0, [r3, #0]
 8001628:	683b      	ldr	r3, [r7, #0]
 800162a:	6899      	ldr	r1, [r3, #8]
 800162c:	683b      	ldr	r3, [r7, #0]
 800162e:	685a      	ldr	r2, [r3, #4]
 8001630:	683b      	ldr	r3, [r7, #0]
 8001632:	68db      	ldr	r3, [r3, #12]
 8001634:	f000 f947 	bl	80018c6 <TIM_ETR_SetConfig>
                        sClockSourceConfig->ClockPrescaler,
                        sClockSourceConfig->ClockPolarity,
                        sClockSourceConfig->ClockFilter);
      /* Enable the External clock mode2 */
      htim->Instance->SMCR |= TIM_SMCR_ECE;
 8001638:	687b      	ldr	r3, [r7, #4]
 800163a:	681b      	ldr	r3, [r3, #0]
 800163c:	689a      	ldr	r2, [r3, #8]
 800163e:	687b      	ldr	r3, [r7, #4]
 8001640:	681b      	ldr	r3, [r3, #0]
 8001642:	f442 4280 	orr.w	r2, r2, #16384	; 0x4000
 8001646:	609a      	str	r2, [r3, #8]
      break;
 8001648:	e03c      	b.n	80016c4 <HAL_TIM_ConfigClockSource+0x174>

      /* Check TI1 input conditioning related parameters */
      assert_param(IS_TIM_CLOCKPOLARITY(sClockSourceConfig->ClockPolarity));
      assert_param(IS_TIM_CLOCKFILTER(sClockSourceConfig->ClockFilter));

      TIM_TI1_ConfigInputStage(htim->Instance,
 800164a:	687b      	ldr	r3, [r7, #4]
 800164c:	6818      	ldr	r0, [r3, #0]
 800164e:	683b      	ldr	r3, [r7, #0]
 8001650:	6859      	ldr	r1, [r3, #4]
 8001652:	683b      	ldr	r3, [r7, #0]
 8001654:	68db      	ldr	r3, [r3, #12]
 8001656:	461a      	mov	r2, r3
 8001658:	f000 f8be 	bl	80017d8 <TIM_TI1_ConfigInputStage>
                               sClockSourceConfig->ClockPolarity,
                               sClockSourceConfig->ClockFilter);
      TIM_ITRx_SetConfig(htim->Instance, TIM_CLOCKSOURCE_TI1);
 800165c:	687b      	ldr	r3, [r7, #4]
 800165e:	681b      	ldr	r3, [r3, #0]
 8001660:	2150      	movs	r1, #80	; 0x50
 8001662:	4618      	mov	r0, r3
 8001664:	f000 f915 	bl	8001892 <TIM_ITRx_SetConfig>
      break;
 8001668:	e02c      	b.n	80016c4 <HAL_TIM_ConfigClockSource+0x174>

      /* Check TI2 input conditioning related parameters */
      assert_param(IS_TIM_CLOCKPOLARITY(sClockSourceConfig->ClockPolarity));
      assert_param(IS_TIM_CLOCKFILTER(sClockSourceConfig->ClockFilter));

      TIM_TI2_ConfigInputStage(htim->Instance,
 800166a:	687b      	ldr	r3, [r7, #4]
 800166c:	6818      	ldr	r0, [r3, #0]
 800166e:	683b      	ldr	r3, [r7, #0]
 8001670:	6859      	ldr	r1, [r3, #4]
 8001672:	683b      	ldr	r3, [r7, #0]
 8001674:	68db      	ldr	r3, [r3, #12]
 8001676:	461a      	mov	r2, r3
 8001678:	f000 f8dc 	bl	8001834 <TIM_TI2_ConfigInputStage>
                               sClockSourceConfig->ClockPolarity,
                               sClockSourceConfig->ClockFilter);
      TIM_ITRx_SetConfig(htim->Instance, TIM_CLOCKSOURCE_TI2);
 800167c:	687b      	ldr	r3, [r7, #4]
 800167e:	681b      	ldr	r3, [r3, #0]
 8001680:	2160      	movs	r1, #96	; 0x60
 8001682:	4618      	mov	r0, r3
 8001684:	f000 f905 	bl	8001892 <TIM_ITRx_SetConfig>
      break;
 8001688:	e01c      	b.n	80016c4 <HAL_TIM_ConfigClockSource+0x174>

      /* Check TI1 input conditioning related parameters */
      assert_param(IS_TIM_CLOCKPOLARITY(sClockSourceConfig->ClockPolarity));
      assert_param(IS_TIM_CLOCKFILTER(sClockSourceConfig->ClockFilter));

      TIM_TI1_ConfigInputStage(htim->Instance,
 800168a:	687b      	ldr	r3, [r7, #4]
 800168c:	6818      	ldr	r0, [r3, #0]
 800168e:	683b      	ldr	r3, [r7, #0]
 8001690:	6859      	ldr	r1, [r3, #4]
 8001692:	683b      	ldr	r3, [r7, #0]
 8001694:	68db      	ldr	r3, [r3, #12]
 8001696:	461a      	mov	r2, r3
 8001698:	f000 f89e 	bl	80017d8 <TIM_TI1_ConfigInputStage>
                               sClockSourceConfig->ClockPolarity,
                               sClockSourceConfig->ClockFilter);
      TIM_ITRx_SetConfig(htim->Instance, TIM_CLOCKSOURCE_TI1ED);
 800169c:	687b      	ldr	r3, [r7, #4]
 800169e:	681b      	ldr	r3, [r3, #0]
 80016a0:	2140      	movs	r1, #64	; 0x40
 80016a2:	4618      	mov	r0, r3
 80016a4:	f000 f8f5 	bl	8001892 <TIM_ITRx_SetConfig>
      break;
 80016a8:	e00c      	b.n	80016c4 <HAL_TIM_ConfigClockSource+0x174>
    case TIM_CLOCKSOURCE_ITR3:
    {
      /* Check whether or not the timer instance supports internal trigger input */
      assert_param(IS_TIM_CLOCKSOURCE_ITRX_INSTANCE(htim->Instance));

      TIM_ITRx_SetConfig(htim->Instance, sClockSourceConfig->ClockSource);
 80016aa:	687b      	ldr	r3, [r7, #4]
 80016ac:	681a      	ldr	r2, [r3, #0]
 80016ae:	683b      	ldr	r3, [r7, #0]
 80016b0:	681b      	ldr	r3, [r3, #0]
 80016b2:	4619      	mov	r1, r3
 80016b4:	4610      	mov	r0, r2
 80016b6:	f000 f8ec 	bl	8001892 <TIM_ITRx_SetConfig>
      break;
 80016ba:	e003      	b.n	80016c4 <HAL_TIM_ConfigClockSource+0x174>
    }

    default:
      status = HAL_ERROR;
 80016bc:	2301      	movs	r3, #1
 80016be:	73fb      	strb	r3, [r7, #15]
      break;
 80016c0:	e000      	b.n	80016c4 <HAL_TIM_ConfigClockSource+0x174>
      break;
 80016c2:	bf00      	nop
  }
  htim->State = HAL_TIM_STATE_READY;
 80016c4:	687b      	ldr	r3, [r7, #4]
 80016c6:	2201      	movs	r2, #1
 80016c8:	f883 203d 	strb.w	r2, [r3, #61]	; 0x3d

  __HAL_UNLOCK(htim);
 80016cc:	687b      	ldr	r3, [r7, #4]
 80016ce:	2200      	movs	r2, #0
 80016d0:	f883 203c 	strb.w	r2, [r3, #60]	; 0x3c

  return status;
 80016d4:	7bfb      	ldrb	r3, [r7, #15]
}
 80016d6:	4618      	mov	r0, r3
 80016d8:	3710      	adds	r7, #16
 80016da:	46bd      	mov	sp, r7
 80016dc:	bd80      	pop	{r7, pc}

080016de <HAL_TIM_OC_DelayElapsedCallback>:
  * @brief  Output Compare callback in non-blocking mode
  * @param  htim TIM OC handle
  * @retval None
  */
__weak void HAL_TIM_OC_DelayElapsedCallback(TIM_HandleTypeDef *htim)
{
 80016de:	b480      	push	{r7}
 80016e0:	b083      	sub	sp, #12
 80016e2:	af00      	add	r7, sp, #0
 80016e4:	6078      	str	r0, [r7, #4]
  UNUSED(htim);

  /* NOTE : This function should not be modified, when the callback is needed,
            the HAL_TIM_OC_DelayElapsedCallback could be implemented in the user file
   */
}
 80016e6:	bf00      	nop
 80016e8:	370c      	adds	r7, #12
 80016ea:	46bd      	mov	sp, r7
 80016ec:	bc80      	pop	{r7}
 80016ee:	4770      	bx	lr

080016f0 <HAL_TIM_IC_CaptureCallback>:
  * @brief  Input Capture callback in non-blocking mode
  * @param  htim TIM IC handle
  * @retval None
  */
__weak void HAL_TIM_IC_CaptureCallback(TIM_HandleTypeDef *htim)
{
 80016f0:	b480      	push	{r7}
 80016f2:	b083      	sub	sp, #12
 80016f4:	af00      	add	r7, sp, #0
 80016f6:	6078      	str	r0, [r7, #4]
  UNUSED(htim);

  /* NOTE : This function should not be modified, when the callback is needed,
            the HAL_TIM_IC_CaptureCallback could be implemented in the user file
   */
}
 80016f8:	bf00      	nop
 80016fa:	370c      	adds	r7, #12
 80016fc:	46bd      	mov	sp, r7
 80016fe:	bc80      	pop	{r7}
 8001700:	4770      	bx	lr

08001702 <HAL_TIM_PWM_PulseFinishedCallback>:
  * @brief  PWM Pulse finished callback in non-blocking mode
  * @param  htim TIM handle
  * @retval None
  */
__weak void HAL_TIM_PWM_PulseFinishedCallback(TIM_HandleTypeDef *htim)
{
 8001702:	b480      	push	{r7}
 8001704:	b083      	sub	sp, #12
 8001706:	af00      	add	r7, sp, #0
 8001708:	6078      	str	r0, [r7, #4]
  UNUSED(htim);

  /* NOTE : This function should not be modified, when the callback is needed,
            the HAL_TIM_PWM_PulseFinishedCallback could be implemented in the user file
   */
}
 800170a:	bf00      	nop
 800170c:	370c      	adds	r7, #12
 800170e:	46bd      	mov	sp, r7
 8001710:	bc80      	pop	{r7}
 8001712:	4770      	bx	lr

08001714 <HAL_TIM_TriggerCallback>:
  * @brief  Hall Trigger detection callback in non-blocking mode
  * @param  htim TIM handle
  * @retval None
  */
__weak void HAL_TIM_TriggerCallback(TIM_HandleTypeDef *htim)
{
 8001714:	b480      	push	{r7}
 8001716:	b083      	sub	sp, #12
 8001718:	af00      	add	r7, sp, #0
 800171a:	6078      	str	r0, [r7, #4]
  UNUSED(htim);

  /* NOTE : This function should not be modified, when the callback is needed,
            the HAL_TIM_TriggerCallback could be implemented in the user file
   */
}
 800171c:	bf00      	nop
 800171e:	370c      	adds	r7, #12
 8001720:	46bd      	mov	sp, r7
 8001722:	bc80      	pop	{r7}
 8001724:	4770      	bx	lr
	...

08001728 <TIM_Base_SetConfig>:
  * @param  TIMx TIM peripheral
  * @param  Structure TIM Base configuration structure
  * @retval None
  */
void TIM_Base_SetConfig(TIM_TypeDef *TIMx, const TIM_Base_InitTypeDef *Structure)
{
 8001728:	b480      	push	{r7}
 800172a:	b085      	sub	sp, #20
 800172c:	af00      	add	r7, sp, #0
 800172e:	6078      	str	r0, [r7, #4]
 8001730:	6039      	str	r1, [r7, #0]
  uint32_t tmpcr1;
  tmpcr1 = TIMx->CR1;
 8001732:	687b      	ldr	r3, [r7, #4]
 8001734:	681b      	ldr	r3, [r3, #0]
 8001736:	60fb      	str	r3, [r7, #12]

  /* Set TIM Time Base Unit parameters ---------------------------------------*/
  if (IS_TIM_COUNTER_MODE_SELECT_INSTANCE(TIMx))
 8001738:	687b      	ldr	r3, [r7, #4]
 800173a:	4a25      	ldr	r2, [pc, #148]	; (80017d0 <TIM_Base_SetConfig+0xa8>)
 800173c:	4293      	cmp	r3, r2
 800173e:	d007      	beq.n	8001750 <TIM_Base_SetConfig+0x28>
 8001740:	687b      	ldr	r3, [r7, #4]
 8001742:	f1b3 4f80 	cmp.w	r3, #1073741824	; 0x40000000
 8001746:	d003      	beq.n	8001750 <TIM_Base_SetConfig+0x28>
 8001748:	687b      	ldr	r3, [r7, #4]
 800174a:	4a22      	ldr	r2, [pc, #136]	; (80017d4 <TIM_Base_SetConfig+0xac>)
 800174c:	4293      	cmp	r3, r2
 800174e:	d108      	bne.n	8001762 <TIM_Base_SetConfig+0x3a>
  {
    /* Select the Counter Mode */
    tmpcr1 &= ~(TIM_CR1_DIR | TIM_CR1_CMS);
 8001750:	68fb      	ldr	r3, [r7, #12]
 8001752:	f023 0370 	bic.w	r3, r3, #112	; 0x70
 8001756:	60fb      	str	r3, [r7, #12]
    tmpcr1 |= Structure->CounterMode;
 8001758:	683b      	ldr	r3, [r7, #0]
 800175a:	685b      	ldr	r3, [r3, #4]
 800175c:	68fa      	ldr	r2, [r7, #12]
 800175e:	4313      	orrs	r3, r2
 8001760:	60fb      	str	r3, [r7, #12]
  }

  if (IS_TIM_CLOCK_DIVISION_INSTANCE(TIMx))
 8001762:	687b      	ldr	r3, [r7, #4]
 8001764:	4a1a      	ldr	r2, [pc, #104]	; (80017d0 <TIM_Base_SetConfig+0xa8>)
 8001766:	4293      	cmp	r3, r2
 8001768:	d007      	beq.n	800177a <TIM_Base_SetConfig+0x52>
 800176a:	687b      	ldr	r3, [r7, #4]
 800176c:	f1b3 4f80 	cmp.w	r3, #1073741824	; 0x40000000
 8001770:	d003      	beq.n	800177a <TIM_Base_SetConfig+0x52>
 8001772:	687b      	ldr	r3, [r7, #4]
 8001774:	4a17      	ldr	r2, [pc, #92]	; (80017d4 <TIM_Base_SetConfig+0xac>)
 8001776:	4293      	cmp	r3, r2
 8001778:	d108      	bne.n	800178c <TIM_Base_SetConfig+0x64>
  {
    /* Set the clock division */
    tmpcr1 &= ~TIM_CR1_CKD;
 800177a:	68fb      	ldr	r3, [r7, #12]
 800177c:	f423 7340 	bic.w	r3, r3, #768	; 0x300
 8001780:	60fb      	str	r3, [r7, #12]
    tmpcr1 |= (uint32_t)Structure->ClockDivision;
 8001782:	683b      	ldr	r3, [r7, #0]
 8001784:	68db      	ldr	r3, [r3, #12]
 8001786:	68fa      	ldr	r2, [r7, #12]
 8001788:	4313      	orrs	r3, r2
 800178a:	60fb      	str	r3, [r7, #12]
  }

  /* Set the auto-reload preload */
  MODIFY_REG(tmpcr1, TIM_CR1_ARPE, Structure->AutoReloadPreload);
 800178c:	68fb      	ldr	r3, [r7, #12]
 800178e:	f023 0280 	bic.w	r2, r3, #128	; 0x80
 8001792:	683b      	ldr	r3, [r7, #0]
 8001794:	695b      	ldr	r3, [r3, #20]
 8001796:	4313      	orrs	r3, r2
 8001798:	60fb      	str	r3, [r7, #12]

  TIMx->CR1 = tmpcr1;
 800179a:	687b      	ldr	r3, [r7, #4]
 800179c:	68fa      	ldr	r2, [r7, #12]
 800179e:	601a      	str	r2, [r3, #0]

  /* Set the Autoreload value */
  TIMx->ARR = (uint32_t)Structure->Period ;
 80017a0:	683b      	ldr	r3, [r7, #0]
 80017a2:	689a      	ldr	r2, [r3, #8]
 80017a4:	687b      	ldr	r3, [r7, #4]
 80017a6:	62da      	str	r2, [r3, #44]	; 0x2c

  /* Set the Prescaler value */
  TIMx->PSC = Structure->Prescaler;
 80017a8:	683b      	ldr	r3, [r7, #0]
 80017aa:	681a      	ldr	r2, [r3, #0]
 80017ac:	687b      	ldr	r3, [r7, #4]
 80017ae:	629a      	str	r2, [r3, #40]	; 0x28

  if (IS_TIM_REPETITION_COUNTER_INSTANCE(TIMx))
 80017b0:	687b      	ldr	r3, [r7, #4]
 80017b2:	4a07      	ldr	r2, [pc, #28]	; (80017d0 <TIM_Base_SetConfig+0xa8>)
 80017b4:	4293      	cmp	r3, r2
 80017b6:	d103      	bne.n	80017c0 <TIM_Base_SetConfig+0x98>
  {
    /* Set the Repetition Counter value */
    TIMx->RCR = Structure->RepetitionCounter;
 80017b8:	683b      	ldr	r3, [r7, #0]
 80017ba:	691a      	ldr	r2, [r3, #16]
 80017bc:	687b      	ldr	r3, [r7, #4]
 80017be:	631a      	str	r2, [r3, #48]	; 0x30
  }

  /* Generate an update event to reload the Prescaler
     and the repetition counter (only for advanced timer) value immediately */
  TIMx->EGR = TIM_EGR_UG;
 80017c0:	687b      	ldr	r3, [r7, #4]
 80017c2:	2201      	movs	r2, #1
 80017c4:	615a      	str	r2, [r3, #20]
}
 80017c6:	bf00      	nop
 80017c8:	3714      	adds	r7, #20
 80017ca:	46bd      	mov	sp, r7
 80017cc:	bc80      	pop	{r7}
 80017ce:	4770      	bx	lr
 80017d0:	40012c00 	.word	0x40012c00
 80017d4:	40000400 	.word	0x40000400

080017d8 <TIM_TI1_ConfigInputStage>:
  * @param  TIM_ICFilter Specifies the Input Capture Filter.
  *          This parameter must be a value between 0x00 and 0x0F.
  * @retval None
  */
static void TIM_TI1_ConfigInputStage(TIM_TypeDef *TIMx, uint32_t TIM_ICPolarity, uint32_t TIM_ICFilter)
{
 80017d8:	b480      	push	{r7}
 80017da:	b087      	sub	sp, #28
 80017dc:	af00      	add	r7, sp, #0
 80017de:	60f8      	str	r0, [r7, #12]
 80017e0:	60b9      	str	r1, [r7, #8]
 80017e2:	607a      	str	r2, [r7, #4]
  uint32_t tmpccmr1;
  uint32_t tmpccer;

  /* Disable the Channel 1: Reset the CC1E Bit */
  tmpccer = TIMx->CCER;
 80017e4:	68fb      	ldr	r3, [r7, #12]
 80017e6:	6a1b      	ldr	r3, [r3, #32]
 80017e8:	617b      	str	r3, [r7, #20]
  TIMx->CCER &= ~TIM_CCER_CC1E;
 80017ea:	68fb      	ldr	r3, [r7, #12]
 80017ec:	6a1b      	ldr	r3, [r3, #32]
 80017ee:	f023 0201 	bic.w	r2, r3, #1
 80017f2:	68fb      	ldr	r3, [r7, #12]
 80017f4:	621a      	str	r2, [r3, #32]
  tmpccmr1 = TIMx->CCMR1;
 80017f6:	68fb      	ldr	r3, [r7, #12]
 80017f8:	699b      	ldr	r3, [r3, #24]
 80017fa:	613b      	str	r3, [r7, #16]

  /* Set the filter */
  tmpccmr1 &= ~TIM_CCMR1_IC1F;
 80017fc:	693b      	ldr	r3, [r7, #16]
 80017fe:	f023 03f0 	bic.w	r3, r3, #240	; 0xf0
 8001802:	613b      	str	r3, [r7, #16]
  tmpccmr1 |= (TIM_ICFilter << 4U);
 8001804:	687b      	ldr	r3, [r7, #4]
 8001806:	011b      	lsls	r3, r3, #4
 8001808:	693a      	ldr	r2, [r7, #16]
 800180a:	4313      	orrs	r3, r2
 800180c:	613b      	str	r3, [r7, #16]

  /* Select the Polarity and set the CC1E Bit */
  tmpccer &= ~(TIM_CCER_CC1P | TIM_CCER_CC1NP);
 800180e:	697b      	ldr	r3, [r7, #20]
 8001810:	f023 030a 	bic.w	r3, r3, #10
 8001814:	617b      	str	r3, [r7, #20]
  tmpccer |= TIM_ICPolarity;
 8001816:	697a      	ldr	r2, [r7, #20]
 8001818:	68bb      	ldr	r3, [r7, #8]
 800181a:	4313      	orrs	r3, r2
 800181c:	617b      	str	r3, [r7, #20]

  /* Write to TIMx CCMR1 and CCER registers */
  TIMx->CCMR1 = tmpccmr1;
 800181e:	68fb      	ldr	r3, [r7, #12]
 8001820:	693a      	ldr	r2, [r7, #16]
 8001822:	619a      	str	r2, [r3, #24]
  TIMx->CCER = tmpccer;
 8001824:	68fb      	ldr	r3, [r7, #12]
 8001826:	697a      	ldr	r2, [r7, #20]
 8001828:	621a      	str	r2, [r3, #32]
}
 800182a:	bf00      	nop
 800182c:	371c      	adds	r7, #28
 800182e:	46bd      	mov	sp, r7
 8001830:	bc80      	pop	{r7}
 8001832:	4770      	bx	lr

08001834 <TIM_TI2_ConfigInputStage>:
  * @param  TIM_ICFilter Specifies the Input Capture Filter.
  *          This parameter must be a value between 0x00 and 0x0F.
  * @retval None
  */
static void TIM_TI2_ConfigInputStage(TIM_TypeDef *TIMx, uint32_t TIM_ICPolarity, uint32_t TIM_ICFilter)
{
 8001834:	b480      	push	{r7}
 8001836:	b087      	sub	sp, #28
 8001838:	af00      	add	r7, sp, #0
 800183a:	60f8      	str	r0, [r7, #12]
 800183c:	60b9      	str	r1, [r7, #8]
 800183e:	607a      	str	r2, [r7, #4]
  uint32_t tmpccmr1;
  uint32_t tmpccer;

  /* Disable the Channel 2: Reset the CC2E Bit */
  tmpccer = TIMx->CCER;
 8001840:	68fb      	ldr	r3, [r7, #12]
 8001842:	6a1b      	ldr	r3, [r3, #32]
 8001844:	617b      	str	r3, [r7, #20]
  TIMx->CCER &= ~TIM_CCER_CC2E;
 8001846:	68fb      	ldr	r3, [r7, #12]
 8001848:	6a1b      	ldr	r3, [r3, #32]
 800184a:	f023 0210 	bic.w	r2, r3, #16
 800184e:	68fb      	ldr	r3, [r7, #12]
 8001850:	621a      	str	r2, [r3, #32]
  tmpccmr1 = TIMx->CCMR1;
 8001852:	68fb      	ldr	r3, [r7, #12]
 8001854:	699b      	ldr	r3, [r3, #24]
 8001856:	613b      	str	r3, [r7, #16]

  /* Set the filter */
  tmpccmr1 &= ~TIM_CCMR1_IC2F;
 8001858:	693b      	ldr	r3, [r7, #16]
 800185a:	f423 4370 	bic.w	r3, r3, #61440	; 0xf000
 800185e:	613b      	str	r3, [r7, #16]
  tmpccmr1 |= (TIM_ICFilter << 12U);
 8001860:	687b      	ldr	r3, [r7, #4]
 8001862:	031b      	lsls	r3, r3, #12
 8001864:	693a      	ldr	r2, [r7, #16]
 8001866:	4313      	orrs	r3, r2
 8001868:	613b      	str	r3, [r7, #16]

  /* Select the Polarity and set the CC2E Bit */
  tmpccer &= ~(TIM_CCER_CC2P | TIM_CCER_CC2NP);
 800186a:	697b      	ldr	r3, [r7, #20]
 800186c:	f023 03a0 	bic.w	r3, r3, #160	; 0xa0
 8001870:	617b      	str	r3, [r7, #20]
  tmpccer |= (TIM_ICPolarity << 4U);
 8001872:	68bb      	ldr	r3, [r7, #8]
 8001874:	011b      	lsls	r3, r3, #4
 8001876:	697a      	ldr	r2, [r7, #20]
 8001878:	4313      	orrs	r3, r2
 800187a:	617b      	str	r3, [r7, #20]

  /* Write to TIMx CCMR1 and CCER registers */
  TIMx->CCMR1 = tmpccmr1 ;
 800187c:	68fb      	ldr	r3, [r7, #12]
 800187e:	693a      	ldr	r2, [r7, #16]
 8001880:	619a      	str	r2, [r3, #24]
  TIMx->CCER = tmpccer;
 8001882:	68fb      	ldr	r3, [r7, #12]
 8001884:	697a      	ldr	r2, [r7, #20]
 8001886:	621a      	str	r2, [r3, #32]
}
 8001888:	bf00      	nop
 800188a:	371c      	adds	r7, #28
 800188c:	46bd      	mov	sp, r7
 800188e:	bc80      	pop	{r7}
 8001890:	4770      	bx	lr

08001892 <TIM_ITRx_SetConfig>:
  *            @arg TIM_TS_TI2FP2: Filtered Timer Input 2
  *            @arg TIM_TS_ETRF: External Trigger input
  * @retval None
  */
static void TIM_ITRx_SetConfig(TIM_TypeDef *TIMx, uint32_t InputTriggerSource)
{
 8001892:	b480      	push	{r7}
 8001894:	b085      	sub	sp, #20
 8001896:	af00      	add	r7, sp, #0
 8001898:	6078      	str	r0, [r7, #4]
 800189a:	6039      	str	r1, [r7, #0]
  uint32_t tmpsmcr;

  /* Get the TIMx SMCR register value */
  tmpsmcr = TIMx->SMCR;
 800189c:	687b      	ldr	r3, [r7, #4]
 800189e:	689b      	ldr	r3, [r3, #8]
 80018a0:	60fb      	str	r3, [r7, #12]
  /* Reset the TS Bits */
  tmpsmcr &= ~TIM_SMCR_TS;
 80018a2:	68fb      	ldr	r3, [r7, #12]
 80018a4:	f023 0370 	bic.w	r3, r3, #112	; 0x70
 80018a8:	60fb      	str	r3, [r7, #12]
  /* Set the Input Trigger source and the slave mode*/
  tmpsmcr |= (InputTriggerSource | TIM_SLAVEMODE_EXTERNAL1);
 80018aa:	683a      	ldr	r2, [r7, #0]
 80018ac:	68fb      	ldr	r3, [r7, #12]
 80018ae:	4313      	orrs	r3, r2
 80018b0:	f043 0307 	orr.w	r3, r3, #7
 80018b4:	60fb      	str	r3, [r7, #12]
  /* Write to TIMx SMCR */
  TIMx->SMCR = tmpsmcr;
 80018b6:	687b      	ldr	r3, [r7, #4]
 80018b8:	68fa      	ldr	r2, [r7, #12]
 80018ba:	609a      	str	r2, [r3, #8]
}
 80018bc:	bf00      	nop
 80018be:	3714      	adds	r7, #20
 80018c0:	46bd      	mov	sp, r7
 80018c2:	bc80      	pop	{r7}
 80018c4:	4770      	bx	lr

080018c6 <TIM_ETR_SetConfig>:
  *          This parameter must be a value between 0x00 and 0x0F
  * @retval None
  */
void TIM_ETR_SetConfig(TIM_TypeDef *TIMx, uint32_t TIM_ExtTRGPrescaler,
                       uint32_t TIM_ExtTRGPolarity, uint32_t ExtTRGFilter)
{
 80018c6:	b480      	push	{r7}
 80018c8:	b087      	sub	sp, #28
 80018ca:	af00      	add	r7, sp, #0
 80018cc:	60f8      	str	r0, [r7, #12]
 80018ce:	60b9      	str	r1, [r7, #8]
 80018d0:	607a      	str	r2, [r7, #4]
 80018d2:	603b      	str	r3, [r7, #0]
  uint32_t tmpsmcr;

  tmpsmcr = TIMx->SMCR;
 80018d4:	68fb      	ldr	r3, [r7, #12]
 80018d6:	689b      	ldr	r3, [r3, #8]
 80018d8:	617b      	str	r3, [r7, #20]

  /* Reset the ETR Bits */
  tmpsmcr &= ~(TIM_SMCR_ETF | TIM_SMCR_ETPS | TIM_SMCR_ECE | TIM_SMCR_ETP);
 80018da:	697b      	ldr	r3, [r7, #20]
 80018dc:	f423 437f 	bic.w	r3, r3, #65280	; 0xff00
 80018e0:	617b      	str	r3, [r7, #20]

  /* Set the Prescaler, the Filter value and the Polarity */
  tmpsmcr |= (uint32_t)(TIM_ExtTRGPrescaler | (TIM_ExtTRGPolarity | (ExtTRGFilter << 8U)));
 80018e2:	683b      	ldr	r3, [r7, #0]
 80018e4:	021a      	lsls	r2, r3, #8
 80018e6:	687b      	ldr	r3, [r7, #4]
 80018e8:	431a      	orrs	r2, r3
 80018ea:	68bb      	ldr	r3, [r7, #8]
 80018ec:	4313      	orrs	r3, r2
 80018ee:	697a      	ldr	r2, [r7, #20]
 80018f0:	4313      	orrs	r3, r2
 80018f2:	617b      	str	r3, [r7, #20]

  /* Write to TIMx SMCR */
  TIMx->SMCR = tmpsmcr;
 80018f4:	68fb      	ldr	r3, [r7, #12]
 80018f6:	697a      	ldr	r2, [r7, #20]
 80018f8:	609a      	str	r2, [r3, #8]
}
 80018fa:	bf00      	nop
 80018fc:	371c      	adds	r7, #28
 80018fe:	46bd      	mov	sp, r7
 8001900:	bc80      	pop	{r7}
 8001902:	4770      	bx	lr

08001904 <HAL_TIMEx_MasterConfigSynchronization>:
  *         mode.
  * @retval HAL status
  */
HAL_StatusTypeDef HAL_TIMEx_MasterConfigSynchronization(TIM_HandleTypeDef *htim,
                                                        const TIM_MasterConfigTypeDef *sMasterConfig)
{
 8001904:	b480      	push	{r7}
 8001906:	b085      	sub	sp, #20
 8001908:	af00      	add	r7, sp, #0
 800190a:	6078      	str	r0, [r7, #4]
 800190c:	6039      	str	r1, [r7, #0]
  assert_param(IS_TIM_MASTER_INSTANCE(htim->Instance));
  assert_param(IS_TIM_TRGO_SOURCE(sMasterConfig->MasterOutputTrigger));
  assert_param(IS_TIM_MSM_STATE(sMasterConfig->MasterSlaveMode));

  /* Check input state */
  __HAL_LOCK(htim);
 800190e:	687b      	ldr	r3, [r7, #4]
 8001910:	f893 303c 	ldrb.w	r3, [r3, #60]	; 0x3c
 8001914:	2b01      	cmp	r3, #1
 8001916:	d101      	bne.n	800191c <HAL_TIMEx_MasterConfigSynchronization+0x18>
 8001918:	2302      	movs	r3, #2
 800191a:	e041      	b.n	80019a0 <HAL_TIMEx_MasterConfigSynchronization+0x9c>
 800191c:	687b      	ldr	r3, [r7, #4]
 800191e:	2201      	movs	r2, #1
 8001920:	f883 203c 	strb.w	r2, [r3, #60]	; 0x3c

  /* Change the handler state */
  htim->State = HAL_TIM_STATE_BUSY;
 8001924:	687b      	ldr	r3, [r7, #4]
 8001926:	2202      	movs	r2, #2
 8001928:	f883 203d 	strb.w	r2, [r3, #61]	; 0x3d

  /* Get the TIMx CR2 register value */
  tmpcr2 = htim->Instance->CR2;
 800192c:	687b      	ldr	r3, [r7, #4]
 800192e:	681b      	ldr	r3, [r3, #0]
 8001930:	685b      	ldr	r3, [r3, #4]
 8001932:	60fb      	str	r3, [r7, #12]

  /* Get the TIMx SMCR register value */
  tmpsmcr = htim->Instance->SMCR;
 8001934:	687b      	ldr	r3, [r7, #4]
 8001936:	681b      	ldr	r3, [r3, #0]
 8001938:	689b      	ldr	r3, [r3, #8]
 800193a:	60bb      	str	r3, [r7, #8]

  /* Reset the MMS Bits */
  tmpcr2 &= ~TIM_CR2_MMS;
 800193c:	68fb      	ldr	r3, [r7, #12]
 800193e:	f023 0370 	bic.w	r3, r3, #112	; 0x70
 8001942:	60fb      	str	r3, [r7, #12]
  /* Select the TRGO source */
  tmpcr2 |=  sMasterConfig->MasterOutputTrigger;
 8001944:	683b      	ldr	r3, [r7, #0]
 8001946:	681b      	ldr	r3, [r3, #0]
 8001948:	68fa      	ldr	r2, [r7, #12]
 800194a:	4313      	orrs	r3, r2
 800194c:	60fb      	str	r3, [r7, #12]

  /* Update TIMx CR2 */
  htim->Instance->CR2 = tmpcr2;
 800194e:	687b      	ldr	r3, [r7, #4]
 8001950:	681b      	ldr	r3, [r3, #0]
 8001952:	68fa      	ldr	r2, [r7, #12]
 8001954:	605a      	str	r2, [r3, #4]

  if (IS_TIM_SLAVE_INSTANCE(htim->Instance))
 8001956:	687b      	ldr	r3, [r7, #4]
 8001958:	681b      	ldr	r3, [r3, #0]
 800195a:	4a14      	ldr	r2, [pc, #80]	; (80019ac <HAL_TIMEx_MasterConfigSynchronization+0xa8>)
 800195c:	4293      	cmp	r3, r2
 800195e:	d009      	beq.n	8001974 <HAL_TIMEx_MasterConfigSynchronization+0x70>
 8001960:	687b      	ldr	r3, [r7, #4]
 8001962:	681b      	ldr	r3, [r3, #0]
 8001964:	f1b3 4f80 	cmp.w	r3, #1073741824	; 0x40000000
 8001968:	d004      	beq.n	8001974 <HAL_TIMEx_MasterConfigSynchronization+0x70>
 800196a:	687b      	ldr	r3, [r7, #4]
 800196c:	681b      	ldr	r3, [r3, #0]
 800196e:	4a10      	ldr	r2, [pc, #64]	; (80019b0 <HAL_TIMEx_MasterConfigSynchronization+0xac>)
 8001970:	4293      	cmp	r3, r2
 8001972:	d10c      	bne.n	800198e <HAL_TIMEx_MasterConfigSynchronization+0x8a>
  {
    /* Reset the MSM Bit */
    tmpsmcr &= ~TIM_SMCR_MSM;
 8001974:	68bb      	ldr	r3, [r7, #8]
 8001976:	f023 0380 	bic.w	r3, r3, #128	; 0x80
 800197a:	60bb      	str	r3, [r7, #8]
    /* Set master mode */
    tmpsmcr |= sMasterConfig->MasterSlaveMode;
 800197c:	683b      	ldr	r3, [r7, #0]
 800197e:	685b      	ldr	r3, [r3, #4]
 8001980:	68ba      	ldr	r2, [r7, #8]
 8001982:	4313      	orrs	r3, r2
 8001984:	60bb      	str	r3, [r7, #8]

    /* Update TIMx SMCR */
    htim->Instance->SMCR = tmpsmcr;
 8001986:	687b      	ldr	r3, [r7, #4]
 8001988:	681b      	ldr	r3, [r3, #0]
 800198a:	68ba      	ldr	r2, [r7, #8]
 800198c:	609a      	str	r2, [r3, #8]
  }

  /* Change the htim state */
  htim->State = HAL_TIM_STATE_READY;
 800198e:	687b      	ldr	r3, [r7, #4]
 8001990:	2201      	movs	r2, #1
 8001992:	f883 203d 	strb.w	r2, [r3, #61]	; 0x3d

  __HAL_UNLOCK(htim);
 8001996:	687b      	ldr	r3, [r7, #4]
 8001998:	2200      	movs	r2, #0
 800199a:	f883 203c 	strb.w	r2, [r3, #60]	; 0x3c

  return HAL_OK;
 800199e:	2300      	movs	r3, #0
}
 80019a0:	4618      	mov	r0, r3
 80019a2:	3714      	adds	r7, #20
 80019a4:	46bd      	mov	sp, r7
 80019a6:	bc80      	pop	{r7}
 80019a8:	4770      	bx	lr
 80019aa:	bf00      	nop
 80019ac:	40012c00 	.word	0x40012c00
 80019b0:	40000400 	.word	0x40000400

080019b4 <HAL_TIMEx_CommutCallback>:
  * @brief  Hall commutation changed callback in non-blocking mode
  * @param  htim TIM handle
  * @retval None
  */
__weak void HAL_TIMEx_CommutCallback(TIM_HandleTypeDef *htim)
{
 80019b4:	b480      	push	{r7}
 80019b6:	b083      	sub	sp, #12
 80019b8:	af00      	add	r7, sp, #0
 80019ba:	6078      	str	r0, [r7, #4]
  UNUSED(htim);

  /* NOTE : This function should not be modified, when the callback is needed,
            the HAL_TIMEx_CommutCallback could be implemented in the user file
   */
}
 80019bc:	bf00      	nop
 80019be:	370c      	adds	r7, #12
 80019c0:	46bd      	mov	sp, r7
 80019c2:	bc80      	pop	{r7}
 80019c4:	4770      	bx	lr

080019c6 <HAL_TIMEx_BreakCallback>:
  * @brief  Hall Break detection callback in non-blocking mode
  * @param  htim TIM handle
  * @retval None
  */
__weak void HAL_TIMEx_BreakCallback(TIM_HandleTypeDef *htim)
{
 80019c6:	b480      	push	{r7}
 80019c8:	b083      	sub	sp, #12
 80019ca:	af00      	add	r7, sp, #0
 80019cc:	6078      	str	r0, [r7, #4]
  UNUSED(htim);

  /* NOTE : This function should not be modified, when the callback is needed,
            the HAL_TIMEx_BreakCallback could be implemented in the user file
   */
}
 80019ce:	bf00      	nop
 80019d0:	370c      	adds	r7, #12
 80019d2:	46bd      	mov	sp, r7
 80019d4:	bc80      	pop	{r7}
 80019d6:	4770      	bx	lr

080019d8 <__libc_init_array>:
 80019d8:	b570      	push	{r4, r5, r6, lr}
 80019da:	2600      	movs	r6, #0
 80019dc:	4d0c      	ldr	r5, [pc, #48]	; (8001a10 <__libc_init_array+0x38>)
 80019de:	4c0d      	ldr	r4, [pc, #52]	; (8001a14 <__libc_init_array+0x3c>)
 80019e0:	1b64      	subs	r4, r4, r5
 80019e2:	10a4      	asrs	r4, r4, #2
 80019e4:	42a6      	cmp	r6, r4
 80019e6:	d109      	bne.n	80019fc <__libc_init_array+0x24>
 80019e8:	f000 f822 	bl	8001a30 <_init>
 80019ec:	2600      	movs	r6, #0
 80019ee:	4d0a      	ldr	r5, [pc, #40]	; (8001a18 <__libc_init_array+0x40>)
 80019f0:	4c0a      	ldr	r4, [pc, #40]	; (8001a1c <__libc_init_array+0x44>)
 80019f2:	1b64      	subs	r4, r4, r5
 80019f4:	10a4      	asrs	r4, r4, #2
 80019f6:	42a6      	cmp	r6, r4
 80019f8:	d105      	bne.n	8001a06 <__libc_init_array+0x2e>
 80019fa:	bd70      	pop	{r4, r5, r6, pc}
 80019fc:	f855 3b04 	ldr.w	r3, [r5], #4
 8001a00:	4798      	blx	r3
 8001a02:	3601      	adds	r6, #1
 8001a04:	e7ee      	b.n	80019e4 <__libc_init_array+0xc>
 8001a06:	f855 3b04 	ldr.w	r3, [r5], #4
 8001a0a:	4798      	blx	r3
 8001a0c:	3601      	adds	r6, #1
 8001a0e:	e7f2      	b.n	80019f6 <__libc_init_array+0x1e>
 8001a10:	08001a6c 	.word	0x08001a6c
 8001a14:	08001a6c 	.word	0x08001a6c
 8001a18:	08001a6c 	.word	0x08001a6c
 8001a1c:	08001a70 	.word	0x08001a70

08001a20 <memset>:
 8001a20:	4603      	mov	r3, r0
 8001a22:	4402      	add	r2, r0
 8001a24:	4293      	cmp	r3, r2
 8001a26:	d100      	bne.n	8001a2a <memset+0xa>
 8001a28:	4770      	bx	lr
 8001a2a:	f803 1b01 	strb.w	r1, [r3], #1
 8001a2e:	e7f9      	b.n	8001a24 <memset+0x4>

08001a30 <_init>:
 8001a30:	b5f8      	push	{r3, r4, r5, r6, r7, lr}
 8001a32:	bf00      	nop
 8001a34:	bcf8      	pop	{r3, r4, r5, r6, r7}
 8001a36:	bc08      	pop	{r3}
 8001a38:	469e      	mov	lr, r3
 8001a3a:	4770      	bx	lr

08001a3c <_fini>:
 8001a3c:	b5f8      	push	{r3, r4, r5, r6, r7, lr}
 8001a3e:	bf00      	nop
 8001a40:	bcf8      	pop	{r3, r4, r5, r6, r7}
 8001a42:	bc08      	pop	{r3}
 8001a44:	469e      	mov	lr, r3
 8001a46:	4770      	bx	lr
