
STM32ProjectForLab2.elf:     file format elf32-littlearm

Sections:
Idx Name          Size      VMA       LMA       File off  Algn
  0 .isr_vector   0000010c  08000000  08000000  00010000  2**0
                  CONTENTS, ALLOC, LOAD, READONLY, DATA
  1 .text         00002100  0800010c  0800010c  0001010c  2**2
                  CONTENTS, ALLOC, LOAD, READONLY, CODE
  2 .rodata       00000024  0800220c  0800220c  0001220c  2**2
                  CONTENTS, ALLOC, LOAD, READONLY, DATA
  3 .ARM.extab    00000000  08002230  08002230  0002001c  2**0
                  CONTENTS
  4 .ARM          00000000  08002230  08002230  0002001c  2**0
                  CONTENTS
  5 .preinit_array 00000000  08002230  08002230  0002001c  2**0
                  CONTENTS, ALLOC, LOAD, DATA
  6 .init_array   00000004  08002230  08002230  00012230  2**2
                  CONTENTS, ALLOC, LOAD, DATA
  7 .fini_array   00000004  08002234  08002234  00012234  2**2
                  CONTENTS, ALLOC, LOAD, DATA
  8 .data         0000001c  20000000  08002238  00020000  2**2
                  CONTENTS, ALLOC, LOAD, DATA
  9 .bss          00000084  2000001c  08002254  0002001c  2**2
                  ALLOC
 10 ._user_heap_stack 00000600  200000a0  08002254  000200a0  2**0
                  ALLOC
 11 .ARM.attributes 00000029  00000000  00000000  0002001c  2**0
                  CONTENTS, READONLY
 12 .debug_info   00008871  00000000  00000000  00020045  2**0
                  CONTENTS, READONLY, DEBUGGING, OCTETS
 13 .debug_abbrev 00001922  00000000  00000000  000288b6  2**0
                  CONTENTS, READONLY, DEBUGGING, OCTETS
 14 .debug_aranges 000009f0  00000000  00000000  0002a1d8  2**3
                  CONTENTS, READONLY, DEBUGGING, OCTETS
 15 .debug_ranges 00000900  00000000  00000000  0002abc8  2**3
                  CONTENTS, READONLY, DEBUGGING, OCTETS
 16 .debug_macro  00017316  00000000  00000000  0002b4c8  2**0
                  CONTENTS, READONLY, DEBUGGING, OCTETS
 17 .debug_line   0000af3e  00000000  00000000  000427de  2**0
                  CONTENTS, READONLY, DEBUGGING, OCTETS
 18 .debug_str    00084f93  00000000  00000000  0004d71c  2**0
                  CONTENTS, READONLY, DEBUGGING, OCTETS
 19 .comment      00000050  00000000  00000000  000d26af  2**0
                  CONTENTS, READONLY
 20 .debug_frame  00002794  00000000  00000000  000d2700  2**2
                  CONTENTS, READONLY, DEBUGGING, OCTETS

Disassembly of section .text:

0800010c <__do_global_dtors_aux>:
 800010c:	b510      	push	{r4, lr}
 800010e:	4c05      	ldr	r4, [pc, #20]	; (8000124 <__do_global_dtors_aux+0x18>)
 8000110:	7823      	ldrb	r3, [r4, #0]
 8000112:	b933      	cbnz	r3, 8000122 <__do_global_dtors_aux+0x16>
 8000114:	4b04      	ldr	r3, [pc, #16]	; (8000128 <__do_global_dtors_aux+0x1c>)
 8000116:	b113      	cbz	r3, 800011e <__do_global_dtors_aux+0x12>
 8000118:	4804      	ldr	r0, [pc, #16]	; (800012c <__do_global_dtors_aux+0x20>)
 800011a:	f3af 8000 	nop.w
 800011e:	2301      	movs	r3, #1
 8000120:	7023      	strb	r3, [r4, #0]
 8000122:	bd10      	pop	{r4, pc}
 8000124:	2000001c 	.word	0x2000001c
 8000128:	00000000 	.word	0x00000000
 800012c:	080021f4 	.word	0x080021f4

08000130 <frame_dummy>:
 8000130:	b508      	push	{r3, lr}
 8000132:	4b03      	ldr	r3, [pc, #12]	; (8000140 <frame_dummy+0x10>)
 8000134:	b11b      	cbz	r3, 800013e <frame_dummy+0xe>
 8000136:	4903      	ldr	r1, [pc, #12]	; (8000144 <frame_dummy+0x14>)
 8000138:	4803      	ldr	r0, [pc, #12]	; (8000148 <frame_dummy+0x18>)
 800013a:	f3af 8000 	nop.w
 800013e:	bd08      	pop	{r3, pc}
 8000140:	00000000 	.word	0x00000000
 8000144:	20000020 	.word	0x20000020
 8000148:	080021f4 	.word	0x080021f4

0800014c <display7SEG>:
const int MAX_LED = 4;
int index_led = 0;
int led_buffer [4] = {1 , 2 , 3 , 4};

/* Function to Display a Number on turned on 7-segment led*/
void display7SEG(int num){
 800014c:	b580      	push	{r7, lr}
 800014e:	b082      	sub	sp, #8
 8000150:	af00      	add	r7, sp, #0
 8000152:	6078      	str	r0, [r7, #4]
	if( num == 0)
 8000154:	687b      	ldr	r3, [r7, #4]
 8000156:	2b00      	cmp	r3, #0
 8000158:	d122      	bne.n	80001a0 <display7SEG+0x54>
	{
		HAL_GPIO_WritePin(SEG0_GPIO_Port, SEG0_Pin, GPIO_PIN_RESET);
 800015a:	2200      	movs	r2, #0
 800015c:	2101      	movs	r1, #1
 800015e:	48bd      	ldr	r0, [pc, #756]	; (8000454 <display7SEG+0x308>)
 8000160:	f001 f83e 	bl	80011e0 <HAL_GPIO_WritePin>
		HAL_GPIO_WritePin(SEG1_GPIO_Port, SEG1_Pin, GPIO_PIN_RESET);
 8000164:	2200      	movs	r2, #0
 8000166:	2102      	movs	r1, #2
 8000168:	48ba      	ldr	r0, [pc, #744]	; (8000454 <display7SEG+0x308>)
 800016a:	f001 f839 	bl	80011e0 <HAL_GPIO_WritePin>
		HAL_GPIO_WritePin(SEG2_GPIO_Port, SEG2_Pin, GPIO_PIN_RESET);
 800016e:	2200      	movs	r2, #0
 8000170:	2104      	movs	r1, #4
 8000172:	48b8      	ldr	r0, [pc, #736]	; (8000454 <display7SEG+0x308>)
 8000174:	f001 f834 	bl	80011e0 <HAL_GPIO_WritePin>
		HAL_GPIO_WritePin(SEG3_GPIO_Port, SEG3_Pin, GPIO_PIN_RESET);
 8000178:	2200      	movs	r2, #0
 800017a:	2108      	movs	r1, #8
 800017c:	48b5      	ldr	r0, [pc, #724]	; (8000454 <display7SEG+0x308>)
 800017e:	f001 f82f 	bl	80011e0 <HAL_GPIO_WritePin>
		HAL_GPIO_WritePin(SEG4_GPIO_Port, SEG4_Pin, GPIO_PIN_RESET);
 8000182:	2200      	movs	r2, #0
 8000184:	2110      	movs	r1, #16
 8000186:	48b3      	ldr	r0, [pc, #716]	; (8000454 <display7SEG+0x308>)
 8000188:	f001 f82a 	bl	80011e0 <HAL_GPIO_WritePin>
		HAL_GPIO_WritePin(SEG5_GPIO_Port, SEG5_Pin, GPIO_PIN_RESET);
 800018c:	2200      	movs	r2, #0
 800018e:	2120      	movs	r1, #32
 8000190:	48b0      	ldr	r0, [pc, #704]	; (8000454 <display7SEG+0x308>)
 8000192:	f001 f825 	bl	80011e0 <HAL_GPIO_WritePin>
		HAL_GPIO_WritePin(SEG6_GPIO_Port, SEG6_Pin, GPIO_PIN_SET);
 8000196:	2201      	movs	r2, #1
 8000198:	2140      	movs	r1, #64	; 0x40
 800019a:	48ae      	ldr	r0, [pc, #696]	; (8000454 <display7SEG+0x308>)
 800019c:	f001 f820 	bl	80011e0 <HAL_GPIO_WritePin>
	}

	if(num == 1){
 80001a0:	687b      	ldr	r3, [r7, #4]
 80001a2:	2b01      	cmp	r3, #1
 80001a4:	d122      	bne.n	80001ec <display7SEG+0xa0>
		HAL_GPIO_WritePin(SEG0_GPIO_Port, SEG0_Pin, GPIO_PIN_SET);
 80001a6:	2201      	movs	r2, #1
 80001a8:	2101      	movs	r1, #1
 80001aa:	48aa      	ldr	r0, [pc, #680]	; (8000454 <display7SEG+0x308>)
 80001ac:	f001 f818 	bl	80011e0 <HAL_GPIO_WritePin>
		HAL_GPIO_WritePin(SEG1_GPIO_Port, SEG1_Pin, GPIO_PIN_RESET);
 80001b0:	2200      	movs	r2, #0
 80001b2:	2102      	movs	r1, #2
 80001b4:	48a7      	ldr	r0, [pc, #668]	; (8000454 <display7SEG+0x308>)
 80001b6:	f001 f813 	bl	80011e0 <HAL_GPIO_WritePin>
		HAL_GPIO_WritePin(SEG2_GPIO_Port, SEG2_Pin, GPIO_PIN_RESET);
 80001ba:	2200      	movs	r2, #0
 80001bc:	2104      	movs	r1, #4
 80001be:	48a5      	ldr	r0, [pc, #660]	; (8000454 <display7SEG+0x308>)
 80001c0:	f001 f80e 	bl	80011e0 <HAL_GPIO_WritePin>
		HAL_GPIO_WritePin(SEG3_GPIO_Port, SEG3_Pin, GPIO_PIN_SET );
 80001c4:	2201      	movs	r2, #1
 80001c6:	2108      	movs	r1, #8
 80001c8:	48a2      	ldr	r0, [pc, #648]	; (8000454 <display7SEG+0x308>)
 80001ca:	f001 f809 	bl	80011e0 <HAL_GPIO_WritePin>
		HAL_GPIO_WritePin(SEG4_GPIO_Port, SEG4_Pin, GPIO_PIN_SET);
 80001ce:	2201      	movs	r2, #1
 80001d0:	2110      	movs	r1, #16
 80001d2:	48a0      	ldr	r0, [pc, #640]	; (8000454 <display7SEG+0x308>)
 80001d4:	f001 f804 	bl	80011e0 <HAL_GPIO_WritePin>
		HAL_GPIO_WritePin(SEG5_GPIO_Port, SEG5_Pin, GPIO_PIN_SET);
 80001d8:	2201      	movs	r2, #1
 80001da:	2120      	movs	r1, #32
 80001dc:	489d      	ldr	r0, [pc, #628]	; (8000454 <display7SEG+0x308>)
 80001de:	f000 ffff 	bl	80011e0 <HAL_GPIO_WritePin>
		HAL_GPIO_WritePin(SEG6_GPIO_Port, SEG6_Pin, GPIO_PIN_SET);
 80001e2:	2201      	movs	r2, #1
 80001e4:	2140      	movs	r1, #64	; 0x40
 80001e6:	489b      	ldr	r0, [pc, #620]	; (8000454 <display7SEG+0x308>)
 80001e8:	f000 fffa 	bl	80011e0 <HAL_GPIO_WritePin>
	}

	if(num == 2){
 80001ec:	687b      	ldr	r3, [r7, #4]
 80001ee:	2b02      	cmp	r3, #2
 80001f0:	d122      	bne.n	8000238 <display7SEG+0xec>
		HAL_GPIO_WritePin(SEG0_GPIO_Port, SEG0_Pin, GPIO_PIN_RESET);
 80001f2:	2200      	movs	r2, #0
 80001f4:	2101      	movs	r1, #1
 80001f6:	4897      	ldr	r0, [pc, #604]	; (8000454 <display7SEG+0x308>)
 80001f8:	f000 fff2 	bl	80011e0 <HAL_GPIO_WritePin>
		HAL_GPIO_WritePin(SEG1_GPIO_Port, SEG1_Pin, GPIO_PIN_RESET);
 80001fc:	2200      	movs	r2, #0
 80001fe:	2102      	movs	r1, #2
 8000200:	4894      	ldr	r0, [pc, #592]	; (8000454 <display7SEG+0x308>)
 8000202:	f000 ffed 	bl	80011e0 <HAL_GPIO_WritePin>
		HAL_GPIO_WritePin(SEG2_GPIO_Port, SEG2_Pin, GPIO_PIN_SET);
 8000206:	2201      	movs	r2, #1
 8000208:	2104      	movs	r1, #4
 800020a:	4892      	ldr	r0, [pc, #584]	; (8000454 <display7SEG+0x308>)
 800020c:	f000 ffe8 	bl	80011e0 <HAL_GPIO_WritePin>
		HAL_GPIO_WritePin(SEG3_GPIO_Port, SEG3_Pin, GPIO_PIN_RESET);
 8000210:	2200      	movs	r2, #0
 8000212:	2108      	movs	r1, #8
 8000214:	488f      	ldr	r0, [pc, #572]	; (8000454 <display7SEG+0x308>)
 8000216:	f000 ffe3 	bl	80011e0 <HAL_GPIO_WritePin>
		HAL_GPIO_WritePin(SEG4_GPIO_Port, SEG4_Pin, GPIO_PIN_RESET);
 800021a:	2200      	movs	r2, #0
 800021c:	2110      	movs	r1, #16
 800021e:	488d      	ldr	r0, [pc, #564]	; (8000454 <display7SEG+0x308>)
 8000220:	f000 ffde 	bl	80011e0 <HAL_GPIO_WritePin>
		HAL_GPIO_WritePin(SEG5_GPIO_Port, SEG5_Pin, GPIO_PIN_SET);
 8000224:	2201      	movs	r2, #1
 8000226:	2120      	movs	r1, #32
 8000228:	488a      	ldr	r0, [pc, #552]	; (8000454 <display7SEG+0x308>)
 800022a:	f000 ffd9 	bl	80011e0 <HAL_GPIO_WritePin>
		HAL_GPIO_WritePin(SEG6_GPIO_Port, SEG6_Pin, GPIO_PIN_RESET);
 800022e:	2200      	movs	r2, #0
 8000230:	2140      	movs	r1, #64	; 0x40
 8000232:	4888      	ldr	r0, [pc, #544]	; (8000454 <display7SEG+0x308>)
 8000234:	f000 ffd4 	bl	80011e0 <HAL_GPIO_WritePin>
	}

	if(num == 3){
 8000238:	687b      	ldr	r3, [r7, #4]
 800023a:	2b03      	cmp	r3, #3
 800023c:	d122      	bne.n	8000284 <display7SEG+0x138>
		HAL_GPIO_WritePin(SEG0_GPIO_Port, SEG0_Pin, GPIO_PIN_RESET);
 800023e:	2200      	movs	r2, #0
 8000240:	2101      	movs	r1, #1
 8000242:	4884      	ldr	r0, [pc, #528]	; (8000454 <display7SEG+0x308>)
 8000244:	f000 ffcc 	bl	80011e0 <HAL_GPIO_WritePin>
		HAL_GPIO_WritePin(SEG1_GPIO_Port, SEG1_Pin, GPIO_PIN_RESET);
 8000248:	2200      	movs	r2, #0
 800024a:	2102      	movs	r1, #2
 800024c:	4881      	ldr	r0, [pc, #516]	; (8000454 <display7SEG+0x308>)
 800024e:	f000 ffc7 	bl	80011e0 <HAL_GPIO_WritePin>
		HAL_GPIO_WritePin(SEG2_GPIO_Port, SEG2_Pin, GPIO_PIN_RESET);
 8000252:	2200      	movs	r2, #0
 8000254:	2104      	movs	r1, #4
 8000256:	487f      	ldr	r0, [pc, #508]	; (8000454 <display7SEG+0x308>)
 8000258:	f000 ffc2 	bl	80011e0 <HAL_GPIO_WritePin>
		HAL_GPIO_WritePin(SEG3_GPIO_Port, SEG3_Pin, GPIO_PIN_RESET);
 800025c:	2200      	movs	r2, #0
 800025e:	2108      	movs	r1, #8
 8000260:	487c      	ldr	r0, [pc, #496]	; (8000454 <display7SEG+0x308>)
 8000262:	f000 ffbd 	bl	80011e0 <HAL_GPIO_WritePin>
		HAL_GPIO_WritePin(SEG4_GPIO_Port, SEG4_Pin, GPIO_PIN_SET);
 8000266:	2201      	movs	r2, #1
 8000268:	2110      	movs	r1, #16
 800026a:	487a      	ldr	r0, [pc, #488]	; (8000454 <display7SEG+0x308>)
 800026c:	f000 ffb8 	bl	80011e0 <HAL_GPIO_WritePin>
		HAL_GPIO_WritePin(SEG5_GPIO_Port, SEG5_Pin, GPIO_PIN_SET);
 8000270:	2201      	movs	r2, #1
 8000272:	2120      	movs	r1, #32
 8000274:	4877      	ldr	r0, [pc, #476]	; (8000454 <display7SEG+0x308>)
 8000276:	f000 ffb3 	bl	80011e0 <HAL_GPIO_WritePin>
		HAL_GPIO_WritePin(SEG6_GPIO_Port, SEG6_Pin, GPIO_PIN_RESET);
 800027a:	2200      	movs	r2, #0
 800027c:	2140      	movs	r1, #64	; 0x40
 800027e:	4875      	ldr	r0, [pc, #468]	; (8000454 <display7SEG+0x308>)
 8000280:	f000 ffae 	bl	80011e0 <HAL_GPIO_WritePin>
	}

	if(num == 4){
 8000284:	687b      	ldr	r3, [r7, #4]
 8000286:	2b04      	cmp	r3, #4
 8000288:	d122      	bne.n	80002d0 <display7SEG+0x184>
		HAL_GPIO_WritePin(SEG0_GPIO_Port, SEG0_Pin, GPIO_PIN_SET);
 800028a:	2201      	movs	r2, #1
 800028c:	2101      	movs	r1, #1
 800028e:	4871      	ldr	r0, [pc, #452]	; (8000454 <display7SEG+0x308>)
 8000290:	f000 ffa6 	bl	80011e0 <HAL_GPIO_WritePin>
		HAL_GPIO_WritePin(SEG1_GPIO_Port, SEG1_Pin, GPIO_PIN_RESET);
 8000294:	2200      	movs	r2, #0
 8000296:	2102      	movs	r1, #2
 8000298:	486e      	ldr	r0, [pc, #440]	; (8000454 <display7SEG+0x308>)
 800029a:	f000 ffa1 	bl	80011e0 <HAL_GPIO_WritePin>
		HAL_GPIO_WritePin(SEG2_GPIO_Port, SEG2_Pin, GPIO_PIN_RESET);
 800029e:	2200      	movs	r2, #0
 80002a0:	2104      	movs	r1, #4
 80002a2:	486c      	ldr	r0, [pc, #432]	; (8000454 <display7SEG+0x308>)
 80002a4:	f000 ff9c 	bl	80011e0 <HAL_GPIO_WritePin>
		HAL_GPIO_WritePin(SEG3_GPIO_Port, SEG3_Pin, GPIO_PIN_SET);
 80002a8:	2201      	movs	r2, #1
 80002aa:	2108      	movs	r1, #8
 80002ac:	4869      	ldr	r0, [pc, #420]	; (8000454 <display7SEG+0x308>)
 80002ae:	f000 ff97 	bl	80011e0 <HAL_GPIO_WritePin>
		HAL_GPIO_WritePin(SEG4_GPIO_Port, SEG4_Pin, GPIO_PIN_SET);
 80002b2:	2201      	movs	r2, #1
 80002b4:	2110      	movs	r1, #16
 80002b6:	4867      	ldr	r0, [pc, #412]	; (8000454 <display7SEG+0x308>)
 80002b8:	f000 ff92 	bl	80011e0 <HAL_GPIO_WritePin>
		HAL_GPIO_WritePin(SEG5_GPIO_Port, SEG5_Pin, GPIO_PIN_RESET);
 80002bc:	2200      	movs	r2, #0
 80002be:	2120      	movs	r1, #32
 80002c0:	4864      	ldr	r0, [pc, #400]	; (8000454 <display7SEG+0x308>)
 80002c2:	f000 ff8d 	bl	80011e0 <HAL_GPIO_WritePin>
		HAL_GPIO_WritePin(SEG6_GPIO_Port, SEG6_Pin, GPIO_PIN_RESET);
 80002c6:	2200      	movs	r2, #0
 80002c8:	2140      	movs	r1, #64	; 0x40
 80002ca:	4862      	ldr	r0, [pc, #392]	; (8000454 <display7SEG+0x308>)
 80002cc:	f000 ff88 	bl	80011e0 <HAL_GPIO_WritePin>
	}

	if(num == 5){
 80002d0:	687b      	ldr	r3, [r7, #4]
 80002d2:	2b05      	cmp	r3, #5
 80002d4:	d122      	bne.n	800031c <display7SEG+0x1d0>
		HAL_GPIO_WritePin(SEG0_GPIO_Port, SEG0_Pin, GPIO_PIN_RESET);
 80002d6:	2200      	movs	r2, #0
 80002d8:	2101      	movs	r1, #1
 80002da:	485e      	ldr	r0, [pc, #376]	; (8000454 <display7SEG+0x308>)
 80002dc:	f000 ff80 	bl	80011e0 <HAL_GPIO_WritePin>
		HAL_GPIO_WritePin(SEG1_GPIO_Port, SEG1_Pin, GPIO_PIN_SET);
 80002e0:	2201      	movs	r2, #1
 80002e2:	2102      	movs	r1, #2
 80002e4:	485b      	ldr	r0, [pc, #364]	; (8000454 <display7SEG+0x308>)
 80002e6:	f000 ff7b 	bl	80011e0 <HAL_GPIO_WritePin>
		HAL_GPIO_WritePin(SEG2_GPIO_Port, SEG2_Pin, GPIO_PIN_RESET);
 80002ea:	2200      	movs	r2, #0
 80002ec:	2104      	movs	r1, #4
 80002ee:	4859      	ldr	r0, [pc, #356]	; (8000454 <display7SEG+0x308>)
 80002f0:	f000 ff76 	bl	80011e0 <HAL_GPIO_WritePin>
		HAL_GPIO_WritePin(SEG3_GPIO_Port, SEG3_Pin, GPIO_PIN_RESET);
 80002f4:	2200      	movs	r2, #0
 80002f6:	2108      	movs	r1, #8
 80002f8:	4856      	ldr	r0, [pc, #344]	; (8000454 <display7SEG+0x308>)
 80002fa:	f000 ff71 	bl	80011e0 <HAL_GPIO_WritePin>
		HAL_GPIO_WritePin(SEG4_GPIO_Port, SEG4_Pin, GPIO_PIN_SET);
 80002fe:	2201      	movs	r2, #1
 8000300:	2110      	movs	r1, #16
 8000302:	4854      	ldr	r0, [pc, #336]	; (8000454 <display7SEG+0x308>)
 8000304:	f000 ff6c 	bl	80011e0 <HAL_GPIO_WritePin>
		HAL_GPIO_WritePin(SEG5_GPIO_Port, SEG5_Pin, GPIO_PIN_RESET);
 8000308:	2200      	movs	r2, #0
 800030a:	2120      	movs	r1, #32
 800030c:	4851      	ldr	r0, [pc, #324]	; (8000454 <display7SEG+0x308>)
 800030e:	f000 ff67 	bl	80011e0 <HAL_GPIO_WritePin>
		HAL_GPIO_WritePin(SEG6_GPIO_Port, SEG6_Pin, GPIO_PIN_RESET);
 8000312:	2200      	movs	r2, #0
 8000314:	2140      	movs	r1, #64	; 0x40
 8000316:	484f      	ldr	r0, [pc, #316]	; (8000454 <display7SEG+0x308>)
 8000318:	f000 ff62 	bl	80011e0 <HAL_GPIO_WritePin>
	}

	if(num == 6){
 800031c:	687b      	ldr	r3, [r7, #4]
 800031e:	2b06      	cmp	r3, #6
 8000320:	d122      	bne.n	8000368 <display7SEG+0x21c>
		HAL_GPIO_WritePin(SEG0_GPIO_Port, SEG0_Pin, GPIO_PIN_RESET);
 8000322:	2200      	movs	r2, #0
 8000324:	2101      	movs	r1, #1
 8000326:	484b      	ldr	r0, [pc, #300]	; (8000454 <display7SEG+0x308>)
 8000328:	f000 ff5a 	bl	80011e0 <HAL_GPIO_WritePin>
		HAL_GPIO_WritePin(SEG1_GPIO_Port, SEG1_Pin, GPIO_PIN_SET);
 800032c:	2201      	movs	r2, #1
 800032e:	2102      	movs	r1, #2
 8000330:	4848      	ldr	r0, [pc, #288]	; (8000454 <display7SEG+0x308>)
 8000332:	f000 ff55 	bl	80011e0 <HAL_GPIO_WritePin>
		HAL_GPIO_WritePin(SEG2_GPIO_Port, SEG2_Pin, GPIO_PIN_RESET);
 8000336:	2200      	movs	r2, #0
 8000338:	2104      	movs	r1, #4
 800033a:	4846      	ldr	r0, [pc, #280]	; (8000454 <display7SEG+0x308>)
 800033c:	f000 ff50 	bl	80011e0 <HAL_GPIO_WritePin>
		HAL_GPIO_WritePin(SEG3_GPIO_Port, SEG3_Pin, GPIO_PIN_RESET);
 8000340:	2200      	movs	r2, #0
 8000342:	2108      	movs	r1, #8
 8000344:	4843      	ldr	r0, [pc, #268]	; (8000454 <display7SEG+0x308>)
 8000346:	f000 ff4b 	bl	80011e0 <HAL_GPIO_WritePin>
		HAL_GPIO_WritePin(SEG4_GPIO_Port, SEG4_Pin, GPIO_PIN_RESET);
 800034a:	2200      	movs	r2, #0
 800034c:	2110      	movs	r1, #16
 800034e:	4841      	ldr	r0, [pc, #260]	; (8000454 <display7SEG+0x308>)
 8000350:	f000 ff46 	bl	80011e0 <HAL_GPIO_WritePin>
		HAL_GPIO_WritePin(SEG5_GPIO_Port, SEG5_Pin, GPIO_PIN_RESET);
 8000354:	2200      	movs	r2, #0
 8000356:	2120      	movs	r1, #32
 8000358:	483e      	ldr	r0, [pc, #248]	; (8000454 <display7SEG+0x308>)
 800035a:	f000 ff41 	bl	80011e0 <HAL_GPIO_WritePin>
		HAL_GPIO_WritePin(SEG6_GPIO_Port, SEG6_Pin, GPIO_PIN_RESET);
 800035e:	2200      	movs	r2, #0
 8000360:	2140      	movs	r1, #64	; 0x40
 8000362:	483c      	ldr	r0, [pc, #240]	; (8000454 <display7SEG+0x308>)
 8000364:	f000 ff3c 	bl	80011e0 <HAL_GPIO_WritePin>
	}

	if(num == 7){
 8000368:	687b      	ldr	r3, [r7, #4]
 800036a:	2b07      	cmp	r3, #7
 800036c:	d122      	bne.n	80003b4 <display7SEG+0x268>
		HAL_GPIO_WritePin(SEG0_GPIO_Port, SEG0_Pin, GPIO_PIN_RESET);
 800036e:	2200      	movs	r2, #0
 8000370:	2101      	movs	r1, #1
 8000372:	4838      	ldr	r0, [pc, #224]	; (8000454 <display7SEG+0x308>)
 8000374:	f000 ff34 	bl	80011e0 <HAL_GPIO_WritePin>
		HAL_GPIO_WritePin(SEG1_GPIO_Port, SEG1_Pin, GPIO_PIN_RESET);
 8000378:	2200      	movs	r2, #0
 800037a:	2102      	movs	r1, #2
 800037c:	4835      	ldr	r0, [pc, #212]	; (8000454 <display7SEG+0x308>)
 800037e:	f000 ff2f 	bl	80011e0 <HAL_GPIO_WritePin>
		HAL_GPIO_WritePin(SEG2_GPIO_Port, SEG2_Pin, GPIO_PIN_RESET);
 8000382:	2200      	movs	r2, #0
 8000384:	2104      	movs	r1, #4
 8000386:	4833      	ldr	r0, [pc, #204]	; (8000454 <display7SEG+0x308>)
 8000388:	f000 ff2a 	bl	80011e0 <HAL_GPIO_WritePin>
		HAL_GPIO_WritePin(SEG3_GPIO_Port, SEG3_Pin, GPIO_PIN_SET);
 800038c:	2201      	movs	r2, #1
 800038e:	2108      	movs	r1, #8
 8000390:	4830      	ldr	r0, [pc, #192]	; (8000454 <display7SEG+0x308>)
 8000392:	f000 ff25 	bl	80011e0 <HAL_GPIO_WritePin>
		HAL_GPIO_WritePin(SEG4_GPIO_Port, SEG4_Pin, GPIO_PIN_SET);
 8000396:	2201      	movs	r2, #1
 8000398:	2110      	movs	r1, #16
 800039a:	482e      	ldr	r0, [pc, #184]	; (8000454 <display7SEG+0x308>)
 800039c:	f000 ff20 	bl	80011e0 <HAL_GPIO_WritePin>
		HAL_GPIO_WritePin(SEG5_GPIO_Port, SEG5_Pin, GPIO_PIN_SET);
 80003a0:	2201      	movs	r2, #1
 80003a2:	2120      	movs	r1, #32
 80003a4:	482b      	ldr	r0, [pc, #172]	; (8000454 <display7SEG+0x308>)
 80003a6:	f000 ff1b 	bl	80011e0 <HAL_GPIO_WritePin>
		HAL_GPIO_WritePin(SEG6_GPIO_Port, SEG6_Pin, GPIO_PIN_SET);
 80003aa:	2201      	movs	r2, #1
 80003ac:	2140      	movs	r1, #64	; 0x40
 80003ae:	4829      	ldr	r0, [pc, #164]	; (8000454 <display7SEG+0x308>)
 80003b0:	f000 ff16 	bl	80011e0 <HAL_GPIO_WritePin>
	}

	if(num == 8){
 80003b4:	687b      	ldr	r3, [r7, #4]
 80003b6:	2b08      	cmp	r3, #8
 80003b8:	d122      	bne.n	8000400 <display7SEG+0x2b4>
		HAL_GPIO_WritePin(SEG0_GPIO_Port, SEG0_Pin, GPIO_PIN_RESET);
 80003ba:	2200      	movs	r2, #0
 80003bc:	2101      	movs	r1, #1
 80003be:	4825      	ldr	r0, [pc, #148]	; (8000454 <display7SEG+0x308>)
 80003c0:	f000 ff0e 	bl	80011e0 <HAL_GPIO_WritePin>
		HAL_GPIO_WritePin(SEG1_GPIO_Port, SEG1_Pin, GPIO_PIN_RESET);
 80003c4:	2200      	movs	r2, #0
 80003c6:	2102      	movs	r1, #2
 80003c8:	4822      	ldr	r0, [pc, #136]	; (8000454 <display7SEG+0x308>)
 80003ca:	f000 ff09 	bl	80011e0 <HAL_GPIO_WritePin>
		HAL_GPIO_WritePin(SEG2_GPIO_Port, SEG2_Pin, GPIO_PIN_RESET);
 80003ce:	2200      	movs	r2, #0
 80003d0:	2104      	movs	r1, #4
 80003d2:	4820      	ldr	r0, [pc, #128]	; (8000454 <display7SEG+0x308>)
 80003d4:	f000 ff04 	bl	80011e0 <HAL_GPIO_WritePin>
		HAL_GPIO_WritePin(SEG3_GPIO_Port, SEG3_Pin, GPIO_PIN_RESET);
 80003d8:	2200      	movs	r2, #0
 80003da:	2108      	movs	r1, #8
 80003dc:	481d      	ldr	r0, [pc, #116]	; (8000454 <display7SEG+0x308>)
 80003de:	f000 feff 	bl	80011e0 <HAL_GPIO_WritePin>
		HAL_GPIO_WritePin(SEG4_GPIO_Port, SEG4_Pin, GPIO_PIN_RESET);
 80003e2:	2200      	movs	r2, #0
 80003e4:	2110      	movs	r1, #16
 80003e6:	481b      	ldr	r0, [pc, #108]	; (8000454 <display7SEG+0x308>)
 80003e8:	f000 fefa 	bl	80011e0 <HAL_GPIO_WritePin>
		HAL_GPIO_WritePin(SEG5_GPIO_Port, SEG5_Pin, GPIO_PIN_RESET);
 80003ec:	2200      	movs	r2, #0
 80003ee:	2120      	movs	r1, #32
 80003f0:	4818      	ldr	r0, [pc, #96]	; (8000454 <display7SEG+0x308>)
 80003f2:	f000 fef5 	bl	80011e0 <HAL_GPIO_WritePin>
		HAL_GPIO_WritePin(SEG6_GPIO_Port, SEG6_Pin, GPIO_PIN_RESET);
 80003f6:	2200      	movs	r2, #0
 80003f8:	2140      	movs	r1, #64	; 0x40
 80003fa:	4816      	ldr	r0, [pc, #88]	; (8000454 <display7SEG+0x308>)
 80003fc:	f000 fef0 	bl	80011e0 <HAL_GPIO_WritePin>
	}

	if(num == 9){
 8000400:	687b      	ldr	r3, [r7, #4]
 8000402:	2b09      	cmp	r3, #9
 8000404:	d122      	bne.n	800044c <display7SEG+0x300>
		HAL_GPIO_WritePin(SEG0_GPIO_Port, SEG0_Pin, GPIO_PIN_RESET);
 8000406:	2200      	movs	r2, #0
 8000408:	2101      	movs	r1, #1
 800040a:	4812      	ldr	r0, [pc, #72]	; (8000454 <display7SEG+0x308>)
 800040c:	f000 fee8 	bl	80011e0 <HAL_GPIO_WritePin>
		HAL_GPIO_WritePin(SEG1_GPIO_Port, SEG1_Pin, GPIO_PIN_RESET);
 8000410:	2200      	movs	r2, #0
 8000412:	2102      	movs	r1, #2
 8000414:	480f      	ldr	r0, [pc, #60]	; (8000454 <display7SEG+0x308>)
 8000416:	f000 fee3 	bl	80011e0 <HAL_GPIO_WritePin>
		HAL_GPIO_WritePin(SEG2_GPIO_Port, SEG2_Pin, GPIO_PIN_RESET);
 800041a:	2200      	movs	r2, #0
 800041c:	2104      	movs	r1, #4
 800041e:	480d      	ldr	r0, [pc, #52]	; (8000454 <display7SEG+0x308>)
 8000420:	f000 fede 	bl	80011e0 <HAL_GPIO_WritePin>
		HAL_GPIO_WritePin(SEG3_GPIO_Port, SEG3_Pin, GPIO_PIN_RESET);
 8000424:	2200      	movs	r2, #0
 8000426:	2108      	movs	r1, #8
 8000428:	480a      	ldr	r0, [pc, #40]	; (8000454 <display7SEG+0x308>)
 800042a:	f000 fed9 	bl	80011e0 <HAL_GPIO_WritePin>
		HAL_GPIO_WritePin(SEG4_GPIO_Port, SEG4_Pin, GPIO_PIN_SET);
 800042e:	2201      	movs	r2, #1
 8000430:	2110      	movs	r1, #16
 8000432:	4808      	ldr	r0, [pc, #32]	; (8000454 <display7SEG+0x308>)
 8000434:	f000 fed4 	bl	80011e0 <HAL_GPIO_WritePin>
		HAL_GPIO_WritePin(SEG5_GPIO_Port, SEG5_Pin, GPIO_PIN_RESET);
 8000438:	2200      	movs	r2, #0
 800043a:	2120      	movs	r1, #32
 800043c:	4805      	ldr	r0, [pc, #20]	; (8000454 <display7SEG+0x308>)
 800043e:	f000 fecf 	bl	80011e0 <HAL_GPIO_WritePin>
		HAL_GPIO_WritePin(SEG6_GPIO_Port, SEG6_Pin, GPIO_PIN_RESET);
 8000442:	2200      	movs	r2, #0
 8000444:	2140      	movs	r1, #64	; 0x40
 8000446:	4803      	ldr	r0, [pc, #12]	; (8000454 <display7SEG+0x308>)
 8000448:	f000 feca 	bl	80011e0 <HAL_GPIO_WritePin>
	}
}
 800044c:	bf00      	nop
 800044e:	3708      	adds	r7, #8
 8000450:	46bd      	mov	sp, r7
 8000452:	bd80      	pop	{r7, pc}
 8000454:	40010c00 	.word	0x40010c00

08000458 <update7SEG>:

/* Function to update 7-segment led*/
void update7SEG(int index)
{
 8000458:	b580      	push	{r7, lr}
 800045a:	b082      	sub	sp, #8
 800045c:	af00      	add	r7, sp, #0
 800045e:	6078      	str	r0, [r7, #4]
	switch(index)
 8000460:	687b      	ldr	r3, [r7, #4]
 8000462:	2b03      	cmp	r3, #3
 8000464:	d87a      	bhi.n	800055c <update7SEG+0x104>
 8000466:	a201      	add	r2, pc, #4	; (adr r2, 800046c <update7SEG+0x14>)
 8000468:	f852 f023 	ldr.w	pc, [r2, r3, lsl #2]
 800046c:	0800047d 	.word	0x0800047d
 8000470:	080004b5 	.word	0x080004b5
 8000474:	080004ed 	.word	0x080004ed
 8000478:	08000525 	.word	0x08000525
	{
	case 0:
		HAL_GPIO_WritePin(EN0_GPIO_Port, EN0_Pin, GPIO_PIN_RESET);
 800047c:	2200      	movs	r2, #0
 800047e:	2140      	movs	r1, #64	; 0x40
 8000480:	4844      	ldr	r0, [pc, #272]	; (8000594 <update7SEG+0x13c>)
 8000482:	f000 fead 	bl	80011e0 <HAL_GPIO_WritePin>
		HAL_GPIO_WritePin(EN1_GPIO_Port, EN1_Pin, GPIO_PIN_SET);
 8000486:	2201      	movs	r2, #1
 8000488:	2180      	movs	r1, #128	; 0x80
 800048a:	4842      	ldr	r0, [pc, #264]	; (8000594 <update7SEG+0x13c>)
 800048c:	f000 fea8 	bl	80011e0 <HAL_GPIO_WritePin>
		HAL_GPIO_WritePin(EN2_GPIO_Port, EN2_Pin, GPIO_PIN_SET);
 8000490:	2201      	movs	r2, #1
 8000492:	f44f 7180 	mov.w	r1, #256	; 0x100
 8000496:	483f      	ldr	r0, [pc, #252]	; (8000594 <update7SEG+0x13c>)
 8000498:	f000 fea2 	bl	80011e0 <HAL_GPIO_WritePin>
		HAL_GPIO_WritePin(EN3_GPIO_Port, EN3_Pin, GPIO_PIN_SET);
 800049c:	2201      	movs	r2, #1
 800049e:	f44f 7100 	mov.w	r1, #512	; 0x200
 80004a2:	483c      	ldr	r0, [pc, #240]	; (8000594 <update7SEG+0x13c>)
 80004a4:	f000 fe9c 	bl	80011e0 <HAL_GPIO_WritePin>
		display7SEG(led_buffer[0]);
 80004a8:	4b3b      	ldr	r3, [pc, #236]	; (8000598 <update7SEG+0x140>)
 80004aa:	681b      	ldr	r3, [r3, #0]
 80004ac:	4618      	mov	r0, r3
 80004ae:	f7ff fe4d 	bl	800014c <display7SEG>
		break;
 80004b2:	e06a      	b.n	800058a <update7SEG+0x132>
	case 1:
		HAL_GPIO_WritePin(EN0_GPIO_Port, EN0_Pin, GPIO_PIN_SET);
 80004b4:	2201      	movs	r2, #1
 80004b6:	2140      	movs	r1, #64	; 0x40
 80004b8:	4836      	ldr	r0, [pc, #216]	; (8000594 <update7SEG+0x13c>)
 80004ba:	f000 fe91 	bl	80011e0 <HAL_GPIO_WritePin>
		HAL_GPIO_WritePin(EN1_GPIO_Port, EN1_Pin, GPIO_PIN_RESET);
 80004be:	2200      	movs	r2, #0
 80004c0:	2180      	movs	r1, #128	; 0x80
 80004c2:	4834      	ldr	r0, [pc, #208]	; (8000594 <update7SEG+0x13c>)
 80004c4:	f000 fe8c 	bl	80011e0 <HAL_GPIO_WritePin>
		HAL_GPIO_WritePin(EN2_GPIO_Port, EN2_Pin, GPIO_PIN_SET);
 80004c8:	2201      	movs	r2, #1
 80004ca:	f44f 7180 	mov.w	r1, #256	; 0x100
 80004ce:	4831      	ldr	r0, [pc, #196]	; (8000594 <update7SEG+0x13c>)
 80004d0:	f000 fe86 	bl	80011e0 <HAL_GPIO_WritePin>
		HAL_GPIO_WritePin(EN3_GPIO_Port, EN3_Pin, GPIO_PIN_SET);
 80004d4:	2201      	movs	r2, #1
 80004d6:	f44f 7100 	mov.w	r1, #512	; 0x200
 80004da:	482e      	ldr	r0, [pc, #184]	; (8000594 <update7SEG+0x13c>)
 80004dc:	f000 fe80 	bl	80011e0 <HAL_GPIO_WritePin>
		display7SEG(led_buffer[1]);
 80004e0:	4b2d      	ldr	r3, [pc, #180]	; (8000598 <update7SEG+0x140>)
 80004e2:	685b      	ldr	r3, [r3, #4]
 80004e4:	4618      	mov	r0, r3
 80004e6:	f7ff fe31 	bl	800014c <display7SEG>
		break;
 80004ea:	e04e      	b.n	800058a <update7SEG+0x132>
	case 2:
		HAL_GPIO_WritePin(EN0_GPIO_Port, EN0_Pin, GPIO_PIN_SET);
 80004ec:	2201      	movs	r2, #1
 80004ee:	2140      	movs	r1, #64	; 0x40
 80004f0:	4828      	ldr	r0, [pc, #160]	; (8000594 <update7SEG+0x13c>)
 80004f2:	f000 fe75 	bl	80011e0 <HAL_GPIO_WritePin>
		HAL_GPIO_WritePin(EN1_GPIO_Port, EN1_Pin, GPIO_PIN_SET);
 80004f6:	2201      	movs	r2, #1
 80004f8:	2180      	movs	r1, #128	; 0x80
 80004fa:	4826      	ldr	r0, [pc, #152]	; (8000594 <update7SEG+0x13c>)
 80004fc:	f000 fe70 	bl	80011e0 <HAL_GPIO_WritePin>
		HAL_GPIO_WritePin(EN2_GPIO_Port, EN2_Pin, GPIO_PIN_RESET);
 8000500:	2200      	movs	r2, #0
 8000502:	f44f 7180 	mov.w	r1, #256	; 0x100
 8000506:	4823      	ldr	r0, [pc, #140]	; (8000594 <update7SEG+0x13c>)
 8000508:	f000 fe6a 	bl	80011e0 <HAL_GPIO_WritePin>
		HAL_GPIO_WritePin(EN3_GPIO_Port, EN3_Pin, GPIO_PIN_SET);
 800050c:	2201      	movs	r2, #1
 800050e:	f44f 7100 	mov.w	r1, #512	; 0x200
 8000512:	4820      	ldr	r0, [pc, #128]	; (8000594 <update7SEG+0x13c>)
 8000514:	f000 fe64 	bl	80011e0 <HAL_GPIO_WritePin>
		display7SEG(led_buffer[2]);
 8000518:	4b1f      	ldr	r3, [pc, #124]	; (8000598 <update7SEG+0x140>)
 800051a:	689b      	ldr	r3, [r3, #8]
 800051c:	4618      	mov	r0, r3
 800051e:	f7ff fe15 	bl	800014c <display7SEG>
		break;
 8000522:	e032      	b.n	800058a <update7SEG+0x132>
	case 3:
		HAL_GPIO_WritePin(EN0_GPIO_Port, EN0_Pin, GPIO_PIN_SET);
 8000524:	2201      	movs	r2, #1
 8000526:	2140      	movs	r1, #64	; 0x40
 8000528:	481a      	ldr	r0, [pc, #104]	; (8000594 <update7SEG+0x13c>)
 800052a:	f000 fe59 	bl	80011e0 <HAL_GPIO_WritePin>
		HAL_GPIO_WritePin(EN1_GPIO_Port, EN1_Pin, GPIO_PIN_SET);
 800052e:	2201      	movs	r2, #1
 8000530:	2180      	movs	r1, #128	; 0x80
 8000532:	4818      	ldr	r0, [pc, #96]	; (8000594 <update7SEG+0x13c>)
 8000534:	f000 fe54 	bl	80011e0 <HAL_GPIO_WritePin>
		HAL_GPIO_WritePin(EN2_GPIO_Port, EN2_Pin, GPIO_PIN_SET);
 8000538:	2201      	movs	r2, #1
 800053a:	f44f 7180 	mov.w	r1, #256	; 0x100
 800053e:	4815      	ldr	r0, [pc, #84]	; (8000594 <update7SEG+0x13c>)
 8000540:	f000 fe4e 	bl	80011e0 <HAL_GPIO_WritePin>
		HAL_GPIO_WritePin(EN3_GPIO_Port, EN3_Pin, GPIO_PIN_RESET);
 8000544:	2200      	movs	r2, #0
 8000546:	f44f 7100 	mov.w	r1, #512	; 0x200
 800054a:	4812      	ldr	r0, [pc, #72]	; (8000594 <update7SEG+0x13c>)
 800054c:	f000 fe48 	bl	80011e0 <HAL_GPIO_WritePin>
		display7SEG(led_buffer[3]);
 8000550:	4b11      	ldr	r3, [pc, #68]	; (8000598 <update7SEG+0x140>)
 8000552:	68db      	ldr	r3, [r3, #12]
 8000554:	4618      	mov	r0, r3
 8000556:	f7ff fdf9 	bl	800014c <display7SEG>
		break;
 800055a:	e016      	b.n	800058a <update7SEG+0x132>
	default:
		HAL_GPIO_WritePin(EN0_GPIO_Port, EN0_Pin, GPIO_PIN_SET);
 800055c:	2201      	movs	r2, #1
 800055e:	2140      	movs	r1, #64	; 0x40
 8000560:	480c      	ldr	r0, [pc, #48]	; (8000594 <update7SEG+0x13c>)
 8000562:	f000 fe3d 	bl	80011e0 <HAL_GPIO_WritePin>
		HAL_GPIO_WritePin(EN1_GPIO_Port, EN1_Pin, GPIO_PIN_SET);
 8000566:	2201      	movs	r2, #1
 8000568:	2180      	movs	r1, #128	; 0x80
 800056a:	480a      	ldr	r0, [pc, #40]	; (8000594 <update7SEG+0x13c>)
 800056c:	f000 fe38 	bl	80011e0 <HAL_GPIO_WritePin>
		HAL_GPIO_WritePin(EN2_GPIO_Port, EN2_Pin, GPIO_PIN_SET);
 8000570:	2201      	movs	r2, #1
 8000572:	f44f 7180 	mov.w	r1, #256	; 0x100
 8000576:	4807      	ldr	r0, [pc, #28]	; (8000594 <update7SEG+0x13c>)
 8000578:	f000 fe32 	bl	80011e0 <HAL_GPIO_WritePin>
		HAL_GPIO_WritePin(EN3_GPIO_Port, EN3_Pin, GPIO_PIN_SET);
 800057c:	2201      	movs	r2, #1
 800057e:	f44f 7100 	mov.w	r1, #512	; 0x200
 8000582:	4804      	ldr	r0, [pc, #16]	; (8000594 <update7SEG+0x13c>)
 8000584:	f000 fe2c 	bl	80011e0 <HAL_GPIO_WritePin>
		break;
 8000588:	bf00      	nop
	}
}
 800058a:	bf00      	nop
 800058c:	3708      	adds	r7, #8
 800058e:	46bd      	mov	sp, r7
 8000590:	bd80      	pop	{r7, pc}
 8000592:	bf00      	nop
 8000594:	40010800 	.word	0x40010800
 8000598:	20000000 	.word	0x20000000

0800059c <blink_led>:
	}
}

/* Function to blink led red*/
void blink_led(void)
{
 800059c:	b580      	push	{r7, lr}
 800059e:	af00      	add	r7, sp, #0
	switch(blink_status)
 80005a0:	4b20      	ldr	r3, [pc, #128]	; (8000624 <blink_led+0x88>)
 80005a2:	781b      	ldrb	r3, [r3, #0]
 80005a4:	2b02      	cmp	r3, #2
 80005a6:	d024      	beq.n	80005f2 <blink_led+0x56>
 80005a8:	2b02      	cmp	r3, #2
 80005aa:	dc33      	bgt.n	8000614 <blink_led+0x78>
 80005ac:	2b00      	cmp	r3, #0
 80005ae:	d002      	beq.n	80005b6 <blink_led+0x1a>
 80005b0:	2b01      	cmp	r3, #1
 80005b2:	d00d      	beq.n	80005d0 <blink_led+0x34>
			setTimer1(BLINK_ON_TIME);
			blink_status = BLINK_ON;
		}
		break;
	default:
		break;
 80005b4:	e02e      	b.n	8000614 <blink_led+0x78>
		HAL_GPIO_WritePin(LED_RED_GPIO_Port, LED_RED_Pin, GPIO_PIN_SET); /* Turn off led red*/
 80005b6:	2201      	movs	r2, #1
 80005b8:	2120      	movs	r1, #32
 80005ba:	481b      	ldr	r0, [pc, #108]	; (8000628 <blink_led+0x8c>)
 80005bc:	f000 fe10 	bl	80011e0 <HAL_GPIO_WritePin>
		blink_status = BLINK_ON;
 80005c0:	4b18      	ldr	r3, [pc, #96]	; (8000624 <blink_led+0x88>)
 80005c2:	2201      	movs	r2, #1
 80005c4:	701a      	strb	r2, [r3, #0]
		setTimer1(BLINK_ON_TIME);
 80005c6:	f44f 70fa 	mov.w	r0, #500	; 0x1f4
 80005ca:	f000 f9e3 	bl	8000994 <setTimer1>
		break;
 80005ce:	e026      	b.n	800061e <blink_led+0x82>
		HAL_GPIO_WritePin(LED_RED_GPIO_Port, LED_RED_Pin, GPIO_PIN_RESET);
 80005d0:	2200      	movs	r2, #0
 80005d2:	2120      	movs	r1, #32
 80005d4:	4814      	ldr	r0, [pc, #80]	; (8000628 <blink_led+0x8c>)
 80005d6:	f000 fe03 	bl	80011e0 <HAL_GPIO_WritePin>
		if(timer1_flag == 1)
 80005da:	4b14      	ldr	r3, [pc, #80]	; (800062c <blink_led+0x90>)
 80005dc:	681b      	ldr	r3, [r3, #0]
 80005de:	2b01      	cmp	r3, #1
 80005e0:	d11a      	bne.n	8000618 <blink_led+0x7c>
			setTimer1(BLINK_OFF_TIME);
 80005e2:	f44f 70fa 	mov.w	r0, #500	; 0x1f4
 80005e6:	f000 f9d5 	bl	8000994 <setTimer1>
			blink_status = BLINK_OFF;
 80005ea:	4b0e      	ldr	r3, [pc, #56]	; (8000624 <blink_led+0x88>)
 80005ec:	2202      	movs	r2, #2
 80005ee:	701a      	strb	r2, [r3, #0]
		break;
 80005f0:	e012      	b.n	8000618 <blink_led+0x7c>
		HAL_GPIO_WritePin(LED_RED_GPIO_Port, LED_RED_Pin, GPIO_PIN_SET);
 80005f2:	2201      	movs	r2, #1
 80005f4:	2120      	movs	r1, #32
 80005f6:	480c      	ldr	r0, [pc, #48]	; (8000628 <blink_led+0x8c>)
 80005f8:	f000 fdf2 	bl	80011e0 <HAL_GPIO_WritePin>
		if(timer1_flag == 1)
 80005fc:	4b0b      	ldr	r3, [pc, #44]	; (800062c <blink_led+0x90>)
 80005fe:	681b      	ldr	r3, [r3, #0]
 8000600:	2b01      	cmp	r3, #1
 8000602:	d10b      	bne.n	800061c <blink_led+0x80>
			setTimer1(BLINK_ON_TIME);
 8000604:	f44f 70fa 	mov.w	r0, #500	; 0x1f4
 8000608:	f000 f9c4 	bl	8000994 <setTimer1>
			blink_status = BLINK_ON;
 800060c:	4b05      	ldr	r3, [pc, #20]	; (8000624 <blink_led+0x88>)
 800060e:	2201      	movs	r2, #1
 8000610:	701a      	strb	r2, [r3, #0]
		break;
 8000612:	e003      	b.n	800061c <blink_led+0x80>
		break;
 8000614:	bf00      	nop
 8000616:	e002      	b.n	800061e <blink_led+0x82>
		break;
 8000618:	bf00      	nop
 800061a:	e000      	b.n	800061e <blink_led+0x82>
		break;
 800061c:	bf00      	nop
	}
}
 800061e:	bf00      	nop
 8000620:	bd80      	pop	{r7, pc}
 8000622:	bf00      	nop
 8000624:	20000039 	.word	0x20000039
 8000628:	40010800 	.word	0x40010800
 800062c:	20000088 	.word	0x20000088

08000630 <blink_dot>:

/* Function to blink dot*/
void blink_dot(void)
{
 8000630:	b580      	push	{r7, lr}
 8000632:	af00      	add	r7, sp, #0
	switch(blink_dot_status)
 8000634:	4b20      	ldr	r3, [pc, #128]	; (80006b8 <blink_dot+0x88>)
 8000636:	781b      	ldrb	r3, [r3, #0]
 8000638:	2b02      	cmp	r3, #2
 800063a:	d024      	beq.n	8000686 <blink_dot+0x56>
 800063c:	2b02      	cmp	r3, #2
 800063e:	dc33      	bgt.n	80006a8 <blink_dot+0x78>
 8000640:	2b00      	cmp	r3, #0
 8000642:	d002      	beq.n	800064a <blink_dot+0x1a>
 8000644:	2b01      	cmp	r3, #1
 8000646:	d00d      	beq.n	8000664 <blink_dot+0x34>
			setTimer3(DOT_ON_TIME);
			blink_dot_status = DOT_ON;
		}
		break;
	default:
		break;
 8000648:	e02e      	b.n	80006a8 <blink_dot+0x78>
		HAL_GPIO_WritePin(DOT_GPIO_Port, DOT_Pin, GPIO_PIN_SET);
 800064a:	2201      	movs	r2, #1
 800064c:	2110      	movs	r1, #16
 800064e:	481b      	ldr	r0, [pc, #108]	; (80006bc <blink_dot+0x8c>)
 8000650:	f000 fdc6 	bl	80011e0 <HAL_GPIO_WritePin>
		blink_dot_status = DOT_ON;
 8000654:	4b18      	ldr	r3, [pc, #96]	; (80006b8 <blink_dot+0x88>)
 8000656:	2201      	movs	r2, #1
 8000658:	701a      	strb	r2, [r3, #0]
		setTimer3(DOT_ON_TIME);
 800065a:	f44f 707a 	mov.w	r0, #1000	; 0x3e8
 800065e:	f000 f9d1 	bl	8000a04 <setTimer3>
		break;
 8000662:	e026      	b.n	80006b2 <blink_dot+0x82>
		HAL_GPIO_WritePin(DOT_GPIO_Port, DOT_Pin, GPIO_PIN_RESET);
 8000664:	2200      	movs	r2, #0
 8000666:	2110      	movs	r1, #16
 8000668:	4814      	ldr	r0, [pc, #80]	; (80006bc <blink_dot+0x8c>)
 800066a:	f000 fdb9 	bl	80011e0 <HAL_GPIO_WritePin>
		if(timer3_flag == 1)
 800066e:	4b14      	ldr	r3, [pc, #80]	; (80006c0 <blink_dot+0x90>)
 8000670:	681b      	ldr	r3, [r3, #0]
 8000672:	2b01      	cmp	r3, #1
 8000674:	d11a      	bne.n	80006ac <blink_dot+0x7c>
			setTimer3(DOT_OFF_TIME);
 8000676:	f44f 707a 	mov.w	r0, #1000	; 0x3e8
 800067a:	f000 f9c3 	bl	8000a04 <setTimer3>
			blink_dot_status = DOT_OFF;
 800067e:	4b0e      	ldr	r3, [pc, #56]	; (80006b8 <blink_dot+0x88>)
 8000680:	2202      	movs	r2, #2
 8000682:	701a      	strb	r2, [r3, #0]
		break;
 8000684:	e012      	b.n	80006ac <blink_dot+0x7c>
		HAL_GPIO_WritePin(DOT_GPIO_Port, DOT_Pin, GPIO_PIN_SET);
 8000686:	2201      	movs	r2, #1
 8000688:	2110      	movs	r1, #16
 800068a:	480c      	ldr	r0, [pc, #48]	; (80006bc <blink_dot+0x8c>)
 800068c:	f000 fda8 	bl	80011e0 <HAL_GPIO_WritePin>
		if(timer3_flag == 1)
 8000690:	4b0b      	ldr	r3, [pc, #44]	; (80006c0 <blink_dot+0x90>)
 8000692:	681b      	ldr	r3, [r3, #0]
 8000694:	2b01      	cmp	r3, #1
 8000696:	d10b      	bne.n	80006b0 <blink_dot+0x80>
			setTimer3(DOT_ON_TIME);
 8000698:	f44f 707a 	mov.w	r0, #1000	; 0x3e8
 800069c:	f000 f9b2 	bl	8000a04 <setTimer3>
			blink_dot_status = DOT_ON;
 80006a0:	4b05      	ldr	r3, [pc, #20]	; (80006b8 <blink_dot+0x88>)
 80006a2:	2201      	movs	r2, #1
 80006a4:	701a      	strb	r2, [r3, #0]
		break;
 80006a6:	e003      	b.n	80006b0 <blink_dot+0x80>
		break;
 80006a8:	bf00      	nop
 80006aa:	e002      	b.n	80006b2 <blink_dot+0x82>
		break;
 80006ac:	bf00      	nop
 80006ae:	e000      	b.n	80006b2 <blink_dot+0x82>
		break;
 80006b0:	bf00      	nop

	}
}
 80006b2:	bf00      	nop
 80006b4:	bd80      	pop	{r7, pc}
 80006b6:	bf00      	nop
 80006b8:	2000003a 	.word	0x2000003a
 80006bc:	40010800 	.word	0x40010800
 80006c0:	20000098 	.word	0x20000098

080006c4 <scan_led>:

/* Function to scan led using update7SEG() function*/
void scan_led(void)
{
 80006c4:	b580      	push	{r7, lr}
 80006c6:	af00      	add	r7, sp, #0
	switch(scan_led_status)
 80006c8:	4b2f      	ldr	r3, [pc, #188]	; (8000788 <scan_led+0xc4>)
 80006ca:	781b      	ldrb	r3, [r3, #0]
 80006cc:	2b04      	cmp	r3, #4
 80006ce:	d84f      	bhi.n	8000770 <scan_led+0xac>
 80006d0:	a201      	add	r2, pc, #4	; (adr r2, 80006d8 <scan_led+0x14>)
 80006d2:	f852 f023 	ldr.w	pc, [r2, r3, lsl #2]
 80006d6:	bf00      	nop
 80006d8:	080006ed 	.word	0x080006ed
 80006dc:	08000701 	.word	0x08000701
 80006e0:	0800071d 	.word	0x0800071d
 80006e4:	08000739 	.word	0x08000739
 80006e8:	08000755 	.word	0x08000755
	{
	case INIT:
		update7SEG(4); /* Turn of all 7-segment led*/
 80006ec:	2004      	movs	r0, #4
 80006ee:	f7ff feb3 	bl	8000458 <update7SEG>
		scan_led_status = LED0;
 80006f2:	4b25      	ldr	r3, [pc, #148]	; (8000788 <scan_led+0xc4>)
 80006f4:	2201      	movs	r2, #1
 80006f6:	701a      	strb	r2, [r3, #0]
		setTimer2(ON_TIME);
 80006f8:	20fa      	movs	r0, #250	; 0xfa
 80006fa:	f000 f967 	bl	80009cc <setTimer2>
		break;
 80006fe:	e040      	b.n	8000782 <scan_led+0xbe>
	case LED0:
		update7SEG(0); /* Turn on only led 0*/
 8000700:	2000      	movs	r0, #0
 8000702:	f7ff fea9 	bl	8000458 <update7SEG>
		if(timer2_flag == 1)
 8000706:	4b21      	ldr	r3, [pc, #132]	; (800078c <scan_led+0xc8>)
 8000708:	681b      	ldr	r3, [r3, #0]
 800070a:	2b01      	cmp	r3, #1
 800070c:	d132      	bne.n	8000774 <scan_led+0xb0>
		{
			setTimer2(ON_TIME);
 800070e:	20fa      	movs	r0, #250	; 0xfa
 8000710:	f000 f95c 	bl	80009cc <setTimer2>
			scan_led_status = LED1;
 8000714:	4b1c      	ldr	r3, [pc, #112]	; (8000788 <scan_led+0xc4>)
 8000716:	2202      	movs	r2, #2
 8000718:	701a      	strb	r2, [r3, #0]
		}
		break;
 800071a:	e02b      	b.n	8000774 <scan_led+0xb0>
	case LED1:
		update7SEG(1); /* Turn on only led 0*/
 800071c:	2001      	movs	r0, #1
 800071e:	f7ff fe9b 	bl	8000458 <update7SEG>
		if(timer2_flag == 1)
 8000722:	4b1a      	ldr	r3, [pc, #104]	; (800078c <scan_led+0xc8>)
 8000724:	681b      	ldr	r3, [r3, #0]
 8000726:	2b01      	cmp	r3, #1
 8000728:	d126      	bne.n	8000778 <scan_led+0xb4>
		{
			setTimer2(ON_TIME);
 800072a:	20fa      	movs	r0, #250	; 0xfa
 800072c:	f000 f94e 	bl	80009cc <setTimer2>
			scan_led_status = LED2;
 8000730:	4b15      	ldr	r3, [pc, #84]	; (8000788 <scan_led+0xc4>)
 8000732:	2203      	movs	r2, #3
 8000734:	701a      	strb	r2, [r3, #0]
		}
		break;
 8000736:	e01f      	b.n	8000778 <scan_led+0xb4>
	case LED2:
		update7SEG(2); /* Turn on only led 0*/
 8000738:	2002      	movs	r0, #2
 800073a:	f7ff fe8d 	bl	8000458 <update7SEG>
		if(timer2_flag == 1)
 800073e:	4b13      	ldr	r3, [pc, #76]	; (800078c <scan_led+0xc8>)
 8000740:	681b      	ldr	r3, [r3, #0]
 8000742:	2b01      	cmp	r3, #1
 8000744:	d11a      	bne.n	800077c <scan_led+0xb8>
		{
			setTimer2(ON_TIME);
 8000746:	20fa      	movs	r0, #250	; 0xfa
 8000748:	f000 f940 	bl	80009cc <setTimer2>
			scan_led_status = LED3;
 800074c:	4b0e      	ldr	r3, [pc, #56]	; (8000788 <scan_led+0xc4>)
 800074e:	2204      	movs	r2, #4
 8000750:	701a      	strb	r2, [r3, #0]
		}
		break;
 8000752:	e013      	b.n	800077c <scan_led+0xb8>
	case LED3:
		update7SEG(3); /* Turn on only led 0*/
 8000754:	2003      	movs	r0, #3
 8000756:	f7ff fe7f 	bl	8000458 <update7SEG>
		if(timer2_flag == 1)
 800075a:	4b0c      	ldr	r3, [pc, #48]	; (800078c <scan_led+0xc8>)
 800075c:	681b      	ldr	r3, [r3, #0]
 800075e:	2b01      	cmp	r3, #1
 8000760:	d10e      	bne.n	8000780 <scan_led+0xbc>
		{
			setTimer2(ON_TIME);
 8000762:	20fa      	movs	r0, #250	; 0xfa
 8000764:	f000 f932 	bl	80009cc <setTimer2>
			scan_led_status = LED0;
 8000768:	4b07      	ldr	r3, [pc, #28]	; (8000788 <scan_led+0xc4>)
 800076a:	2201      	movs	r2, #1
 800076c:	701a      	strb	r2, [r3, #0]
		}
		break;
 800076e:	e007      	b.n	8000780 <scan_led+0xbc>
	default:
		break;
 8000770:	bf00      	nop
 8000772:	e006      	b.n	8000782 <scan_led+0xbe>
		break;
 8000774:	bf00      	nop
 8000776:	e004      	b.n	8000782 <scan_led+0xbe>
		break;
 8000778:	bf00      	nop
 800077a:	e002      	b.n	8000782 <scan_led+0xbe>
		break;
 800077c:	bf00      	nop
 800077e:	e000      	b.n	8000782 <scan_led+0xbe>
		break;
 8000780:	bf00      	nop
	}
}
 8000782:	bf00      	nop
 8000784:	bd80      	pop	{r7, pc}
 8000786:	bf00      	nop
 8000788:	20000038 	.word	0x20000038
 800078c:	20000090 	.word	0x20000090

08000790 <main>:
/**
  * @brief  The application entry point.
  * @retval int
  */
int main(void)
{
 8000790:	b580      	push	{r7, lr}
 8000792:	af00      	add	r7, sp, #0
  /* USER CODE END 1 */

  /* MCU Configuration--------------------------------------------------------*/

  /* Reset of all peripherals, Initializes the Flash interface and the Systick. */
  HAL_Init();
 8000794:	f000 fa38 	bl	8000c08 <HAL_Init>
  /* USER CODE BEGIN Init */

  /* USER CODE END Init */

  /* Configure the system clock */
  SystemClock_Config();
 8000798:	f000 f810 	bl	80007bc <SystemClock_Config>
  /* USER CODE BEGIN SysInit */

  /* USER CODE END SysInit */

  /* Initialize all configured peripherals */
  MX_GPIO_Init();
 800079c:	f000 f896 	bl	80008cc <MX_GPIO_Init>
  MX_TIM2_Init();
 80007a0:	f000 f848 	bl	8000834 <MX_TIM2_Init>
  /* USER CODE BEGIN 2 */
  HAL_TIM_Base_Start_IT(& htim2); /*function to initialize the timer*/
 80007a4:	4804      	ldr	r0, [pc, #16]	; (80007b8 <main+0x28>)
 80007a6:	f001 f961 	bl	8001a6c <HAL_TIM_Base_Start_IT>
  /* Infinite loop */
  /* USER CODE BEGIN WHILE */

  while (1)
  {
	  blink_led();
 80007aa:	f7ff fef7 	bl	800059c <blink_led>
//	  fsm_automatic_run();
	  blink_dot();
 80007ae:	f7ff ff3f 	bl	8000630 <blink_dot>
	  scan_led();
 80007b2:	f7ff ff87 	bl	80006c4 <scan_led>
	  blink_led();
 80007b6:	e7f8      	b.n	80007aa <main+0x1a>
 80007b8:	2000003c 	.word	0x2000003c

080007bc <SystemClock_Config>:
/**
  * @brief System Clock Configuration
  * @retval None
  */
void SystemClock_Config(void)
{
 80007bc:	b580      	push	{r7, lr}
 80007be:	b090      	sub	sp, #64	; 0x40
 80007c0:	af00      	add	r7, sp, #0
  RCC_OscInitTypeDef RCC_OscInitStruct = {0};
 80007c2:	f107 0318 	add.w	r3, r7, #24
 80007c6:	2228      	movs	r2, #40	; 0x28
 80007c8:	2100      	movs	r1, #0
 80007ca:	4618      	mov	r0, r3
 80007cc:	f001 fd0a 	bl	80021e4 <memset>
  RCC_ClkInitTypeDef RCC_ClkInitStruct = {0};
 80007d0:	1d3b      	adds	r3, r7, #4
 80007d2:	2200      	movs	r2, #0
 80007d4:	601a      	str	r2, [r3, #0]
 80007d6:	605a      	str	r2, [r3, #4]
 80007d8:	609a      	str	r2, [r3, #8]
 80007da:	60da      	str	r2, [r3, #12]
 80007dc:	611a      	str	r2, [r3, #16]

  /** Initializes the RCC Oscillators according to the specified parameters
  * in the RCC_OscInitTypeDef structure.
  */
  RCC_OscInitStruct.OscillatorType = RCC_OSCILLATORTYPE_HSI;
 80007de:	2302      	movs	r3, #2
 80007e0:	61bb      	str	r3, [r7, #24]
  RCC_OscInitStruct.HSIState = RCC_HSI_ON;
 80007e2:	2301      	movs	r3, #1
 80007e4:	62bb      	str	r3, [r7, #40]	; 0x28
  RCC_OscInitStruct.HSICalibrationValue = RCC_HSICALIBRATION_DEFAULT;
 80007e6:	2310      	movs	r3, #16
 80007e8:	62fb      	str	r3, [r7, #44]	; 0x2c
  RCC_OscInitStruct.PLL.PLLState = RCC_PLL_NONE;
 80007ea:	2300      	movs	r3, #0
 80007ec:	637b      	str	r3, [r7, #52]	; 0x34
  if (HAL_RCC_OscConfig(&RCC_OscInitStruct) != HAL_OK)
 80007ee:	f107 0318 	add.w	r3, r7, #24
 80007f2:	4618      	mov	r0, r3
 80007f4:	f000 fd0c 	bl	8001210 <HAL_RCC_OscConfig>
 80007f8:	4603      	mov	r3, r0
 80007fa:	2b00      	cmp	r3, #0
 80007fc:	d001      	beq.n	8000802 <SystemClock_Config+0x46>
  {
    Error_Handler();
 80007fe:	f000 f8c3 	bl	8000988 <Error_Handler>
  }

  /** Initializes the CPU, AHB and APB buses clocks
  */
  RCC_ClkInitStruct.ClockType = RCC_CLOCKTYPE_HCLK|RCC_CLOCKTYPE_SYSCLK
 8000802:	230f      	movs	r3, #15
 8000804:	607b      	str	r3, [r7, #4]
                              |RCC_CLOCKTYPE_PCLK1|RCC_CLOCKTYPE_PCLK2;
  RCC_ClkInitStruct.SYSCLKSource = RCC_SYSCLKSOURCE_HSI;
 8000806:	2300      	movs	r3, #0
 8000808:	60bb      	str	r3, [r7, #8]
  RCC_ClkInitStruct.AHBCLKDivider = RCC_SYSCLK_DIV1;
 800080a:	2300      	movs	r3, #0
 800080c:	60fb      	str	r3, [r7, #12]
  RCC_ClkInitStruct.APB1CLKDivider = RCC_HCLK_DIV1;
 800080e:	2300      	movs	r3, #0
 8000810:	613b      	str	r3, [r7, #16]
  RCC_ClkInitStruct.APB2CLKDivider = RCC_HCLK_DIV1;
 8000812:	2300      	movs	r3, #0
 8000814:	617b      	str	r3, [r7, #20]

  if (HAL_RCC_ClockConfig(&RCC_ClkInitStruct, FLASH_LATENCY_0) != HAL_OK)
 8000816:	1d3b      	adds	r3, r7, #4
 8000818:	2100      	movs	r1, #0
 800081a:	4618      	mov	r0, r3
 800081c:	f000 ff7a 	bl	8001714 <HAL_RCC_ClockConfig>
 8000820:	4603      	mov	r3, r0
 8000822:	2b00      	cmp	r3, #0
 8000824:	d001      	beq.n	800082a <SystemClock_Config+0x6e>
  {
    Error_Handler();
 8000826:	f000 f8af 	bl	8000988 <Error_Handler>
  }
}
 800082a:	bf00      	nop
 800082c:	3740      	adds	r7, #64	; 0x40
 800082e:	46bd      	mov	sp, r7
 8000830:	bd80      	pop	{r7, pc}
	...

08000834 <MX_TIM2_Init>:
  * @brief TIM2 Initialization Function
  * @param None
  * @retval None
  */
static void MX_TIM2_Init(void)
{
 8000834:	b580      	push	{r7, lr}
 8000836:	b086      	sub	sp, #24
 8000838:	af00      	add	r7, sp, #0

  /* USER CODE BEGIN TIM2_Init 0 */

  /* USER CODE END TIM2_Init 0 */

  TIM_ClockConfigTypeDef sClockSourceConfig = {0};
 800083a:	f107 0308 	add.w	r3, r7, #8
 800083e:	2200      	movs	r2, #0
 8000840:	601a      	str	r2, [r3, #0]
 8000842:	605a      	str	r2, [r3, #4]
 8000844:	609a      	str	r2, [r3, #8]
 8000846:	60da      	str	r2, [r3, #12]
  TIM_MasterConfigTypeDef sMasterConfig = {0};
 8000848:	463b      	mov	r3, r7
 800084a:	2200      	movs	r2, #0
 800084c:	601a      	str	r2, [r3, #0]
 800084e:	605a      	str	r2, [r3, #4]

  /* USER CODE BEGIN TIM2_Init 1 */

  /* USER CODE END TIM2_Init 1 */
  htim2.Instance = TIM2;
 8000850:	4b1d      	ldr	r3, [pc, #116]	; (80008c8 <MX_TIM2_Init+0x94>)
 8000852:	f04f 4280 	mov.w	r2, #1073741824	; 0x40000000
 8000856:	601a      	str	r2, [r3, #0]
  htim2.Init.Prescaler = 7999;
 8000858:	4b1b      	ldr	r3, [pc, #108]	; (80008c8 <MX_TIM2_Init+0x94>)
 800085a:	f641 723f 	movw	r2, #7999	; 0x1f3f
 800085e:	605a      	str	r2, [r3, #4]
  htim2.Init.CounterMode = TIM_COUNTERMODE_UP;
 8000860:	4b19      	ldr	r3, [pc, #100]	; (80008c8 <MX_TIM2_Init+0x94>)
 8000862:	2200      	movs	r2, #0
 8000864:	609a      	str	r2, [r3, #8]
  htim2.Init.Period = 9;
 8000866:	4b18      	ldr	r3, [pc, #96]	; (80008c8 <MX_TIM2_Init+0x94>)
 8000868:	2209      	movs	r2, #9
 800086a:	60da      	str	r2, [r3, #12]
  htim2.Init.ClockDivision = TIM_CLOCKDIVISION_DIV1;
 800086c:	4b16      	ldr	r3, [pc, #88]	; (80008c8 <MX_TIM2_Init+0x94>)
 800086e:	2200      	movs	r2, #0
 8000870:	611a      	str	r2, [r3, #16]
  htim2.Init.AutoReloadPreload = TIM_AUTORELOAD_PRELOAD_DISABLE;
 8000872:	4b15      	ldr	r3, [pc, #84]	; (80008c8 <MX_TIM2_Init+0x94>)
 8000874:	2200      	movs	r2, #0
 8000876:	619a      	str	r2, [r3, #24]
  if (HAL_TIM_Base_Init(&htim2) != HAL_OK)
 8000878:	4813      	ldr	r0, [pc, #76]	; (80008c8 <MX_TIM2_Init+0x94>)
 800087a:	f001 f8a7 	bl	80019cc <HAL_TIM_Base_Init>
 800087e:	4603      	mov	r3, r0
 8000880:	2b00      	cmp	r3, #0
 8000882:	d001      	beq.n	8000888 <MX_TIM2_Init+0x54>
  {
    Error_Handler();
 8000884:	f000 f880 	bl	8000988 <Error_Handler>
  }
  sClockSourceConfig.ClockSource = TIM_CLOCKSOURCE_INTERNAL;
 8000888:	f44f 5380 	mov.w	r3, #4096	; 0x1000
 800088c:	60bb      	str	r3, [r7, #8]
  if (HAL_TIM_ConfigClockSource(&htim2, &sClockSourceConfig) != HAL_OK)
 800088e:	f107 0308 	add.w	r3, r7, #8
 8000892:	4619      	mov	r1, r3
 8000894:	480c      	ldr	r0, [pc, #48]	; (80008c8 <MX_TIM2_Init+0x94>)
 8000896:	f001 fa3d 	bl	8001d14 <HAL_TIM_ConfigClockSource>
 800089a:	4603      	mov	r3, r0
 800089c:	2b00      	cmp	r3, #0
 800089e:	d001      	beq.n	80008a4 <MX_TIM2_Init+0x70>
  {
    Error_Handler();
 80008a0:	f000 f872 	bl	8000988 <Error_Handler>
  }
  sMasterConfig.MasterOutputTrigger = TIM_TRGO_RESET;
 80008a4:	2300      	movs	r3, #0
 80008a6:	603b      	str	r3, [r7, #0]
  sMasterConfig.MasterSlaveMode = TIM_MASTERSLAVEMODE_DISABLE;
 80008a8:	2300      	movs	r3, #0
 80008aa:	607b      	str	r3, [r7, #4]
  if (HAL_TIMEx_MasterConfigSynchronization(&htim2, &sMasterConfig) != HAL_OK)
 80008ac:	463b      	mov	r3, r7
 80008ae:	4619      	mov	r1, r3
 80008b0:	4805      	ldr	r0, [pc, #20]	; (80008c8 <MX_TIM2_Init+0x94>)
 80008b2:	f001 fc09 	bl	80020c8 <HAL_TIMEx_MasterConfigSynchronization>
 80008b6:	4603      	mov	r3, r0
 80008b8:	2b00      	cmp	r3, #0
 80008ba:	d001      	beq.n	80008c0 <MX_TIM2_Init+0x8c>
  {
    Error_Handler();
 80008bc:	f000 f864 	bl	8000988 <Error_Handler>
  }
  /* USER CODE BEGIN TIM2_Init 2 */

  /* USER CODE END TIM2_Init 2 */

}
 80008c0:	bf00      	nop
 80008c2:	3718      	adds	r7, #24
 80008c4:	46bd      	mov	sp, r7
 80008c6:	bd80      	pop	{r7, pc}
 80008c8:	2000003c 	.word	0x2000003c

080008cc <MX_GPIO_Init>:
  * @brief GPIO Initialization Function
  * @param None
  * @retval None
  */
static void MX_GPIO_Init(void)
{
 80008cc:	b580      	push	{r7, lr}
 80008ce:	b086      	sub	sp, #24
 80008d0:	af00      	add	r7, sp, #0
  GPIO_InitTypeDef GPIO_InitStruct = {0};
 80008d2:	f107 0308 	add.w	r3, r7, #8
 80008d6:	2200      	movs	r2, #0
 80008d8:	601a      	str	r2, [r3, #0]
 80008da:	605a      	str	r2, [r3, #4]
 80008dc:	609a      	str	r2, [r3, #8]
 80008de:	60da      	str	r2, [r3, #12]
/* USER CODE BEGIN MX_GPIO_Init_1 */
/* USER CODE END MX_GPIO_Init_1 */

  /* GPIO Ports Clock Enable */
  __HAL_RCC_GPIOA_CLK_ENABLE();
 80008e0:	4b21      	ldr	r3, [pc, #132]	; (8000968 <MX_GPIO_Init+0x9c>)
 80008e2:	699b      	ldr	r3, [r3, #24]
 80008e4:	4a20      	ldr	r2, [pc, #128]	; (8000968 <MX_GPIO_Init+0x9c>)
 80008e6:	f043 0304 	orr.w	r3, r3, #4
 80008ea:	6193      	str	r3, [r2, #24]
 80008ec:	4b1e      	ldr	r3, [pc, #120]	; (8000968 <MX_GPIO_Init+0x9c>)
 80008ee:	699b      	ldr	r3, [r3, #24]
 80008f0:	f003 0304 	and.w	r3, r3, #4
 80008f4:	607b      	str	r3, [r7, #4]
 80008f6:	687b      	ldr	r3, [r7, #4]
  __HAL_RCC_GPIOB_CLK_ENABLE();
 80008f8:	4b1b      	ldr	r3, [pc, #108]	; (8000968 <MX_GPIO_Init+0x9c>)
 80008fa:	699b      	ldr	r3, [r3, #24]
 80008fc:	4a1a      	ldr	r2, [pc, #104]	; (8000968 <MX_GPIO_Init+0x9c>)
 80008fe:	f043 0308 	orr.w	r3, r3, #8
 8000902:	6193      	str	r3, [r2, #24]
 8000904:	4b18      	ldr	r3, [pc, #96]	; (8000968 <MX_GPIO_Init+0x9c>)
 8000906:	699b      	ldr	r3, [r3, #24]
 8000908:	f003 0308 	and.w	r3, r3, #8
 800090c:	603b      	str	r3, [r7, #0]
 800090e:	683b      	ldr	r3, [r7, #0]

  /*Configure GPIO pin Output Level */
  HAL_GPIO_WritePin(GPIOA, DOT_Pin|LED_RED_Pin|EN0_Pin|EN1_Pin
 8000910:	2200      	movs	r2, #0
 8000912:	f44f 717c 	mov.w	r1, #1008	; 0x3f0
 8000916:	4815      	ldr	r0, [pc, #84]	; (800096c <MX_GPIO_Init+0xa0>)
 8000918:	f000 fc62 	bl	80011e0 <HAL_GPIO_WritePin>
                          |EN2_Pin|EN3_Pin, GPIO_PIN_RESET);

  /*Configure GPIO pin Output Level */
  HAL_GPIO_WritePin(GPIOB, SEG0_Pin|SEG1_Pin|SEG2_Pin|SEG3_Pin
 800091c:	2200      	movs	r2, #0
 800091e:	217f      	movs	r1, #127	; 0x7f
 8000920:	4813      	ldr	r0, [pc, #76]	; (8000970 <MX_GPIO_Init+0xa4>)
 8000922:	f000 fc5d 	bl	80011e0 <HAL_GPIO_WritePin>
                          |SEG4_Pin|SEG5_Pin|SEG6_Pin, GPIO_PIN_RESET);

  /*Configure GPIO pins : DOT_Pin LED_RED_Pin EN0_Pin EN1_Pin
                           EN2_Pin EN3_Pin */
  GPIO_InitStruct.Pin = DOT_Pin|LED_RED_Pin|EN0_Pin|EN1_Pin
 8000926:	f44f 737c 	mov.w	r3, #1008	; 0x3f0
 800092a:	60bb      	str	r3, [r7, #8]
                          |EN2_Pin|EN3_Pin;
  GPIO_InitStruct.Mode = GPIO_MODE_OUTPUT_PP;
 800092c:	2301      	movs	r3, #1
 800092e:	60fb      	str	r3, [r7, #12]
  GPIO_InitStruct.Pull = GPIO_NOPULL;
 8000930:	2300      	movs	r3, #0
 8000932:	613b      	str	r3, [r7, #16]
  GPIO_InitStruct.Speed = GPIO_SPEED_FREQ_LOW;
 8000934:	2302      	movs	r3, #2
 8000936:	617b      	str	r3, [r7, #20]
  HAL_GPIO_Init(GPIOA, &GPIO_InitStruct);
 8000938:	f107 0308 	add.w	r3, r7, #8
 800093c:	4619      	mov	r1, r3
 800093e:	480b      	ldr	r0, [pc, #44]	; (800096c <MX_GPIO_Init+0xa0>)
 8000940:	f000 fad2 	bl	8000ee8 <HAL_GPIO_Init>

  /*Configure GPIO pins : SEG0_Pin SEG1_Pin SEG2_Pin SEG3_Pin
                           SEG4_Pin SEG5_Pin SEG6_Pin */
  GPIO_InitStruct.Pin = SEG0_Pin|SEG1_Pin|SEG2_Pin|SEG3_Pin
 8000944:	237f      	movs	r3, #127	; 0x7f
 8000946:	60bb      	str	r3, [r7, #8]
                          |SEG4_Pin|SEG5_Pin|SEG6_Pin;
  GPIO_InitStruct.Mode = GPIO_MODE_OUTPUT_PP;
 8000948:	2301      	movs	r3, #1
 800094a:	60fb      	str	r3, [r7, #12]
  GPIO_InitStruct.Pull = GPIO_NOPULL;
 800094c:	2300      	movs	r3, #0
 800094e:	613b      	str	r3, [r7, #16]
  GPIO_InitStruct.Speed = GPIO_SPEED_FREQ_LOW;
 8000950:	2302      	movs	r3, #2
 8000952:	617b      	str	r3, [r7, #20]
  HAL_GPIO_Init(GPIOB, &GPIO_InitStruct);
 8000954:	f107 0308 	add.w	r3, r7, #8
 8000958:	4619      	mov	r1, r3
 800095a:	4805      	ldr	r0, [pc, #20]	; (8000970 <MX_GPIO_Init+0xa4>)
 800095c:	f000 fac4 	bl	8000ee8 <HAL_GPIO_Init>

/* USER CODE BEGIN MX_GPIO_Init_2 */
/* USER CODE END MX_GPIO_Init_2 */
}
 8000960:	bf00      	nop
 8000962:	3718      	adds	r7, #24
 8000964:	46bd      	mov	sp, r7
 8000966:	bd80      	pop	{r7, pc}
 8000968:	40021000 	.word	0x40021000
 800096c:	40010800 	.word	0x40010800
 8000970:	40010c00 	.word	0x40010c00

08000974 <HAL_TIM_PeriodElapsedCallback>:

/* USER CODE BEGIN 4 */
/*******************************************************
 Interrupt function is called every 10 ms
*******************************************************/
void HAL_TIM_PeriodElapsedCallback(TIM_HandleTypeDef *htim){
 8000974:	b580      	push	{r7, lr}
 8000976:	b082      	sub	sp, #8
 8000978:	af00      	add	r7, sp, #0
 800097a:	6078      	str	r0, [r7, #4]
	timerRun();
 800097c:	f000 f85e 	bl	8000a3c <timerRun>
}
 8000980:	bf00      	nop
 8000982:	3708      	adds	r7, #8
 8000984:	46bd      	mov	sp, r7
 8000986:	bd80      	pop	{r7, pc}

08000988 <Error_Handler>:
/**
  * @brief  This function is executed in case of error occurrence.
  * @retval None
  */
void Error_Handler(void)
{
 8000988:	b480      	push	{r7}
 800098a:	af00      	add	r7, sp, #0
  \details Disables IRQ interrupts by setting the I-bit in the CPSR.
           Can only be executed in Privileged modes.
 */
__STATIC_FORCEINLINE void __disable_irq(void)
{
  __ASM volatile ("cpsid i" : : : "memory");
 800098c:	b672      	cpsid	i
}
 800098e:	bf00      	nop
  /* USER CODE BEGIN Error_Handler_Debug */
  /* User can add his own implementation to report the HAL error return state */
  __disable_irq();
  while (1)
 8000990:	e7fe      	b.n	8000990 <Error_Handler+0x8>
	...

08000994 <setTimer1>:
 */
#include "software_timer.h"
int timer1_counter = 0;
int timer1_flag = 0;

void setTimer1(int duration){
 8000994:	b480      	push	{r7}
 8000996:	b083      	sub	sp, #12
 8000998:	af00      	add	r7, sp, #0
 800099a:	6078      	str	r0, [r7, #4]
	timer1_counter = duration/TICK;
 800099c:	687b      	ldr	r3, [r7, #4]
 800099e:	4a08      	ldr	r2, [pc, #32]	; (80009c0 <setTimer1+0x2c>)
 80009a0:	fb82 1203 	smull	r1, r2, r2, r3
 80009a4:	1092      	asrs	r2, r2, #2
 80009a6:	17db      	asrs	r3, r3, #31
 80009a8:	1ad3      	subs	r3, r2, r3
 80009aa:	4a06      	ldr	r2, [pc, #24]	; (80009c4 <setTimer1+0x30>)
 80009ac:	6013      	str	r3, [r2, #0]
	timer1_flag = 0;
 80009ae:	4b06      	ldr	r3, [pc, #24]	; (80009c8 <setTimer1+0x34>)
 80009b0:	2200      	movs	r2, #0
 80009b2:	601a      	str	r2, [r3, #0]
}
 80009b4:	bf00      	nop
 80009b6:	370c      	adds	r7, #12
 80009b8:	46bd      	mov	sp, r7
 80009ba:	bc80      	pop	{r7}
 80009bc:	4770      	bx	lr
 80009be:	bf00      	nop
 80009c0:	66666667 	.word	0x66666667
 80009c4:	20000084 	.word	0x20000084
 80009c8:	20000088 	.word	0x20000088

080009cc <setTimer2>:

int timer2_counter = 0;
int timer2_flag = 0;
void setTimer2(int duration)
{
 80009cc:	b480      	push	{r7}
 80009ce:	b083      	sub	sp, #12
 80009d0:	af00      	add	r7, sp, #0
 80009d2:	6078      	str	r0, [r7, #4]
	timer2_counter = duration/TICK;
 80009d4:	687b      	ldr	r3, [r7, #4]
 80009d6:	4a08      	ldr	r2, [pc, #32]	; (80009f8 <setTimer2+0x2c>)
 80009d8:	fb82 1203 	smull	r1, r2, r2, r3
 80009dc:	1092      	asrs	r2, r2, #2
 80009de:	17db      	asrs	r3, r3, #31
 80009e0:	1ad3      	subs	r3, r2, r3
 80009e2:	4a06      	ldr	r2, [pc, #24]	; (80009fc <setTimer2+0x30>)
 80009e4:	6013      	str	r3, [r2, #0]
	timer2_flag = 0;
 80009e6:	4b06      	ldr	r3, [pc, #24]	; (8000a00 <setTimer2+0x34>)
 80009e8:	2200      	movs	r2, #0
 80009ea:	601a      	str	r2, [r3, #0]
}
 80009ec:	bf00      	nop
 80009ee:	370c      	adds	r7, #12
 80009f0:	46bd      	mov	sp, r7
 80009f2:	bc80      	pop	{r7}
 80009f4:	4770      	bx	lr
 80009f6:	bf00      	nop
 80009f8:	66666667 	.word	0x66666667
 80009fc:	2000008c 	.word	0x2000008c
 8000a00:	20000090 	.word	0x20000090

08000a04 <setTimer3>:

int timer3_counter = 0;
int timer3_flag = 0;
void setTimer3(int duration)
{
 8000a04:	b480      	push	{r7}
 8000a06:	b083      	sub	sp, #12
 8000a08:	af00      	add	r7, sp, #0
 8000a0a:	6078      	str	r0, [r7, #4]
	timer3_counter = duration/TICK;
 8000a0c:	687b      	ldr	r3, [r7, #4]
 8000a0e:	4a08      	ldr	r2, [pc, #32]	; (8000a30 <setTimer3+0x2c>)
 8000a10:	fb82 1203 	smull	r1, r2, r2, r3
 8000a14:	1092      	asrs	r2, r2, #2
 8000a16:	17db      	asrs	r3, r3, #31
 8000a18:	1ad3      	subs	r3, r2, r3
 8000a1a:	4a06      	ldr	r2, [pc, #24]	; (8000a34 <setTimer3+0x30>)
 8000a1c:	6013      	str	r3, [r2, #0]
	timer3_flag = 0;
 8000a1e:	4b06      	ldr	r3, [pc, #24]	; (8000a38 <setTimer3+0x34>)
 8000a20:	2200      	movs	r2, #0
 8000a22:	601a      	str	r2, [r3, #0]
}
 8000a24:	bf00      	nop
 8000a26:	370c      	adds	r7, #12
 8000a28:	46bd      	mov	sp, r7
 8000a2a:	bc80      	pop	{r7}
 8000a2c:	4770      	bx	lr
 8000a2e:	bf00      	nop
 8000a30:	66666667 	.word	0x66666667
 8000a34:	20000094 	.word	0x20000094
 8000a38:	20000098 	.word	0x20000098

08000a3c <timerRun>:

void timerRun(){
 8000a3c:	b480      	push	{r7}
 8000a3e:	af00      	add	r7, sp, #0
	if(timer1_counter > 0){
 8000a40:	4b19      	ldr	r3, [pc, #100]	; (8000aa8 <timerRun+0x6c>)
 8000a42:	681b      	ldr	r3, [r3, #0]
 8000a44:	2b00      	cmp	r3, #0
 8000a46:	dd0b      	ble.n	8000a60 <timerRun+0x24>
		timer1_counter--;
 8000a48:	4b17      	ldr	r3, [pc, #92]	; (8000aa8 <timerRun+0x6c>)
 8000a4a:	681b      	ldr	r3, [r3, #0]
 8000a4c:	3b01      	subs	r3, #1
 8000a4e:	4a16      	ldr	r2, [pc, #88]	; (8000aa8 <timerRun+0x6c>)
 8000a50:	6013      	str	r3, [r2, #0]
		if(timer1_counter <= 0){
 8000a52:	4b15      	ldr	r3, [pc, #84]	; (8000aa8 <timerRun+0x6c>)
 8000a54:	681b      	ldr	r3, [r3, #0]
 8000a56:	2b00      	cmp	r3, #0
 8000a58:	dc02      	bgt.n	8000a60 <timerRun+0x24>
			timer1_flag = 1;
 8000a5a:	4b14      	ldr	r3, [pc, #80]	; (8000aac <timerRun+0x70>)
 8000a5c:	2201      	movs	r2, #1
 8000a5e:	601a      	str	r2, [r3, #0]
		}
	}
	if(timer2_counter > 0)
 8000a60:	4b13      	ldr	r3, [pc, #76]	; (8000ab0 <timerRun+0x74>)
 8000a62:	681b      	ldr	r3, [r3, #0]
 8000a64:	2b00      	cmp	r3, #0
 8000a66:	dd0b      	ble.n	8000a80 <timerRun+0x44>
	{
		timer2_counter--;
 8000a68:	4b11      	ldr	r3, [pc, #68]	; (8000ab0 <timerRun+0x74>)
 8000a6a:	681b      	ldr	r3, [r3, #0]
 8000a6c:	3b01      	subs	r3, #1
 8000a6e:	4a10      	ldr	r2, [pc, #64]	; (8000ab0 <timerRun+0x74>)
 8000a70:	6013      	str	r3, [r2, #0]
		if(timer2_counter <= 0)
 8000a72:	4b0f      	ldr	r3, [pc, #60]	; (8000ab0 <timerRun+0x74>)
 8000a74:	681b      	ldr	r3, [r3, #0]
 8000a76:	2b00      	cmp	r3, #0
 8000a78:	dc02      	bgt.n	8000a80 <timerRun+0x44>
		{
			timer2_flag = 1;
 8000a7a:	4b0e      	ldr	r3, [pc, #56]	; (8000ab4 <timerRun+0x78>)
 8000a7c:	2201      	movs	r2, #1
 8000a7e:	601a      	str	r2, [r3, #0]
		}
	}
	if(timer3_counter > 0)
 8000a80:	4b0d      	ldr	r3, [pc, #52]	; (8000ab8 <timerRun+0x7c>)
 8000a82:	681b      	ldr	r3, [r3, #0]
 8000a84:	2b00      	cmp	r3, #0
 8000a86:	dd0b      	ble.n	8000aa0 <timerRun+0x64>
	{
		timer3_counter--;
 8000a88:	4b0b      	ldr	r3, [pc, #44]	; (8000ab8 <timerRun+0x7c>)
 8000a8a:	681b      	ldr	r3, [r3, #0]
 8000a8c:	3b01      	subs	r3, #1
 8000a8e:	4a0a      	ldr	r2, [pc, #40]	; (8000ab8 <timerRun+0x7c>)
 8000a90:	6013      	str	r3, [r2, #0]
		if(timer3_counter <= 0)
 8000a92:	4b09      	ldr	r3, [pc, #36]	; (8000ab8 <timerRun+0x7c>)
 8000a94:	681b      	ldr	r3, [r3, #0]
 8000a96:	2b00      	cmp	r3, #0
 8000a98:	dc02      	bgt.n	8000aa0 <timerRun+0x64>
		{
			timer3_flag = 1;
 8000a9a:	4b08      	ldr	r3, [pc, #32]	; (8000abc <timerRun+0x80>)
 8000a9c:	2201      	movs	r2, #1
 8000a9e:	601a      	str	r2, [r3, #0]
		}
	}
}
 8000aa0:	bf00      	nop
 8000aa2:	46bd      	mov	sp, r7
 8000aa4:	bc80      	pop	{r7}
 8000aa6:	4770      	bx	lr
 8000aa8:	20000084 	.word	0x20000084
 8000aac:	20000088 	.word	0x20000088
 8000ab0:	2000008c 	.word	0x2000008c
 8000ab4:	20000090 	.word	0x20000090
 8000ab8:	20000094 	.word	0x20000094
 8000abc:	20000098 	.word	0x20000098

08000ac0 <HAL_MspInit>:
/* USER CODE END 0 */
/**
  * Initializes the Global MSP.
  */
void HAL_MspInit(void)
{
 8000ac0:	b480      	push	{r7}
 8000ac2:	b083      	sub	sp, #12
 8000ac4:	af00      	add	r7, sp, #0
  /* USER CODE BEGIN MspInit 0 */

  /* USER CODE END MspInit 0 */

  __HAL_RCC_AFIO_CLK_ENABLE();
 8000ac6:	4b0e      	ldr	r3, [pc, #56]	; (8000b00 <HAL_MspInit+0x40>)
 8000ac8:	699b      	ldr	r3, [r3, #24]
 8000aca:	4a0d      	ldr	r2, [pc, #52]	; (8000b00 <HAL_MspInit+0x40>)
 8000acc:	f043 0301 	orr.w	r3, r3, #1
 8000ad0:	6193      	str	r3, [r2, #24]
 8000ad2:	4b0b      	ldr	r3, [pc, #44]	; (8000b00 <HAL_MspInit+0x40>)
 8000ad4:	699b      	ldr	r3, [r3, #24]
 8000ad6:	f003 0301 	and.w	r3, r3, #1
 8000ada:	607b      	str	r3, [r7, #4]
 8000adc:	687b      	ldr	r3, [r7, #4]
  __HAL_RCC_PWR_CLK_ENABLE();
 8000ade:	4b08      	ldr	r3, [pc, #32]	; (8000b00 <HAL_MspInit+0x40>)
 8000ae0:	69db      	ldr	r3, [r3, #28]
 8000ae2:	4a07      	ldr	r2, [pc, #28]	; (8000b00 <HAL_MspInit+0x40>)
 8000ae4:	f043 5380 	orr.w	r3, r3, #268435456	; 0x10000000
 8000ae8:	61d3      	str	r3, [r2, #28]
 8000aea:	4b05      	ldr	r3, [pc, #20]	; (8000b00 <HAL_MspInit+0x40>)
 8000aec:	69db      	ldr	r3, [r3, #28]
 8000aee:	f003 5380 	and.w	r3, r3, #268435456	; 0x10000000
 8000af2:	603b      	str	r3, [r7, #0]
 8000af4:	683b      	ldr	r3, [r7, #0]
  /* System interrupt init*/

  /* USER CODE BEGIN MspInit 1 */

  /* USER CODE END MspInit 1 */
}
 8000af6:	bf00      	nop
 8000af8:	370c      	adds	r7, #12
 8000afa:	46bd      	mov	sp, r7
 8000afc:	bc80      	pop	{r7}
 8000afe:	4770      	bx	lr
 8000b00:	40021000 	.word	0x40021000

08000b04 <HAL_TIM_Base_MspInit>:
* This function configures the hardware resources used in this example
* @param htim_base: TIM_Base handle pointer
* @retval None
*/
void HAL_TIM_Base_MspInit(TIM_HandleTypeDef* htim_base)
{
 8000b04:	b580      	push	{r7, lr}
 8000b06:	b084      	sub	sp, #16
 8000b08:	af00      	add	r7, sp, #0
 8000b0a:	6078      	str	r0, [r7, #4]
  if(htim_base->Instance==TIM2)
 8000b0c:	687b      	ldr	r3, [r7, #4]
 8000b0e:	681b      	ldr	r3, [r3, #0]
 8000b10:	f1b3 4f80 	cmp.w	r3, #1073741824	; 0x40000000
 8000b14:	d113      	bne.n	8000b3e <HAL_TIM_Base_MspInit+0x3a>
  {
  /* USER CODE BEGIN TIM2_MspInit 0 */

  /* USER CODE END TIM2_MspInit 0 */
    /* Peripheral clock enable */
    __HAL_RCC_TIM2_CLK_ENABLE();
 8000b16:	4b0c      	ldr	r3, [pc, #48]	; (8000b48 <HAL_TIM_Base_MspInit+0x44>)
 8000b18:	69db      	ldr	r3, [r3, #28]
 8000b1a:	4a0b      	ldr	r2, [pc, #44]	; (8000b48 <HAL_TIM_Base_MspInit+0x44>)
 8000b1c:	f043 0301 	orr.w	r3, r3, #1
 8000b20:	61d3      	str	r3, [r2, #28]
 8000b22:	4b09      	ldr	r3, [pc, #36]	; (8000b48 <HAL_TIM_Base_MspInit+0x44>)
 8000b24:	69db      	ldr	r3, [r3, #28]
 8000b26:	f003 0301 	and.w	r3, r3, #1
 8000b2a:	60fb      	str	r3, [r7, #12]
 8000b2c:	68fb      	ldr	r3, [r7, #12]
    /* TIM2 interrupt Init */
    HAL_NVIC_SetPriority(TIM2_IRQn, 0, 0);
 8000b2e:	2200      	movs	r2, #0
 8000b30:	2100      	movs	r1, #0
 8000b32:	201c      	movs	r0, #28
 8000b34:	f000 f9a1 	bl	8000e7a <HAL_NVIC_SetPriority>
    HAL_NVIC_EnableIRQ(TIM2_IRQn);
 8000b38:	201c      	movs	r0, #28
 8000b3a:	f000 f9ba 	bl	8000eb2 <HAL_NVIC_EnableIRQ>
  /* USER CODE BEGIN TIM2_MspInit 1 */

  /* USER CODE END TIM2_MspInit 1 */
  }

}
 8000b3e:	bf00      	nop
 8000b40:	3710      	adds	r7, #16
 8000b42:	46bd      	mov	sp, r7
 8000b44:	bd80      	pop	{r7, pc}
 8000b46:	bf00      	nop
 8000b48:	40021000 	.word	0x40021000

08000b4c <NMI_Handler>:
/******************************************************************************/
/**
  * @brief This function handles Non maskable interrupt.
  */
void NMI_Handler(void)
{
 8000b4c:	b480      	push	{r7}
 8000b4e:	af00      	add	r7, sp, #0
  /* USER CODE BEGIN NonMaskableInt_IRQn 0 */

  /* USER CODE END NonMaskableInt_IRQn 0 */
  /* USER CODE BEGIN NonMaskableInt_IRQn 1 */
  while (1)
 8000b50:	e7fe      	b.n	8000b50 <NMI_Handler+0x4>

08000b52 <HardFault_Handler>:

/**
  * @brief This function handles Hard fault interrupt.
  */
void HardFault_Handler(void)
{
 8000b52:	b480      	push	{r7}
 8000b54:	af00      	add	r7, sp, #0
  /* USER CODE BEGIN HardFault_IRQn 0 */

  /* USER CODE END HardFault_IRQn 0 */
  while (1)
 8000b56:	e7fe      	b.n	8000b56 <HardFault_Handler+0x4>

08000b58 <MemManage_Handler>:

/**
  * @brief This function handles Memory management fault.
  */
void MemManage_Handler(void)
{
 8000b58:	b480      	push	{r7}
 8000b5a:	af00      	add	r7, sp, #0
  /* USER CODE BEGIN MemoryManagement_IRQn 0 */

  /* USER CODE END MemoryManagement_IRQn 0 */
  while (1)
 8000b5c:	e7fe      	b.n	8000b5c <MemManage_Handler+0x4>

08000b5e <BusFault_Handler>:

/**
  * @brief This function handles Prefetch fault, memory access fault.
  */
void BusFault_Handler(void)
{
 8000b5e:	b480      	push	{r7}
 8000b60:	af00      	add	r7, sp, #0
  /* USER CODE BEGIN BusFault_IRQn 0 */

  /* USER CODE END BusFault_IRQn 0 */
  while (1)
 8000b62:	e7fe      	b.n	8000b62 <BusFault_Handler+0x4>

08000b64 <UsageFault_Handler>:

/**
  * @brief This function handles Undefined instruction or illegal state.
  */
void UsageFault_Handler(void)
{
 8000b64:	b480      	push	{r7}
 8000b66:	af00      	add	r7, sp, #0
  /* USER CODE BEGIN UsageFault_IRQn 0 */

  /* USER CODE END UsageFault_IRQn 0 */
  while (1)
 8000b68:	e7fe      	b.n	8000b68 <UsageFault_Handler+0x4>

08000b6a <SVC_Handler>:

/**
  * @brief This function handles System service call via SWI instruction.
  */
void SVC_Handler(void)
{
 8000b6a:	b480      	push	{r7}
 8000b6c:	af00      	add	r7, sp, #0

  /* USER CODE END SVCall_IRQn 0 */
  /* USER CODE BEGIN SVCall_IRQn 1 */

  /* USER CODE END SVCall_IRQn 1 */
}
 8000b6e:	bf00      	nop
 8000b70:	46bd      	mov	sp, r7
 8000b72:	bc80      	pop	{r7}
 8000b74:	4770      	bx	lr

08000b76 <DebugMon_Handler>:

/**
  * @brief This function handles Debug monitor.
  */
void DebugMon_Handler(void)
{
 8000b76:	b480      	push	{r7}
 8000b78:	af00      	add	r7, sp, #0

  /* USER CODE END DebugMonitor_IRQn 0 */
  /* USER CODE BEGIN DebugMonitor_IRQn 1 */

  /* USER CODE END DebugMonitor_IRQn 1 */
}
 8000b7a:	bf00      	nop
 8000b7c:	46bd      	mov	sp, r7
 8000b7e:	bc80      	pop	{r7}
 8000b80:	4770      	bx	lr

08000b82 <PendSV_Handler>:

/**
  * @brief This function handles Pendable request for system service.
  */
void PendSV_Handler(void)
{
 8000b82:	b480      	push	{r7}
 8000b84:	af00      	add	r7, sp, #0

  /* USER CODE END PendSV_IRQn 0 */
  /* USER CODE BEGIN PendSV_IRQn 1 */

  /* USER CODE END PendSV_IRQn 1 */
}
 8000b86:	bf00      	nop
 8000b88:	46bd      	mov	sp, r7
 8000b8a:	bc80      	pop	{r7}
 8000b8c:	4770      	bx	lr

08000b8e <SysTick_Handler>:

/**
  * @brief This function handles System tick timer.
  */
void SysTick_Handler(void)
{
 8000b8e:	b580      	push	{r7, lr}
 8000b90:	af00      	add	r7, sp, #0
  /* USER CODE BEGIN SysTick_IRQn 0 */

  /* USER CODE END SysTick_IRQn 0 */
  HAL_IncTick();
 8000b92:	f000 f87f 	bl	8000c94 <HAL_IncTick>
  /* USER CODE BEGIN SysTick_IRQn 1 */

  /* USER CODE END SysTick_IRQn 1 */
}
 8000b96:	bf00      	nop
 8000b98:	bd80      	pop	{r7, pc}
	...

08000b9c <TIM2_IRQHandler>:

/**
  * @brief This function handles TIM2 global interrupt.
  */
void TIM2_IRQHandler(void)
{
 8000b9c:	b580      	push	{r7, lr}
 8000b9e:	af00      	add	r7, sp, #0
  /* USER CODE BEGIN TIM2_IRQn 0 */

  /* USER CODE END TIM2_IRQn 0 */
  HAL_TIM_IRQHandler(&htim2);
 8000ba0:	4802      	ldr	r0, [pc, #8]	; (8000bac <TIM2_IRQHandler+0x10>)
 8000ba2:	f000 ffaf 	bl	8001b04 <HAL_TIM_IRQHandler>
  /* USER CODE BEGIN TIM2_IRQn 1 */

  /* USER CODE END TIM2_IRQn 1 */
}
 8000ba6:	bf00      	nop
 8000ba8:	bd80      	pop	{r7, pc}
 8000baa:	bf00      	nop
 8000bac:	2000003c 	.word	0x2000003c

08000bb0 <SystemInit>:
  * @note   This function should be used only after reset.
  * @param  None
  * @retval None
  */
void SystemInit (void)
{
 8000bb0:	b480      	push	{r7}
 8000bb2:	af00      	add	r7, sp, #0

  /* Configure the Vector Table location -------------------------------------*/
#if defined(USER_VECT_TAB_ADDRESS)
  SCB->VTOR = VECT_TAB_BASE_ADDRESS | VECT_TAB_OFFSET; /* Vector Table Relocation in Internal SRAM. */
#endif /* USER_VECT_TAB_ADDRESS */
}
 8000bb4:	bf00      	nop
 8000bb6:	46bd      	mov	sp, r7
 8000bb8:	bc80      	pop	{r7}
 8000bba:	4770      	bx	lr

08000bbc <Reset_Handler>:
  .weak Reset_Handler
  .type Reset_Handler, %function
Reset_Handler:

/* Call the clock system initialization function.*/
    bl  SystemInit
 8000bbc:	f7ff fff8 	bl	8000bb0 <SystemInit>

/* Copy the data segment initializers from flash to SRAM */
  ldr r0, =_sdata
 8000bc0:	480b      	ldr	r0, [pc, #44]	; (8000bf0 <LoopFillZerobss+0xe>)
  ldr r1, =_edata
 8000bc2:	490c      	ldr	r1, [pc, #48]	; (8000bf4 <LoopFillZerobss+0x12>)
  ldr r2, =_sidata
 8000bc4:	4a0c      	ldr	r2, [pc, #48]	; (8000bf8 <LoopFillZerobss+0x16>)
  movs r3, #0
 8000bc6:	2300      	movs	r3, #0
  b LoopCopyDataInit
 8000bc8:	e002      	b.n	8000bd0 <LoopCopyDataInit>

08000bca <CopyDataInit>:

CopyDataInit:
  ldr r4, [r2, r3]
 8000bca:	58d4      	ldr	r4, [r2, r3]
  str r4, [r0, r3]
 8000bcc:	50c4      	str	r4, [r0, r3]
  adds r3, r3, #4
 8000bce:	3304      	adds	r3, #4

08000bd0 <LoopCopyDataInit>:

LoopCopyDataInit:
  adds r4, r0, r3
 8000bd0:	18c4      	adds	r4, r0, r3
  cmp r4, r1
 8000bd2:	428c      	cmp	r4, r1
  bcc CopyDataInit
 8000bd4:	d3f9      	bcc.n	8000bca <CopyDataInit>
  
/* Zero fill the bss segment. */
  ldr r2, =_sbss
 8000bd6:	4a09      	ldr	r2, [pc, #36]	; (8000bfc <LoopFillZerobss+0x1a>)
  ldr r4, =_ebss
 8000bd8:	4c09      	ldr	r4, [pc, #36]	; (8000c00 <LoopFillZerobss+0x1e>)
  movs r3, #0
 8000bda:	2300      	movs	r3, #0
  b LoopFillZerobss
 8000bdc:	e001      	b.n	8000be2 <LoopFillZerobss>

08000bde <FillZerobss>:

FillZerobss:
  str  r3, [r2]
 8000bde:	6013      	str	r3, [r2, #0]
  adds r2, r2, #4
 8000be0:	3204      	adds	r2, #4

08000be2 <LoopFillZerobss>:

LoopFillZerobss:
  cmp r2, r4
 8000be2:	42a2      	cmp	r2, r4
  bcc FillZerobss
 8000be4:	d3fb      	bcc.n	8000bde <FillZerobss>

/* Call static constructors */
    bl __libc_init_array
 8000be6:	f001 fad9 	bl	800219c <__libc_init_array>
/* Call the application's entry point.*/
  bl main
 8000bea:	f7ff fdd1 	bl	8000790 <main>
  bx lr
 8000bee:	4770      	bx	lr
  ldr r0, =_sdata
 8000bf0:	20000000 	.word	0x20000000
  ldr r1, =_edata
 8000bf4:	2000001c 	.word	0x2000001c
  ldr r2, =_sidata
 8000bf8:	08002238 	.word	0x08002238
  ldr r2, =_sbss
 8000bfc:	2000001c 	.word	0x2000001c
  ldr r4, =_ebss
 8000c00:	200000a0 	.word	0x200000a0

08000c04 <ADC1_2_IRQHandler>:
 * @retval : None
*/
    .section .text.Default_Handler,"ax",%progbits
Default_Handler:
Infinite_Loop:
  b Infinite_Loop
 8000c04:	e7fe      	b.n	8000c04 <ADC1_2_IRQHandler>
	...

08000c08 <HAL_Init>:
  *         need to ensure that the SysTick time base is always set to 1 millisecond
  *         to have correct HAL operation.
  * @retval HAL status
  */
HAL_StatusTypeDef HAL_Init(void)
{
 8000c08:	b580      	push	{r7, lr}
 8000c0a:	af00      	add	r7, sp, #0
    defined(STM32F102x6) || defined(STM32F102xB) || \
    defined(STM32F103x6) || defined(STM32F103xB) || defined(STM32F103xE) || defined(STM32F103xG) || \
    defined(STM32F105xC) || defined(STM32F107xC)

  /* Prefetch buffer is not available on value line devices */
  __HAL_FLASH_PREFETCH_BUFFER_ENABLE();
 8000c0c:	4b08      	ldr	r3, [pc, #32]	; (8000c30 <HAL_Init+0x28>)
 8000c0e:	681b      	ldr	r3, [r3, #0]
 8000c10:	4a07      	ldr	r2, [pc, #28]	; (8000c30 <HAL_Init+0x28>)
 8000c12:	f043 0310 	orr.w	r3, r3, #16
 8000c16:	6013      	str	r3, [r2, #0]
#endif
#endif /* PREFETCH_ENABLE */

  /* Set Interrupt Group Priority */
  HAL_NVIC_SetPriorityGrouping(NVIC_PRIORITYGROUP_4);
 8000c18:	2003      	movs	r0, #3
 8000c1a:	f000 f923 	bl	8000e64 <HAL_NVIC_SetPriorityGrouping>

  /* Use systick as time base source and configure 1ms tick (default clock after Reset is HSI) */
  HAL_InitTick(TICK_INT_PRIORITY);
 8000c1e:	200f      	movs	r0, #15
 8000c20:	f000 f808 	bl	8000c34 <HAL_InitTick>

  /* Init the low level hardware */
  HAL_MspInit();
 8000c24:	f7ff ff4c 	bl	8000ac0 <HAL_MspInit>

  /* Return function status */
  return HAL_OK;
 8000c28:	2300      	movs	r3, #0
}
 8000c2a:	4618      	mov	r0, r3
 8000c2c:	bd80      	pop	{r7, pc}
 8000c2e:	bf00      	nop
 8000c30:	40022000 	.word	0x40022000

08000c34 <HAL_InitTick>:
  *       implementation  in user file.
  * @param TickPriority Tick interrupt priority.
  * @retval HAL status
  */
__weak HAL_StatusTypeDef HAL_InitTick(uint32_t TickPriority)
{
 8000c34:	b580      	push	{r7, lr}
 8000c36:	b082      	sub	sp, #8
 8000c38:	af00      	add	r7, sp, #0
 8000c3a:	6078      	str	r0, [r7, #4]
  /* Configure the SysTick to have interrupt in 1ms time basis*/
  if (HAL_SYSTICK_Config(SystemCoreClock / (1000U / uwTickFreq)) > 0U)
 8000c3c:	4b12      	ldr	r3, [pc, #72]	; (8000c88 <HAL_InitTick+0x54>)
 8000c3e:	681a      	ldr	r2, [r3, #0]
 8000c40:	4b12      	ldr	r3, [pc, #72]	; (8000c8c <HAL_InitTick+0x58>)
 8000c42:	781b      	ldrb	r3, [r3, #0]
 8000c44:	4619      	mov	r1, r3
 8000c46:	f44f 737a 	mov.w	r3, #1000	; 0x3e8
 8000c4a:	fbb3 f3f1 	udiv	r3, r3, r1
 8000c4e:	fbb2 f3f3 	udiv	r3, r2, r3
 8000c52:	4618      	mov	r0, r3
 8000c54:	f000 f93b 	bl	8000ece <HAL_SYSTICK_Config>
 8000c58:	4603      	mov	r3, r0
 8000c5a:	2b00      	cmp	r3, #0
 8000c5c:	d001      	beq.n	8000c62 <HAL_InitTick+0x2e>
  {
    return HAL_ERROR;
 8000c5e:	2301      	movs	r3, #1
 8000c60:	e00e      	b.n	8000c80 <HAL_InitTick+0x4c>
  }

  /* Configure the SysTick IRQ priority */
  if (TickPriority < (1UL << __NVIC_PRIO_BITS))
 8000c62:	687b      	ldr	r3, [r7, #4]
 8000c64:	2b0f      	cmp	r3, #15
 8000c66:	d80a      	bhi.n	8000c7e <HAL_InitTick+0x4a>
  {
    HAL_NVIC_SetPriority(SysTick_IRQn, TickPriority, 0U);
 8000c68:	2200      	movs	r2, #0
 8000c6a:	6879      	ldr	r1, [r7, #4]
 8000c6c:	f04f 30ff 	mov.w	r0, #4294967295
 8000c70:	f000 f903 	bl	8000e7a <HAL_NVIC_SetPriority>
    uwTickPrio = TickPriority;
 8000c74:	4a06      	ldr	r2, [pc, #24]	; (8000c90 <HAL_InitTick+0x5c>)
 8000c76:	687b      	ldr	r3, [r7, #4]
 8000c78:	6013      	str	r3, [r2, #0]
  {
    return HAL_ERROR;
  }

  /* Return function status */
  return HAL_OK;
 8000c7a:	2300      	movs	r3, #0
 8000c7c:	e000      	b.n	8000c80 <HAL_InitTick+0x4c>
    return HAL_ERROR;
 8000c7e:	2301      	movs	r3, #1
}
 8000c80:	4618      	mov	r0, r3
 8000c82:	3708      	adds	r7, #8
 8000c84:	46bd      	mov	sp, r7
 8000c86:	bd80      	pop	{r7, pc}
 8000c88:	20000010 	.word	0x20000010
 8000c8c:	20000018 	.word	0x20000018
 8000c90:	20000014 	.word	0x20000014

08000c94 <HAL_IncTick>:
  * @note This function is declared as __weak to be overwritten in case of other
  *      implementations in user file.
  * @retval None
  */
__weak void HAL_IncTick(void)
{
 8000c94:	b480      	push	{r7}
 8000c96:	af00      	add	r7, sp, #0
  uwTick += uwTickFreq;
 8000c98:	4b05      	ldr	r3, [pc, #20]	; (8000cb0 <HAL_IncTick+0x1c>)
 8000c9a:	781b      	ldrb	r3, [r3, #0]
 8000c9c:	461a      	mov	r2, r3
 8000c9e:	4b05      	ldr	r3, [pc, #20]	; (8000cb4 <HAL_IncTick+0x20>)
 8000ca0:	681b      	ldr	r3, [r3, #0]
 8000ca2:	4413      	add	r3, r2
 8000ca4:	4a03      	ldr	r2, [pc, #12]	; (8000cb4 <HAL_IncTick+0x20>)
 8000ca6:	6013      	str	r3, [r2, #0]
}
 8000ca8:	bf00      	nop
 8000caa:	46bd      	mov	sp, r7
 8000cac:	bc80      	pop	{r7}
 8000cae:	4770      	bx	lr
 8000cb0:	20000018 	.word	0x20000018
 8000cb4:	2000009c 	.word	0x2000009c

08000cb8 <HAL_GetTick>:
  * @note  This function is declared as __weak to be overwritten in case of other
  *       implementations in user file.
  * @retval tick value
  */
__weak uint32_t HAL_GetTick(void)
{
 8000cb8:	b480      	push	{r7}
 8000cba:	af00      	add	r7, sp, #0
  return uwTick;
 8000cbc:	4b02      	ldr	r3, [pc, #8]	; (8000cc8 <HAL_GetTick+0x10>)
 8000cbe:	681b      	ldr	r3, [r3, #0]
}
 8000cc0:	4618      	mov	r0, r3
 8000cc2:	46bd      	mov	sp, r7
 8000cc4:	bc80      	pop	{r7}
 8000cc6:	4770      	bx	lr
 8000cc8:	2000009c 	.word	0x2000009c

08000ccc <__NVIC_SetPriorityGrouping>:
           In case of a conflict between priority grouping and available
           priority bits (__NVIC_PRIO_BITS), the smallest possible priority group is set.
  \param [in]      PriorityGroup  Priority grouping field.
 */
__STATIC_INLINE void __NVIC_SetPriorityGrouping(uint32_t PriorityGroup)
{
 8000ccc:	b480      	push	{r7}
 8000cce:	b085      	sub	sp, #20
 8000cd0:	af00      	add	r7, sp, #0
 8000cd2:	6078      	str	r0, [r7, #4]
  uint32_t reg_value;
  uint32_t PriorityGroupTmp = (PriorityGroup & (uint32_t)0x07UL);             /* only values 0..7 are used          */
 8000cd4:	687b      	ldr	r3, [r7, #4]
 8000cd6:	f003 0307 	and.w	r3, r3, #7
 8000cda:	60fb      	str	r3, [r7, #12]

  reg_value  =  SCB->AIRCR;                                                   /* read old register configuration    */
 8000cdc:	4b0c      	ldr	r3, [pc, #48]	; (8000d10 <__NVIC_SetPriorityGrouping+0x44>)
 8000cde:	68db      	ldr	r3, [r3, #12]
 8000ce0:	60bb      	str	r3, [r7, #8]
  reg_value &= ~((uint32_t)(SCB_AIRCR_VECTKEY_Msk | SCB_AIRCR_PRIGROUP_Msk)); /* clear bits to change               */
 8000ce2:	68ba      	ldr	r2, [r7, #8]
 8000ce4:	f64f 03ff 	movw	r3, #63743	; 0xf8ff
 8000ce8:	4013      	ands	r3, r2
 8000cea:	60bb      	str	r3, [r7, #8]
  reg_value  =  (reg_value                                   |
                ((uint32_t)0x5FAUL << SCB_AIRCR_VECTKEY_Pos) |
                (PriorityGroupTmp << SCB_AIRCR_PRIGROUP_Pos) );               /* Insert write key and priority group */
 8000cec:	68fb      	ldr	r3, [r7, #12]
 8000cee:	021a      	lsls	r2, r3, #8
                ((uint32_t)0x5FAUL << SCB_AIRCR_VECTKEY_Pos) |
 8000cf0:	68bb      	ldr	r3, [r7, #8]
 8000cf2:	4313      	orrs	r3, r2
  reg_value  =  (reg_value                                   |
 8000cf4:	f043 63bf 	orr.w	r3, r3, #100139008	; 0x5f80000
 8000cf8:	f443 3300 	orr.w	r3, r3, #131072	; 0x20000
 8000cfc:	60bb      	str	r3, [r7, #8]
  SCB->AIRCR =  reg_value;
 8000cfe:	4a04      	ldr	r2, [pc, #16]	; (8000d10 <__NVIC_SetPriorityGrouping+0x44>)
 8000d00:	68bb      	ldr	r3, [r7, #8]
 8000d02:	60d3      	str	r3, [r2, #12]
}
 8000d04:	bf00      	nop
 8000d06:	3714      	adds	r7, #20
 8000d08:	46bd      	mov	sp, r7
 8000d0a:	bc80      	pop	{r7}
 8000d0c:	4770      	bx	lr
 8000d0e:	bf00      	nop
 8000d10:	e000ed00 	.word	0xe000ed00

08000d14 <__NVIC_GetPriorityGrouping>:
  \brief   Get Priority Grouping
  \details Reads the priority grouping field from the NVIC Interrupt Controller.
  \return                Priority grouping field (SCB->AIRCR [10:8] PRIGROUP field).
 */
__STATIC_INLINE uint32_t __NVIC_GetPriorityGrouping(void)
{
 8000d14:	b480      	push	{r7}
 8000d16:	af00      	add	r7, sp, #0
  return ((uint32_t)((SCB->AIRCR & SCB_AIRCR_PRIGROUP_Msk) >> SCB_AIRCR_PRIGROUP_Pos));
 8000d18:	4b04      	ldr	r3, [pc, #16]	; (8000d2c <__NVIC_GetPriorityGrouping+0x18>)
 8000d1a:	68db      	ldr	r3, [r3, #12]
 8000d1c:	0a1b      	lsrs	r3, r3, #8
 8000d1e:	f003 0307 	and.w	r3, r3, #7
}
 8000d22:	4618      	mov	r0, r3
 8000d24:	46bd      	mov	sp, r7
 8000d26:	bc80      	pop	{r7}
 8000d28:	4770      	bx	lr
 8000d2a:	bf00      	nop
 8000d2c:	e000ed00 	.word	0xe000ed00

08000d30 <__NVIC_EnableIRQ>:
  \details Enables a device specific interrupt in the NVIC interrupt controller.
  \param [in]      IRQn  Device specific interrupt number.
  \note    IRQn must not be negative.
 */
__STATIC_INLINE void __NVIC_EnableIRQ(IRQn_Type IRQn)
{
 8000d30:	b480      	push	{r7}
 8000d32:	b083      	sub	sp, #12
 8000d34:	af00      	add	r7, sp, #0
 8000d36:	4603      	mov	r3, r0
 8000d38:	71fb      	strb	r3, [r7, #7]
  if ((int32_t)(IRQn) >= 0)
 8000d3a:	f997 3007 	ldrsb.w	r3, [r7, #7]
 8000d3e:	2b00      	cmp	r3, #0
 8000d40:	db0b      	blt.n	8000d5a <__NVIC_EnableIRQ+0x2a>
  {
    NVIC->ISER[(((uint32_t)IRQn) >> 5UL)] = (uint32_t)(1UL << (((uint32_t)IRQn) & 0x1FUL));
 8000d42:	79fb      	ldrb	r3, [r7, #7]
 8000d44:	f003 021f 	and.w	r2, r3, #31
 8000d48:	4906      	ldr	r1, [pc, #24]	; (8000d64 <__NVIC_EnableIRQ+0x34>)
 8000d4a:	f997 3007 	ldrsb.w	r3, [r7, #7]
 8000d4e:	095b      	lsrs	r3, r3, #5
 8000d50:	2001      	movs	r0, #1
 8000d52:	fa00 f202 	lsl.w	r2, r0, r2
 8000d56:	f841 2023 	str.w	r2, [r1, r3, lsl #2]
  }
}
 8000d5a:	bf00      	nop
 8000d5c:	370c      	adds	r7, #12
 8000d5e:	46bd      	mov	sp, r7
 8000d60:	bc80      	pop	{r7}
 8000d62:	4770      	bx	lr
 8000d64:	e000e100 	.word	0xe000e100

08000d68 <__NVIC_SetPriority>:
  \param [in]      IRQn  Interrupt number.
  \param [in]  priority  Priority to set.
  \note    The priority cannot be set for every processor exception.
 */
__STATIC_INLINE void __NVIC_SetPriority(IRQn_Type IRQn, uint32_t priority)
{
 8000d68:	b480      	push	{r7}
 8000d6a:	b083      	sub	sp, #12
 8000d6c:	af00      	add	r7, sp, #0
 8000d6e:	4603      	mov	r3, r0
 8000d70:	6039      	str	r1, [r7, #0]
 8000d72:	71fb      	strb	r3, [r7, #7]
  if ((int32_t)(IRQn) >= 0)
 8000d74:	f997 3007 	ldrsb.w	r3, [r7, #7]
 8000d78:	2b00      	cmp	r3, #0
 8000d7a:	db0a      	blt.n	8000d92 <__NVIC_SetPriority+0x2a>
  {
    NVIC->IP[((uint32_t)IRQn)]               = (uint8_t)((priority << (8U - __NVIC_PRIO_BITS)) & (uint32_t)0xFFUL);
 8000d7c:	683b      	ldr	r3, [r7, #0]
 8000d7e:	b2da      	uxtb	r2, r3
 8000d80:	490c      	ldr	r1, [pc, #48]	; (8000db4 <__NVIC_SetPriority+0x4c>)
 8000d82:	f997 3007 	ldrsb.w	r3, [r7, #7]
 8000d86:	0112      	lsls	r2, r2, #4
 8000d88:	b2d2      	uxtb	r2, r2
 8000d8a:	440b      	add	r3, r1
 8000d8c:	f883 2300 	strb.w	r2, [r3, #768]	; 0x300
  }
  else
  {
    SCB->SHP[(((uint32_t)IRQn) & 0xFUL)-4UL] = (uint8_t)((priority << (8U - __NVIC_PRIO_BITS)) & (uint32_t)0xFFUL);
  }
}
 8000d90:	e00a      	b.n	8000da8 <__NVIC_SetPriority+0x40>
    SCB->SHP[(((uint32_t)IRQn) & 0xFUL)-4UL] = (uint8_t)((priority << (8U - __NVIC_PRIO_BITS)) & (uint32_t)0xFFUL);
 8000d92:	683b      	ldr	r3, [r7, #0]
 8000d94:	b2da      	uxtb	r2, r3
 8000d96:	4908      	ldr	r1, [pc, #32]	; (8000db8 <__NVIC_SetPriority+0x50>)
 8000d98:	79fb      	ldrb	r3, [r7, #7]
 8000d9a:	f003 030f 	and.w	r3, r3, #15
 8000d9e:	3b04      	subs	r3, #4
 8000da0:	0112      	lsls	r2, r2, #4
 8000da2:	b2d2      	uxtb	r2, r2
 8000da4:	440b      	add	r3, r1
 8000da6:	761a      	strb	r2, [r3, #24]
}
 8000da8:	bf00      	nop
 8000daa:	370c      	adds	r7, #12
 8000dac:	46bd      	mov	sp, r7
 8000dae:	bc80      	pop	{r7}
 8000db0:	4770      	bx	lr
 8000db2:	bf00      	nop
 8000db4:	e000e100 	.word	0xe000e100
 8000db8:	e000ed00 	.word	0xe000ed00

08000dbc <NVIC_EncodePriority>:
  \param [in]   PreemptPriority  Preemptive priority value (starting from 0).
  \param [in]       SubPriority  Subpriority value (starting from 0).
  \return                        Encoded priority. Value can be used in the function \ref NVIC_SetPriority().
 */
__STATIC_INLINE uint32_t NVIC_EncodePriority (uint32_t PriorityGroup, uint32_t PreemptPriority, uint32_t SubPriority)
{
 8000dbc:	b480      	push	{r7}
 8000dbe:	b089      	sub	sp, #36	; 0x24
 8000dc0:	af00      	add	r7, sp, #0
 8000dc2:	60f8      	str	r0, [r7, #12]
 8000dc4:	60b9      	str	r1, [r7, #8]
 8000dc6:	607a      	str	r2, [r7, #4]
  uint32_t PriorityGroupTmp = (PriorityGroup & (uint32_t)0x07UL);   /* only values 0..7 are used          */
 8000dc8:	68fb      	ldr	r3, [r7, #12]
 8000dca:	f003 0307 	and.w	r3, r3, #7
 8000dce:	61fb      	str	r3, [r7, #28]
  uint32_t PreemptPriorityBits;
  uint32_t SubPriorityBits;

  PreemptPriorityBits = ((7UL - PriorityGroupTmp) > (uint32_t)(__NVIC_PRIO_BITS)) ? (uint32_t)(__NVIC_PRIO_BITS) : (uint32_t)(7UL - PriorityGroupTmp);
 8000dd0:	69fb      	ldr	r3, [r7, #28]
 8000dd2:	f1c3 0307 	rsb	r3, r3, #7
 8000dd6:	2b04      	cmp	r3, #4
 8000dd8:	bf28      	it	cs
 8000dda:	2304      	movcs	r3, #4
 8000ddc:	61bb      	str	r3, [r7, #24]
  SubPriorityBits     = ((PriorityGroupTmp + (uint32_t)(__NVIC_PRIO_BITS)) < (uint32_t)7UL) ? (uint32_t)0UL : (uint32_t)((PriorityGroupTmp - 7UL) + (uint32_t)(__NVIC_PRIO_BITS));
 8000dde:	69fb      	ldr	r3, [r7, #28]
 8000de0:	3304      	adds	r3, #4
 8000de2:	2b06      	cmp	r3, #6
 8000de4:	d902      	bls.n	8000dec <NVIC_EncodePriority+0x30>
 8000de6:	69fb      	ldr	r3, [r7, #28]
 8000de8:	3b03      	subs	r3, #3
 8000dea:	e000      	b.n	8000dee <NVIC_EncodePriority+0x32>
 8000dec:	2300      	movs	r3, #0
 8000dee:	617b      	str	r3, [r7, #20]

  return (
           ((PreemptPriority & (uint32_t)((1UL << (PreemptPriorityBits)) - 1UL)) << SubPriorityBits) |
 8000df0:	f04f 32ff 	mov.w	r2, #4294967295
 8000df4:	69bb      	ldr	r3, [r7, #24]
 8000df6:	fa02 f303 	lsl.w	r3, r2, r3
 8000dfa:	43da      	mvns	r2, r3
 8000dfc:	68bb      	ldr	r3, [r7, #8]
 8000dfe:	401a      	ands	r2, r3
 8000e00:	697b      	ldr	r3, [r7, #20]
 8000e02:	409a      	lsls	r2, r3
           ((SubPriority     & (uint32_t)((1UL << (SubPriorityBits    )) - 1UL)))
 8000e04:	f04f 31ff 	mov.w	r1, #4294967295
 8000e08:	697b      	ldr	r3, [r7, #20]
 8000e0a:	fa01 f303 	lsl.w	r3, r1, r3
 8000e0e:	43d9      	mvns	r1, r3
 8000e10:	687b      	ldr	r3, [r7, #4]
 8000e12:	400b      	ands	r3, r1
           ((PreemptPriority & (uint32_t)((1UL << (PreemptPriorityBits)) - 1UL)) << SubPriorityBits) |
 8000e14:	4313      	orrs	r3, r2
         );
}
 8000e16:	4618      	mov	r0, r3
 8000e18:	3724      	adds	r7, #36	; 0x24
 8000e1a:	46bd      	mov	sp, r7
 8000e1c:	bc80      	pop	{r7}
 8000e1e:	4770      	bx	lr

08000e20 <SysTick_Config>:
  \note    When the variable <b>__Vendor_SysTickConfig</b> is set to 1, then the
           function <b>SysTick_Config</b> is not included. In this case, the file <b><i>device</i>.h</b>
           must contain a vendor-specific implementation of this function.
 */
__STATIC_INLINE uint32_t SysTick_Config(uint32_t ticks)
{
 8000e20:	b580      	push	{r7, lr}
 8000e22:	b082      	sub	sp, #8
 8000e24:	af00      	add	r7, sp, #0
 8000e26:	6078      	str	r0, [r7, #4]
  if ((ticks - 1UL) > SysTick_LOAD_RELOAD_Msk)
 8000e28:	687b      	ldr	r3, [r7, #4]
 8000e2a:	3b01      	subs	r3, #1
 8000e2c:	f1b3 7f80 	cmp.w	r3, #16777216	; 0x1000000
 8000e30:	d301      	bcc.n	8000e36 <SysTick_Config+0x16>
  {
    return (1UL);                                                   /* Reload value impossible */
 8000e32:	2301      	movs	r3, #1
 8000e34:	e00f      	b.n	8000e56 <SysTick_Config+0x36>
  }

  SysTick->LOAD  = (uint32_t)(ticks - 1UL);                         /* set reload register */
 8000e36:	4a0a      	ldr	r2, [pc, #40]	; (8000e60 <SysTick_Config+0x40>)
 8000e38:	687b      	ldr	r3, [r7, #4]
 8000e3a:	3b01      	subs	r3, #1
 8000e3c:	6053      	str	r3, [r2, #4]
  NVIC_SetPriority (SysTick_IRQn, (1UL << __NVIC_PRIO_BITS) - 1UL); /* set Priority for Systick Interrupt */
 8000e3e:	210f      	movs	r1, #15
 8000e40:	f04f 30ff 	mov.w	r0, #4294967295
 8000e44:	f7ff ff90 	bl	8000d68 <__NVIC_SetPriority>
  SysTick->VAL   = 0UL;                                             /* Load the SysTick Counter Value */
 8000e48:	4b05      	ldr	r3, [pc, #20]	; (8000e60 <SysTick_Config+0x40>)
 8000e4a:	2200      	movs	r2, #0
 8000e4c:	609a      	str	r2, [r3, #8]
  SysTick->CTRL  = SysTick_CTRL_CLKSOURCE_Msk |
 8000e4e:	4b04      	ldr	r3, [pc, #16]	; (8000e60 <SysTick_Config+0x40>)
 8000e50:	2207      	movs	r2, #7
 8000e52:	601a      	str	r2, [r3, #0]
                   SysTick_CTRL_TICKINT_Msk   |
                   SysTick_CTRL_ENABLE_Msk;                         /* Enable SysTick IRQ and SysTick Timer */
  return (0UL);                                                     /* Function successful */
 8000e54:	2300      	movs	r3, #0
}
 8000e56:	4618      	mov	r0, r3
 8000e58:	3708      	adds	r7, #8
 8000e5a:	46bd      	mov	sp, r7
 8000e5c:	bd80      	pop	{r7, pc}
 8000e5e:	bf00      	nop
 8000e60:	e000e010 	.word	0xe000e010

08000e64 <HAL_NVIC_SetPriorityGrouping>:
  * @note   When the NVIC_PriorityGroup_0 is selected, IRQ preemption is no more possible. 
  *         The pending IRQ priority will be managed only by the subpriority. 
  * @retval None
  */
void HAL_NVIC_SetPriorityGrouping(uint32_t PriorityGroup)
{
 8000e64:	b580      	push	{r7, lr}
 8000e66:	b082      	sub	sp, #8
 8000e68:	af00      	add	r7, sp, #0
 8000e6a:	6078      	str	r0, [r7, #4]
  /* Check the parameters */
  assert_param(IS_NVIC_PRIORITY_GROUP(PriorityGroup));
  
  /* Set the PRIGROUP[10:8] bits according to the PriorityGroup parameter value */
  NVIC_SetPriorityGrouping(PriorityGroup);
 8000e6c:	6878      	ldr	r0, [r7, #4]
 8000e6e:	f7ff ff2d 	bl	8000ccc <__NVIC_SetPriorityGrouping>
}
 8000e72:	bf00      	nop
 8000e74:	3708      	adds	r7, #8
 8000e76:	46bd      	mov	sp, r7
 8000e78:	bd80      	pop	{r7, pc}

08000e7a <HAL_NVIC_SetPriority>:
  *         This parameter can be a value between 0 and 15
  *         A lower priority value indicates a higher priority.          
  * @retval None
  */
void HAL_NVIC_SetPriority(IRQn_Type IRQn, uint32_t PreemptPriority, uint32_t SubPriority)
{ 
 8000e7a:	b580      	push	{r7, lr}
 8000e7c:	b086      	sub	sp, #24
 8000e7e:	af00      	add	r7, sp, #0
 8000e80:	4603      	mov	r3, r0
 8000e82:	60b9      	str	r1, [r7, #8]
 8000e84:	607a      	str	r2, [r7, #4]
 8000e86:	73fb      	strb	r3, [r7, #15]
  uint32_t prioritygroup = 0x00U;
 8000e88:	2300      	movs	r3, #0
 8000e8a:	617b      	str	r3, [r7, #20]
  
  /* Check the parameters */
  assert_param(IS_NVIC_SUB_PRIORITY(SubPriority));
  assert_param(IS_NVIC_PREEMPTION_PRIORITY(PreemptPriority));
  
  prioritygroup = NVIC_GetPriorityGrouping();
 8000e8c:	f7ff ff42 	bl	8000d14 <__NVIC_GetPriorityGrouping>
 8000e90:	6178      	str	r0, [r7, #20]
  
  NVIC_SetPriority(IRQn, NVIC_EncodePriority(prioritygroup, PreemptPriority, SubPriority));
 8000e92:	687a      	ldr	r2, [r7, #4]
 8000e94:	68b9      	ldr	r1, [r7, #8]
 8000e96:	6978      	ldr	r0, [r7, #20]
 8000e98:	f7ff ff90 	bl	8000dbc <NVIC_EncodePriority>
 8000e9c:	4602      	mov	r2, r0
 8000e9e:	f997 300f 	ldrsb.w	r3, [r7, #15]
 8000ea2:	4611      	mov	r1, r2
 8000ea4:	4618      	mov	r0, r3
 8000ea6:	f7ff ff5f 	bl	8000d68 <__NVIC_SetPriority>
}
 8000eaa:	bf00      	nop
 8000eac:	3718      	adds	r7, #24
 8000eae:	46bd      	mov	sp, r7
 8000eb0:	bd80      	pop	{r7, pc}

08000eb2 <HAL_NVIC_EnableIRQ>:
  *         This parameter can be an enumerator of IRQn_Type enumeration
  *         (For the complete STM32 Devices IRQ Channels list, please refer to the appropriate CMSIS device file (stm32f10xxx.h))
  * @retval None
  */
void HAL_NVIC_EnableIRQ(IRQn_Type IRQn)
{
 8000eb2:	b580      	push	{r7, lr}
 8000eb4:	b082      	sub	sp, #8
 8000eb6:	af00      	add	r7, sp, #0
 8000eb8:	4603      	mov	r3, r0
 8000eba:	71fb      	strb	r3, [r7, #7]
  /* Check the parameters */
  assert_param(IS_NVIC_DEVICE_IRQ(IRQn));

  /* Enable interrupt */
  NVIC_EnableIRQ(IRQn);
 8000ebc:	f997 3007 	ldrsb.w	r3, [r7, #7]
 8000ec0:	4618      	mov	r0, r3
 8000ec2:	f7ff ff35 	bl	8000d30 <__NVIC_EnableIRQ>
}
 8000ec6:	bf00      	nop
 8000ec8:	3708      	adds	r7, #8
 8000eca:	46bd      	mov	sp, r7
 8000ecc:	bd80      	pop	{r7, pc}

08000ece <HAL_SYSTICK_Config>:
  * @param  TicksNumb: Specifies the ticks Number of ticks between two interrupts.
  * @retval status:  - 0  Function succeeded.
  *                  - 1  Function failed.
  */
uint32_t HAL_SYSTICK_Config(uint32_t TicksNumb)
{
 8000ece:	b580      	push	{r7, lr}
 8000ed0:	b082      	sub	sp, #8
 8000ed2:	af00      	add	r7, sp, #0
 8000ed4:	6078      	str	r0, [r7, #4]
   return SysTick_Config(TicksNumb);
 8000ed6:	6878      	ldr	r0, [r7, #4]
 8000ed8:	f7ff ffa2 	bl	8000e20 <SysTick_Config>
 8000edc:	4603      	mov	r3, r0
}
 8000ede:	4618      	mov	r0, r3
 8000ee0:	3708      	adds	r7, #8
 8000ee2:	46bd      	mov	sp, r7
 8000ee4:	bd80      	pop	{r7, pc}
	...

08000ee8 <HAL_GPIO_Init>:
  * @param  GPIO_Init: pointer to a GPIO_InitTypeDef structure that contains
  *         the configuration information for the specified GPIO peripheral.
  * @retval None
  */
void HAL_GPIO_Init(GPIO_TypeDef  *GPIOx, GPIO_InitTypeDef *GPIO_Init)
{
 8000ee8:	b480      	push	{r7}
 8000eea:	b08b      	sub	sp, #44	; 0x2c
 8000eec:	af00      	add	r7, sp, #0
 8000eee:	6078      	str	r0, [r7, #4]
 8000ef0:	6039      	str	r1, [r7, #0]
  uint32_t position = 0x00u;
 8000ef2:	2300      	movs	r3, #0
 8000ef4:	627b      	str	r3, [r7, #36]	; 0x24
  uint32_t ioposition;
  uint32_t iocurrent;
  uint32_t temp;
  uint32_t config = 0x00u;
 8000ef6:	2300      	movs	r3, #0
 8000ef8:	623b      	str	r3, [r7, #32]
  assert_param(IS_GPIO_ALL_INSTANCE(GPIOx));
  assert_param(IS_GPIO_PIN(GPIO_Init->Pin));
  assert_param(IS_GPIO_MODE(GPIO_Init->Mode));

  /* Configure the port pins */
  while (((GPIO_Init->Pin) >> position) != 0x00u)
 8000efa:	e161      	b.n	80011c0 <HAL_GPIO_Init+0x2d8>
  {
    /* Get the IO position */
    ioposition = (0x01uL << position);
 8000efc:	2201      	movs	r2, #1
 8000efe:	6a7b      	ldr	r3, [r7, #36]	; 0x24
 8000f00:	fa02 f303 	lsl.w	r3, r2, r3
 8000f04:	61fb      	str	r3, [r7, #28]

    /* Get the current IO position */
    iocurrent = (uint32_t)(GPIO_Init->Pin) & ioposition;
 8000f06:	683b      	ldr	r3, [r7, #0]
 8000f08:	681b      	ldr	r3, [r3, #0]
 8000f0a:	69fa      	ldr	r2, [r7, #28]
 8000f0c:	4013      	ands	r3, r2
 8000f0e:	61bb      	str	r3, [r7, #24]

    if (iocurrent == ioposition)
 8000f10:	69ba      	ldr	r2, [r7, #24]
 8000f12:	69fb      	ldr	r3, [r7, #28]
 8000f14:	429a      	cmp	r2, r3
 8000f16:	f040 8150 	bne.w	80011ba <HAL_GPIO_Init+0x2d2>
    {
      /* Check the Alternate function parameters */
      assert_param(IS_GPIO_AF_INSTANCE(GPIOx));

      /* Based on the required mode, filling config variable with MODEy[1:0] and CNFy[3:2] corresponding bits */
      switch (GPIO_Init->Mode)
 8000f1a:	683b      	ldr	r3, [r7, #0]
 8000f1c:	685b      	ldr	r3, [r3, #4]
 8000f1e:	4a97      	ldr	r2, [pc, #604]	; (800117c <HAL_GPIO_Init+0x294>)
 8000f20:	4293      	cmp	r3, r2
 8000f22:	d05e      	beq.n	8000fe2 <HAL_GPIO_Init+0xfa>
 8000f24:	4a95      	ldr	r2, [pc, #596]	; (800117c <HAL_GPIO_Init+0x294>)
 8000f26:	4293      	cmp	r3, r2
 8000f28:	d875      	bhi.n	8001016 <HAL_GPIO_Init+0x12e>
 8000f2a:	4a95      	ldr	r2, [pc, #596]	; (8001180 <HAL_GPIO_Init+0x298>)
 8000f2c:	4293      	cmp	r3, r2
 8000f2e:	d058      	beq.n	8000fe2 <HAL_GPIO_Init+0xfa>
 8000f30:	4a93      	ldr	r2, [pc, #588]	; (8001180 <HAL_GPIO_Init+0x298>)
 8000f32:	4293      	cmp	r3, r2
 8000f34:	d86f      	bhi.n	8001016 <HAL_GPIO_Init+0x12e>
 8000f36:	4a93      	ldr	r2, [pc, #588]	; (8001184 <HAL_GPIO_Init+0x29c>)
 8000f38:	4293      	cmp	r3, r2
 8000f3a:	d052      	beq.n	8000fe2 <HAL_GPIO_Init+0xfa>
 8000f3c:	4a91      	ldr	r2, [pc, #580]	; (8001184 <HAL_GPIO_Init+0x29c>)
 8000f3e:	4293      	cmp	r3, r2
 8000f40:	d869      	bhi.n	8001016 <HAL_GPIO_Init+0x12e>
 8000f42:	4a91      	ldr	r2, [pc, #580]	; (8001188 <HAL_GPIO_Init+0x2a0>)
 8000f44:	4293      	cmp	r3, r2
 8000f46:	d04c      	beq.n	8000fe2 <HAL_GPIO_Init+0xfa>
 8000f48:	4a8f      	ldr	r2, [pc, #572]	; (8001188 <HAL_GPIO_Init+0x2a0>)
 8000f4a:	4293      	cmp	r3, r2
 8000f4c:	d863      	bhi.n	8001016 <HAL_GPIO_Init+0x12e>
 8000f4e:	4a8f      	ldr	r2, [pc, #572]	; (800118c <HAL_GPIO_Init+0x2a4>)
 8000f50:	4293      	cmp	r3, r2
 8000f52:	d046      	beq.n	8000fe2 <HAL_GPIO_Init+0xfa>
 8000f54:	4a8d      	ldr	r2, [pc, #564]	; (800118c <HAL_GPIO_Init+0x2a4>)
 8000f56:	4293      	cmp	r3, r2
 8000f58:	d85d      	bhi.n	8001016 <HAL_GPIO_Init+0x12e>
 8000f5a:	2b12      	cmp	r3, #18
 8000f5c:	d82a      	bhi.n	8000fb4 <HAL_GPIO_Init+0xcc>
 8000f5e:	2b12      	cmp	r3, #18
 8000f60:	d859      	bhi.n	8001016 <HAL_GPIO_Init+0x12e>
 8000f62:	a201      	add	r2, pc, #4	; (adr r2, 8000f68 <HAL_GPIO_Init+0x80>)
 8000f64:	f852 f023 	ldr.w	pc, [r2, r3, lsl #2]
 8000f68:	08000fe3 	.word	0x08000fe3
 8000f6c:	08000fbd 	.word	0x08000fbd
 8000f70:	08000fcf 	.word	0x08000fcf
 8000f74:	08001011 	.word	0x08001011
 8000f78:	08001017 	.word	0x08001017
 8000f7c:	08001017 	.word	0x08001017
 8000f80:	08001017 	.word	0x08001017
 8000f84:	08001017 	.word	0x08001017
 8000f88:	08001017 	.word	0x08001017
 8000f8c:	08001017 	.word	0x08001017
 8000f90:	08001017 	.word	0x08001017
 8000f94:	08001017 	.word	0x08001017
 8000f98:	08001017 	.word	0x08001017
 8000f9c:	08001017 	.word	0x08001017
 8000fa0:	08001017 	.word	0x08001017
 8000fa4:	08001017 	.word	0x08001017
 8000fa8:	08001017 	.word	0x08001017
 8000fac:	08000fc5 	.word	0x08000fc5
 8000fb0:	08000fd9 	.word	0x08000fd9
 8000fb4:	4a76      	ldr	r2, [pc, #472]	; (8001190 <HAL_GPIO_Init+0x2a8>)
 8000fb6:	4293      	cmp	r3, r2
 8000fb8:	d013      	beq.n	8000fe2 <HAL_GPIO_Init+0xfa>
          config = GPIO_CR_MODE_INPUT + GPIO_CR_CNF_ANALOG;
          break;

        /* Parameters are checked with assert_param */
        default:
          break;
 8000fba:	e02c      	b.n	8001016 <HAL_GPIO_Init+0x12e>
          config = GPIO_Init->Speed + GPIO_CR_CNF_GP_OUTPUT_PP;
 8000fbc:	683b      	ldr	r3, [r7, #0]
 8000fbe:	68db      	ldr	r3, [r3, #12]
 8000fc0:	623b      	str	r3, [r7, #32]
          break;
 8000fc2:	e029      	b.n	8001018 <HAL_GPIO_Init+0x130>
          config = GPIO_Init->Speed + GPIO_CR_CNF_GP_OUTPUT_OD;
 8000fc4:	683b      	ldr	r3, [r7, #0]
 8000fc6:	68db      	ldr	r3, [r3, #12]
 8000fc8:	3304      	adds	r3, #4
 8000fca:	623b      	str	r3, [r7, #32]
          break;
 8000fcc:	e024      	b.n	8001018 <HAL_GPIO_Init+0x130>
          config = GPIO_Init->Speed + GPIO_CR_CNF_AF_OUTPUT_PP;
 8000fce:	683b      	ldr	r3, [r7, #0]
 8000fd0:	68db      	ldr	r3, [r3, #12]
 8000fd2:	3308      	adds	r3, #8
 8000fd4:	623b      	str	r3, [r7, #32]
          break;
 8000fd6:	e01f      	b.n	8001018 <HAL_GPIO_Init+0x130>
          config = GPIO_Init->Speed + GPIO_CR_CNF_AF_OUTPUT_OD;
 8000fd8:	683b      	ldr	r3, [r7, #0]
 8000fda:	68db      	ldr	r3, [r3, #12]
 8000fdc:	330c      	adds	r3, #12
 8000fde:	623b      	str	r3, [r7, #32]
          break;
 8000fe0:	e01a      	b.n	8001018 <HAL_GPIO_Init+0x130>
          if (GPIO_Init->Pull == GPIO_NOPULL)
 8000fe2:	683b      	ldr	r3, [r7, #0]
 8000fe4:	689b      	ldr	r3, [r3, #8]
 8000fe6:	2b00      	cmp	r3, #0
 8000fe8:	d102      	bne.n	8000ff0 <HAL_GPIO_Init+0x108>
            config = GPIO_CR_MODE_INPUT + GPIO_CR_CNF_INPUT_FLOATING;
 8000fea:	2304      	movs	r3, #4
 8000fec:	623b      	str	r3, [r7, #32]
          break;
 8000fee:	e013      	b.n	8001018 <HAL_GPIO_Init+0x130>
          else if (GPIO_Init->Pull == GPIO_PULLUP)
 8000ff0:	683b      	ldr	r3, [r7, #0]
 8000ff2:	689b      	ldr	r3, [r3, #8]
 8000ff4:	2b01      	cmp	r3, #1
 8000ff6:	d105      	bne.n	8001004 <HAL_GPIO_Init+0x11c>
            config = GPIO_CR_MODE_INPUT + GPIO_CR_CNF_INPUT_PU_PD;
 8000ff8:	2308      	movs	r3, #8
 8000ffa:	623b      	str	r3, [r7, #32]
            GPIOx->BSRR = ioposition;
 8000ffc:	687b      	ldr	r3, [r7, #4]
 8000ffe:	69fa      	ldr	r2, [r7, #28]
 8001000:	611a      	str	r2, [r3, #16]
          break;
 8001002:	e009      	b.n	8001018 <HAL_GPIO_Init+0x130>
            config = GPIO_CR_MODE_INPUT + GPIO_CR_CNF_INPUT_PU_PD;
 8001004:	2308      	movs	r3, #8
 8001006:	623b      	str	r3, [r7, #32]
            GPIOx->BRR = ioposition;
 8001008:	687b      	ldr	r3, [r7, #4]
 800100a:	69fa      	ldr	r2, [r7, #28]
 800100c:	615a      	str	r2, [r3, #20]
          break;
 800100e:	e003      	b.n	8001018 <HAL_GPIO_Init+0x130>
          config = GPIO_CR_MODE_INPUT + GPIO_CR_CNF_ANALOG;
 8001010:	2300      	movs	r3, #0
 8001012:	623b      	str	r3, [r7, #32]
          break;
 8001014:	e000      	b.n	8001018 <HAL_GPIO_Init+0x130>
          break;
 8001016:	bf00      	nop
      }

      /* Check if the current bit belongs to first half or last half of the pin count number
       in order to address CRH or CRL register*/
      configregister = (iocurrent < GPIO_PIN_8) ? &GPIOx->CRL     : &GPIOx->CRH;
 8001018:	69bb      	ldr	r3, [r7, #24]
 800101a:	2bff      	cmp	r3, #255	; 0xff
 800101c:	d801      	bhi.n	8001022 <HAL_GPIO_Init+0x13a>
 800101e:	687b      	ldr	r3, [r7, #4]
 8001020:	e001      	b.n	8001026 <HAL_GPIO_Init+0x13e>
 8001022:	687b      	ldr	r3, [r7, #4]
 8001024:	3304      	adds	r3, #4
 8001026:	617b      	str	r3, [r7, #20]
      registeroffset = (iocurrent < GPIO_PIN_8) ? (position << 2u) : ((position - 8u) << 2u);
 8001028:	69bb      	ldr	r3, [r7, #24]
 800102a:	2bff      	cmp	r3, #255	; 0xff
 800102c:	d802      	bhi.n	8001034 <HAL_GPIO_Init+0x14c>
 800102e:	6a7b      	ldr	r3, [r7, #36]	; 0x24
 8001030:	009b      	lsls	r3, r3, #2
 8001032:	e002      	b.n	800103a <HAL_GPIO_Init+0x152>
 8001034:	6a7b      	ldr	r3, [r7, #36]	; 0x24
 8001036:	3b08      	subs	r3, #8
 8001038:	009b      	lsls	r3, r3, #2
 800103a:	613b      	str	r3, [r7, #16]

      /* Apply the new configuration of the pin to the register */
      MODIFY_REG((*configregister), ((GPIO_CRL_MODE0 | GPIO_CRL_CNF0) << registeroffset), (config << registeroffset));
 800103c:	697b      	ldr	r3, [r7, #20]
 800103e:	681a      	ldr	r2, [r3, #0]
 8001040:	210f      	movs	r1, #15
 8001042:	693b      	ldr	r3, [r7, #16]
 8001044:	fa01 f303 	lsl.w	r3, r1, r3
 8001048:	43db      	mvns	r3, r3
 800104a:	401a      	ands	r2, r3
 800104c:	6a39      	ldr	r1, [r7, #32]
 800104e:	693b      	ldr	r3, [r7, #16]
 8001050:	fa01 f303 	lsl.w	r3, r1, r3
 8001054:	431a      	orrs	r2, r3
 8001056:	697b      	ldr	r3, [r7, #20]
 8001058:	601a      	str	r2, [r3, #0]

      /*--------------------- EXTI Mode Configuration ------------------------*/
      /* Configure the External Interrupt or event for the current IO */
      if ((GPIO_Init->Mode & EXTI_MODE) == EXTI_MODE)
 800105a:	683b      	ldr	r3, [r7, #0]
 800105c:	685b      	ldr	r3, [r3, #4]
 800105e:	f003 5380 	and.w	r3, r3, #268435456	; 0x10000000
 8001062:	2b00      	cmp	r3, #0
 8001064:	f000 80a9 	beq.w	80011ba <HAL_GPIO_Init+0x2d2>
      {
        /* Enable AFIO Clock */
        __HAL_RCC_AFIO_CLK_ENABLE();
 8001068:	4b4a      	ldr	r3, [pc, #296]	; (8001194 <HAL_GPIO_Init+0x2ac>)
 800106a:	699b      	ldr	r3, [r3, #24]
 800106c:	4a49      	ldr	r2, [pc, #292]	; (8001194 <HAL_GPIO_Init+0x2ac>)
 800106e:	f043 0301 	orr.w	r3, r3, #1
 8001072:	6193      	str	r3, [r2, #24]
 8001074:	4b47      	ldr	r3, [pc, #284]	; (8001194 <HAL_GPIO_Init+0x2ac>)
 8001076:	699b      	ldr	r3, [r3, #24]
 8001078:	f003 0301 	and.w	r3, r3, #1
 800107c:	60bb      	str	r3, [r7, #8]
 800107e:	68bb      	ldr	r3, [r7, #8]
        temp = AFIO->EXTICR[position >> 2u];
 8001080:	4a45      	ldr	r2, [pc, #276]	; (8001198 <HAL_GPIO_Init+0x2b0>)
 8001082:	6a7b      	ldr	r3, [r7, #36]	; 0x24
 8001084:	089b      	lsrs	r3, r3, #2
 8001086:	3302      	adds	r3, #2
 8001088:	f852 3023 	ldr.w	r3, [r2, r3, lsl #2]
 800108c:	60fb      	str	r3, [r7, #12]
        CLEAR_BIT(temp, (0x0Fu) << (4u * (position & 0x03u)));
 800108e:	6a7b      	ldr	r3, [r7, #36]	; 0x24
 8001090:	f003 0303 	and.w	r3, r3, #3
 8001094:	009b      	lsls	r3, r3, #2
 8001096:	220f      	movs	r2, #15
 8001098:	fa02 f303 	lsl.w	r3, r2, r3
 800109c:	43db      	mvns	r3, r3
 800109e:	68fa      	ldr	r2, [r7, #12]
 80010a0:	4013      	ands	r3, r2
 80010a2:	60fb      	str	r3, [r7, #12]
        SET_BIT(temp, (GPIO_GET_INDEX(GPIOx)) << (4u * (position & 0x03u)));
 80010a4:	687b      	ldr	r3, [r7, #4]
 80010a6:	4a3d      	ldr	r2, [pc, #244]	; (800119c <HAL_GPIO_Init+0x2b4>)
 80010a8:	4293      	cmp	r3, r2
 80010aa:	d00d      	beq.n	80010c8 <HAL_GPIO_Init+0x1e0>
 80010ac:	687b      	ldr	r3, [r7, #4]
 80010ae:	4a3c      	ldr	r2, [pc, #240]	; (80011a0 <HAL_GPIO_Init+0x2b8>)
 80010b0:	4293      	cmp	r3, r2
 80010b2:	d007      	beq.n	80010c4 <HAL_GPIO_Init+0x1dc>
 80010b4:	687b      	ldr	r3, [r7, #4]
 80010b6:	4a3b      	ldr	r2, [pc, #236]	; (80011a4 <HAL_GPIO_Init+0x2bc>)
 80010b8:	4293      	cmp	r3, r2
 80010ba:	d101      	bne.n	80010c0 <HAL_GPIO_Init+0x1d8>
 80010bc:	2302      	movs	r3, #2
 80010be:	e004      	b.n	80010ca <HAL_GPIO_Init+0x1e2>
 80010c0:	2303      	movs	r3, #3
 80010c2:	e002      	b.n	80010ca <HAL_GPIO_Init+0x1e2>
 80010c4:	2301      	movs	r3, #1
 80010c6:	e000      	b.n	80010ca <HAL_GPIO_Init+0x1e2>
 80010c8:	2300      	movs	r3, #0
 80010ca:	6a7a      	ldr	r2, [r7, #36]	; 0x24
 80010cc:	f002 0203 	and.w	r2, r2, #3
 80010d0:	0092      	lsls	r2, r2, #2
 80010d2:	4093      	lsls	r3, r2
 80010d4:	68fa      	ldr	r2, [r7, #12]
 80010d6:	4313      	orrs	r3, r2
 80010d8:	60fb      	str	r3, [r7, #12]
        AFIO->EXTICR[position >> 2u] = temp;
 80010da:	492f      	ldr	r1, [pc, #188]	; (8001198 <HAL_GPIO_Init+0x2b0>)
 80010dc:	6a7b      	ldr	r3, [r7, #36]	; 0x24
 80010de:	089b      	lsrs	r3, r3, #2
 80010e0:	3302      	adds	r3, #2
 80010e2:	68fa      	ldr	r2, [r7, #12]
 80010e4:	f841 2023 	str.w	r2, [r1, r3, lsl #2]


        /* Enable or disable the rising trigger */
        if ((GPIO_Init->Mode & RISING_EDGE) == RISING_EDGE)
 80010e8:	683b      	ldr	r3, [r7, #0]
 80010ea:	685b      	ldr	r3, [r3, #4]
 80010ec:	f403 1380 	and.w	r3, r3, #1048576	; 0x100000
 80010f0:	2b00      	cmp	r3, #0
 80010f2:	d006      	beq.n	8001102 <HAL_GPIO_Init+0x21a>
        {
          SET_BIT(EXTI->RTSR, iocurrent);
 80010f4:	4b2c      	ldr	r3, [pc, #176]	; (80011a8 <HAL_GPIO_Init+0x2c0>)
 80010f6:	689a      	ldr	r2, [r3, #8]
 80010f8:	492b      	ldr	r1, [pc, #172]	; (80011a8 <HAL_GPIO_Init+0x2c0>)
 80010fa:	69bb      	ldr	r3, [r7, #24]
 80010fc:	4313      	orrs	r3, r2
 80010fe:	608b      	str	r3, [r1, #8]
 8001100:	e006      	b.n	8001110 <HAL_GPIO_Init+0x228>
        }
        else
        {
          CLEAR_BIT(EXTI->RTSR, iocurrent);
 8001102:	4b29      	ldr	r3, [pc, #164]	; (80011a8 <HAL_GPIO_Init+0x2c0>)
 8001104:	689a      	ldr	r2, [r3, #8]
 8001106:	69bb      	ldr	r3, [r7, #24]
 8001108:	43db      	mvns	r3, r3
 800110a:	4927      	ldr	r1, [pc, #156]	; (80011a8 <HAL_GPIO_Init+0x2c0>)
 800110c:	4013      	ands	r3, r2
 800110e:	608b      	str	r3, [r1, #8]
        }

        /* Enable or disable the falling trigger */
        if ((GPIO_Init->Mode & FALLING_EDGE) == FALLING_EDGE)
 8001110:	683b      	ldr	r3, [r7, #0]
 8001112:	685b      	ldr	r3, [r3, #4]
 8001114:	f403 1300 	and.w	r3, r3, #2097152	; 0x200000
 8001118:	2b00      	cmp	r3, #0
 800111a:	d006      	beq.n	800112a <HAL_GPIO_Init+0x242>
        {
          SET_BIT(EXTI->FTSR, iocurrent);
 800111c:	4b22      	ldr	r3, [pc, #136]	; (80011a8 <HAL_GPIO_Init+0x2c0>)
 800111e:	68da      	ldr	r2, [r3, #12]
 8001120:	4921      	ldr	r1, [pc, #132]	; (80011a8 <HAL_GPIO_Init+0x2c0>)
 8001122:	69bb      	ldr	r3, [r7, #24]
 8001124:	4313      	orrs	r3, r2
 8001126:	60cb      	str	r3, [r1, #12]
 8001128:	e006      	b.n	8001138 <HAL_GPIO_Init+0x250>
        }
        else
        {
          CLEAR_BIT(EXTI->FTSR, iocurrent);
 800112a:	4b1f      	ldr	r3, [pc, #124]	; (80011a8 <HAL_GPIO_Init+0x2c0>)
 800112c:	68da      	ldr	r2, [r3, #12]
 800112e:	69bb      	ldr	r3, [r7, #24]
 8001130:	43db      	mvns	r3, r3
 8001132:	491d      	ldr	r1, [pc, #116]	; (80011a8 <HAL_GPIO_Init+0x2c0>)
 8001134:	4013      	ands	r3, r2
 8001136:	60cb      	str	r3, [r1, #12]
        }

        /* Configure the event mask */
        if ((GPIO_Init->Mode & GPIO_MODE_EVT) == GPIO_MODE_EVT)
 8001138:	683b      	ldr	r3, [r7, #0]
 800113a:	685b      	ldr	r3, [r3, #4]
 800113c:	f403 3300 	and.w	r3, r3, #131072	; 0x20000
 8001140:	2b00      	cmp	r3, #0
 8001142:	d006      	beq.n	8001152 <HAL_GPIO_Init+0x26a>
        {
          SET_BIT(EXTI->EMR, iocurrent);
 8001144:	4b18      	ldr	r3, [pc, #96]	; (80011a8 <HAL_GPIO_Init+0x2c0>)
 8001146:	685a      	ldr	r2, [r3, #4]
 8001148:	4917      	ldr	r1, [pc, #92]	; (80011a8 <HAL_GPIO_Init+0x2c0>)
 800114a:	69bb      	ldr	r3, [r7, #24]
 800114c:	4313      	orrs	r3, r2
 800114e:	604b      	str	r3, [r1, #4]
 8001150:	e006      	b.n	8001160 <HAL_GPIO_Init+0x278>
        }
        else
        {
          CLEAR_BIT(EXTI->EMR, iocurrent);
 8001152:	4b15      	ldr	r3, [pc, #84]	; (80011a8 <HAL_GPIO_Init+0x2c0>)
 8001154:	685a      	ldr	r2, [r3, #4]
 8001156:	69bb      	ldr	r3, [r7, #24]
 8001158:	43db      	mvns	r3, r3
 800115a:	4913      	ldr	r1, [pc, #76]	; (80011a8 <HAL_GPIO_Init+0x2c0>)
 800115c:	4013      	ands	r3, r2
 800115e:	604b      	str	r3, [r1, #4]
        }

        /* Configure the interrupt mask */
        if ((GPIO_Init->Mode & GPIO_MODE_IT) == GPIO_MODE_IT)
 8001160:	683b      	ldr	r3, [r7, #0]
 8001162:	685b      	ldr	r3, [r3, #4]
 8001164:	f403 3380 	and.w	r3, r3, #65536	; 0x10000
 8001168:	2b00      	cmp	r3, #0
 800116a:	d01f      	beq.n	80011ac <HAL_GPIO_Init+0x2c4>
        {
          SET_BIT(EXTI->IMR, iocurrent);
 800116c:	4b0e      	ldr	r3, [pc, #56]	; (80011a8 <HAL_GPIO_Init+0x2c0>)
 800116e:	681a      	ldr	r2, [r3, #0]
 8001170:	490d      	ldr	r1, [pc, #52]	; (80011a8 <HAL_GPIO_Init+0x2c0>)
 8001172:	69bb      	ldr	r3, [r7, #24]
 8001174:	4313      	orrs	r3, r2
 8001176:	600b      	str	r3, [r1, #0]
 8001178:	e01f      	b.n	80011ba <HAL_GPIO_Init+0x2d2>
 800117a:	bf00      	nop
 800117c:	10320000 	.word	0x10320000
 8001180:	10310000 	.word	0x10310000
 8001184:	10220000 	.word	0x10220000
 8001188:	10210000 	.word	0x10210000
 800118c:	10120000 	.word	0x10120000
 8001190:	10110000 	.word	0x10110000
 8001194:	40021000 	.word	0x40021000
 8001198:	40010000 	.word	0x40010000
 800119c:	40010800 	.word	0x40010800
 80011a0:	40010c00 	.word	0x40010c00
 80011a4:	40011000 	.word	0x40011000
 80011a8:	40010400 	.word	0x40010400
        }
        else
        {
          CLEAR_BIT(EXTI->IMR, iocurrent);
 80011ac:	4b0b      	ldr	r3, [pc, #44]	; (80011dc <HAL_GPIO_Init+0x2f4>)
 80011ae:	681a      	ldr	r2, [r3, #0]
 80011b0:	69bb      	ldr	r3, [r7, #24]
 80011b2:	43db      	mvns	r3, r3
 80011b4:	4909      	ldr	r1, [pc, #36]	; (80011dc <HAL_GPIO_Init+0x2f4>)
 80011b6:	4013      	ands	r3, r2
 80011b8:	600b      	str	r3, [r1, #0]
        }
      }
    }

	position++;
 80011ba:	6a7b      	ldr	r3, [r7, #36]	; 0x24
 80011bc:	3301      	adds	r3, #1
 80011be:	627b      	str	r3, [r7, #36]	; 0x24
  while (((GPIO_Init->Pin) >> position) != 0x00u)
 80011c0:	683b      	ldr	r3, [r7, #0]
 80011c2:	681a      	ldr	r2, [r3, #0]
 80011c4:	6a7b      	ldr	r3, [r7, #36]	; 0x24
 80011c6:	fa22 f303 	lsr.w	r3, r2, r3
 80011ca:	2b00      	cmp	r3, #0
 80011cc:	f47f ae96 	bne.w	8000efc <HAL_GPIO_Init+0x14>
  }
}
 80011d0:	bf00      	nop
 80011d2:	bf00      	nop
 80011d4:	372c      	adds	r7, #44	; 0x2c
 80011d6:	46bd      	mov	sp, r7
 80011d8:	bc80      	pop	{r7}
 80011da:	4770      	bx	lr
 80011dc:	40010400 	.word	0x40010400

080011e0 <HAL_GPIO_WritePin>:
  *            @arg GPIO_PIN_RESET: to clear the port pin
  *            @arg GPIO_PIN_SET: to set the port pin
  * @retval None
  */
void HAL_GPIO_WritePin(GPIO_TypeDef *GPIOx, uint16_t GPIO_Pin, GPIO_PinState PinState)
{
 80011e0:	b480      	push	{r7}
 80011e2:	b083      	sub	sp, #12
 80011e4:	af00      	add	r7, sp, #0
 80011e6:	6078      	str	r0, [r7, #4]
 80011e8:	460b      	mov	r3, r1
 80011ea:	807b      	strh	r3, [r7, #2]
 80011ec:	4613      	mov	r3, r2
 80011ee:	707b      	strb	r3, [r7, #1]
  /* Check the parameters */
  assert_param(IS_GPIO_PIN(GPIO_Pin));
  assert_param(IS_GPIO_PIN_ACTION(PinState));

  if (PinState != GPIO_PIN_RESET)
 80011f0:	787b      	ldrb	r3, [r7, #1]
 80011f2:	2b00      	cmp	r3, #0
 80011f4:	d003      	beq.n	80011fe <HAL_GPIO_WritePin+0x1e>
  {
    GPIOx->BSRR = GPIO_Pin;
 80011f6:	887a      	ldrh	r2, [r7, #2]
 80011f8:	687b      	ldr	r3, [r7, #4]
 80011fa:	611a      	str	r2, [r3, #16]
  }
  else
  {
    GPIOx->BSRR = (uint32_t)GPIO_Pin << 16u;
  }
}
 80011fc:	e003      	b.n	8001206 <HAL_GPIO_WritePin+0x26>
    GPIOx->BSRR = (uint32_t)GPIO_Pin << 16u;
 80011fe:	887b      	ldrh	r3, [r7, #2]
 8001200:	041a      	lsls	r2, r3, #16
 8001202:	687b      	ldr	r3, [r7, #4]
 8001204:	611a      	str	r2, [r3, #16]
}
 8001206:	bf00      	nop
 8001208:	370c      	adds	r7, #12
 800120a:	46bd      	mov	sp, r7
 800120c:	bc80      	pop	{r7}
 800120e:	4770      	bx	lr

08001210 <HAL_RCC_OscConfig>:
  *         supported by this macro. User should request a transition to HSE Off
  *         first and then HSE On or HSE Bypass.
  * @retval HAL status
  */
HAL_StatusTypeDef HAL_RCC_OscConfig(RCC_OscInitTypeDef  *RCC_OscInitStruct)
{
 8001210:	b580      	push	{r7, lr}
 8001212:	b086      	sub	sp, #24
 8001214:	af00      	add	r7, sp, #0
 8001216:	6078      	str	r0, [r7, #4]
  uint32_t tickstart;
  uint32_t pll_config;

  /* Check Null pointer */
  if (RCC_OscInitStruct == NULL)
 8001218:	687b      	ldr	r3, [r7, #4]
 800121a:	2b00      	cmp	r3, #0
 800121c:	d101      	bne.n	8001222 <HAL_RCC_OscConfig+0x12>
  {
    return HAL_ERROR;
 800121e:	2301      	movs	r3, #1
 8001220:	e272      	b.n	8001708 <HAL_RCC_OscConfig+0x4f8>

  /* Check the parameters */
  assert_param(IS_RCC_OSCILLATORTYPE(RCC_OscInitStruct->OscillatorType));

  /*------------------------------- HSE Configuration ------------------------*/
  if (((RCC_OscInitStruct->OscillatorType) & RCC_OSCILLATORTYPE_HSE) == RCC_OSCILLATORTYPE_HSE)
 8001222:	687b      	ldr	r3, [r7, #4]
 8001224:	681b      	ldr	r3, [r3, #0]
 8001226:	f003 0301 	and.w	r3, r3, #1
 800122a:	2b00      	cmp	r3, #0
 800122c:	f000 8087 	beq.w	800133e <HAL_RCC_OscConfig+0x12e>
  {
    /* Check the parameters */
    assert_param(IS_RCC_HSE(RCC_OscInitStruct->HSEState));

    /* When the HSE is used as system clock or clock source for PLL in these cases it is not allowed to be disabled */
    if ((__HAL_RCC_GET_SYSCLK_SOURCE() == RCC_SYSCLKSOURCE_STATUS_HSE)
 8001230:	4b92      	ldr	r3, [pc, #584]	; (800147c <HAL_RCC_OscConfig+0x26c>)
 8001232:	685b      	ldr	r3, [r3, #4]
 8001234:	f003 030c 	and.w	r3, r3, #12
 8001238:	2b04      	cmp	r3, #4
 800123a:	d00c      	beq.n	8001256 <HAL_RCC_OscConfig+0x46>
        || ((__HAL_RCC_GET_SYSCLK_SOURCE() == RCC_SYSCLKSOURCE_STATUS_PLLCLK) && (__HAL_RCC_GET_PLL_OSCSOURCE() == RCC_PLLSOURCE_HSE)))
 800123c:	4b8f      	ldr	r3, [pc, #572]	; (800147c <HAL_RCC_OscConfig+0x26c>)
 800123e:	685b      	ldr	r3, [r3, #4]
 8001240:	f003 030c 	and.w	r3, r3, #12
 8001244:	2b08      	cmp	r3, #8
 8001246:	d112      	bne.n	800126e <HAL_RCC_OscConfig+0x5e>
 8001248:	4b8c      	ldr	r3, [pc, #560]	; (800147c <HAL_RCC_OscConfig+0x26c>)
 800124a:	685b      	ldr	r3, [r3, #4]
 800124c:	f403 3380 	and.w	r3, r3, #65536	; 0x10000
 8001250:	f5b3 3f80 	cmp.w	r3, #65536	; 0x10000
 8001254:	d10b      	bne.n	800126e <HAL_RCC_OscConfig+0x5e>
    {
      if ((__HAL_RCC_GET_FLAG(RCC_FLAG_HSERDY) != RESET) && (RCC_OscInitStruct->HSEState == RCC_HSE_OFF))
 8001256:	4b89      	ldr	r3, [pc, #548]	; (800147c <HAL_RCC_OscConfig+0x26c>)
 8001258:	681b      	ldr	r3, [r3, #0]
 800125a:	f403 3300 	and.w	r3, r3, #131072	; 0x20000
 800125e:	2b00      	cmp	r3, #0
 8001260:	d06c      	beq.n	800133c <HAL_RCC_OscConfig+0x12c>
 8001262:	687b      	ldr	r3, [r7, #4]
 8001264:	685b      	ldr	r3, [r3, #4]
 8001266:	2b00      	cmp	r3, #0
 8001268:	d168      	bne.n	800133c <HAL_RCC_OscConfig+0x12c>
      {
        return HAL_ERROR;
 800126a:	2301      	movs	r3, #1
 800126c:	e24c      	b.n	8001708 <HAL_RCC_OscConfig+0x4f8>
      }
    }
    else
    {
      /* Set the new HSE configuration ---------------------------------------*/
      __HAL_RCC_HSE_CONFIG(RCC_OscInitStruct->HSEState);
 800126e:	687b      	ldr	r3, [r7, #4]
 8001270:	685b      	ldr	r3, [r3, #4]
 8001272:	f5b3 3f80 	cmp.w	r3, #65536	; 0x10000
 8001276:	d106      	bne.n	8001286 <HAL_RCC_OscConfig+0x76>
 8001278:	4b80      	ldr	r3, [pc, #512]	; (800147c <HAL_RCC_OscConfig+0x26c>)
 800127a:	681b      	ldr	r3, [r3, #0]
 800127c:	4a7f      	ldr	r2, [pc, #508]	; (800147c <HAL_RCC_OscConfig+0x26c>)
 800127e:	f443 3380 	orr.w	r3, r3, #65536	; 0x10000
 8001282:	6013      	str	r3, [r2, #0]
 8001284:	e02e      	b.n	80012e4 <HAL_RCC_OscConfig+0xd4>
 8001286:	687b      	ldr	r3, [r7, #4]
 8001288:	685b      	ldr	r3, [r3, #4]
 800128a:	2b00      	cmp	r3, #0
 800128c:	d10c      	bne.n	80012a8 <HAL_RCC_OscConfig+0x98>
 800128e:	4b7b      	ldr	r3, [pc, #492]	; (800147c <HAL_RCC_OscConfig+0x26c>)
 8001290:	681b      	ldr	r3, [r3, #0]
 8001292:	4a7a      	ldr	r2, [pc, #488]	; (800147c <HAL_RCC_OscConfig+0x26c>)
 8001294:	f423 3380 	bic.w	r3, r3, #65536	; 0x10000
 8001298:	6013      	str	r3, [r2, #0]
 800129a:	4b78      	ldr	r3, [pc, #480]	; (800147c <HAL_RCC_OscConfig+0x26c>)
 800129c:	681b      	ldr	r3, [r3, #0]
 800129e:	4a77      	ldr	r2, [pc, #476]	; (800147c <HAL_RCC_OscConfig+0x26c>)
 80012a0:	f423 2380 	bic.w	r3, r3, #262144	; 0x40000
 80012a4:	6013      	str	r3, [r2, #0]
 80012a6:	e01d      	b.n	80012e4 <HAL_RCC_OscConfig+0xd4>
 80012a8:	687b      	ldr	r3, [r7, #4]
 80012aa:	685b      	ldr	r3, [r3, #4]
 80012ac:	f5b3 2fa0 	cmp.w	r3, #327680	; 0x50000
 80012b0:	d10c      	bne.n	80012cc <HAL_RCC_OscConfig+0xbc>
 80012b2:	4b72      	ldr	r3, [pc, #456]	; (800147c <HAL_RCC_OscConfig+0x26c>)
 80012b4:	681b      	ldr	r3, [r3, #0]
 80012b6:	4a71      	ldr	r2, [pc, #452]	; (800147c <HAL_RCC_OscConfig+0x26c>)
 80012b8:	f443 2380 	orr.w	r3, r3, #262144	; 0x40000
 80012bc:	6013      	str	r3, [r2, #0]
 80012be:	4b6f      	ldr	r3, [pc, #444]	; (800147c <HAL_RCC_OscConfig+0x26c>)
 80012c0:	681b      	ldr	r3, [r3, #0]
 80012c2:	4a6e      	ldr	r2, [pc, #440]	; (800147c <HAL_RCC_OscConfig+0x26c>)
 80012c4:	f443 3380 	orr.w	r3, r3, #65536	; 0x10000
 80012c8:	6013      	str	r3, [r2, #0]
 80012ca:	e00b      	b.n	80012e4 <HAL_RCC_OscConfig+0xd4>
 80012cc:	4b6b      	ldr	r3, [pc, #428]	; (800147c <HAL_RCC_OscConfig+0x26c>)
 80012ce:	681b      	ldr	r3, [r3, #0]
 80012d0:	4a6a      	ldr	r2, [pc, #424]	; (800147c <HAL_RCC_OscConfig+0x26c>)
 80012d2:	f423 3380 	bic.w	r3, r3, #65536	; 0x10000
 80012d6:	6013      	str	r3, [r2, #0]
 80012d8:	4b68      	ldr	r3, [pc, #416]	; (800147c <HAL_RCC_OscConfig+0x26c>)
 80012da:	681b      	ldr	r3, [r3, #0]
 80012dc:	4a67      	ldr	r2, [pc, #412]	; (800147c <HAL_RCC_OscConfig+0x26c>)
 80012de:	f423 2380 	bic.w	r3, r3, #262144	; 0x40000
 80012e2:	6013      	str	r3, [r2, #0]


      /* Check the HSE State */
      if (RCC_OscInitStruct->HSEState != RCC_HSE_OFF)
 80012e4:	687b      	ldr	r3, [r7, #4]
 80012e6:	685b      	ldr	r3, [r3, #4]
 80012e8:	2b00      	cmp	r3, #0
 80012ea:	d013      	beq.n	8001314 <HAL_RCC_OscConfig+0x104>
      {
        /* Get Start Tick */
        tickstart = HAL_GetTick();
 80012ec:	f7ff fce4 	bl	8000cb8 <HAL_GetTick>
 80012f0:	6138      	str	r0, [r7, #16]

        /* Wait till HSE is ready */
        while (__HAL_RCC_GET_FLAG(RCC_FLAG_HSERDY) == RESET)
 80012f2:	e008      	b.n	8001306 <HAL_RCC_OscConfig+0xf6>
        {
          if ((HAL_GetTick() - tickstart) > HSE_TIMEOUT_VALUE)
 80012f4:	f7ff fce0 	bl	8000cb8 <HAL_GetTick>
 80012f8:	4602      	mov	r2, r0
 80012fa:	693b      	ldr	r3, [r7, #16]
 80012fc:	1ad3      	subs	r3, r2, r3
 80012fe:	2b64      	cmp	r3, #100	; 0x64
 8001300:	d901      	bls.n	8001306 <HAL_RCC_OscConfig+0xf6>
          {
            return HAL_TIMEOUT;
 8001302:	2303      	movs	r3, #3
 8001304:	e200      	b.n	8001708 <HAL_RCC_OscConfig+0x4f8>
        while (__HAL_RCC_GET_FLAG(RCC_FLAG_HSERDY) == RESET)
 8001306:	4b5d      	ldr	r3, [pc, #372]	; (800147c <HAL_RCC_OscConfig+0x26c>)
 8001308:	681b      	ldr	r3, [r3, #0]
 800130a:	f403 3300 	and.w	r3, r3, #131072	; 0x20000
 800130e:	2b00      	cmp	r3, #0
 8001310:	d0f0      	beq.n	80012f4 <HAL_RCC_OscConfig+0xe4>
 8001312:	e014      	b.n	800133e <HAL_RCC_OscConfig+0x12e>
        }
      }
      else
      {
        /* Get Start Tick */
        tickstart = HAL_GetTick();
 8001314:	f7ff fcd0 	bl	8000cb8 <HAL_GetTick>
 8001318:	6138      	str	r0, [r7, #16]

        /* Wait till HSE is disabled */
        while (__HAL_RCC_GET_FLAG(RCC_FLAG_HSERDY) != RESET)
 800131a:	e008      	b.n	800132e <HAL_RCC_OscConfig+0x11e>
        {
          if ((HAL_GetTick() - tickstart) > HSE_TIMEOUT_VALUE)
 800131c:	f7ff fccc 	bl	8000cb8 <HAL_GetTick>
 8001320:	4602      	mov	r2, r0
 8001322:	693b      	ldr	r3, [r7, #16]
 8001324:	1ad3      	subs	r3, r2, r3
 8001326:	2b64      	cmp	r3, #100	; 0x64
 8001328:	d901      	bls.n	800132e <HAL_RCC_OscConfig+0x11e>
          {
            return HAL_TIMEOUT;
 800132a:	2303      	movs	r3, #3
 800132c:	e1ec      	b.n	8001708 <HAL_RCC_OscConfig+0x4f8>
        while (__HAL_RCC_GET_FLAG(RCC_FLAG_HSERDY) != RESET)
 800132e:	4b53      	ldr	r3, [pc, #332]	; (800147c <HAL_RCC_OscConfig+0x26c>)
 8001330:	681b      	ldr	r3, [r3, #0]
 8001332:	f403 3300 	and.w	r3, r3, #131072	; 0x20000
 8001336:	2b00      	cmp	r3, #0
 8001338:	d1f0      	bne.n	800131c <HAL_RCC_OscConfig+0x10c>
 800133a:	e000      	b.n	800133e <HAL_RCC_OscConfig+0x12e>
      if ((__HAL_RCC_GET_FLAG(RCC_FLAG_HSERDY) != RESET) && (RCC_OscInitStruct->HSEState == RCC_HSE_OFF))
 800133c:	bf00      	nop
        }
      }
    }
  }
  /*----------------------------- HSI Configuration --------------------------*/
  if (((RCC_OscInitStruct->OscillatorType) & RCC_OSCILLATORTYPE_HSI) == RCC_OSCILLATORTYPE_HSI)
 800133e:	687b      	ldr	r3, [r7, #4]
 8001340:	681b      	ldr	r3, [r3, #0]
 8001342:	f003 0302 	and.w	r3, r3, #2
 8001346:	2b00      	cmp	r3, #0
 8001348:	d063      	beq.n	8001412 <HAL_RCC_OscConfig+0x202>
    /* Check the parameters */
    assert_param(IS_RCC_HSI(RCC_OscInitStruct->HSIState));
    assert_param(IS_RCC_CALIBRATION_VALUE(RCC_OscInitStruct->HSICalibrationValue));

    /* Check if HSI is used as system clock or as PLL source when PLL is selected as system clock */
    if ((__HAL_RCC_GET_SYSCLK_SOURCE() == RCC_SYSCLKSOURCE_STATUS_HSI)
 800134a:	4b4c      	ldr	r3, [pc, #304]	; (800147c <HAL_RCC_OscConfig+0x26c>)
 800134c:	685b      	ldr	r3, [r3, #4]
 800134e:	f003 030c 	and.w	r3, r3, #12
 8001352:	2b00      	cmp	r3, #0
 8001354:	d00b      	beq.n	800136e <HAL_RCC_OscConfig+0x15e>
        || ((__HAL_RCC_GET_SYSCLK_SOURCE() == RCC_SYSCLKSOURCE_STATUS_PLLCLK) && (__HAL_RCC_GET_PLL_OSCSOURCE() == RCC_PLLSOURCE_HSI_DIV2)))
 8001356:	4b49      	ldr	r3, [pc, #292]	; (800147c <HAL_RCC_OscConfig+0x26c>)
 8001358:	685b      	ldr	r3, [r3, #4]
 800135a:	f003 030c 	and.w	r3, r3, #12
 800135e:	2b08      	cmp	r3, #8
 8001360:	d11c      	bne.n	800139c <HAL_RCC_OscConfig+0x18c>
 8001362:	4b46      	ldr	r3, [pc, #280]	; (800147c <HAL_RCC_OscConfig+0x26c>)
 8001364:	685b      	ldr	r3, [r3, #4]
 8001366:	f403 3380 	and.w	r3, r3, #65536	; 0x10000
 800136a:	2b00      	cmp	r3, #0
 800136c:	d116      	bne.n	800139c <HAL_RCC_OscConfig+0x18c>
    {
      /* When HSI is used as system clock it will not disabled */
      if ((__HAL_RCC_GET_FLAG(RCC_FLAG_HSIRDY) != RESET) && (RCC_OscInitStruct->HSIState != RCC_HSI_ON))
 800136e:	4b43      	ldr	r3, [pc, #268]	; (800147c <HAL_RCC_OscConfig+0x26c>)
 8001370:	681b      	ldr	r3, [r3, #0]
 8001372:	f003 0302 	and.w	r3, r3, #2
 8001376:	2b00      	cmp	r3, #0
 8001378:	d005      	beq.n	8001386 <HAL_RCC_OscConfig+0x176>
 800137a:	687b      	ldr	r3, [r7, #4]
 800137c:	691b      	ldr	r3, [r3, #16]
 800137e:	2b01      	cmp	r3, #1
 8001380:	d001      	beq.n	8001386 <HAL_RCC_OscConfig+0x176>
      {
        return HAL_ERROR;
 8001382:	2301      	movs	r3, #1
 8001384:	e1c0      	b.n	8001708 <HAL_RCC_OscConfig+0x4f8>
      }
      /* Otherwise, just the calibration is allowed */
      else
      {
        /* Adjusts the Internal High Speed oscillator (HSI) calibration value.*/
        __HAL_RCC_HSI_CALIBRATIONVALUE_ADJUST(RCC_OscInitStruct->HSICalibrationValue);
 8001386:	4b3d      	ldr	r3, [pc, #244]	; (800147c <HAL_RCC_OscConfig+0x26c>)
 8001388:	681b      	ldr	r3, [r3, #0]
 800138a:	f023 02f8 	bic.w	r2, r3, #248	; 0xf8
 800138e:	687b      	ldr	r3, [r7, #4]
 8001390:	695b      	ldr	r3, [r3, #20]
 8001392:	00db      	lsls	r3, r3, #3
 8001394:	4939      	ldr	r1, [pc, #228]	; (800147c <HAL_RCC_OscConfig+0x26c>)
 8001396:	4313      	orrs	r3, r2
 8001398:	600b      	str	r3, [r1, #0]
      if ((__HAL_RCC_GET_FLAG(RCC_FLAG_HSIRDY) != RESET) && (RCC_OscInitStruct->HSIState != RCC_HSI_ON))
 800139a:	e03a      	b.n	8001412 <HAL_RCC_OscConfig+0x202>
      }
    }
    else
    {
      /* Check the HSI State */
      if (RCC_OscInitStruct->HSIState != RCC_HSI_OFF)
 800139c:	687b      	ldr	r3, [r7, #4]
 800139e:	691b      	ldr	r3, [r3, #16]
 80013a0:	2b00      	cmp	r3, #0
 80013a2:	d020      	beq.n	80013e6 <HAL_RCC_OscConfig+0x1d6>
      {
        /* Enable the Internal High Speed oscillator (HSI). */
        __HAL_RCC_HSI_ENABLE();
 80013a4:	4b36      	ldr	r3, [pc, #216]	; (8001480 <HAL_RCC_OscConfig+0x270>)
 80013a6:	2201      	movs	r2, #1
 80013a8:	601a      	str	r2, [r3, #0]

        /* Get Start Tick */
        tickstart = HAL_GetTick();
 80013aa:	f7ff fc85 	bl	8000cb8 <HAL_GetTick>
 80013ae:	6138      	str	r0, [r7, #16]

        /* Wait till HSI is ready */
        while (__HAL_RCC_GET_FLAG(RCC_FLAG_HSIRDY) == RESET)
 80013b0:	e008      	b.n	80013c4 <HAL_RCC_OscConfig+0x1b4>
        {
          if ((HAL_GetTick() - tickstart) > HSI_TIMEOUT_VALUE)
 80013b2:	f7ff fc81 	bl	8000cb8 <HAL_GetTick>
 80013b6:	4602      	mov	r2, r0
 80013b8:	693b      	ldr	r3, [r7, #16]
 80013ba:	1ad3      	subs	r3, r2, r3
 80013bc:	2b02      	cmp	r3, #2
 80013be:	d901      	bls.n	80013c4 <HAL_RCC_OscConfig+0x1b4>
          {
            return HAL_TIMEOUT;
 80013c0:	2303      	movs	r3, #3
 80013c2:	e1a1      	b.n	8001708 <HAL_RCC_OscConfig+0x4f8>
        while (__HAL_RCC_GET_FLAG(RCC_FLAG_HSIRDY) == RESET)
 80013c4:	4b2d      	ldr	r3, [pc, #180]	; (800147c <HAL_RCC_OscConfig+0x26c>)
 80013c6:	681b      	ldr	r3, [r3, #0]
 80013c8:	f003 0302 	and.w	r3, r3, #2
 80013cc:	2b00      	cmp	r3, #0
 80013ce:	d0f0      	beq.n	80013b2 <HAL_RCC_OscConfig+0x1a2>
          }
        }

        /* Adjusts the Internal High Speed oscillator (HSI) calibration value.*/
        __HAL_RCC_HSI_CALIBRATIONVALUE_ADJUST(RCC_OscInitStruct->HSICalibrationValue);
 80013d0:	4b2a      	ldr	r3, [pc, #168]	; (800147c <HAL_RCC_OscConfig+0x26c>)
 80013d2:	681b      	ldr	r3, [r3, #0]
 80013d4:	f023 02f8 	bic.w	r2, r3, #248	; 0xf8
 80013d8:	687b      	ldr	r3, [r7, #4]
 80013da:	695b      	ldr	r3, [r3, #20]
 80013dc:	00db      	lsls	r3, r3, #3
 80013de:	4927      	ldr	r1, [pc, #156]	; (800147c <HAL_RCC_OscConfig+0x26c>)
 80013e0:	4313      	orrs	r3, r2
 80013e2:	600b      	str	r3, [r1, #0]
 80013e4:	e015      	b.n	8001412 <HAL_RCC_OscConfig+0x202>
      }
      else
      {
        /* Disable the Internal High Speed oscillator (HSI). */
        __HAL_RCC_HSI_DISABLE();
 80013e6:	4b26      	ldr	r3, [pc, #152]	; (8001480 <HAL_RCC_OscConfig+0x270>)
 80013e8:	2200      	movs	r2, #0
 80013ea:	601a      	str	r2, [r3, #0]

        /* Get Start Tick */
        tickstart = HAL_GetTick();
 80013ec:	f7ff fc64 	bl	8000cb8 <HAL_GetTick>
 80013f0:	6138      	str	r0, [r7, #16]

        /* Wait till HSI is disabled */
        while (__HAL_RCC_GET_FLAG(RCC_FLAG_HSIRDY) != RESET)
 80013f2:	e008      	b.n	8001406 <HAL_RCC_OscConfig+0x1f6>
        {
          if ((HAL_GetTick() - tickstart) > HSI_TIMEOUT_VALUE)
 80013f4:	f7ff fc60 	bl	8000cb8 <HAL_GetTick>
 80013f8:	4602      	mov	r2, r0
 80013fa:	693b      	ldr	r3, [r7, #16]
 80013fc:	1ad3      	subs	r3, r2, r3
 80013fe:	2b02      	cmp	r3, #2
 8001400:	d901      	bls.n	8001406 <HAL_RCC_OscConfig+0x1f6>
          {
            return HAL_TIMEOUT;
 8001402:	2303      	movs	r3, #3
 8001404:	e180      	b.n	8001708 <HAL_RCC_OscConfig+0x4f8>
        while (__HAL_RCC_GET_FLAG(RCC_FLAG_HSIRDY) != RESET)
 8001406:	4b1d      	ldr	r3, [pc, #116]	; (800147c <HAL_RCC_OscConfig+0x26c>)
 8001408:	681b      	ldr	r3, [r3, #0]
 800140a:	f003 0302 	and.w	r3, r3, #2
 800140e:	2b00      	cmp	r3, #0
 8001410:	d1f0      	bne.n	80013f4 <HAL_RCC_OscConfig+0x1e4>
        }
      }
    }
  }
  /*------------------------------ LSI Configuration -------------------------*/
  if (((RCC_OscInitStruct->OscillatorType) & RCC_OSCILLATORTYPE_LSI) == RCC_OSCILLATORTYPE_LSI)
 8001412:	687b      	ldr	r3, [r7, #4]
 8001414:	681b      	ldr	r3, [r3, #0]
 8001416:	f003 0308 	and.w	r3, r3, #8
 800141a:	2b00      	cmp	r3, #0
 800141c:	d03a      	beq.n	8001494 <HAL_RCC_OscConfig+0x284>
  {
    /* Check the parameters */
    assert_param(IS_RCC_LSI(RCC_OscInitStruct->LSIState));

    /* Check the LSI State */
    if (RCC_OscInitStruct->LSIState != RCC_LSI_OFF)
 800141e:	687b      	ldr	r3, [r7, #4]
 8001420:	699b      	ldr	r3, [r3, #24]
 8001422:	2b00      	cmp	r3, #0
 8001424:	d019      	beq.n	800145a <HAL_RCC_OscConfig+0x24a>
    {
      /* Enable the Internal Low Speed oscillator (LSI). */
      __HAL_RCC_LSI_ENABLE();
 8001426:	4b17      	ldr	r3, [pc, #92]	; (8001484 <HAL_RCC_OscConfig+0x274>)
 8001428:	2201      	movs	r2, #1
 800142a:	601a      	str	r2, [r3, #0]

      /* Get Start Tick */
      tickstart = HAL_GetTick();
 800142c:	f7ff fc44 	bl	8000cb8 <HAL_GetTick>
 8001430:	6138      	str	r0, [r7, #16]

      /* Wait till LSI is ready */
      while (__HAL_RCC_GET_FLAG(RCC_FLAG_LSIRDY) == RESET)
 8001432:	e008      	b.n	8001446 <HAL_RCC_OscConfig+0x236>
      {
        if ((HAL_GetTick() - tickstart) > LSI_TIMEOUT_VALUE)
 8001434:	f7ff fc40 	bl	8000cb8 <HAL_GetTick>
 8001438:	4602      	mov	r2, r0
 800143a:	693b      	ldr	r3, [r7, #16]
 800143c:	1ad3      	subs	r3, r2, r3
 800143e:	2b02      	cmp	r3, #2
 8001440:	d901      	bls.n	8001446 <HAL_RCC_OscConfig+0x236>
        {
          return HAL_TIMEOUT;
 8001442:	2303      	movs	r3, #3
 8001444:	e160      	b.n	8001708 <HAL_RCC_OscConfig+0x4f8>
      while (__HAL_RCC_GET_FLAG(RCC_FLAG_LSIRDY) == RESET)
 8001446:	4b0d      	ldr	r3, [pc, #52]	; (800147c <HAL_RCC_OscConfig+0x26c>)
 8001448:	6a5b      	ldr	r3, [r3, #36]	; 0x24
 800144a:	f003 0302 	and.w	r3, r3, #2
 800144e:	2b00      	cmp	r3, #0
 8001450:	d0f0      	beq.n	8001434 <HAL_RCC_OscConfig+0x224>
        }
      }
      /*  To have a fully stabilized clock in the specified range, a software delay of 1ms
          should be added.*/
      RCC_Delay(1);
 8001452:	2001      	movs	r0, #1
 8001454:	f000 fa9c 	bl	8001990 <RCC_Delay>
 8001458:	e01c      	b.n	8001494 <HAL_RCC_OscConfig+0x284>
    }
    else
    {
      /* Disable the Internal Low Speed oscillator (LSI). */
      __HAL_RCC_LSI_DISABLE();
 800145a:	4b0a      	ldr	r3, [pc, #40]	; (8001484 <HAL_RCC_OscConfig+0x274>)
 800145c:	2200      	movs	r2, #0
 800145e:	601a      	str	r2, [r3, #0]

      /* Get Start Tick */
      tickstart = HAL_GetTick();
 8001460:	f7ff fc2a 	bl	8000cb8 <HAL_GetTick>
 8001464:	6138      	str	r0, [r7, #16]

      /* Wait till LSI is disabled */
      while (__HAL_RCC_GET_FLAG(RCC_FLAG_LSIRDY) != RESET)
 8001466:	e00f      	b.n	8001488 <HAL_RCC_OscConfig+0x278>
      {
        if ((HAL_GetTick() - tickstart) > LSI_TIMEOUT_VALUE)
 8001468:	f7ff fc26 	bl	8000cb8 <HAL_GetTick>
 800146c:	4602      	mov	r2, r0
 800146e:	693b      	ldr	r3, [r7, #16]
 8001470:	1ad3      	subs	r3, r2, r3
 8001472:	2b02      	cmp	r3, #2
 8001474:	d908      	bls.n	8001488 <HAL_RCC_OscConfig+0x278>
        {
          return HAL_TIMEOUT;
 8001476:	2303      	movs	r3, #3
 8001478:	e146      	b.n	8001708 <HAL_RCC_OscConfig+0x4f8>
 800147a:	bf00      	nop
 800147c:	40021000 	.word	0x40021000
 8001480:	42420000 	.word	0x42420000
 8001484:	42420480 	.word	0x42420480
      while (__HAL_RCC_GET_FLAG(RCC_FLAG_LSIRDY) != RESET)
 8001488:	4b92      	ldr	r3, [pc, #584]	; (80016d4 <HAL_RCC_OscConfig+0x4c4>)
 800148a:	6a5b      	ldr	r3, [r3, #36]	; 0x24
 800148c:	f003 0302 	and.w	r3, r3, #2
 8001490:	2b00      	cmp	r3, #0
 8001492:	d1e9      	bne.n	8001468 <HAL_RCC_OscConfig+0x258>
        }
      }
    }
  }
  /*------------------------------ LSE Configuration -------------------------*/
  if (((RCC_OscInitStruct->OscillatorType) & RCC_OSCILLATORTYPE_LSE) == RCC_OSCILLATORTYPE_LSE)
 8001494:	687b      	ldr	r3, [r7, #4]
 8001496:	681b      	ldr	r3, [r3, #0]
 8001498:	f003 0304 	and.w	r3, r3, #4
 800149c:	2b00      	cmp	r3, #0
 800149e:	f000 80a6 	beq.w	80015ee <HAL_RCC_OscConfig+0x3de>
  {
    FlagStatus       pwrclkchanged = RESET;
 80014a2:	2300      	movs	r3, #0
 80014a4:	75fb      	strb	r3, [r7, #23]
    /* Check the parameters */
    assert_param(IS_RCC_LSE(RCC_OscInitStruct->LSEState));

    /* Update LSE configuration in Backup Domain control register    */
    /* Requires to enable write access to Backup Domain of necessary */
    if (__HAL_RCC_PWR_IS_CLK_DISABLED())
 80014a6:	4b8b      	ldr	r3, [pc, #556]	; (80016d4 <HAL_RCC_OscConfig+0x4c4>)
 80014a8:	69db      	ldr	r3, [r3, #28]
 80014aa:	f003 5380 	and.w	r3, r3, #268435456	; 0x10000000
 80014ae:	2b00      	cmp	r3, #0
 80014b0:	d10d      	bne.n	80014ce <HAL_RCC_OscConfig+0x2be>
    {
      __HAL_RCC_PWR_CLK_ENABLE();
 80014b2:	4b88      	ldr	r3, [pc, #544]	; (80016d4 <HAL_RCC_OscConfig+0x4c4>)
 80014b4:	69db      	ldr	r3, [r3, #28]
 80014b6:	4a87      	ldr	r2, [pc, #540]	; (80016d4 <HAL_RCC_OscConfig+0x4c4>)
 80014b8:	f043 5380 	orr.w	r3, r3, #268435456	; 0x10000000
 80014bc:	61d3      	str	r3, [r2, #28]
 80014be:	4b85      	ldr	r3, [pc, #532]	; (80016d4 <HAL_RCC_OscConfig+0x4c4>)
 80014c0:	69db      	ldr	r3, [r3, #28]
 80014c2:	f003 5380 	and.w	r3, r3, #268435456	; 0x10000000
 80014c6:	60bb      	str	r3, [r7, #8]
 80014c8:	68bb      	ldr	r3, [r7, #8]
      pwrclkchanged = SET;
 80014ca:	2301      	movs	r3, #1
 80014cc:	75fb      	strb	r3, [r7, #23]
    }

    if (HAL_IS_BIT_CLR(PWR->CR, PWR_CR_DBP))
 80014ce:	4b82      	ldr	r3, [pc, #520]	; (80016d8 <HAL_RCC_OscConfig+0x4c8>)
 80014d0:	681b      	ldr	r3, [r3, #0]
 80014d2:	f403 7380 	and.w	r3, r3, #256	; 0x100
 80014d6:	2b00      	cmp	r3, #0
 80014d8:	d118      	bne.n	800150c <HAL_RCC_OscConfig+0x2fc>
    {
      /* Enable write access to Backup domain */
      SET_BIT(PWR->CR, PWR_CR_DBP);
 80014da:	4b7f      	ldr	r3, [pc, #508]	; (80016d8 <HAL_RCC_OscConfig+0x4c8>)
 80014dc:	681b      	ldr	r3, [r3, #0]
 80014de:	4a7e      	ldr	r2, [pc, #504]	; (80016d8 <HAL_RCC_OscConfig+0x4c8>)
 80014e0:	f443 7380 	orr.w	r3, r3, #256	; 0x100
 80014e4:	6013      	str	r3, [r2, #0]

      /* Wait for Backup domain Write protection disable */
      tickstart = HAL_GetTick();
 80014e6:	f7ff fbe7 	bl	8000cb8 <HAL_GetTick>
 80014ea:	6138      	str	r0, [r7, #16]

      while (HAL_IS_BIT_CLR(PWR->CR, PWR_CR_DBP))
 80014ec:	e008      	b.n	8001500 <HAL_RCC_OscConfig+0x2f0>
      {
        if ((HAL_GetTick() - tickstart) > RCC_DBP_TIMEOUT_VALUE)
 80014ee:	f7ff fbe3 	bl	8000cb8 <HAL_GetTick>
 80014f2:	4602      	mov	r2, r0
 80014f4:	693b      	ldr	r3, [r7, #16]
 80014f6:	1ad3      	subs	r3, r2, r3
 80014f8:	2b64      	cmp	r3, #100	; 0x64
 80014fa:	d901      	bls.n	8001500 <HAL_RCC_OscConfig+0x2f0>
        {
          return HAL_TIMEOUT;
 80014fc:	2303      	movs	r3, #3
 80014fe:	e103      	b.n	8001708 <HAL_RCC_OscConfig+0x4f8>
      while (HAL_IS_BIT_CLR(PWR->CR, PWR_CR_DBP))
 8001500:	4b75      	ldr	r3, [pc, #468]	; (80016d8 <HAL_RCC_OscConfig+0x4c8>)
 8001502:	681b      	ldr	r3, [r3, #0]
 8001504:	f403 7380 	and.w	r3, r3, #256	; 0x100
 8001508:	2b00      	cmp	r3, #0
 800150a:	d0f0      	beq.n	80014ee <HAL_RCC_OscConfig+0x2de>
        }
      }
    }

    /* Set the new LSE configuration -----------------------------------------*/
    __HAL_RCC_LSE_CONFIG(RCC_OscInitStruct->LSEState);
 800150c:	687b      	ldr	r3, [r7, #4]
 800150e:	68db      	ldr	r3, [r3, #12]
 8001510:	2b01      	cmp	r3, #1
 8001512:	d106      	bne.n	8001522 <HAL_RCC_OscConfig+0x312>
 8001514:	4b6f      	ldr	r3, [pc, #444]	; (80016d4 <HAL_RCC_OscConfig+0x4c4>)
 8001516:	6a1b      	ldr	r3, [r3, #32]
 8001518:	4a6e      	ldr	r2, [pc, #440]	; (80016d4 <HAL_RCC_OscConfig+0x4c4>)
 800151a:	f043 0301 	orr.w	r3, r3, #1
 800151e:	6213      	str	r3, [r2, #32]
 8001520:	e02d      	b.n	800157e <HAL_RCC_OscConfig+0x36e>
 8001522:	687b      	ldr	r3, [r7, #4]
 8001524:	68db      	ldr	r3, [r3, #12]
 8001526:	2b00      	cmp	r3, #0
 8001528:	d10c      	bne.n	8001544 <HAL_RCC_OscConfig+0x334>
 800152a:	4b6a      	ldr	r3, [pc, #424]	; (80016d4 <HAL_RCC_OscConfig+0x4c4>)
 800152c:	6a1b      	ldr	r3, [r3, #32]
 800152e:	4a69      	ldr	r2, [pc, #420]	; (80016d4 <HAL_RCC_OscConfig+0x4c4>)
 8001530:	f023 0301 	bic.w	r3, r3, #1
 8001534:	6213      	str	r3, [r2, #32]
 8001536:	4b67      	ldr	r3, [pc, #412]	; (80016d4 <HAL_RCC_OscConfig+0x4c4>)
 8001538:	6a1b      	ldr	r3, [r3, #32]
 800153a:	4a66      	ldr	r2, [pc, #408]	; (80016d4 <HAL_RCC_OscConfig+0x4c4>)
 800153c:	f023 0304 	bic.w	r3, r3, #4
 8001540:	6213      	str	r3, [r2, #32]
 8001542:	e01c      	b.n	800157e <HAL_RCC_OscConfig+0x36e>
 8001544:	687b      	ldr	r3, [r7, #4]
 8001546:	68db      	ldr	r3, [r3, #12]
 8001548:	2b05      	cmp	r3, #5
 800154a:	d10c      	bne.n	8001566 <HAL_RCC_OscConfig+0x356>
 800154c:	4b61      	ldr	r3, [pc, #388]	; (80016d4 <HAL_RCC_OscConfig+0x4c4>)
 800154e:	6a1b      	ldr	r3, [r3, #32]
 8001550:	4a60      	ldr	r2, [pc, #384]	; (80016d4 <HAL_RCC_OscConfig+0x4c4>)
 8001552:	f043 0304 	orr.w	r3, r3, #4
 8001556:	6213      	str	r3, [r2, #32]
 8001558:	4b5e      	ldr	r3, [pc, #376]	; (80016d4 <HAL_RCC_OscConfig+0x4c4>)
 800155a:	6a1b      	ldr	r3, [r3, #32]
 800155c:	4a5d      	ldr	r2, [pc, #372]	; (80016d4 <HAL_RCC_OscConfig+0x4c4>)
 800155e:	f043 0301 	orr.w	r3, r3, #1
 8001562:	6213      	str	r3, [r2, #32]
 8001564:	e00b      	b.n	800157e <HAL_RCC_OscConfig+0x36e>
 8001566:	4b5b      	ldr	r3, [pc, #364]	; (80016d4 <HAL_RCC_OscConfig+0x4c4>)
 8001568:	6a1b      	ldr	r3, [r3, #32]
 800156a:	4a5a      	ldr	r2, [pc, #360]	; (80016d4 <HAL_RCC_OscConfig+0x4c4>)
 800156c:	f023 0301 	bic.w	r3, r3, #1
 8001570:	6213      	str	r3, [r2, #32]
 8001572:	4b58      	ldr	r3, [pc, #352]	; (80016d4 <HAL_RCC_OscConfig+0x4c4>)
 8001574:	6a1b      	ldr	r3, [r3, #32]
 8001576:	4a57      	ldr	r2, [pc, #348]	; (80016d4 <HAL_RCC_OscConfig+0x4c4>)
 8001578:	f023 0304 	bic.w	r3, r3, #4
 800157c:	6213      	str	r3, [r2, #32]
    /* Check the LSE State */
    if (RCC_OscInitStruct->LSEState != RCC_LSE_OFF)
 800157e:	687b      	ldr	r3, [r7, #4]
 8001580:	68db      	ldr	r3, [r3, #12]
 8001582:	2b00      	cmp	r3, #0
 8001584:	d015      	beq.n	80015b2 <HAL_RCC_OscConfig+0x3a2>
    {
      /* Get Start Tick */
      tickstart = HAL_GetTick();
 8001586:	f7ff fb97 	bl	8000cb8 <HAL_GetTick>
 800158a:	6138      	str	r0, [r7, #16]

      /* Wait till LSE is ready */
      while (__HAL_RCC_GET_FLAG(RCC_FLAG_LSERDY) == RESET)
 800158c:	e00a      	b.n	80015a4 <HAL_RCC_OscConfig+0x394>
      {
        if ((HAL_GetTick() - tickstart) > RCC_LSE_TIMEOUT_VALUE)
 800158e:	f7ff fb93 	bl	8000cb8 <HAL_GetTick>
 8001592:	4602      	mov	r2, r0
 8001594:	693b      	ldr	r3, [r7, #16]
 8001596:	1ad3      	subs	r3, r2, r3
 8001598:	f241 3288 	movw	r2, #5000	; 0x1388
 800159c:	4293      	cmp	r3, r2
 800159e:	d901      	bls.n	80015a4 <HAL_RCC_OscConfig+0x394>
        {
          return HAL_TIMEOUT;
 80015a0:	2303      	movs	r3, #3
 80015a2:	e0b1      	b.n	8001708 <HAL_RCC_OscConfig+0x4f8>
      while (__HAL_RCC_GET_FLAG(RCC_FLAG_LSERDY) == RESET)
 80015a4:	4b4b      	ldr	r3, [pc, #300]	; (80016d4 <HAL_RCC_OscConfig+0x4c4>)
 80015a6:	6a1b      	ldr	r3, [r3, #32]
 80015a8:	f003 0302 	and.w	r3, r3, #2
 80015ac:	2b00      	cmp	r3, #0
 80015ae:	d0ee      	beq.n	800158e <HAL_RCC_OscConfig+0x37e>
 80015b0:	e014      	b.n	80015dc <HAL_RCC_OscConfig+0x3cc>
      }
    }
    else
    {
      /* Get Start Tick */
      tickstart = HAL_GetTick();
 80015b2:	f7ff fb81 	bl	8000cb8 <HAL_GetTick>
 80015b6:	6138      	str	r0, [r7, #16]

      /* Wait till LSE is disabled */
      while (__HAL_RCC_GET_FLAG(RCC_FLAG_LSERDY) != RESET)
 80015b8:	e00a      	b.n	80015d0 <HAL_RCC_OscConfig+0x3c0>
      {
        if ((HAL_GetTick() - tickstart) > RCC_LSE_TIMEOUT_VALUE)
 80015ba:	f7ff fb7d 	bl	8000cb8 <HAL_GetTick>
 80015be:	4602      	mov	r2, r0
 80015c0:	693b      	ldr	r3, [r7, #16]
 80015c2:	1ad3      	subs	r3, r2, r3
 80015c4:	f241 3288 	movw	r2, #5000	; 0x1388
 80015c8:	4293      	cmp	r3, r2
 80015ca:	d901      	bls.n	80015d0 <HAL_RCC_OscConfig+0x3c0>
        {
          return HAL_TIMEOUT;
 80015cc:	2303      	movs	r3, #3
 80015ce:	e09b      	b.n	8001708 <HAL_RCC_OscConfig+0x4f8>
      while (__HAL_RCC_GET_FLAG(RCC_FLAG_LSERDY) != RESET)
 80015d0:	4b40      	ldr	r3, [pc, #256]	; (80016d4 <HAL_RCC_OscConfig+0x4c4>)
 80015d2:	6a1b      	ldr	r3, [r3, #32]
 80015d4:	f003 0302 	and.w	r3, r3, #2
 80015d8:	2b00      	cmp	r3, #0
 80015da:	d1ee      	bne.n	80015ba <HAL_RCC_OscConfig+0x3aa>
        }
      }
    }

    /* Require to disable power clock if necessary */
    if (pwrclkchanged == SET)
 80015dc:	7dfb      	ldrb	r3, [r7, #23]
 80015de:	2b01      	cmp	r3, #1
 80015e0:	d105      	bne.n	80015ee <HAL_RCC_OscConfig+0x3de>
    {
      __HAL_RCC_PWR_CLK_DISABLE();
 80015e2:	4b3c      	ldr	r3, [pc, #240]	; (80016d4 <HAL_RCC_OscConfig+0x4c4>)
 80015e4:	69db      	ldr	r3, [r3, #28]
 80015e6:	4a3b      	ldr	r2, [pc, #236]	; (80016d4 <HAL_RCC_OscConfig+0x4c4>)
 80015e8:	f023 5380 	bic.w	r3, r3, #268435456	; 0x10000000
 80015ec:	61d3      	str	r3, [r2, #28]

#endif /* RCC_CR_PLL2ON */
  /*-------------------------------- PLL Configuration -----------------------*/
  /* Check the parameters */
  assert_param(IS_RCC_PLL(RCC_OscInitStruct->PLL.PLLState));
  if ((RCC_OscInitStruct->PLL.PLLState) != RCC_PLL_NONE)
 80015ee:	687b      	ldr	r3, [r7, #4]
 80015f0:	69db      	ldr	r3, [r3, #28]
 80015f2:	2b00      	cmp	r3, #0
 80015f4:	f000 8087 	beq.w	8001706 <HAL_RCC_OscConfig+0x4f6>
  {
    /* Check if the PLL is used as system clock or not */
    if (__HAL_RCC_GET_SYSCLK_SOURCE() != RCC_SYSCLKSOURCE_STATUS_PLLCLK)
 80015f8:	4b36      	ldr	r3, [pc, #216]	; (80016d4 <HAL_RCC_OscConfig+0x4c4>)
 80015fa:	685b      	ldr	r3, [r3, #4]
 80015fc:	f003 030c 	and.w	r3, r3, #12
 8001600:	2b08      	cmp	r3, #8
 8001602:	d061      	beq.n	80016c8 <HAL_RCC_OscConfig+0x4b8>
    {
      if ((RCC_OscInitStruct->PLL.PLLState) == RCC_PLL_ON)
 8001604:	687b      	ldr	r3, [r7, #4]
 8001606:	69db      	ldr	r3, [r3, #28]
 8001608:	2b02      	cmp	r3, #2
 800160a:	d146      	bne.n	800169a <HAL_RCC_OscConfig+0x48a>
        /* Check the parameters */
        assert_param(IS_RCC_PLLSOURCE(RCC_OscInitStruct->PLL.PLLSource));
        assert_param(IS_RCC_PLL_MUL(RCC_OscInitStruct->PLL.PLLMUL));

        /* Disable the main PLL. */
        __HAL_RCC_PLL_DISABLE();
 800160c:	4b33      	ldr	r3, [pc, #204]	; (80016dc <HAL_RCC_OscConfig+0x4cc>)
 800160e:	2200      	movs	r2, #0
 8001610:	601a      	str	r2, [r3, #0]

        /* Get Start Tick */
        tickstart = HAL_GetTick();
 8001612:	f7ff fb51 	bl	8000cb8 <HAL_GetTick>
 8001616:	6138      	str	r0, [r7, #16]

        /* Wait till PLL is disabled */
        while (__HAL_RCC_GET_FLAG(RCC_FLAG_PLLRDY)  != RESET)
 8001618:	e008      	b.n	800162c <HAL_RCC_OscConfig+0x41c>
        {
          if ((HAL_GetTick() - tickstart) > PLL_TIMEOUT_VALUE)
 800161a:	f7ff fb4d 	bl	8000cb8 <HAL_GetTick>
 800161e:	4602      	mov	r2, r0
 8001620:	693b      	ldr	r3, [r7, #16]
 8001622:	1ad3      	subs	r3, r2, r3
 8001624:	2b02      	cmp	r3, #2
 8001626:	d901      	bls.n	800162c <HAL_RCC_OscConfig+0x41c>
          {
            return HAL_TIMEOUT;
 8001628:	2303      	movs	r3, #3
 800162a:	e06d      	b.n	8001708 <HAL_RCC_OscConfig+0x4f8>
        while (__HAL_RCC_GET_FLAG(RCC_FLAG_PLLRDY)  != RESET)
 800162c:	4b29      	ldr	r3, [pc, #164]	; (80016d4 <HAL_RCC_OscConfig+0x4c4>)
 800162e:	681b      	ldr	r3, [r3, #0]
 8001630:	f003 7300 	and.w	r3, r3, #33554432	; 0x2000000
 8001634:	2b00      	cmp	r3, #0
 8001636:	d1f0      	bne.n	800161a <HAL_RCC_OscConfig+0x40a>
          }
        }

        /* Configure the HSE prediv factor --------------------------------*/
        /* It can be written only when the PLL is disabled. Not used in PLL source is different than HSE */
        if (RCC_OscInitStruct->PLL.PLLSource == RCC_PLLSOURCE_HSE)
 8001638:	687b      	ldr	r3, [r7, #4]
 800163a:	6a1b      	ldr	r3, [r3, #32]
 800163c:	f5b3 3f80 	cmp.w	r3, #65536	; 0x10000
 8001640:	d108      	bne.n	8001654 <HAL_RCC_OscConfig+0x444>
          /* Set PREDIV1 source */
          SET_BIT(RCC->CFGR2, RCC_OscInitStruct->Prediv1Source);
#endif /* RCC_CFGR2_PREDIV1SRC */

          /* Set PREDIV1 Value */
          __HAL_RCC_HSE_PREDIV_CONFIG(RCC_OscInitStruct->HSEPredivValue);
 8001642:	4b24      	ldr	r3, [pc, #144]	; (80016d4 <HAL_RCC_OscConfig+0x4c4>)
 8001644:	685b      	ldr	r3, [r3, #4]
 8001646:	f423 3200 	bic.w	r2, r3, #131072	; 0x20000
 800164a:	687b      	ldr	r3, [r7, #4]
 800164c:	689b      	ldr	r3, [r3, #8]
 800164e:	4921      	ldr	r1, [pc, #132]	; (80016d4 <HAL_RCC_OscConfig+0x4c4>)
 8001650:	4313      	orrs	r3, r2
 8001652:	604b      	str	r3, [r1, #4]
        }

        /* Configure the main PLL clock source and multiplication factors. */
        __HAL_RCC_PLL_CONFIG(RCC_OscInitStruct->PLL.PLLSource,
 8001654:	4b1f      	ldr	r3, [pc, #124]	; (80016d4 <HAL_RCC_OscConfig+0x4c4>)
 8001656:	685b      	ldr	r3, [r3, #4]
 8001658:	f423 1274 	bic.w	r2, r3, #3997696	; 0x3d0000
 800165c:	687b      	ldr	r3, [r7, #4]
 800165e:	6a19      	ldr	r1, [r3, #32]
 8001660:	687b      	ldr	r3, [r7, #4]
 8001662:	6a5b      	ldr	r3, [r3, #36]	; 0x24
 8001664:	430b      	orrs	r3, r1
 8001666:	491b      	ldr	r1, [pc, #108]	; (80016d4 <HAL_RCC_OscConfig+0x4c4>)
 8001668:	4313      	orrs	r3, r2
 800166a:	604b      	str	r3, [r1, #4]
                             RCC_OscInitStruct->PLL.PLLMUL);
        /* Enable the main PLL. */
        __HAL_RCC_PLL_ENABLE();
 800166c:	4b1b      	ldr	r3, [pc, #108]	; (80016dc <HAL_RCC_OscConfig+0x4cc>)
 800166e:	2201      	movs	r2, #1
 8001670:	601a      	str	r2, [r3, #0]

        /* Get Start Tick */
        tickstart = HAL_GetTick();
 8001672:	f7ff fb21 	bl	8000cb8 <HAL_GetTick>
 8001676:	6138      	str	r0, [r7, #16]

        /* Wait till PLL is ready */
        while (__HAL_RCC_GET_FLAG(RCC_FLAG_PLLRDY)  == RESET)
 8001678:	e008      	b.n	800168c <HAL_RCC_OscConfig+0x47c>
        {
          if ((HAL_GetTick() - tickstart) > PLL_TIMEOUT_VALUE)
 800167a:	f7ff fb1d 	bl	8000cb8 <HAL_GetTick>
 800167e:	4602      	mov	r2, r0
 8001680:	693b      	ldr	r3, [r7, #16]
 8001682:	1ad3      	subs	r3, r2, r3
 8001684:	2b02      	cmp	r3, #2
 8001686:	d901      	bls.n	800168c <HAL_RCC_OscConfig+0x47c>
          {
            return HAL_TIMEOUT;
 8001688:	2303      	movs	r3, #3
 800168a:	e03d      	b.n	8001708 <HAL_RCC_OscConfig+0x4f8>
        while (__HAL_RCC_GET_FLAG(RCC_FLAG_PLLRDY)  == RESET)
 800168c:	4b11      	ldr	r3, [pc, #68]	; (80016d4 <HAL_RCC_OscConfig+0x4c4>)
 800168e:	681b      	ldr	r3, [r3, #0]
 8001690:	f003 7300 	and.w	r3, r3, #33554432	; 0x2000000
 8001694:	2b00      	cmp	r3, #0
 8001696:	d0f0      	beq.n	800167a <HAL_RCC_OscConfig+0x46a>
 8001698:	e035      	b.n	8001706 <HAL_RCC_OscConfig+0x4f6>
        }
      }
      else
      {
        /* Disable the main PLL. */
        __HAL_RCC_PLL_DISABLE();
 800169a:	4b10      	ldr	r3, [pc, #64]	; (80016dc <HAL_RCC_OscConfig+0x4cc>)
 800169c:	2200      	movs	r2, #0
 800169e:	601a      	str	r2, [r3, #0]

        /* Get Start Tick */
        tickstart = HAL_GetTick();
 80016a0:	f7ff fb0a 	bl	8000cb8 <HAL_GetTick>
 80016a4:	6138      	str	r0, [r7, #16]

        /* Wait till PLL is disabled */
        while (__HAL_RCC_GET_FLAG(RCC_FLAG_PLLRDY)  != RESET)
 80016a6:	e008      	b.n	80016ba <HAL_RCC_OscConfig+0x4aa>
        {
          if ((HAL_GetTick() - tickstart) > PLL_TIMEOUT_VALUE)
 80016a8:	f7ff fb06 	bl	8000cb8 <HAL_GetTick>
 80016ac:	4602      	mov	r2, r0
 80016ae:	693b      	ldr	r3, [r7, #16]
 80016b0:	1ad3      	subs	r3, r2, r3
 80016b2:	2b02      	cmp	r3, #2
 80016b4:	d901      	bls.n	80016ba <HAL_RCC_OscConfig+0x4aa>
          {
            return HAL_TIMEOUT;
 80016b6:	2303      	movs	r3, #3
 80016b8:	e026      	b.n	8001708 <HAL_RCC_OscConfig+0x4f8>
        while (__HAL_RCC_GET_FLAG(RCC_FLAG_PLLRDY)  != RESET)
 80016ba:	4b06      	ldr	r3, [pc, #24]	; (80016d4 <HAL_RCC_OscConfig+0x4c4>)
 80016bc:	681b      	ldr	r3, [r3, #0]
 80016be:	f003 7300 	and.w	r3, r3, #33554432	; 0x2000000
 80016c2:	2b00      	cmp	r3, #0
 80016c4:	d1f0      	bne.n	80016a8 <HAL_RCC_OscConfig+0x498>
 80016c6:	e01e      	b.n	8001706 <HAL_RCC_OscConfig+0x4f6>
      }
    }
    else
    {
      /* Check if there is a request to disable the PLL used as System clock source */
      if ((RCC_OscInitStruct->PLL.PLLState) == RCC_PLL_OFF)
 80016c8:	687b      	ldr	r3, [r7, #4]
 80016ca:	69db      	ldr	r3, [r3, #28]
 80016cc:	2b01      	cmp	r3, #1
 80016ce:	d107      	bne.n	80016e0 <HAL_RCC_OscConfig+0x4d0>
      {
        return HAL_ERROR;
 80016d0:	2301      	movs	r3, #1
 80016d2:	e019      	b.n	8001708 <HAL_RCC_OscConfig+0x4f8>
 80016d4:	40021000 	.word	0x40021000
 80016d8:	40007000 	.word	0x40007000
 80016dc:	42420060 	.word	0x42420060
      }
      else
      {
        /* Do not return HAL_ERROR if request repeats the current configuration */
        pll_config = RCC->CFGR;
 80016e0:	4b0b      	ldr	r3, [pc, #44]	; (8001710 <HAL_RCC_OscConfig+0x500>)
 80016e2:	685b      	ldr	r3, [r3, #4]
 80016e4:	60fb      	str	r3, [r7, #12]
        if ((READ_BIT(pll_config, RCC_CFGR_PLLSRC) != RCC_OscInitStruct->PLL.PLLSource) ||
 80016e6:	68fb      	ldr	r3, [r7, #12]
 80016e8:	f403 3280 	and.w	r2, r3, #65536	; 0x10000
 80016ec:	687b      	ldr	r3, [r7, #4]
 80016ee:	6a1b      	ldr	r3, [r3, #32]
 80016f0:	429a      	cmp	r2, r3
 80016f2:	d106      	bne.n	8001702 <HAL_RCC_OscConfig+0x4f2>
            (READ_BIT(pll_config, RCC_CFGR_PLLMULL) != RCC_OscInitStruct->PLL.PLLMUL))
 80016f4:	68fb      	ldr	r3, [r7, #12]
 80016f6:	f403 1270 	and.w	r2, r3, #3932160	; 0x3c0000
 80016fa:	687b      	ldr	r3, [r7, #4]
 80016fc:	6a5b      	ldr	r3, [r3, #36]	; 0x24
        if ((READ_BIT(pll_config, RCC_CFGR_PLLSRC) != RCC_OscInitStruct->PLL.PLLSource) ||
 80016fe:	429a      	cmp	r2, r3
 8001700:	d001      	beq.n	8001706 <HAL_RCC_OscConfig+0x4f6>
        {
          return HAL_ERROR;
 8001702:	2301      	movs	r3, #1
 8001704:	e000      	b.n	8001708 <HAL_RCC_OscConfig+0x4f8>
        }
      }
    }
  }

  return HAL_OK;
 8001706:	2300      	movs	r3, #0
}
 8001708:	4618      	mov	r0, r3
 800170a:	3718      	adds	r7, #24
 800170c:	46bd      	mov	sp, r7
 800170e:	bd80      	pop	{r7, pc}
 8001710:	40021000 	.word	0x40021000

08001714 <HAL_RCC_ClockConfig>:
  *         You can use @ref HAL_RCC_GetClockConfig() function to know which clock is
  *         currently used as system clock source.
  * @retval HAL status
  */
HAL_StatusTypeDef HAL_RCC_ClockConfig(RCC_ClkInitTypeDef  *RCC_ClkInitStruct, uint32_t FLatency)
{
 8001714:	b580      	push	{r7, lr}
 8001716:	b084      	sub	sp, #16
 8001718:	af00      	add	r7, sp, #0
 800171a:	6078      	str	r0, [r7, #4]
 800171c:	6039      	str	r1, [r7, #0]
  uint32_t tickstart;

  /* Check Null pointer */
  if (RCC_ClkInitStruct == NULL)
 800171e:	687b      	ldr	r3, [r7, #4]
 8001720:	2b00      	cmp	r3, #0
 8001722:	d101      	bne.n	8001728 <HAL_RCC_ClockConfig+0x14>
  {
    return HAL_ERROR;
 8001724:	2301      	movs	r3, #1
 8001726:	e0d0      	b.n	80018ca <HAL_RCC_ClockConfig+0x1b6>
  must be correctly programmed according to the frequency of the CPU clock
    (HCLK) of the device. */

#if defined(FLASH_ACR_LATENCY)
  /* Increasing the number of wait states because of higher CPU frequency */
  if (FLatency > __HAL_FLASH_GET_LATENCY())
 8001728:	4b6a      	ldr	r3, [pc, #424]	; (80018d4 <HAL_RCC_ClockConfig+0x1c0>)
 800172a:	681b      	ldr	r3, [r3, #0]
 800172c:	f003 0307 	and.w	r3, r3, #7
 8001730:	683a      	ldr	r2, [r7, #0]
 8001732:	429a      	cmp	r2, r3
 8001734:	d910      	bls.n	8001758 <HAL_RCC_ClockConfig+0x44>
  {
    /* Program the new number of wait states to the LATENCY bits in the FLASH_ACR register */
    __HAL_FLASH_SET_LATENCY(FLatency);
 8001736:	4b67      	ldr	r3, [pc, #412]	; (80018d4 <HAL_RCC_ClockConfig+0x1c0>)
 8001738:	681b      	ldr	r3, [r3, #0]
 800173a:	f023 0207 	bic.w	r2, r3, #7
 800173e:	4965      	ldr	r1, [pc, #404]	; (80018d4 <HAL_RCC_ClockConfig+0x1c0>)
 8001740:	683b      	ldr	r3, [r7, #0]
 8001742:	4313      	orrs	r3, r2
 8001744:	600b      	str	r3, [r1, #0]

    /* Check that the new number of wait states is taken into account to access the Flash
    memory by reading the FLASH_ACR register */
    if (__HAL_FLASH_GET_LATENCY() != FLatency)
 8001746:	4b63      	ldr	r3, [pc, #396]	; (80018d4 <HAL_RCC_ClockConfig+0x1c0>)
 8001748:	681b      	ldr	r3, [r3, #0]
 800174a:	f003 0307 	and.w	r3, r3, #7
 800174e:	683a      	ldr	r2, [r7, #0]
 8001750:	429a      	cmp	r2, r3
 8001752:	d001      	beq.n	8001758 <HAL_RCC_ClockConfig+0x44>
  {
    return HAL_ERROR;
 8001754:	2301      	movs	r3, #1
 8001756:	e0b8      	b.n	80018ca <HAL_RCC_ClockConfig+0x1b6>
  }
}

#endif /* FLASH_ACR_LATENCY */
/*-------------------------- HCLK Configuration --------------------------*/
if (((RCC_ClkInitStruct->ClockType) & RCC_CLOCKTYPE_HCLK) == RCC_CLOCKTYPE_HCLK)
 8001758:	687b      	ldr	r3, [r7, #4]
 800175a:	681b      	ldr	r3, [r3, #0]
 800175c:	f003 0302 	and.w	r3, r3, #2
 8001760:	2b00      	cmp	r3, #0
 8001762:	d020      	beq.n	80017a6 <HAL_RCC_ClockConfig+0x92>
  {
    /* Set the highest APBx dividers in order to ensure that we do not go through
    a non-spec phase whatever we decrease or increase HCLK. */
    if (((RCC_ClkInitStruct->ClockType) & RCC_CLOCKTYPE_PCLK1) == RCC_CLOCKTYPE_PCLK1)
 8001764:	687b      	ldr	r3, [r7, #4]
 8001766:	681b      	ldr	r3, [r3, #0]
 8001768:	f003 0304 	and.w	r3, r3, #4
 800176c:	2b00      	cmp	r3, #0
 800176e:	d005      	beq.n	800177c <HAL_RCC_ClockConfig+0x68>
    {
      MODIFY_REG(RCC->CFGR, RCC_CFGR_PPRE1, RCC_HCLK_DIV16);
 8001770:	4b59      	ldr	r3, [pc, #356]	; (80018d8 <HAL_RCC_ClockConfig+0x1c4>)
 8001772:	685b      	ldr	r3, [r3, #4]
 8001774:	4a58      	ldr	r2, [pc, #352]	; (80018d8 <HAL_RCC_ClockConfig+0x1c4>)
 8001776:	f443 63e0 	orr.w	r3, r3, #1792	; 0x700
 800177a:	6053      	str	r3, [r2, #4]
    }

    if (((RCC_ClkInitStruct->ClockType) & RCC_CLOCKTYPE_PCLK2) == RCC_CLOCKTYPE_PCLK2)
 800177c:	687b      	ldr	r3, [r7, #4]
 800177e:	681b      	ldr	r3, [r3, #0]
 8001780:	f003 0308 	and.w	r3, r3, #8
 8001784:	2b00      	cmp	r3, #0
 8001786:	d005      	beq.n	8001794 <HAL_RCC_ClockConfig+0x80>
    {
      MODIFY_REG(RCC->CFGR, RCC_CFGR_PPRE2, (RCC_HCLK_DIV16 << 3));
 8001788:	4b53      	ldr	r3, [pc, #332]	; (80018d8 <HAL_RCC_ClockConfig+0x1c4>)
 800178a:	685b      	ldr	r3, [r3, #4]
 800178c:	4a52      	ldr	r2, [pc, #328]	; (80018d8 <HAL_RCC_ClockConfig+0x1c4>)
 800178e:	f443 5360 	orr.w	r3, r3, #14336	; 0x3800
 8001792:	6053      	str	r3, [r2, #4]
    }

    /* Set the new HCLK clock divider */
    assert_param(IS_RCC_HCLK(RCC_ClkInitStruct->AHBCLKDivider));
    MODIFY_REG(RCC->CFGR, RCC_CFGR_HPRE, RCC_ClkInitStruct->AHBCLKDivider);
 8001794:	4b50      	ldr	r3, [pc, #320]	; (80018d8 <HAL_RCC_ClockConfig+0x1c4>)
 8001796:	685b      	ldr	r3, [r3, #4]
 8001798:	f023 02f0 	bic.w	r2, r3, #240	; 0xf0
 800179c:	687b      	ldr	r3, [r7, #4]
 800179e:	689b      	ldr	r3, [r3, #8]
 80017a0:	494d      	ldr	r1, [pc, #308]	; (80018d8 <HAL_RCC_ClockConfig+0x1c4>)
 80017a2:	4313      	orrs	r3, r2
 80017a4:	604b      	str	r3, [r1, #4]
  }

  /*------------------------- SYSCLK Configuration ---------------------------*/
  if (((RCC_ClkInitStruct->ClockType) & RCC_CLOCKTYPE_SYSCLK) == RCC_CLOCKTYPE_SYSCLK)
 80017a6:	687b      	ldr	r3, [r7, #4]
 80017a8:	681b      	ldr	r3, [r3, #0]
 80017aa:	f003 0301 	and.w	r3, r3, #1
 80017ae:	2b00      	cmp	r3, #0
 80017b0:	d040      	beq.n	8001834 <HAL_RCC_ClockConfig+0x120>
  {
    assert_param(IS_RCC_SYSCLKSOURCE(RCC_ClkInitStruct->SYSCLKSource));

    /* HSE is selected as System Clock Source */
    if (RCC_ClkInitStruct->SYSCLKSource == RCC_SYSCLKSOURCE_HSE)
 80017b2:	687b      	ldr	r3, [r7, #4]
 80017b4:	685b      	ldr	r3, [r3, #4]
 80017b6:	2b01      	cmp	r3, #1
 80017b8:	d107      	bne.n	80017ca <HAL_RCC_ClockConfig+0xb6>
    {
      /* Check the HSE ready flag */
      if (__HAL_RCC_GET_FLAG(RCC_FLAG_HSERDY) == RESET)
 80017ba:	4b47      	ldr	r3, [pc, #284]	; (80018d8 <HAL_RCC_ClockConfig+0x1c4>)
 80017bc:	681b      	ldr	r3, [r3, #0]
 80017be:	f403 3300 	and.w	r3, r3, #131072	; 0x20000
 80017c2:	2b00      	cmp	r3, #0
 80017c4:	d115      	bne.n	80017f2 <HAL_RCC_ClockConfig+0xde>
      {
        return HAL_ERROR;
 80017c6:	2301      	movs	r3, #1
 80017c8:	e07f      	b.n	80018ca <HAL_RCC_ClockConfig+0x1b6>
      }
    }
    /* PLL is selected as System Clock Source */
    else if (RCC_ClkInitStruct->SYSCLKSource == RCC_SYSCLKSOURCE_PLLCLK)
 80017ca:	687b      	ldr	r3, [r7, #4]
 80017cc:	685b      	ldr	r3, [r3, #4]
 80017ce:	2b02      	cmp	r3, #2
 80017d0:	d107      	bne.n	80017e2 <HAL_RCC_ClockConfig+0xce>
    {
      /* Check the PLL ready flag */
      if (__HAL_RCC_GET_FLAG(RCC_FLAG_PLLRDY) == RESET)
 80017d2:	4b41      	ldr	r3, [pc, #260]	; (80018d8 <HAL_RCC_ClockConfig+0x1c4>)
 80017d4:	681b      	ldr	r3, [r3, #0]
 80017d6:	f003 7300 	and.w	r3, r3, #33554432	; 0x2000000
 80017da:	2b00      	cmp	r3, #0
 80017dc:	d109      	bne.n	80017f2 <HAL_RCC_ClockConfig+0xde>
      {
        return HAL_ERROR;
 80017de:	2301      	movs	r3, #1
 80017e0:	e073      	b.n	80018ca <HAL_RCC_ClockConfig+0x1b6>
    }
    /* HSI is selected as System Clock Source */
    else
    {
      /* Check the HSI ready flag */
      if (__HAL_RCC_GET_FLAG(RCC_FLAG_HSIRDY) == RESET)
 80017e2:	4b3d      	ldr	r3, [pc, #244]	; (80018d8 <HAL_RCC_ClockConfig+0x1c4>)
 80017e4:	681b      	ldr	r3, [r3, #0]
 80017e6:	f003 0302 	and.w	r3, r3, #2
 80017ea:	2b00      	cmp	r3, #0
 80017ec:	d101      	bne.n	80017f2 <HAL_RCC_ClockConfig+0xde>
      {
        return HAL_ERROR;
 80017ee:	2301      	movs	r3, #1
 80017f0:	e06b      	b.n	80018ca <HAL_RCC_ClockConfig+0x1b6>
      }
    }
    __HAL_RCC_SYSCLK_CONFIG(RCC_ClkInitStruct->SYSCLKSource);
 80017f2:	4b39      	ldr	r3, [pc, #228]	; (80018d8 <HAL_RCC_ClockConfig+0x1c4>)
 80017f4:	685b      	ldr	r3, [r3, #4]
 80017f6:	f023 0203 	bic.w	r2, r3, #3
 80017fa:	687b      	ldr	r3, [r7, #4]
 80017fc:	685b      	ldr	r3, [r3, #4]
 80017fe:	4936      	ldr	r1, [pc, #216]	; (80018d8 <HAL_RCC_ClockConfig+0x1c4>)
 8001800:	4313      	orrs	r3, r2
 8001802:	604b      	str	r3, [r1, #4]

    /* Get Start Tick */
    tickstart = HAL_GetTick();
 8001804:	f7ff fa58 	bl	8000cb8 <HAL_GetTick>
 8001808:	60f8      	str	r0, [r7, #12]

    while (__HAL_RCC_GET_SYSCLK_SOURCE() != (RCC_ClkInitStruct->SYSCLKSource << RCC_CFGR_SWS_Pos))
 800180a:	e00a      	b.n	8001822 <HAL_RCC_ClockConfig+0x10e>
    {
      if ((HAL_GetTick() - tickstart) > CLOCKSWITCH_TIMEOUT_VALUE)
 800180c:	f7ff fa54 	bl	8000cb8 <HAL_GetTick>
 8001810:	4602      	mov	r2, r0
 8001812:	68fb      	ldr	r3, [r7, #12]
 8001814:	1ad3      	subs	r3, r2, r3
 8001816:	f241 3288 	movw	r2, #5000	; 0x1388
 800181a:	4293      	cmp	r3, r2
 800181c:	d901      	bls.n	8001822 <HAL_RCC_ClockConfig+0x10e>
      {
        return HAL_TIMEOUT;
 800181e:	2303      	movs	r3, #3
 8001820:	e053      	b.n	80018ca <HAL_RCC_ClockConfig+0x1b6>
    while (__HAL_RCC_GET_SYSCLK_SOURCE() != (RCC_ClkInitStruct->SYSCLKSource << RCC_CFGR_SWS_Pos))
 8001822:	4b2d      	ldr	r3, [pc, #180]	; (80018d8 <HAL_RCC_ClockConfig+0x1c4>)
 8001824:	685b      	ldr	r3, [r3, #4]
 8001826:	f003 020c 	and.w	r2, r3, #12
 800182a:	687b      	ldr	r3, [r7, #4]
 800182c:	685b      	ldr	r3, [r3, #4]
 800182e:	009b      	lsls	r3, r3, #2
 8001830:	429a      	cmp	r2, r3
 8001832:	d1eb      	bne.n	800180c <HAL_RCC_ClockConfig+0xf8>
    }
  }

#if defined(FLASH_ACR_LATENCY)
  /* Decreasing the number of wait states because of lower CPU frequency */
  if (FLatency < __HAL_FLASH_GET_LATENCY())
 8001834:	4b27      	ldr	r3, [pc, #156]	; (80018d4 <HAL_RCC_ClockConfig+0x1c0>)
 8001836:	681b      	ldr	r3, [r3, #0]
 8001838:	f003 0307 	and.w	r3, r3, #7
 800183c:	683a      	ldr	r2, [r7, #0]
 800183e:	429a      	cmp	r2, r3
 8001840:	d210      	bcs.n	8001864 <HAL_RCC_ClockConfig+0x150>
  {
    /* Program the new number of wait states to the LATENCY bits in the FLASH_ACR register */
    __HAL_FLASH_SET_LATENCY(FLatency);
 8001842:	4b24      	ldr	r3, [pc, #144]	; (80018d4 <HAL_RCC_ClockConfig+0x1c0>)
 8001844:	681b      	ldr	r3, [r3, #0]
 8001846:	f023 0207 	bic.w	r2, r3, #7
 800184a:	4922      	ldr	r1, [pc, #136]	; (80018d4 <HAL_RCC_ClockConfig+0x1c0>)
 800184c:	683b      	ldr	r3, [r7, #0]
 800184e:	4313      	orrs	r3, r2
 8001850:	600b      	str	r3, [r1, #0]

    /* Check that the new number of wait states is taken into account to access the Flash
    memory by reading the FLASH_ACR register */
    if (__HAL_FLASH_GET_LATENCY() != FLatency)
 8001852:	4b20      	ldr	r3, [pc, #128]	; (80018d4 <HAL_RCC_ClockConfig+0x1c0>)
 8001854:	681b      	ldr	r3, [r3, #0]
 8001856:	f003 0307 	and.w	r3, r3, #7
 800185a:	683a      	ldr	r2, [r7, #0]
 800185c:	429a      	cmp	r2, r3
 800185e:	d001      	beq.n	8001864 <HAL_RCC_ClockConfig+0x150>
  {
    return HAL_ERROR;
 8001860:	2301      	movs	r3, #1
 8001862:	e032      	b.n	80018ca <HAL_RCC_ClockConfig+0x1b6>
  }
}
#endif /* FLASH_ACR_LATENCY */

/*-------------------------- PCLK1 Configuration ---------------------------*/
if (((RCC_ClkInitStruct->ClockType) & RCC_CLOCKTYPE_PCLK1) == RCC_CLOCKTYPE_PCLK1)
 8001864:	687b      	ldr	r3, [r7, #4]
 8001866:	681b      	ldr	r3, [r3, #0]
 8001868:	f003 0304 	and.w	r3, r3, #4
 800186c:	2b00      	cmp	r3, #0
 800186e:	d008      	beq.n	8001882 <HAL_RCC_ClockConfig+0x16e>
  {
    assert_param(IS_RCC_PCLK(RCC_ClkInitStruct->APB1CLKDivider));
    MODIFY_REG(RCC->CFGR, RCC_CFGR_PPRE1, RCC_ClkInitStruct->APB1CLKDivider);
 8001870:	4b19      	ldr	r3, [pc, #100]	; (80018d8 <HAL_RCC_ClockConfig+0x1c4>)
 8001872:	685b      	ldr	r3, [r3, #4]
 8001874:	f423 62e0 	bic.w	r2, r3, #1792	; 0x700
 8001878:	687b      	ldr	r3, [r7, #4]
 800187a:	68db      	ldr	r3, [r3, #12]
 800187c:	4916      	ldr	r1, [pc, #88]	; (80018d8 <HAL_RCC_ClockConfig+0x1c4>)
 800187e:	4313      	orrs	r3, r2
 8001880:	604b      	str	r3, [r1, #4]
  }

  /*-------------------------- PCLK2 Configuration ---------------------------*/
  if (((RCC_ClkInitStruct->ClockType) & RCC_CLOCKTYPE_PCLK2) == RCC_CLOCKTYPE_PCLK2)
 8001882:	687b      	ldr	r3, [r7, #4]
 8001884:	681b      	ldr	r3, [r3, #0]
 8001886:	f003 0308 	and.w	r3, r3, #8
 800188a:	2b00      	cmp	r3, #0
 800188c:	d009      	beq.n	80018a2 <HAL_RCC_ClockConfig+0x18e>
  {
    assert_param(IS_RCC_PCLK(RCC_ClkInitStruct->APB2CLKDivider));
    MODIFY_REG(RCC->CFGR, RCC_CFGR_PPRE2, ((RCC_ClkInitStruct->APB2CLKDivider) << 3));
 800188e:	4b12      	ldr	r3, [pc, #72]	; (80018d8 <HAL_RCC_ClockConfig+0x1c4>)
 8001890:	685b      	ldr	r3, [r3, #4]
 8001892:	f423 5260 	bic.w	r2, r3, #14336	; 0x3800
 8001896:	687b      	ldr	r3, [r7, #4]
 8001898:	691b      	ldr	r3, [r3, #16]
 800189a:	00db      	lsls	r3, r3, #3
 800189c:	490e      	ldr	r1, [pc, #56]	; (80018d8 <HAL_RCC_ClockConfig+0x1c4>)
 800189e:	4313      	orrs	r3, r2
 80018a0:	604b      	str	r3, [r1, #4]
  }

  /* Update the SystemCoreClock global variable */
  SystemCoreClock = HAL_RCC_GetSysClockFreq() >> AHBPrescTable[(RCC->CFGR & RCC_CFGR_HPRE) >> RCC_CFGR_HPRE_Pos];
 80018a2:	f000 f821 	bl	80018e8 <HAL_RCC_GetSysClockFreq>
 80018a6:	4602      	mov	r2, r0
 80018a8:	4b0b      	ldr	r3, [pc, #44]	; (80018d8 <HAL_RCC_ClockConfig+0x1c4>)
 80018aa:	685b      	ldr	r3, [r3, #4]
 80018ac:	091b      	lsrs	r3, r3, #4
 80018ae:	f003 030f 	and.w	r3, r3, #15
 80018b2:	490a      	ldr	r1, [pc, #40]	; (80018dc <HAL_RCC_ClockConfig+0x1c8>)
 80018b4:	5ccb      	ldrb	r3, [r1, r3]
 80018b6:	fa22 f303 	lsr.w	r3, r2, r3
 80018ba:	4a09      	ldr	r2, [pc, #36]	; (80018e0 <HAL_RCC_ClockConfig+0x1cc>)
 80018bc:	6013      	str	r3, [r2, #0]

  /* Configure the source of time base considering new system clocks settings*/
  HAL_InitTick(uwTickPrio);
 80018be:	4b09      	ldr	r3, [pc, #36]	; (80018e4 <HAL_RCC_ClockConfig+0x1d0>)
 80018c0:	681b      	ldr	r3, [r3, #0]
 80018c2:	4618      	mov	r0, r3
 80018c4:	f7ff f9b6 	bl	8000c34 <HAL_InitTick>

  return HAL_OK;
 80018c8:	2300      	movs	r3, #0
}
 80018ca:	4618      	mov	r0, r3
 80018cc:	3710      	adds	r7, #16
 80018ce:	46bd      	mov	sp, r7
 80018d0:	bd80      	pop	{r7, pc}
 80018d2:	bf00      	nop
 80018d4:	40022000 	.word	0x40022000
 80018d8:	40021000 	.word	0x40021000
 80018dc:	0800220c 	.word	0x0800220c
 80018e0:	20000010 	.word	0x20000010
 80018e4:	20000014 	.word	0x20000014

080018e8 <HAL_RCC_GetSysClockFreq>:
  *         right SYSCLK value. Otherwise, any configuration based on this function will be incorrect.
  *
  * @retval SYSCLK frequency
  */
uint32_t HAL_RCC_GetSysClockFreq(void)
{
 80018e8:	b480      	push	{r7}
 80018ea:	b087      	sub	sp, #28
 80018ec:	af00      	add	r7, sp, #0
#else
  static const uint8_t aPredivFactorTable[2U] = {1, 2};
#endif /*RCC_CFGR2_PREDIV1*/

#endif
  uint32_t tmpreg = 0U, prediv = 0U, pllclk = 0U, pllmul = 0U;
 80018ee:	2300      	movs	r3, #0
 80018f0:	60fb      	str	r3, [r7, #12]
 80018f2:	2300      	movs	r3, #0
 80018f4:	60bb      	str	r3, [r7, #8]
 80018f6:	2300      	movs	r3, #0
 80018f8:	617b      	str	r3, [r7, #20]
 80018fa:	2300      	movs	r3, #0
 80018fc:	607b      	str	r3, [r7, #4]
  uint32_t sysclockfreq = 0U;
 80018fe:	2300      	movs	r3, #0
 8001900:	613b      	str	r3, [r7, #16]
#if defined(RCC_CFGR2_PREDIV1SRC)
  uint32_t prediv2 = 0U, pll2mul = 0U;
#endif /*RCC_CFGR2_PREDIV1SRC*/

  tmpreg = RCC->CFGR;
 8001902:	4b1e      	ldr	r3, [pc, #120]	; (800197c <HAL_RCC_GetSysClockFreq+0x94>)
 8001904:	685b      	ldr	r3, [r3, #4]
 8001906:	60fb      	str	r3, [r7, #12]

  /* Get SYSCLK source -------------------------------------------------------*/
  switch (tmpreg & RCC_CFGR_SWS)
 8001908:	68fb      	ldr	r3, [r7, #12]
 800190a:	f003 030c 	and.w	r3, r3, #12
 800190e:	2b04      	cmp	r3, #4
 8001910:	d002      	beq.n	8001918 <HAL_RCC_GetSysClockFreq+0x30>
 8001912:	2b08      	cmp	r3, #8
 8001914:	d003      	beq.n	800191e <HAL_RCC_GetSysClockFreq+0x36>
 8001916:	e027      	b.n	8001968 <HAL_RCC_GetSysClockFreq+0x80>
  {
    case RCC_SYSCLKSOURCE_STATUS_HSE:  /* HSE used as system clock */
    {
      sysclockfreq = HSE_VALUE;
 8001918:	4b19      	ldr	r3, [pc, #100]	; (8001980 <HAL_RCC_GetSysClockFreq+0x98>)
 800191a:	613b      	str	r3, [r7, #16]
      break;
 800191c:	e027      	b.n	800196e <HAL_RCC_GetSysClockFreq+0x86>
    }
    case RCC_SYSCLKSOURCE_STATUS_PLLCLK:  /* PLL used as system clock */
    {
      pllmul = aPLLMULFactorTable[(uint32_t)(tmpreg & RCC_CFGR_PLLMULL) >> RCC_CFGR_PLLMULL_Pos];
 800191e:	68fb      	ldr	r3, [r7, #12]
 8001920:	0c9b      	lsrs	r3, r3, #18
 8001922:	f003 030f 	and.w	r3, r3, #15
 8001926:	4a17      	ldr	r2, [pc, #92]	; (8001984 <HAL_RCC_GetSysClockFreq+0x9c>)
 8001928:	5cd3      	ldrb	r3, [r2, r3]
 800192a:	607b      	str	r3, [r7, #4]
      if ((tmpreg & RCC_CFGR_PLLSRC) != RCC_PLLSOURCE_HSI_DIV2)
 800192c:	68fb      	ldr	r3, [r7, #12]
 800192e:	f403 3380 	and.w	r3, r3, #65536	; 0x10000
 8001932:	2b00      	cmp	r3, #0
 8001934:	d010      	beq.n	8001958 <HAL_RCC_GetSysClockFreq+0x70>
      {
#if defined(RCC_CFGR2_PREDIV1)
        prediv = aPredivFactorTable[(uint32_t)(RCC->CFGR2 & RCC_CFGR2_PREDIV1) >> RCC_CFGR2_PREDIV1_Pos];
#else
        prediv = aPredivFactorTable[(uint32_t)(RCC->CFGR & RCC_CFGR_PLLXTPRE) >> RCC_CFGR_PLLXTPRE_Pos];
 8001936:	4b11      	ldr	r3, [pc, #68]	; (800197c <HAL_RCC_GetSysClockFreq+0x94>)
 8001938:	685b      	ldr	r3, [r3, #4]
 800193a:	0c5b      	lsrs	r3, r3, #17
 800193c:	f003 0301 	and.w	r3, r3, #1
 8001940:	4a11      	ldr	r2, [pc, #68]	; (8001988 <HAL_RCC_GetSysClockFreq+0xa0>)
 8001942:	5cd3      	ldrb	r3, [r2, r3]
 8001944:	60bb      	str	r3, [r7, #8]
        {
          pllclk = pllclk / 2;
        }
#else
        /* HSE used as PLL clock source : PLLCLK = HSE/PREDIV1 * PLLMUL */
        pllclk = (uint32_t)((HSE_VALUE  * pllmul) / prediv);
 8001946:	687b      	ldr	r3, [r7, #4]
 8001948:	4a0d      	ldr	r2, [pc, #52]	; (8001980 <HAL_RCC_GetSysClockFreq+0x98>)
 800194a:	fb03 f202 	mul.w	r2, r3, r2
 800194e:	68bb      	ldr	r3, [r7, #8]
 8001950:	fbb2 f3f3 	udiv	r3, r2, r3
 8001954:	617b      	str	r3, [r7, #20]
 8001956:	e004      	b.n	8001962 <HAL_RCC_GetSysClockFreq+0x7a>
#endif /*RCC_CFGR2_PREDIV1SRC*/
      }
      else
      {
        /* HSI used as PLL clock source : PLLCLK = HSI/2 * PLLMUL */
        pllclk = (uint32_t)((HSI_VALUE >> 1) * pllmul);
 8001958:	687b      	ldr	r3, [r7, #4]
 800195a:	4a0c      	ldr	r2, [pc, #48]	; (800198c <HAL_RCC_GetSysClockFreq+0xa4>)
 800195c:	fb02 f303 	mul.w	r3, r2, r3
 8001960:	617b      	str	r3, [r7, #20]
      }
      sysclockfreq = pllclk;
 8001962:	697b      	ldr	r3, [r7, #20]
 8001964:	613b      	str	r3, [r7, #16]
      break;
 8001966:	e002      	b.n	800196e <HAL_RCC_GetSysClockFreq+0x86>
    }
    case RCC_SYSCLKSOURCE_STATUS_HSI:  /* HSI used as system clock source */
    default: /* HSI used as system clock */
    {
      sysclockfreq = HSI_VALUE;
 8001968:	4b05      	ldr	r3, [pc, #20]	; (8001980 <HAL_RCC_GetSysClockFreq+0x98>)
 800196a:	613b      	str	r3, [r7, #16]
      break;
 800196c:	bf00      	nop
    }
  }
  return sysclockfreq;
 800196e:	693b      	ldr	r3, [r7, #16]
}
 8001970:	4618      	mov	r0, r3
 8001972:	371c      	adds	r7, #28
 8001974:	46bd      	mov	sp, r7
 8001976:	bc80      	pop	{r7}
 8001978:	4770      	bx	lr
 800197a:	bf00      	nop
 800197c:	40021000 	.word	0x40021000
 8001980:	007a1200 	.word	0x007a1200
 8001984:	0800221c 	.word	0x0800221c
 8001988:	0800222c 	.word	0x0800222c
 800198c:	003d0900 	.word	0x003d0900

08001990 <RCC_Delay>:
  * @brief  This function provides delay (in milliseconds) based on CPU cycles method.
  * @param  mdelay: specifies the delay time length, in milliseconds.
  * @retval None
  */
static void RCC_Delay(uint32_t mdelay)
{
 8001990:	b480      	push	{r7}
 8001992:	b085      	sub	sp, #20
 8001994:	af00      	add	r7, sp, #0
 8001996:	6078      	str	r0, [r7, #4]
  __IO uint32_t Delay = mdelay * (SystemCoreClock / 8U / 1000U);
 8001998:	4b0a      	ldr	r3, [pc, #40]	; (80019c4 <RCC_Delay+0x34>)
 800199a:	681b      	ldr	r3, [r3, #0]
 800199c:	4a0a      	ldr	r2, [pc, #40]	; (80019c8 <RCC_Delay+0x38>)
 800199e:	fba2 2303 	umull	r2, r3, r2, r3
 80019a2:	0a5b      	lsrs	r3, r3, #9
 80019a4:	687a      	ldr	r2, [r7, #4]
 80019a6:	fb02 f303 	mul.w	r3, r2, r3
 80019aa:	60fb      	str	r3, [r7, #12]
  do
  {
    __NOP();
 80019ac:	bf00      	nop
  }
  while (Delay --);
 80019ae:	68fb      	ldr	r3, [r7, #12]
 80019b0:	1e5a      	subs	r2, r3, #1
 80019b2:	60fa      	str	r2, [r7, #12]
 80019b4:	2b00      	cmp	r3, #0
 80019b6:	d1f9      	bne.n	80019ac <RCC_Delay+0x1c>
}
 80019b8:	bf00      	nop
 80019ba:	bf00      	nop
 80019bc:	3714      	adds	r7, #20
 80019be:	46bd      	mov	sp, r7
 80019c0:	bc80      	pop	{r7}
 80019c2:	4770      	bx	lr
 80019c4:	20000010 	.word	0x20000010
 80019c8:	10624dd3 	.word	0x10624dd3

080019cc <HAL_TIM_Base_Init>:
  *         Ex: call @ref HAL_TIM_Base_DeInit() before HAL_TIM_Base_Init()
  * @param  htim TIM Base handle
  * @retval HAL status
  */
HAL_StatusTypeDef HAL_TIM_Base_Init(TIM_HandleTypeDef *htim)
{
 80019cc:	b580      	push	{r7, lr}
 80019ce:	b082      	sub	sp, #8
 80019d0:	af00      	add	r7, sp, #0
 80019d2:	6078      	str	r0, [r7, #4]
  /* Check the TIM handle allocation */
  if (htim == NULL)
 80019d4:	687b      	ldr	r3, [r7, #4]
 80019d6:	2b00      	cmp	r3, #0
 80019d8:	d101      	bne.n	80019de <HAL_TIM_Base_Init+0x12>
  {
    return HAL_ERROR;
 80019da:	2301      	movs	r3, #1
 80019dc:	e041      	b.n	8001a62 <HAL_TIM_Base_Init+0x96>
  assert_param(IS_TIM_COUNTER_MODE(htim->Init.CounterMode));
  assert_param(IS_TIM_CLOCKDIVISION_DIV(htim->Init.ClockDivision));
  assert_param(IS_TIM_PERIOD(htim->Init.Period));
  assert_param(IS_TIM_AUTORELOAD_PRELOAD(htim->Init.AutoReloadPreload));

  if (htim->State == HAL_TIM_STATE_RESET)
 80019de:	687b      	ldr	r3, [r7, #4]
 80019e0:	f893 303d 	ldrb.w	r3, [r3, #61]	; 0x3d
 80019e4:	b2db      	uxtb	r3, r3
 80019e6:	2b00      	cmp	r3, #0
 80019e8:	d106      	bne.n	80019f8 <HAL_TIM_Base_Init+0x2c>
  {
    /* Allocate lock resource and initialize it */
    htim->Lock = HAL_UNLOCKED;
 80019ea:	687b      	ldr	r3, [r7, #4]
 80019ec:	2200      	movs	r2, #0
 80019ee:	f883 203c 	strb.w	r2, [r3, #60]	; 0x3c
    }
    /* Init the low level hardware : GPIO, CLOCK, NVIC */
    htim->Base_MspInitCallback(htim);
#else
    /* Init the low level hardware : GPIO, CLOCK, NVIC */
    HAL_TIM_Base_MspInit(htim);
 80019f2:	6878      	ldr	r0, [r7, #4]
 80019f4:	f7ff f886 	bl	8000b04 <HAL_TIM_Base_MspInit>
#endif /* USE_HAL_TIM_REGISTER_CALLBACKS */
  }

  /* Set the TIM state */
  htim->State = HAL_TIM_STATE_BUSY;
 80019f8:	687b      	ldr	r3, [r7, #4]
 80019fa:	2202      	movs	r2, #2
 80019fc:	f883 203d 	strb.w	r2, [r3, #61]	; 0x3d

  /* Set the Time Base configuration */
  TIM_Base_SetConfig(htim->Instance, &htim->Init);
 8001a00:	687b      	ldr	r3, [r7, #4]
 8001a02:	681a      	ldr	r2, [r3, #0]
 8001a04:	687b      	ldr	r3, [r7, #4]
 8001a06:	3304      	adds	r3, #4
 8001a08:	4619      	mov	r1, r3
 8001a0a:	4610      	mov	r0, r2
 8001a0c:	f000 fa6e 	bl	8001eec <TIM_Base_SetConfig>

  /* Initialize the DMA burst operation state */
  htim->DMABurstState = HAL_DMA_BURST_STATE_READY;
 8001a10:	687b      	ldr	r3, [r7, #4]
 8001a12:	2201      	movs	r2, #1
 8001a14:	f883 2046 	strb.w	r2, [r3, #70]	; 0x46

  /* Initialize the TIM channels state */
  TIM_CHANNEL_STATE_SET_ALL(htim, HAL_TIM_CHANNEL_STATE_READY);
 8001a18:	687b      	ldr	r3, [r7, #4]
 8001a1a:	2201      	movs	r2, #1
 8001a1c:	f883 203e 	strb.w	r2, [r3, #62]	; 0x3e
 8001a20:	687b      	ldr	r3, [r7, #4]
 8001a22:	2201      	movs	r2, #1
 8001a24:	f883 203f 	strb.w	r2, [r3, #63]	; 0x3f
 8001a28:	687b      	ldr	r3, [r7, #4]
 8001a2a:	2201      	movs	r2, #1
 8001a2c:	f883 2040 	strb.w	r2, [r3, #64]	; 0x40
 8001a30:	687b      	ldr	r3, [r7, #4]
 8001a32:	2201      	movs	r2, #1
 8001a34:	f883 2041 	strb.w	r2, [r3, #65]	; 0x41
  TIM_CHANNEL_N_STATE_SET_ALL(htim, HAL_TIM_CHANNEL_STATE_READY);
 8001a38:	687b      	ldr	r3, [r7, #4]
 8001a3a:	2201      	movs	r2, #1
 8001a3c:	f883 2042 	strb.w	r2, [r3, #66]	; 0x42
 8001a40:	687b      	ldr	r3, [r7, #4]
 8001a42:	2201      	movs	r2, #1
 8001a44:	f883 2043 	strb.w	r2, [r3, #67]	; 0x43
 8001a48:	687b      	ldr	r3, [r7, #4]
 8001a4a:	2201      	movs	r2, #1
 8001a4c:	f883 2044 	strb.w	r2, [r3, #68]	; 0x44
 8001a50:	687b      	ldr	r3, [r7, #4]
 8001a52:	2201      	movs	r2, #1
 8001a54:	f883 2045 	strb.w	r2, [r3, #69]	; 0x45

  /* Initialize the TIM state*/
  htim->State = HAL_TIM_STATE_READY;
 8001a58:	687b      	ldr	r3, [r7, #4]
 8001a5a:	2201      	movs	r2, #1
 8001a5c:	f883 203d 	strb.w	r2, [r3, #61]	; 0x3d

  return HAL_OK;
 8001a60:	2300      	movs	r3, #0
}
 8001a62:	4618      	mov	r0, r3
 8001a64:	3708      	adds	r7, #8
 8001a66:	46bd      	mov	sp, r7
 8001a68:	bd80      	pop	{r7, pc}
	...

08001a6c <HAL_TIM_Base_Start_IT>:
  * @brief  Starts the TIM Base generation in interrupt mode.
  * @param  htim TIM Base handle
  * @retval HAL status
  */
HAL_StatusTypeDef HAL_TIM_Base_Start_IT(TIM_HandleTypeDef *htim)
{
 8001a6c:	b480      	push	{r7}
 8001a6e:	b085      	sub	sp, #20
 8001a70:	af00      	add	r7, sp, #0
 8001a72:	6078      	str	r0, [r7, #4]

  /* Check the parameters */
  assert_param(IS_TIM_INSTANCE(htim->Instance));

  /* Check the TIM state */
  if (htim->State != HAL_TIM_STATE_READY)
 8001a74:	687b      	ldr	r3, [r7, #4]
 8001a76:	f893 303d 	ldrb.w	r3, [r3, #61]	; 0x3d
 8001a7a:	b2db      	uxtb	r3, r3
 8001a7c:	2b01      	cmp	r3, #1
 8001a7e:	d001      	beq.n	8001a84 <HAL_TIM_Base_Start_IT+0x18>
  {
    return HAL_ERROR;
 8001a80:	2301      	movs	r3, #1
 8001a82:	e035      	b.n	8001af0 <HAL_TIM_Base_Start_IT+0x84>
  }

  /* Set the TIM state */
  htim->State = HAL_TIM_STATE_BUSY;
 8001a84:	687b      	ldr	r3, [r7, #4]
 8001a86:	2202      	movs	r2, #2
 8001a88:	f883 203d 	strb.w	r2, [r3, #61]	; 0x3d

  /* Enable the TIM Update interrupt */
  __HAL_TIM_ENABLE_IT(htim, TIM_IT_UPDATE);
 8001a8c:	687b      	ldr	r3, [r7, #4]
 8001a8e:	681b      	ldr	r3, [r3, #0]
 8001a90:	68da      	ldr	r2, [r3, #12]
 8001a92:	687b      	ldr	r3, [r7, #4]
 8001a94:	681b      	ldr	r3, [r3, #0]
 8001a96:	f042 0201 	orr.w	r2, r2, #1
 8001a9a:	60da      	str	r2, [r3, #12]

  /* Enable the Peripheral, except in trigger mode where enable is automatically done with trigger */
  if (IS_TIM_SLAVE_INSTANCE(htim->Instance))
 8001a9c:	687b      	ldr	r3, [r7, #4]
 8001a9e:	681b      	ldr	r3, [r3, #0]
 8001aa0:	4a16      	ldr	r2, [pc, #88]	; (8001afc <HAL_TIM_Base_Start_IT+0x90>)
 8001aa2:	4293      	cmp	r3, r2
 8001aa4:	d009      	beq.n	8001aba <HAL_TIM_Base_Start_IT+0x4e>
 8001aa6:	687b      	ldr	r3, [r7, #4]
 8001aa8:	681b      	ldr	r3, [r3, #0]
 8001aaa:	f1b3 4f80 	cmp.w	r3, #1073741824	; 0x40000000
 8001aae:	d004      	beq.n	8001aba <HAL_TIM_Base_Start_IT+0x4e>
 8001ab0:	687b      	ldr	r3, [r7, #4]
 8001ab2:	681b      	ldr	r3, [r3, #0]
 8001ab4:	4a12      	ldr	r2, [pc, #72]	; (8001b00 <HAL_TIM_Base_Start_IT+0x94>)
 8001ab6:	4293      	cmp	r3, r2
 8001ab8:	d111      	bne.n	8001ade <HAL_TIM_Base_Start_IT+0x72>
  {
    tmpsmcr = htim->Instance->SMCR & TIM_SMCR_SMS;
 8001aba:	687b      	ldr	r3, [r7, #4]
 8001abc:	681b      	ldr	r3, [r3, #0]
 8001abe:	689b      	ldr	r3, [r3, #8]
 8001ac0:	f003 0307 	and.w	r3, r3, #7
 8001ac4:	60fb      	str	r3, [r7, #12]
    if (!IS_TIM_SLAVEMODE_TRIGGER_ENABLED(tmpsmcr))
 8001ac6:	68fb      	ldr	r3, [r7, #12]
 8001ac8:	2b06      	cmp	r3, #6
 8001aca:	d010      	beq.n	8001aee <HAL_TIM_Base_Start_IT+0x82>
    {
      __HAL_TIM_ENABLE(htim);
 8001acc:	687b      	ldr	r3, [r7, #4]
 8001ace:	681b      	ldr	r3, [r3, #0]
 8001ad0:	681a      	ldr	r2, [r3, #0]
 8001ad2:	687b      	ldr	r3, [r7, #4]
 8001ad4:	681b      	ldr	r3, [r3, #0]
 8001ad6:	f042 0201 	orr.w	r2, r2, #1
 8001ada:	601a      	str	r2, [r3, #0]
    if (!IS_TIM_SLAVEMODE_TRIGGER_ENABLED(tmpsmcr))
 8001adc:	e007      	b.n	8001aee <HAL_TIM_Base_Start_IT+0x82>
    }
  }
  else
  {
    __HAL_TIM_ENABLE(htim);
 8001ade:	687b      	ldr	r3, [r7, #4]
 8001ae0:	681b      	ldr	r3, [r3, #0]
 8001ae2:	681a      	ldr	r2, [r3, #0]
 8001ae4:	687b      	ldr	r3, [r7, #4]
 8001ae6:	681b      	ldr	r3, [r3, #0]
 8001ae8:	f042 0201 	orr.w	r2, r2, #1
 8001aec:	601a      	str	r2, [r3, #0]
  }

  /* Return function status */
  return HAL_OK;
 8001aee:	2300      	movs	r3, #0
}
 8001af0:	4618      	mov	r0, r3
 8001af2:	3714      	adds	r7, #20
 8001af4:	46bd      	mov	sp, r7
 8001af6:	bc80      	pop	{r7}
 8001af8:	4770      	bx	lr
 8001afa:	bf00      	nop
 8001afc:	40012c00 	.word	0x40012c00
 8001b00:	40000400 	.word	0x40000400

08001b04 <HAL_TIM_IRQHandler>:
  * @brief  This function handles TIM interrupts requests.
  * @param  htim TIM  handle
  * @retval None
  */
void HAL_TIM_IRQHandler(TIM_HandleTypeDef *htim)
{
 8001b04:	b580      	push	{r7, lr}
 8001b06:	b082      	sub	sp, #8
 8001b08:	af00      	add	r7, sp, #0
 8001b0a:	6078      	str	r0, [r7, #4]
  /* Capture compare 1 event */
  if (__HAL_TIM_GET_FLAG(htim, TIM_FLAG_CC1) != RESET)
 8001b0c:	687b      	ldr	r3, [r7, #4]
 8001b0e:	681b      	ldr	r3, [r3, #0]
 8001b10:	691b      	ldr	r3, [r3, #16]
 8001b12:	f003 0302 	and.w	r3, r3, #2
 8001b16:	2b02      	cmp	r3, #2
 8001b18:	d122      	bne.n	8001b60 <HAL_TIM_IRQHandler+0x5c>
  {
    if (__HAL_TIM_GET_IT_SOURCE(htim, TIM_IT_CC1) != RESET)
 8001b1a:	687b      	ldr	r3, [r7, #4]
 8001b1c:	681b      	ldr	r3, [r3, #0]
 8001b1e:	68db      	ldr	r3, [r3, #12]
 8001b20:	f003 0302 	and.w	r3, r3, #2
 8001b24:	2b02      	cmp	r3, #2
 8001b26:	d11b      	bne.n	8001b60 <HAL_TIM_IRQHandler+0x5c>
    {
      {
        __HAL_TIM_CLEAR_IT(htim, TIM_IT_CC1);
 8001b28:	687b      	ldr	r3, [r7, #4]
 8001b2a:	681b      	ldr	r3, [r3, #0]
 8001b2c:	f06f 0202 	mvn.w	r2, #2
 8001b30:	611a      	str	r2, [r3, #16]
        htim->Channel = HAL_TIM_ACTIVE_CHANNEL_1;
 8001b32:	687b      	ldr	r3, [r7, #4]
 8001b34:	2201      	movs	r2, #1
 8001b36:	771a      	strb	r2, [r3, #28]

        /* Input capture event */
        if ((htim->Instance->CCMR1 & TIM_CCMR1_CC1S) != 0x00U)
 8001b38:	687b      	ldr	r3, [r7, #4]
 8001b3a:	681b      	ldr	r3, [r3, #0]
 8001b3c:	699b      	ldr	r3, [r3, #24]
 8001b3e:	f003 0303 	and.w	r3, r3, #3
 8001b42:	2b00      	cmp	r3, #0
 8001b44:	d003      	beq.n	8001b4e <HAL_TIM_IRQHandler+0x4a>
        {
#if (USE_HAL_TIM_REGISTER_CALLBACKS == 1)
          htim->IC_CaptureCallback(htim);
#else
          HAL_TIM_IC_CaptureCallback(htim);
 8001b46:	6878      	ldr	r0, [r7, #4]
 8001b48:	f000 f9b4 	bl	8001eb4 <HAL_TIM_IC_CaptureCallback>
 8001b4c:	e005      	b.n	8001b5a <HAL_TIM_IRQHandler+0x56>
        {
#if (USE_HAL_TIM_REGISTER_CALLBACKS == 1)
          htim->OC_DelayElapsedCallback(htim);
          htim->PWM_PulseFinishedCallback(htim);
#else
          HAL_TIM_OC_DelayElapsedCallback(htim);
 8001b4e:	6878      	ldr	r0, [r7, #4]
 8001b50:	f000 f9a7 	bl	8001ea2 <HAL_TIM_OC_DelayElapsedCallback>
          HAL_TIM_PWM_PulseFinishedCallback(htim);
 8001b54:	6878      	ldr	r0, [r7, #4]
 8001b56:	f000 f9b6 	bl	8001ec6 <HAL_TIM_PWM_PulseFinishedCallback>
#endif /* USE_HAL_TIM_REGISTER_CALLBACKS */
        }
        htim->Channel = HAL_TIM_ACTIVE_CHANNEL_CLEARED;
 8001b5a:	687b      	ldr	r3, [r7, #4]
 8001b5c:	2200      	movs	r2, #0
 8001b5e:	771a      	strb	r2, [r3, #28]
      }
    }
  }
  /* Capture compare 2 event */
  if (__HAL_TIM_GET_FLAG(htim, TIM_FLAG_CC2) != RESET)
 8001b60:	687b      	ldr	r3, [r7, #4]
 8001b62:	681b      	ldr	r3, [r3, #0]
 8001b64:	691b      	ldr	r3, [r3, #16]
 8001b66:	f003 0304 	and.w	r3, r3, #4
 8001b6a:	2b04      	cmp	r3, #4
 8001b6c:	d122      	bne.n	8001bb4 <HAL_TIM_IRQHandler+0xb0>
  {
    if (__HAL_TIM_GET_IT_SOURCE(htim, TIM_IT_CC2) != RESET)
 8001b6e:	687b      	ldr	r3, [r7, #4]
 8001b70:	681b      	ldr	r3, [r3, #0]
 8001b72:	68db      	ldr	r3, [r3, #12]
 8001b74:	f003 0304 	and.w	r3, r3, #4
 8001b78:	2b04      	cmp	r3, #4
 8001b7a:	d11b      	bne.n	8001bb4 <HAL_TIM_IRQHandler+0xb0>
    {
      __HAL_TIM_CLEAR_IT(htim, TIM_IT_CC2);
 8001b7c:	687b      	ldr	r3, [r7, #4]
 8001b7e:	681b      	ldr	r3, [r3, #0]
 8001b80:	f06f 0204 	mvn.w	r2, #4
 8001b84:	611a      	str	r2, [r3, #16]
      htim->Channel = HAL_TIM_ACTIVE_CHANNEL_2;
 8001b86:	687b      	ldr	r3, [r7, #4]
 8001b88:	2202      	movs	r2, #2
 8001b8a:	771a      	strb	r2, [r3, #28]
      /* Input capture event */
      if ((htim->Instance->CCMR1 & TIM_CCMR1_CC2S) != 0x00U)
 8001b8c:	687b      	ldr	r3, [r7, #4]
 8001b8e:	681b      	ldr	r3, [r3, #0]
 8001b90:	699b      	ldr	r3, [r3, #24]
 8001b92:	f403 7340 	and.w	r3, r3, #768	; 0x300
 8001b96:	2b00      	cmp	r3, #0
 8001b98:	d003      	beq.n	8001ba2 <HAL_TIM_IRQHandler+0x9e>
      {
#if (USE_HAL_TIM_REGISTER_CALLBACKS == 1)
        htim->IC_CaptureCallback(htim);
#else
        HAL_TIM_IC_CaptureCallback(htim);
 8001b9a:	6878      	ldr	r0, [r7, #4]
 8001b9c:	f000 f98a 	bl	8001eb4 <HAL_TIM_IC_CaptureCallback>
 8001ba0:	e005      	b.n	8001bae <HAL_TIM_IRQHandler+0xaa>
      {
#if (USE_HAL_TIM_REGISTER_CALLBACKS == 1)
        htim->OC_DelayElapsedCallback(htim);
        htim->PWM_PulseFinishedCallback(htim);
#else
        HAL_TIM_OC_DelayElapsedCallback(htim);
 8001ba2:	6878      	ldr	r0, [r7, #4]
 8001ba4:	f000 f97d 	bl	8001ea2 <HAL_TIM_OC_DelayElapsedCallback>
        HAL_TIM_PWM_PulseFinishedCallback(htim);
 8001ba8:	6878      	ldr	r0, [r7, #4]
 8001baa:	f000 f98c 	bl	8001ec6 <HAL_TIM_PWM_PulseFinishedCallback>
#endif /* USE_HAL_TIM_REGISTER_CALLBACKS */
      }
      htim->Channel = HAL_TIM_ACTIVE_CHANNEL_CLEARED;
 8001bae:	687b      	ldr	r3, [r7, #4]
 8001bb0:	2200      	movs	r2, #0
 8001bb2:	771a      	strb	r2, [r3, #28]
    }
  }
  /* Capture compare 3 event */
  if (__HAL_TIM_GET_FLAG(htim, TIM_FLAG_CC3) != RESET)
 8001bb4:	687b      	ldr	r3, [r7, #4]
 8001bb6:	681b      	ldr	r3, [r3, #0]
 8001bb8:	691b      	ldr	r3, [r3, #16]
 8001bba:	f003 0308 	and.w	r3, r3, #8
 8001bbe:	2b08      	cmp	r3, #8
 8001bc0:	d122      	bne.n	8001c08 <HAL_TIM_IRQHandler+0x104>
  {
    if (__HAL_TIM_GET_IT_SOURCE(htim, TIM_IT_CC3) != RESET)
 8001bc2:	687b      	ldr	r3, [r7, #4]
 8001bc4:	681b      	ldr	r3, [r3, #0]
 8001bc6:	68db      	ldr	r3, [r3, #12]
 8001bc8:	f003 0308 	and.w	r3, r3, #8
 8001bcc:	2b08      	cmp	r3, #8
 8001bce:	d11b      	bne.n	8001c08 <HAL_TIM_IRQHandler+0x104>
    {
      __HAL_TIM_CLEAR_IT(htim, TIM_IT_CC3);
 8001bd0:	687b      	ldr	r3, [r7, #4]
 8001bd2:	681b      	ldr	r3, [r3, #0]
 8001bd4:	f06f 0208 	mvn.w	r2, #8
 8001bd8:	611a      	str	r2, [r3, #16]
      htim->Channel = HAL_TIM_ACTIVE_CHANNEL_3;
 8001bda:	687b      	ldr	r3, [r7, #4]
 8001bdc:	2204      	movs	r2, #4
 8001bde:	771a      	strb	r2, [r3, #28]
      /* Input capture event */
      if ((htim->Instance->CCMR2 & TIM_CCMR2_CC3S) != 0x00U)
 8001be0:	687b      	ldr	r3, [r7, #4]
 8001be2:	681b      	ldr	r3, [r3, #0]
 8001be4:	69db      	ldr	r3, [r3, #28]
 8001be6:	f003 0303 	and.w	r3, r3, #3
 8001bea:	2b00      	cmp	r3, #0
 8001bec:	d003      	beq.n	8001bf6 <HAL_TIM_IRQHandler+0xf2>
      {
#if (USE_HAL_TIM_REGISTER_CALLBACKS == 1)
        htim->IC_CaptureCallback(htim);
#else
        HAL_TIM_IC_CaptureCallback(htim);
 8001bee:	6878      	ldr	r0, [r7, #4]
 8001bf0:	f000 f960 	bl	8001eb4 <HAL_TIM_IC_CaptureCallback>
 8001bf4:	e005      	b.n	8001c02 <HAL_TIM_IRQHandler+0xfe>
      {
#if (USE_HAL_TIM_REGISTER_CALLBACKS == 1)
        htim->OC_DelayElapsedCallback(htim);
        htim->PWM_PulseFinishedCallback(htim);
#else
        HAL_TIM_OC_DelayElapsedCallback(htim);
 8001bf6:	6878      	ldr	r0, [r7, #4]
 8001bf8:	f000 f953 	bl	8001ea2 <HAL_TIM_OC_DelayElapsedCallback>
        HAL_TIM_PWM_PulseFinishedCallback(htim);
 8001bfc:	6878      	ldr	r0, [r7, #4]
 8001bfe:	f000 f962 	bl	8001ec6 <HAL_TIM_PWM_PulseFinishedCallback>
#endif /* USE_HAL_TIM_REGISTER_CALLBACKS */
      }
      htim->Channel = HAL_TIM_ACTIVE_CHANNEL_CLEARED;
 8001c02:	687b      	ldr	r3, [r7, #4]
 8001c04:	2200      	movs	r2, #0
 8001c06:	771a      	strb	r2, [r3, #28]
    }
  }
  /* Capture compare 4 event */
  if (__HAL_TIM_GET_FLAG(htim, TIM_FLAG_CC4) != RESET)
 8001c08:	687b      	ldr	r3, [r7, #4]
 8001c0a:	681b      	ldr	r3, [r3, #0]
 8001c0c:	691b      	ldr	r3, [r3, #16]
 8001c0e:	f003 0310 	and.w	r3, r3, #16
 8001c12:	2b10      	cmp	r3, #16
 8001c14:	d122      	bne.n	8001c5c <HAL_TIM_IRQHandler+0x158>
  {
    if (__HAL_TIM_GET_IT_SOURCE(htim, TIM_IT_CC4) != RESET)
 8001c16:	687b      	ldr	r3, [r7, #4]
 8001c18:	681b      	ldr	r3, [r3, #0]
 8001c1a:	68db      	ldr	r3, [r3, #12]
 8001c1c:	f003 0310 	and.w	r3, r3, #16
 8001c20:	2b10      	cmp	r3, #16
 8001c22:	d11b      	bne.n	8001c5c <HAL_TIM_IRQHandler+0x158>
    {
      __HAL_TIM_CLEAR_IT(htim, TIM_IT_CC4);
 8001c24:	687b      	ldr	r3, [r7, #4]
 8001c26:	681b      	ldr	r3, [r3, #0]
 8001c28:	f06f 0210 	mvn.w	r2, #16
 8001c2c:	611a      	str	r2, [r3, #16]
      htim->Channel = HAL_TIM_ACTIVE_CHANNEL_4;
 8001c2e:	687b      	ldr	r3, [r7, #4]
 8001c30:	2208      	movs	r2, #8
 8001c32:	771a      	strb	r2, [r3, #28]
      /* Input capture event */
      if ((htim->Instance->CCMR2 & TIM_CCMR2_CC4S) != 0x00U)
 8001c34:	687b      	ldr	r3, [r7, #4]
 8001c36:	681b      	ldr	r3, [r3, #0]
 8001c38:	69db      	ldr	r3, [r3, #28]
 8001c3a:	f403 7340 	and.w	r3, r3, #768	; 0x300
 8001c3e:	2b00      	cmp	r3, #0
 8001c40:	d003      	beq.n	8001c4a <HAL_TIM_IRQHandler+0x146>
      {
#if (USE_HAL_TIM_REGISTER_CALLBACKS == 1)
        htim->IC_CaptureCallback(htim);
#else
        HAL_TIM_IC_CaptureCallback(htim);
 8001c42:	6878      	ldr	r0, [r7, #4]
 8001c44:	f000 f936 	bl	8001eb4 <HAL_TIM_IC_CaptureCallback>
 8001c48:	e005      	b.n	8001c56 <HAL_TIM_IRQHandler+0x152>
      {
#if (USE_HAL_TIM_REGISTER_CALLBACKS == 1)
        htim->OC_DelayElapsedCallback(htim);
        htim->PWM_PulseFinishedCallback(htim);
#else
        HAL_TIM_OC_DelayElapsedCallback(htim);
 8001c4a:	6878      	ldr	r0, [r7, #4]
 8001c4c:	f000 f929 	bl	8001ea2 <HAL_TIM_OC_DelayElapsedCallback>
        HAL_TIM_PWM_PulseFinishedCallback(htim);
 8001c50:	6878      	ldr	r0, [r7, #4]
 8001c52:	f000 f938 	bl	8001ec6 <HAL_TIM_PWM_PulseFinishedCallback>
#endif /* USE_HAL_TIM_REGISTER_CALLBACKS */
      }
      htim->Channel = HAL_TIM_ACTIVE_CHANNEL_CLEARED;
 8001c56:	687b      	ldr	r3, [r7, #4]
 8001c58:	2200      	movs	r2, #0
 8001c5a:	771a      	strb	r2, [r3, #28]
    }
  }
  /* TIM Update event */
  if (__HAL_TIM_GET_FLAG(htim, TIM_FLAG_UPDATE) != RESET)
 8001c5c:	687b      	ldr	r3, [r7, #4]
 8001c5e:	681b      	ldr	r3, [r3, #0]
 8001c60:	691b      	ldr	r3, [r3, #16]
 8001c62:	f003 0301 	and.w	r3, r3, #1
 8001c66:	2b01      	cmp	r3, #1
 8001c68:	d10e      	bne.n	8001c88 <HAL_TIM_IRQHandler+0x184>
  {
    if (__HAL_TIM_GET_IT_SOURCE(htim, TIM_IT_UPDATE) != RESET)
 8001c6a:	687b      	ldr	r3, [r7, #4]
 8001c6c:	681b      	ldr	r3, [r3, #0]
 8001c6e:	68db      	ldr	r3, [r3, #12]
 8001c70:	f003 0301 	and.w	r3, r3, #1
 8001c74:	2b01      	cmp	r3, #1
 8001c76:	d107      	bne.n	8001c88 <HAL_TIM_IRQHandler+0x184>
    {
      __HAL_TIM_CLEAR_IT(htim, TIM_IT_UPDATE);
 8001c78:	687b      	ldr	r3, [r7, #4]
 8001c7a:	681b      	ldr	r3, [r3, #0]
 8001c7c:	f06f 0201 	mvn.w	r2, #1
 8001c80:	611a      	str	r2, [r3, #16]
#if (USE_HAL_TIM_REGISTER_CALLBACKS == 1)
      htim->PeriodElapsedCallback(htim);
#else
      HAL_TIM_PeriodElapsedCallback(htim);
 8001c82:	6878      	ldr	r0, [r7, #4]
 8001c84:	f7fe fe76 	bl	8000974 <HAL_TIM_PeriodElapsedCallback>
#endif /* USE_HAL_TIM_REGISTER_CALLBACKS */
    }
  }
  /* TIM Break input event */
  if (__HAL_TIM_GET_FLAG(htim, TIM_FLAG_BREAK) != RESET)
 8001c88:	687b      	ldr	r3, [r7, #4]
 8001c8a:	681b      	ldr	r3, [r3, #0]
 8001c8c:	691b      	ldr	r3, [r3, #16]
 8001c8e:	f003 0380 	and.w	r3, r3, #128	; 0x80
 8001c92:	2b80      	cmp	r3, #128	; 0x80
 8001c94:	d10e      	bne.n	8001cb4 <HAL_TIM_IRQHandler+0x1b0>
  {
    if (__HAL_TIM_GET_IT_SOURCE(htim, TIM_IT_BREAK) != RESET)
 8001c96:	687b      	ldr	r3, [r7, #4]
 8001c98:	681b      	ldr	r3, [r3, #0]
 8001c9a:	68db      	ldr	r3, [r3, #12]
 8001c9c:	f003 0380 	and.w	r3, r3, #128	; 0x80
 8001ca0:	2b80      	cmp	r3, #128	; 0x80
 8001ca2:	d107      	bne.n	8001cb4 <HAL_TIM_IRQHandler+0x1b0>
    {
      __HAL_TIM_CLEAR_IT(htim, TIM_IT_BREAK);
 8001ca4:	687b      	ldr	r3, [r7, #4]
 8001ca6:	681b      	ldr	r3, [r3, #0]
 8001ca8:	f06f 0280 	mvn.w	r2, #128	; 0x80
 8001cac:	611a      	str	r2, [r3, #16]
#if (USE_HAL_TIM_REGISTER_CALLBACKS == 1)
      htim->BreakCallback(htim);
#else
      HAL_TIMEx_BreakCallback(htim);
 8001cae:	6878      	ldr	r0, [r7, #4]
 8001cb0:	f000 fa6b 	bl	800218a <HAL_TIMEx_BreakCallback>
#endif /* USE_HAL_TIM_REGISTER_CALLBACKS */
    }
  }
  /* TIM Trigger detection event */
  if (__HAL_TIM_GET_FLAG(htim, TIM_FLAG_TRIGGER) != RESET)
 8001cb4:	687b      	ldr	r3, [r7, #4]
 8001cb6:	681b      	ldr	r3, [r3, #0]
 8001cb8:	691b      	ldr	r3, [r3, #16]
 8001cba:	f003 0340 	and.w	r3, r3, #64	; 0x40
 8001cbe:	2b40      	cmp	r3, #64	; 0x40
 8001cc0:	d10e      	bne.n	8001ce0 <HAL_TIM_IRQHandler+0x1dc>
  {
    if (__HAL_TIM_GET_IT_SOURCE(htim, TIM_IT_TRIGGER) != RESET)
 8001cc2:	687b      	ldr	r3, [r7, #4]
 8001cc4:	681b      	ldr	r3, [r3, #0]
 8001cc6:	68db      	ldr	r3, [r3, #12]
 8001cc8:	f003 0340 	and.w	r3, r3, #64	; 0x40
 8001ccc:	2b40      	cmp	r3, #64	; 0x40
 8001cce:	d107      	bne.n	8001ce0 <HAL_TIM_IRQHandler+0x1dc>
    {
      __HAL_TIM_CLEAR_IT(htim, TIM_IT_TRIGGER);
 8001cd0:	687b      	ldr	r3, [r7, #4]
 8001cd2:	681b      	ldr	r3, [r3, #0]
 8001cd4:	f06f 0240 	mvn.w	r2, #64	; 0x40
 8001cd8:	611a      	str	r2, [r3, #16]
#if (USE_HAL_TIM_REGISTER_CALLBACKS == 1)
      htim->TriggerCallback(htim);
#else
      HAL_TIM_TriggerCallback(htim);
 8001cda:	6878      	ldr	r0, [r7, #4]
 8001cdc:	f000 f8fc 	bl	8001ed8 <HAL_TIM_TriggerCallback>
#endif /* USE_HAL_TIM_REGISTER_CALLBACKS */
    }
  }
  /* TIM commutation event */
  if (__HAL_TIM_GET_FLAG(htim, TIM_FLAG_COM) != RESET)
 8001ce0:	687b      	ldr	r3, [r7, #4]
 8001ce2:	681b      	ldr	r3, [r3, #0]
 8001ce4:	691b      	ldr	r3, [r3, #16]
 8001ce6:	f003 0320 	and.w	r3, r3, #32
 8001cea:	2b20      	cmp	r3, #32
 8001cec:	d10e      	bne.n	8001d0c <HAL_TIM_IRQHandler+0x208>
  {
    if (__HAL_TIM_GET_IT_SOURCE(htim, TIM_IT_COM) != RESET)
 8001cee:	687b      	ldr	r3, [r7, #4]
 8001cf0:	681b      	ldr	r3, [r3, #0]
 8001cf2:	68db      	ldr	r3, [r3, #12]
 8001cf4:	f003 0320 	and.w	r3, r3, #32
 8001cf8:	2b20      	cmp	r3, #32
 8001cfa:	d107      	bne.n	8001d0c <HAL_TIM_IRQHandler+0x208>
    {
      __HAL_TIM_CLEAR_IT(htim, TIM_FLAG_COM);
 8001cfc:	687b      	ldr	r3, [r7, #4]
 8001cfe:	681b      	ldr	r3, [r3, #0]
 8001d00:	f06f 0220 	mvn.w	r2, #32
 8001d04:	611a      	str	r2, [r3, #16]
#if (USE_HAL_TIM_REGISTER_CALLBACKS == 1)
      htim->CommutationCallback(htim);
#else
      HAL_TIMEx_CommutCallback(htim);
 8001d06:	6878      	ldr	r0, [r7, #4]
 8001d08:	f000 fa36 	bl	8002178 <HAL_TIMEx_CommutCallback>
#endif /* USE_HAL_TIM_REGISTER_CALLBACKS */
    }
  }
}
 8001d0c:	bf00      	nop
 8001d0e:	3708      	adds	r7, #8
 8001d10:	46bd      	mov	sp, r7
 8001d12:	bd80      	pop	{r7, pc}

08001d14 <HAL_TIM_ConfigClockSource>:
  * @param  sClockSourceConfig pointer to a TIM_ClockConfigTypeDef structure that
  *         contains the clock source information for the TIM peripheral.
  * @retval HAL status
  */
HAL_StatusTypeDef HAL_TIM_ConfigClockSource(TIM_HandleTypeDef *htim, const TIM_ClockConfigTypeDef *sClockSourceConfig)
{
 8001d14:	b580      	push	{r7, lr}
 8001d16:	b084      	sub	sp, #16
 8001d18:	af00      	add	r7, sp, #0
 8001d1a:	6078      	str	r0, [r7, #4]
 8001d1c:	6039      	str	r1, [r7, #0]
  HAL_StatusTypeDef status = HAL_OK;
 8001d1e:	2300      	movs	r3, #0
 8001d20:	73fb      	strb	r3, [r7, #15]
  uint32_t tmpsmcr;

  /* Process Locked */
  __HAL_LOCK(htim);
 8001d22:	687b      	ldr	r3, [r7, #4]
 8001d24:	f893 303c 	ldrb.w	r3, [r3, #60]	; 0x3c
 8001d28:	2b01      	cmp	r3, #1
 8001d2a:	d101      	bne.n	8001d30 <HAL_TIM_ConfigClockSource+0x1c>
 8001d2c:	2302      	movs	r3, #2
 8001d2e:	e0b4      	b.n	8001e9a <HAL_TIM_ConfigClockSource+0x186>
 8001d30:	687b      	ldr	r3, [r7, #4]
 8001d32:	2201      	movs	r2, #1
 8001d34:	f883 203c 	strb.w	r2, [r3, #60]	; 0x3c

  htim->State = HAL_TIM_STATE_BUSY;
 8001d38:	687b      	ldr	r3, [r7, #4]
 8001d3a:	2202      	movs	r2, #2
 8001d3c:	f883 203d 	strb.w	r2, [r3, #61]	; 0x3d

  /* Check the parameters */
  assert_param(IS_TIM_CLOCKSOURCE(sClockSourceConfig->ClockSource));

  /* Reset the SMS, TS, ECE, ETPS and ETRF bits */
  tmpsmcr = htim->Instance->SMCR;
 8001d40:	687b      	ldr	r3, [r7, #4]
 8001d42:	681b      	ldr	r3, [r3, #0]
 8001d44:	689b      	ldr	r3, [r3, #8]
 8001d46:	60bb      	str	r3, [r7, #8]
  tmpsmcr &= ~(TIM_SMCR_SMS | TIM_SMCR_TS);
 8001d48:	68bb      	ldr	r3, [r7, #8]
 8001d4a:	f023 0377 	bic.w	r3, r3, #119	; 0x77
 8001d4e:	60bb      	str	r3, [r7, #8]
  tmpsmcr &= ~(TIM_SMCR_ETF | TIM_SMCR_ETPS | TIM_SMCR_ECE | TIM_SMCR_ETP);
 8001d50:	68bb      	ldr	r3, [r7, #8]
 8001d52:	f423 437f 	bic.w	r3, r3, #65280	; 0xff00
 8001d56:	60bb      	str	r3, [r7, #8]
  htim->Instance->SMCR = tmpsmcr;
 8001d58:	687b      	ldr	r3, [r7, #4]
 8001d5a:	681b      	ldr	r3, [r3, #0]
 8001d5c:	68ba      	ldr	r2, [r7, #8]
 8001d5e:	609a      	str	r2, [r3, #8]

  switch (sClockSourceConfig->ClockSource)
 8001d60:	683b      	ldr	r3, [r7, #0]
 8001d62:	681b      	ldr	r3, [r3, #0]
 8001d64:	f5b3 5f00 	cmp.w	r3, #8192	; 0x2000
 8001d68:	d03e      	beq.n	8001de8 <HAL_TIM_ConfigClockSource+0xd4>
 8001d6a:	f5b3 5f00 	cmp.w	r3, #8192	; 0x2000
 8001d6e:	f200 8087 	bhi.w	8001e80 <HAL_TIM_ConfigClockSource+0x16c>
 8001d72:	f5b3 5f80 	cmp.w	r3, #4096	; 0x1000
 8001d76:	f000 8086 	beq.w	8001e86 <HAL_TIM_ConfigClockSource+0x172>
 8001d7a:	f5b3 5f80 	cmp.w	r3, #4096	; 0x1000
 8001d7e:	d87f      	bhi.n	8001e80 <HAL_TIM_ConfigClockSource+0x16c>
 8001d80:	2b70      	cmp	r3, #112	; 0x70
 8001d82:	d01a      	beq.n	8001dba <HAL_TIM_ConfigClockSource+0xa6>
 8001d84:	2b70      	cmp	r3, #112	; 0x70
 8001d86:	d87b      	bhi.n	8001e80 <HAL_TIM_ConfigClockSource+0x16c>
 8001d88:	2b60      	cmp	r3, #96	; 0x60
 8001d8a:	d050      	beq.n	8001e2e <HAL_TIM_ConfigClockSource+0x11a>
 8001d8c:	2b60      	cmp	r3, #96	; 0x60
 8001d8e:	d877      	bhi.n	8001e80 <HAL_TIM_ConfigClockSource+0x16c>
 8001d90:	2b50      	cmp	r3, #80	; 0x50
 8001d92:	d03c      	beq.n	8001e0e <HAL_TIM_ConfigClockSource+0xfa>
 8001d94:	2b50      	cmp	r3, #80	; 0x50
 8001d96:	d873      	bhi.n	8001e80 <HAL_TIM_ConfigClockSource+0x16c>
 8001d98:	2b40      	cmp	r3, #64	; 0x40
 8001d9a:	d058      	beq.n	8001e4e <HAL_TIM_ConfigClockSource+0x13a>
 8001d9c:	2b40      	cmp	r3, #64	; 0x40
 8001d9e:	d86f      	bhi.n	8001e80 <HAL_TIM_ConfigClockSource+0x16c>
 8001da0:	2b30      	cmp	r3, #48	; 0x30
 8001da2:	d064      	beq.n	8001e6e <HAL_TIM_ConfigClockSource+0x15a>
 8001da4:	2b30      	cmp	r3, #48	; 0x30
 8001da6:	d86b      	bhi.n	8001e80 <HAL_TIM_ConfigClockSource+0x16c>
 8001da8:	2b20      	cmp	r3, #32
 8001daa:	d060      	beq.n	8001e6e <HAL_TIM_ConfigClockSource+0x15a>
 8001dac:	2b20      	cmp	r3, #32
 8001dae:	d867      	bhi.n	8001e80 <HAL_TIM_ConfigClockSource+0x16c>
 8001db0:	2b00      	cmp	r3, #0
 8001db2:	d05c      	beq.n	8001e6e <HAL_TIM_ConfigClockSource+0x15a>
 8001db4:	2b10      	cmp	r3, #16
 8001db6:	d05a      	beq.n	8001e6e <HAL_TIM_ConfigClockSource+0x15a>
 8001db8:	e062      	b.n	8001e80 <HAL_TIM_ConfigClockSource+0x16c>
      assert_param(IS_TIM_CLOCKPRESCALER(sClockSourceConfig->ClockPrescaler));
      assert_param(IS_TIM_CLOCKPOLARITY(sClockSourceConfig->ClockPolarity));
      assert_param(IS_TIM_CLOCKFILTER(sClockSourceConfig->ClockFilter));

      /* Configure the ETR Clock source */
      TIM_ETR_SetConfig(htim->Instance,
 8001dba:	687b      	ldr	r3, [r7, #4]
 8001dbc:	6818      	ldr	r0, [r3, #0]
 8001dbe:	683b      	ldr	r3, [r7, #0]
 8001dc0:	6899      	ldr	r1, [r3, #8]
 8001dc2:	683b      	ldr	r3, [r7, #0]
 8001dc4:	685a      	ldr	r2, [r3, #4]
 8001dc6:	683b      	ldr	r3, [r7, #0]
 8001dc8:	68db      	ldr	r3, [r3, #12]
 8001dca:	f000 f95e 	bl	800208a <TIM_ETR_SetConfig>
                        sClockSourceConfig->ClockPrescaler,
                        sClockSourceConfig->ClockPolarity,
                        sClockSourceConfig->ClockFilter);

      /* Select the External clock mode1 and the ETRF trigger */
      tmpsmcr = htim->Instance->SMCR;
 8001dce:	687b      	ldr	r3, [r7, #4]
 8001dd0:	681b      	ldr	r3, [r3, #0]
 8001dd2:	689b      	ldr	r3, [r3, #8]
 8001dd4:	60bb      	str	r3, [r7, #8]
      tmpsmcr |= (TIM_SLAVEMODE_EXTERNAL1 | TIM_CLOCKSOURCE_ETRMODE1);
 8001dd6:	68bb      	ldr	r3, [r7, #8]
 8001dd8:	f043 0377 	orr.w	r3, r3, #119	; 0x77
 8001ddc:	60bb      	str	r3, [r7, #8]
      /* Write to TIMx SMCR */
      htim->Instance->SMCR = tmpsmcr;
 8001dde:	687b      	ldr	r3, [r7, #4]
 8001de0:	681b      	ldr	r3, [r3, #0]
 8001de2:	68ba      	ldr	r2, [r7, #8]
 8001de4:	609a      	str	r2, [r3, #8]
      break;
 8001de6:	e04f      	b.n	8001e88 <HAL_TIM_ConfigClockSource+0x174>
      assert_param(IS_TIM_CLOCKPRESCALER(sClockSourceConfig->ClockPrescaler));
      assert_param(IS_TIM_CLOCKPOLARITY(sClockSourceConfig->ClockPolarity));
      assert_param(IS_TIM_CLOCKFILTER(sClockSourceConfig->ClockFilter));

      /* Configure the ETR Clock source */
      TIM_ETR_SetConfig(htim->Instance,
 8001de8:	687b      	ldr	r3, [r7, #4]
 8001dea:	6818      	ldr	r0, [r3, #0]
 8001dec:	683b      	ldr	r3, [r7, #0]
 8001dee:	6899      	ldr	r1, [r3, #8]
 8001df0:	683b      	ldr	r3, [r7, #0]
 8001df2:	685a      	ldr	r2, [r3, #4]
 8001df4:	683b      	ldr	r3, [r7, #0]
 8001df6:	68db      	ldr	r3, [r3, #12]
 8001df8:	f000 f947 	bl	800208a <TIM_ETR_SetConfig>
                        sClockSourceConfig->ClockPrescaler,
                        sClockSourceConfig->ClockPolarity,
                        sClockSourceConfig->ClockFilter);
      /* Enable the External clock mode2 */
      htim->Instance->SMCR |= TIM_SMCR_ECE;
 8001dfc:	687b      	ldr	r3, [r7, #4]
 8001dfe:	681b      	ldr	r3, [r3, #0]
 8001e00:	689a      	ldr	r2, [r3, #8]
 8001e02:	687b      	ldr	r3, [r7, #4]
 8001e04:	681b      	ldr	r3, [r3, #0]
 8001e06:	f442 4280 	orr.w	r2, r2, #16384	; 0x4000
 8001e0a:	609a      	str	r2, [r3, #8]
      break;
 8001e0c:	e03c      	b.n	8001e88 <HAL_TIM_ConfigClockSource+0x174>

      /* Check TI1 input conditioning related parameters */
      assert_param(IS_TIM_CLOCKPOLARITY(sClockSourceConfig->ClockPolarity));
      assert_param(IS_TIM_CLOCKFILTER(sClockSourceConfig->ClockFilter));

      TIM_TI1_ConfigInputStage(htim->Instance,
 8001e0e:	687b      	ldr	r3, [r7, #4]
 8001e10:	6818      	ldr	r0, [r3, #0]
 8001e12:	683b      	ldr	r3, [r7, #0]
 8001e14:	6859      	ldr	r1, [r3, #4]
 8001e16:	683b      	ldr	r3, [r7, #0]
 8001e18:	68db      	ldr	r3, [r3, #12]
 8001e1a:	461a      	mov	r2, r3
 8001e1c:	f000 f8be 	bl	8001f9c <TIM_TI1_ConfigInputStage>
                               sClockSourceConfig->ClockPolarity,
                               sClockSourceConfig->ClockFilter);
      TIM_ITRx_SetConfig(htim->Instance, TIM_CLOCKSOURCE_TI1);
 8001e20:	687b      	ldr	r3, [r7, #4]
 8001e22:	681b      	ldr	r3, [r3, #0]
 8001e24:	2150      	movs	r1, #80	; 0x50
 8001e26:	4618      	mov	r0, r3
 8001e28:	f000 f915 	bl	8002056 <TIM_ITRx_SetConfig>
      break;
 8001e2c:	e02c      	b.n	8001e88 <HAL_TIM_ConfigClockSource+0x174>

      /* Check TI2 input conditioning related parameters */
      assert_param(IS_TIM_CLOCKPOLARITY(sClockSourceConfig->ClockPolarity));
      assert_param(IS_TIM_CLOCKFILTER(sClockSourceConfig->ClockFilter));

      TIM_TI2_ConfigInputStage(htim->Instance,
 8001e2e:	687b      	ldr	r3, [r7, #4]
 8001e30:	6818      	ldr	r0, [r3, #0]
 8001e32:	683b      	ldr	r3, [r7, #0]
 8001e34:	6859      	ldr	r1, [r3, #4]
 8001e36:	683b      	ldr	r3, [r7, #0]
 8001e38:	68db      	ldr	r3, [r3, #12]
 8001e3a:	461a      	mov	r2, r3
 8001e3c:	f000 f8dc 	bl	8001ff8 <TIM_TI2_ConfigInputStage>
                               sClockSourceConfig->ClockPolarity,
                               sClockSourceConfig->ClockFilter);
      TIM_ITRx_SetConfig(htim->Instance, TIM_CLOCKSOURCE_TI2);
 8001e40:	687b      	ldr	r3, [r7, #4]
 8001e42:	681b      	ldr	r3, [r3, #0]
 8001e44:	2160      	movs	r1, #96	; 0x60
 8001e46:	4618      	mov	r0, r3
 8001e48:	f000 f905 	bl	8002056 <TIM_ITRx_SetConfig>
      break;
 8001e4c:	e01c      	b.n	8001e88 <HAL_TIM_ConfigClockSource+0x174>

      /* Check TI1 input conditioning related parameters */
      assert_param(IS_TIM_CLOCKPOLARITY(sClockSourceConfig->ClockPolarity));
      assert_param(IS_TIM_CLOCKFILTER(sClockSourceConfig->ClockFilter));

      TIM_TI1_ConfigInputStage(htim->Instance,
 8001e4e:	687b      	ldr	r3, [r7, #4]
 8001e50:	6818      	ldr	r0, [r3, #0]
 8001e52:	683b      	ldr	r3, [r7, #0]
 8001e54:	6859      	ldr	r1, [r3, #4]
 8001e56:	683b      	ldr	r3, [r7, #0]
 8001e58:	68db      	ldr	r3, [r3, #12]
 8001e5a:	461a      	mov	r2, r3
 8001e5c:	f000 f89e 	bl	8001f9c <TIM_TI1_ConfigInputStage>
                               sClockSourceConfig->ClockPolarity,
                               sClockSourceConfig->ClockFilter);
      TIM_ITRx_SetConfig(htim->Instance, TIM_CLOCKSOURCE_TI1ED);
 8001e60:	687b      	ldr	r3, [r7, #4]
 8001e62:	681b      	ldr	r3, [r3, #0]
 8001e64:	2140      	movs	r1, #64	; 0x40
 8001e66:	4618      	mov	r0, r3
 8001e68:	f000 f8f5 	bl	8002056 <TIM_ITRx_SetConfig>
      break;
 8001e6c:	e00c      	b.n	8001e88 <HAL_TIM_ConfigClockSource+0x174>
    case TIM_CLOCKSOURCE_ITR3:
    {
      /* Check whether or not the timer instance supports internal trigger input */
      assert_param(IS_TIM_CLOCKSOURCE_ITRX_INSTANCE(htim->Instance));

      TIM_ITRx_SetConfig(htim->Instance, sClockSourceConfig->ClockSource);
 8001e6e:	687b      	ldr	r3, [r7, #4]
 8001e70:	681a      	ldr	r2, [r3, #0]
 8001e72:	683b      	ldr	r3, [r7, #0]
 8001e74:	681b      	ldr	r3, [r3, #0]
 8001e76:	4619      	mov	r1, r3
 8001e78:	4610      	mov	r0, r2
 8001e7a:	f000 f8ec 	bl	8002056 <TIM_ITRx_SetConfig>
      break;
 8001e7e:	e003      	b.n	8001e88 <HAL_TIM_ConfigClockSource+0x174>
    }

    default:
      status = HAL_ERROR;
 8001e80:	2301      	movs	r3, #1
 8001e82:	73fb      	strb	r3, [r7, #15]
      break;
 8001e84:	e000      	b.n	8001e88 <HAL_TIM_ConfigClockSource+0x174>
      break;
 8001e86:	bf00      	nop
  }
  htim->State = HAL_TIM_STATE_READY;
 8001e88:	687b      	ldr	r3, [r7, #4]
 8001e8a:	2201      	movs	r2, #1
 8001e8c:	f883 203d 	strb.w	r2, [r3, #61]	; 0x3d

  __HAL_UNLOCK(htim);
 8001e90:	687b      	ldr	r3, [r7, #4]
 8001e92:	2200      	movs	r2, #0
 8001e94:	f883 203c 	strb.w	r2, [r3, #60]	; 0x3c

  return status;
 8001e98:	7bfb      	ldrb	r3, [r7, #15]
}
 8001e9a:	4618      	mov	r0, r3
 8001e9c:	3710      	adds	r7, #16
 8001e9e:	46bd      	mov	sp, r7
 8001ea0:	bd80      	pop	{r7, pc}

08001ea2 <HAL_TIM_OC_DelayElapsedCallback>:
  * @brief  Output Compare callback in non-blocking mode
  * @param  htim TIM OC handle
  * @retval None
  */
__weak void HAL_TIM_OC_DelayElapsedCallback(TIM_HandleTypeDef *htim)
{
 8001ea2:	b480      	push	{r7}
 8001ea4:	b083      	sub	sp, #12
 8001ea6:	af00      	add	r7, sp, #0
 8001ea8:	6078      	str	r0, [r7, #4]
  UNUSED(htim);

  /* NOTE : This function should not be modified, when the callback is needed,
            the HAL_TIM_OC_DelayElapsedCallback could be implemented in the user file
   */
}
 8001eaa:	bf00      	nop
 8001eac:	370c      	adds	r7, #12
 8001eae:	46bd      	mov	sp, r7
 8001eb0:	bc80      	pop	{r7}
 8001eb2:	4770      	bx	lr

08001eb4 <HAL_TIM_IC_CaptureCallback>:
  * @brief  Input Capture callback in non-blocking mode
  * @param  htim TIM IC handle
  * @retval None
  */
__weak void HAL_TIM_IC_CaptureCallback(TIM_HandleTypeDef *htim)
{
 8001eb4:	b480      	push	{r7}
 8001eb6:	b083      	sub	sp, #12
 8001eb8:	af00      	add	r7, sp, #0
 8001eba:	6078      	str	r0, [r7, #4]
  UNUSED(htim);

  /* NOTE : This function should not be modified, when the callback is needed,
            the HAL_TIM_IC_CaptureCallback could be implemented in the user file
   */
}
 8001ebc:	bf00      	nop
 8001ebe:	370c      	adds	r7, #12
 8001ec0:	46bd      	mov	sp, r7
 8001ec2:	bc80      	pop	{r7}
 8001ec4:	4770      	bx	lr

08001ec6 <HAL_TIM_PWM_PulseFinishedCallback>:
  * @brief  PWM Pulse finished callback in non-blocking mode
  * @param  htim TIM handle
  * @retval None
  */
__weak void HAL_TIM_PWM_PulseFinishedCallback(TIM_HandleTypeDef *htim)
{
 8001ec6:	b480      	push	{r7}
 8001ec8:	b083      	sub	sp, #12
 8001eca:	af00      	add	r7, sp, #0
 8001ecc:	6078      	str	r0, [r7, #4]
  UNUSED(htim);

  /* NOTE : This function should not be modified, when the callback is needed,
            the HAL_TIM_PWM_PulseFinishedCallback could be implemented in the user file
   */
}
 8001ece:	bf00      	nop
 8001ed0:	370c      	adds	r7, #12
 8001ed2:	46bd      	mov	sp, r7
 8001ed4:	bc80      	pop	{r7}
 8001ed6:	4770      	bx	lr

08001ed8 <HAL_TIM_TriggerCallback>:
  * @brief  Hall Trigger detection callback in non-blocking mode
  * @param  htim TIM handle
  * @retval None
  */
__weak void HAL_TIM_TriggerCallback(TIM_HandleTypeDef *htim)
{
 8001ed8:	b480      	push	{r7}
 8001eda:	b083      	sub	sp, #12
 8001edc:	af00      	add	r7, sp, #0
 8001ede:	6078      	str	r0, [r7, #4]
  UNUSED(htim);

  /* NOTE : This function should not be modified, when the callback is needed,
            the HAL_TIM_TriggerCallback could be implemented in the user file
   */
}
 8001ee0:	bf00      	nop
 8001ee2:	370c      	adds	r7, #12
 8001ee4:	46bd      	mov	sp, r7
 8001ee6:	bc80      	pop	{r7}
 8001ee8:	4770      	bx	lr
	...

08001eec <TIM_Base_SetConfig>:
  * @param  TIMx TIM peripheral
  * @param  Structure TIM Base configuration structure
  * @retval None
  */
void TIM_Base_SetConfig(TIM_TypeDef *TIMx, const TIM_Base_InitTypeDef *Structure)
{
 8001eec:	b480      	push	{r7}
 8001eee:	b085      	sub	sp, #20
 8001ef0:	af00      	add	r7, sp, #0
 8001ef2:	6078      	str	r0, [r7, #4]
 8001ef4:	6039      	str	r1, [r7, #0]
  uint32_t tmpcr1;
  tmpcr1 = TIMx->CR1;
 8001ef6:	687b      	ldr	r3, [r7, #4]
 8001ef8:	681b      	ldr	r3, [r3, #0]
 8001efa:	60fb      	str	r3, [r7, #12]

  /* Set TIM Time Base Unit parameters ---------------------------------------*/
  if (IS_TIM_COUNTER_MODE_SELECT_INSTANCE(TIMx))
 8001efc:	687b      	ldr	r3, [r7, #4]
 8001efe:	4a25      	ldr	r2, [pc, #148]	; (8001f94 <TIM_Base_SetConfig+0xa8>)
 8001f00:	4293      	cmp	r3, r2
 8001f02:	d007      	beq.n	8001f14 <TIM_Base_SetConfig+0x28>
 8001f04:	687b      	ldr	r3, [r7, #4]
 8001f06:	f1b3 4f80 	cmp.w	r3, #1073741824	; 0x40000000
 8001f0a:	d003      	beq.n	8001f14 <TIM_Base_SetConfig+0x28>
 8001f0c:	687b      	ldr	r3, [r7, #4]
 8001f0e:	4a22      	ldr	r2, [pc, #136]	; (8001f98 <TIM_Base_SetConfig+0xac>)
 8001f10:	4293      	cmp	r3, r2
 8001f12:	d108      	bne.n	8001f26 <TIM_Base_SetConfig+0x3a>
  {
    /* Select the Counter Mode */
    tmpcr1 &= ~(TIM_CR1_DIR | TIM_CR1_CMS);
 8001f14:	68fb      	ldr	r3, [r7, #12]
 8001f16:	f023 0370 	bic.w	r3, r3, #112	; 0x70
 8001f1a:	60fb      	str	r3, [r7, #12]
    tmpcr1 |= Structure->CounterMode;
 8001f1c:	683b      	ldr	r3, [r7, #0]
 8001f1e:	685b      	ldr	r3, [r3, #4]
 8001f20:	68fa      	ldr	r2, [r7, #12]
 8001f22:	4313      	orrs	r3, r2
 8001f24:	60fb      	str	r3, [r7, #12]
  }

  if (IS_TIM_CLOCK_DIVISION_INSTANCE(TIMx))
 8001f26:	687b      	ldr	r3, [r7, #4]
 8001f28:	4a1a      	ldr	r2, [pc, #104]	; (8001f94 <TIM_Base_SetConfig+0xa8>)
 8001f2a:	4293      	cmp	r3, r2
 8001f2c:	d007      	beq.n	8001f3e <TIM_Base_SetConfig+0x52>
 8001f2e:	687b      	ldr	r3, [r7, #4]
 8001f30:	f1b3 4f80 	cmp.w	r3, #1073741824	; 0x40000000
 8001f34:	d003      	beq.n	8001f3e <TIM_Base_SetConfig+0x52>
 8001f36:	687b      	ldr	r3, [r7, #4]
 8001f38:	4a17      	ldr	r2, [pc, #92]	; (8001f98 <TIM_Base_SetConfig+0xac>)
 8001f3a:	4293      	cmp	r3, r2
 8001f3c:	d108      	bne.n	8001f50 <TIM_Base_SetConfig+0x64>
  {
    /* Set the clock division */
    tmpcr1 &= ~TIM_CR1_CKD;
 8001f3e:	68fb      	ldr	r3, [r7, #12]
 8001f40:	f423 7340 	bic.w	r3, r3, #768	; 0x300
 8001f44:	60fb      	str	r3, [r7, #12]
    tmpcr1 |= (uint32_t)Structure->ClockDivision;
 8001f46:	683b      	ldr	r3, [r7, #0]
 8001f48:	68db      	ldr	r3, [r3, #12]
 8001f4a:	68fa      	ldr	r2, [r7, #12]
 8001f4c:	4313      	orrs	r3, r2
 8001f4e:	60fb      	str	r3, [r7, #12]
  }

  /* Set the auto-reload preload */
  MODIFY_REG(tmpcr1, TIM_CR1_ARPE, Structure->AutoReloadPreload);
 8001f50:	68fb      	ldr	r3, [r7, #12]
 8001f52:	f023 0280 	bic.w	r2, r3, #128	; 0x80
 8001f56:	683b      	ldr	r3, [r7, #0]
 8001f58:	695b      	ldr	r3, [r3, #20]
 8001f5a:	4313      	orrs	r3, r2
 8001f5c:	60fb      	str	r3, [r7, #12]

  TIMx->CR1 = tmpcr1;
 8001f5e:	687b      	ldr	r3, [r7, #4]
 8001f60:	68fa      	ldr	r2, [r7, #12]
 8001f62:	601a      	str	r2, [r3, #0]

  /* Set the Autoreload value */
  TIMx->ARR = (uint32_t)Structure->Period ;
 8001f64:	683b      	ldr	r3, [r7, #0]
 8001f66:	689a      	ldr	r2, [r3, #8]
 8001f68:	687b      	ldr	r3, [r7, #4]
 8001f6a:	62da      	str	r2, [r3, #44]	; 0x2c

  /* Set the Prescaler value */
  TIMx->PSC = Structure->Prescaler;
 8001f6c:	683b      	ldr	r3, [r7, #0]
 8001f6e:	681a      	ldr	r2, [r3, #0]
 8001f70:	687b      	ldr	r3, [r7, #4]
 8001f72:	629a      	str	r2, [r3, #40]	; 0x28

  if (IS_TIM_REPETITION_COUNTER_INSTANCE(TIMx))
 8001f74:	687b      	ldr	r3, [r7, #4]
 8001f76:	4a07      	ldr	r2, [pc, #28]	; (8001f94 <TIM_Base_SetConfig+0xa8>)
 8001f78:	4293      	cmp	r3, r2
 8001f7a:	d103      	bne.n	8001f84 <TIM_Base_SetConfig+0x98>
  {
    /* Set the Repetition Counter value */
    TIMx->RCR = Structure->RepetitionCounter;
 8001f7c:	683b      	ldr	r3, [r7, #0]
 8001f7e:	691a      	ldr	r2, [r3, #16]
 8001f80:	687b      	ldr	r3, [r7, #4]
 8001f82:	631a      	str	r2, [r3, #48]	; 0x30
  }

  /* Generate an update event to reload the Prescaler
     and the repetition counter (only for advanced timer) value immediately */
  TIMx->EGR = TIM_EGR_UG;
 8001f84:	687b      	ldr	r3, [r7, #4]
 8001f86:	2201      	movs	r2, #1
 8001f88:	615a      	str	r2, [r3, #20]
}
 8001f8a:	bf00      	nop
 8001f8c:	3714      	adds	r7, #20
 8001f8e:	46bd      	mov	sp, r7
 8001f90:	bc80      	pop	{r7}
 8001f92:	4770      	bx	lr
 8001f94:	40012c00 	.word	0x40012c00
 8001f98:	40000400 	.word	0x40000400

08001f9c <TIM_TI1_ConfigInputStage>:
  * @param  TIM_ICFilter Specifies the Input Capture Filter.
  *          This parameter must be a value between 0x00 and 0x0F.
  * @retval None
  */
static void TIM_TI1_ConfigInputStage(TIM_TypeDef *TIMx, uint32_t TIM_ICPolarity, uint32_t TIM_ICFilter)
{
 8001f9c:	b480      	push	{r7}
 8001f9e:	b087      	sub	sp, #28
 8001fa0:	af00      	add	r7, sp, #0
 8001fa2:	60f8      	str	r0, [r7, #12]
 8001fa4:	60b9      	str	r1, [r7, #8]
 8001fa6:	607a      	str	r2, [r7, #4]
  uint32_t tmpccmr1;
  uint32_t tmpccer;

  /* Disable the Channel 1: Reset the CC1E Bit */
  tmpccer = TIMx->CCER;
 8001fa8:	68fb      	ldr	r3, [r7, #12]
 8001faa:	6a1b      	ldr	r3, [r3, #32]
 8001fac:	617b      	str	r3, [r7, #20]
  TIMx->CCER &= ~TIM_CCER_CC1E;
 8001fae:	68fb      	ldr	r3, [r7, #12]
 8001fb0:	6a1b      	ldr	r3, [r3, #32]
 8001fb2:	f023 0201 	bic.w	r2, r3, #1
 8001fb6:	68fb      	ldr	r3, [r7, #12]
 8001fb8:	621a      	str	r2, [r3, #32]
  tmpccmr1 = TIMx->CCMR1;
 8001fba:	68fb      	ldr	r3, [r7, #12]
 8001fbc:	699b      	ldr	r3, [r3, #24]
 8001fbe:	613b      	str	r3, [r7, #16]

  /* Set the filter */
  tmpccmr1 &= ~TIM_CCMR1_IC1F;
 8001fc0:	693b      	ldr	r3, [r7, #16]
 8001fc2:	f023 03f0 	bic.w	r3, r3, #240	; 0xf0
 8001fc6:	613b      	str	r3, [r7, #16]
  tmpccmr1 |= (TIM_ICFilter << 4U);
 8001fc8:	687b      	ldr	r3, [r7, #4]
 8001fca:	011b      	lsls	r3, r3, #4
 8001fcc:	693a      	ldr	r2, [r7, #16]
 8001fce:	4313      	orrs	r3, r2
 8001fd0:	613b      	str	r3, [r7, #16]

  /* Select the Polarity and set the CC1E Bit */
  tmpccer &= ~(TIM_CCER_CC1P | TIM_CCER_CC1NP);
 8001fd2:	697b      	ldr	r3, [r7, #20]
 8001fd4:	f023 030a 	bic.w	r3, r3, #10
 8001fd8:	617b      	str	r3, [r7, #20]
  tmpccer |= TIM_ICPolarity;
 8001fda:	697a      	ldr	r2, [r7, #20]
 8001fdc:	68bb      	ldr	r3, [r7, #8]
 8001fde:	4313      	orrs	r3, r2
 8001fe0:	617b      	str	r3, [r7, #20]

  /* Write to TIMx CCMR1 and CCER registers */
  TIMx->CCMR1 = tmpccmr1;
 8001fe2:	68fb      	ldr	r3, [r7, #12]
 8001fe4:	693a      	ldr	r2, [r7, #16]
 8001fe6:	619a      	str	r2, [r3, #24]
  TIMx->CCER = tmpccer;
 8001fe8:	68fb      	ldr	r3, [r7, #12]
 8001fea:	697a      	ldr	r2, [r7, #20]
 8001fec:	621a      	str	r2, [r3, #32]
}
 8001fee:	bf00      	nop
 8001ff0:	371c      	adds	r7, #28
 8001ff2:	46bd      	mov	sp, r7
 8001ff4:	bc80      	pop	{r7}
 8001ff6:	4770      	bx	lr

08001ff8 <TIM_TI2_ConfigInputStage>:
  * @param  TIM_ICFilter Specifies the Input Capture Filter.
  *          This parameter must be a value between 0x00 and 0x0F.
  * @retval None
  */
static void TIM_TI2_ConfigInputStage(TIM_TypeDef *TIMx, uint32_t TIM_ICPolarity, uint32_t TIM_ICFilter)
{
 8001ff8:	b480      	push	{r7}
 8001ffa:	b087      	sub	sp, #28
 8001ffc:	af00      	add	r7, sp, #0
 8001ffe:	60f8      	str	r0, [r7, #12]
 8002000:	60b9      	str	r1, [r7, #8]
 8002002:	607a      	str	r2, [r7, #4]
  uint32_t tmpccmr1;
  uint32_t tmpccer;

  /* Disable the Channel 2: Reset the CC2E Bit */
  tmpccer = TIMx->CCER;
 8002004:	68fb      	ldr	r3, [r7, #12]
 8002006:	6a1b      	ldr	r3, [r3, #32]
 8002008:	617b      	str	r3, [r7, #20]
  TIMx->CCER &= ~TIM_CCER_CC2E;
 800200a:	68fb      	ldr	r3, [r7, #12]
 800200c:	6a1b      	ldr	r3, [r3, #32]
 800200e:	f023 0210 	bic.w	r2, r3, #16
 8002012:	68fb      	ldr	r3, [r7, #12]
 8002014:	621a      	str	r2, [r3, #32]
  tmpccmr1 = TIMx->CCMR1;
 8002016:	68fb      	ldr	r3, [r7, #12]
 8002018:	699b      	ldr	r3, [r3, #24]
 800201a:	613b      	str	r3, [r7, #16]

  /* Set the filter */
  tmpccmr1 &= ~TIM_CCMR1_IC2F;
 800201c:	693b      	ldr	r3, [r7, #16]
 800201e:	f423 4370 	bic.w	r3, r3, #61440	; 0xf000
 8002022:	613b      	str	r3, [r7, #16]
  tmpccmr1 |= (TIM_ICFilter << 12U);
 8002024:	687b      	ldr	r3, [r7, #4]
 8002026:	031b      	lsls	r3, r3, #12
 8002028:	693a      	ldr	r2, [r7, #16]
 800202a:	4313      	orrs	r3, r2
 800202c:	613b      	str	r3, [r7, #16]

  /* Select the Polarity and set the CC2E Bit */
  tmpccer &= ~(TIM_CCER_CC2P | TIM_CCER_CC2NP);
 800202e:	697b      	ldr	r3, [r7, #20]
 8002030:	f023 03a0 	bic.w	r3, r3, #160	; 0xa0
 8002034:	617b      	str	r3, [r7, #20]
  tmpccer |= (TIM_ICPolarity << 4U);
 8002036:	68bb      	ldr	r3, [r7, #8]
 8002038:	011b      	lsls	r3, r3, #4
 800203a:	697a      	ldr	r2, [r7, #20]
 800203c:	4313      	orrs	r3, r2
 800203e:	617b      	str	r3, [r7, #20]

  /* Write to TIMx CCMR1 and CCER registers */
  TIMx->CCMR1 = tmpccmr1 ;
 8002040:	68fb      	ldr	r3, [r7, #12]
 8002042:	693a      	ldr	r2, [r7, #16]
 8002044:	619a      	str	r2, [r3, #24]
  TIMx->CCER = tmpccer;
 8002046:	68fb      	ldr	r3, [r7, #12]
 8002048:	697a      	ldr	r2, [r7, #20]
 800204a:	621a      	str	r2, [r3, #32]
}
 800204c:	bf00      	nop
 800204e:	371c      	adds	r7, #28
 8002050:	46bd      	mov	sp, r7
 8002052:	bc80      	pop	{r7}
 8002054:	4770      	bx	lr

08002056 <TIM_ITRx_SetConfig>:
  *            @arg TIM_TS_TI2FP2: Filtered Timer Input 2
  *            @arg TIM_TS_ETRF: External Trigger input
  * @retval None
  */
static void TIM_ITRx_SetConfig(TIM_TypeDef *TIMx, uint32_t InputTriggerSource)
{
 8002056:	b480      	push	{r7}
 8002058:	b085      	sub	sp, #20
 800205a:	af00      	add	r7, sp, #0
 800205c:	6078      	str	r0, [r7, #4]
 800205e:	6039      	str	r1, [r7, #0]
  uint32_t tmpsmcr;

  /* Get the TIMx SMCR register value */
  tmpsmcr = TIMx->SMCR;
 8002060:	687b      	ldr	r3, [r7, #4]
 8002062:	689b      	ldr	r3, [r3, #8]
 8002064:	60fb      	str	r3, [r7, #12]
  /* Reset the TS Bits */
  tmpsmcr &= ~TIM_SMCR_TS;
 8002066:	68fb      	ldr	r3, [r7, #12]
 8002068:	f023 0370 	bic.w	r3, r3, #112	; 0x70
 800206c:	60fb      	str	r3, [r7, #12]
  /* Set the Input Trigger source and the slave mode*/
  tmpsmcr |= (InputTriggerSource | TIM_SLAVEMODE_EXTERNAL1);
 800206e:	683a      	ldr	r2, [r7, #0]
 8002070:	68fb      	ldr	r3, [r7, #12]
 8002072:	4313      	orrs	r3, r2
 8002074:	f043 0307 	orr.w	r3, r3, #7
 8002078:	60fb      	str	r3, [r7, #12]
  /* Write to TIMx SMCR */
  TIMx->SMCR = tmpsmcr;
 800207a:	687b      	ldr	r3, [r7, #4]
 800207c:	68fa      	ldr	r2, [r7, #12]
 800207e:	609a      	str	r2, [r3, #8]
}
 8002080:	bf00      	nop
 8002082:	3714      	adds	r7, #20
 8002084:	46bd      	mov	sp, r7
 8002086:	bc80      	pop	{r7}
 8002088:	4770      	bx	lr

0800208a <TIM_ETR_SetConfig>:
  *          This parameter must be a value between 0x00 and 0x0F
  * @retval None
  */
void TIM_ETR_SetConfig(TIM_TypeDef *TIMx, uint32_t TIM_ExtTRGPrescaler,
                       uint32_t TIM_ExtTRGPolarity, uint32_t ExtTRGFilter)
{
 800208a:	b480      	push	{r7}
 800208c:	b087      	sub	sp, #28
 800208e:	af00      	add	r7, sp, #0
 8002090:	60f8      	str	r0, [r7, #12]
 8002092:	60b9      	str	r1, [r7, #8]
 8002094:	607a      	str	r2, [r7, #4]
 8002096:	603b      	str	r3, [r7, #0]
  uint32_t tmpsmcr;

  tmpsmcr = TIMx->SMCR;
 8002098:	68fb      	ldr	r3, [r7, #12]
 800209a:	689b      	ldr	r3, [r3, #8]
 800209c:	617b      	str	r3, [r7, #20]

  /* Reset the ETR Bits */
  tmpsmcr &= ~(TIM_SMCR_ETF | TIM_SMCR_ETPS | TIM_SMCR_ECE | TIM_SMCR_ETP);
 800209e:	697b      	ldr	r3, [r7, #20]
 80020a0:	f423 437f 	bic.w	r3, r3, #65280	; 0xff00
 80020a4:	617b      	str	r3, [r7, #20]

  /* Set the Prescaler, the Filter value and the Polarity */
  tmpsmcr |= (uint32_t)(TIM_ExtTRGPrescaler | (TIM_ExtTRGPolarity | (ExtTRGFilter << 8U)));
 80020a6:	683b      	ldr	r3, [r7, #0]
 80020a8:	021a      	lsls	r2, r3, #8
 80020aa:	687b      	ldr	r3, [r7, #4]
 80020ac:	431a      	orrs	r2, r3
 80020ae:	68bb      	ldr	r3, [r7, #8]
 80020b0:	4313      	orrs	r3, r2
 80020b2:	697a      	ldr	r2, [r7, #20]
 80020b4:	4313      	orrs	r3, r2
 80020b6:	617b      	str	r3, [r7, #20]

  /* Write to TIMx SMCR */
  TIMx->SMCR = tmpsmcr;
 80020b8:	68fb      	ldr	r3, [r7, #12]
 80020ba:	697a      	ldr	r2, [r7, #20]
 80020bc:	609a      	str	r2, [r3, #8]
}
 80020be:	bf00      	nop
 80020c0:	371c      	adds	r7, #28
 80020c2:	46bd      	mov	sp, r7
 80020c4:	bc80      	pop	{r7}
 80020c6:	4770      	bx	lr

080020c8 <HAL_TIMEx_MasterConfigSynchronization>:
  *         mode.
  * @retval HAL status
  */
HAL_StatusTypeDef HAL_TIMEx_MasterConfigSynchronization(TIM_HandleTypeDef *htim,
                                                        const TIM_MasterConfigTypeDef *sMasterConfig)
{
 80020c8:	b480      	push	{r7}
 80020ca:	b085      	sub	sp, #20
 80020cc:	af00      	add	r7, sp, #0
 80020ce:	6078      	str	r0, [r7, #4]
 80020d0:	6039      	str	r1, [r7, #0]
  assert_param(IS_TIM_MASTER_INSTANCE(htim->Instance));
  assert_param(IS_TIM_TRGO_SOURCE(sMasterConfig->MasterOutputTrigger));
  assert_param(IS_TIM_MSM_STATE(sMasterConfig->MasterSlaveMode));

  /* Check input state */
  __HAL_LOCK(htim);
 80020d2:	687b      	ldr	r3, [r7, #4]
 80020d4:	f893 303c 	ldrb.w	r3, [r3, #60]	; 0x3c
 80020d8:	2b01      	cmp	r3, #1
 80020da:	d101      	bne.n	80020e0 <HAL_TIMEx_MasterConfigSynchronization+0x18>
 80020dc:	2302      	movs	r3, #2
 80020de:	e041      	b.n	8002164 <HAL_TIMEx_MasterConfigSynchronization+0x9c>
 80020e0:	687b      	ldr	r3, [r7, #4]
 80020e2:	2201      	movs	r2, #1
 80020e4:	f883 203c 	strb.w	r2, [r3, #60]	; 0x3c

  /* Change the handler state */
  htim->State = HAL_TIM_STATE_BUSY;
 80020e8:	687b      	ldr	r3, [r7, #4]
 80020ea:	2202      	movs	r2, #2
 80020ec:	f883 203d 	strb.w	r2, [r3, #61]	; 0x3d

  /* Get the TIMx CR2 register value */
  tmpcr2 = htim->Instance->CR2;
 80020f0:	687b      	ldr	r3, [r7, #4]
 80020f2:	681b      	ldr	r3, [r3, #0]
 80020f4:	685b      	ldr	r3, [r3, #4]
 80020f6:	60fb      	str	r3, [r7, #12]

  /* Get the TIMx SMCR register value */
  tmpsmcr = htim->Instance->SMCR;
 80020f8:	687b      	ldr	r3, [r7, #4]
 80020fa:	681b      	ldr	r3, [r3, #0]
 80020fc:	689b      	ldr	r3, [r3, #8]
 80020fe:	60bb      	str	r3, [r7, #8]

  /* Reset the MMS Bits */
  tmpcr2 &= ~TIM_CR2_MMS;
 8002100:	68fb      	ldr	r3, [r7, #12]
 8002102:	f023 0370 	bic.w	r3, r3, #112	; 0x70
 8002106:	60fb      	str	r3, [r7, #12]
  /* Select the TRGO source */
  tmpcr2 |=  sMasterConfig->MasterOutputTrigger;
 8002108:	683b      	ldr	r3, [r7, #0]
 800210a:	681b      	ldr	r3, [r3, #0]
 800210c:	68fa      	ldr	r2, [r7, #12]
 800210e:	4313      	orrs	r3, r2
 8002110:	60fb      	str	r3, [r7, #12]

  /* Update TIMx CR2 */
  htim->Instance->CR2 = tmpcr2;
 8002112:	687b      	ldr	r3, [r7, #4]
 8002114:	681b      	ldr	r3, [r3, #0]
 8002116:	68fa      	ldr	r2, [r7, #12]
 8002118:	605a      	str	r2, [r3, #4]

  if (IS_TIM_SLAVE_INSTANCE(htim->Instance))
 800211a:	687b      	ldr	r3, [r7, #4]
 800211c:	681b      	ldr	r3, [r3, #0]
 800211e:	4a14      	ldr	r2, [pc, #80]	; (8002170 <HAL_TIMEx_MasterConfigSynchronization+0xa8>)
 8002120:	4293      	cmp	r3, r2
 8002122:	d009      	beq.n	8002138 <HAL_TIMEx_MasterConfigSynchronization+0x70>
 8002124:	687b      	ldr	r3, [r7, #4]
 8002126:	681b      	ldr	r3, [r3, #0]
 8002128:	f1b3 4f80 	cmp.w	r3, #1073741824	; 0x40000000
 800212c:	d004      	beq.n	8002138 <HAL_TIMEx_MasterConfigSynchronization+0x70>
 800212e:	687b      	ldr	r3, [r7, #4]
 8002130:	681b      	ldr	r3, [r3, #0]
 8002132:	4a10      	ldr	r2, [pc, #64]	; (8002174 <HAL_TIMEx_MasterConfigSynchronization+0xac>)
 8002134:	4293      	cmp	r3, r2
 8002136:	d10c      	bne.n	8002152 <HAL_TIMEx_MasterConfigSynchronization+0x8a>
  {
    /* Reset the MSM Bit */
    tmpsmcr &= ~TIM_SMCR_MSM;
 8002138:	68bb      	ldr	r3, [r7, #8]
 800213a:	f023 0380 	bic.w	r3, r3, #128	; 0x80
 800213e:	60bb      	str	r3, [r7, #8]
    /* Set master mode */
    tmpsmcr |= sMasterConfig->MasterSlaveMode;
 8002140:	683b      	ldr	r3, [r7, #0]
 8002142:	685b      	ldr	r3, [r3, #4]
 8002144:	68ba      	ldr	r2, [r7, #8]
 8002146:	4313      	orrs	r3, r2
 8002148:	60bb      	str	r3, [r7, #8]

    /* Update TIMx SMCR */
    htim->Instance->SMCR = tmpsmcr;
 800214a:	687b      	ldr	r3, [r7, #4]
 800214c:	681b      	ldr	r3, [r3, #0]
 800214e:	68ba      	ldr	r2, [r7, #8]
 8002150:	609a      	str	r2, [r3, #8]
  }

  /* Change the htim state */
  htim->State = HAL_TIM_STATE_READY;
 8002152:	687b      	ldr	r3, [r7, #4]
 8002154:	2201      	movs	r2, #1
 8002156:	f883 203d 	strb.w	r2, [r3, #61]	; 0x3d

  __HAL_UNLOCK(htim);
 800215a:	687b      	ldr	r3, [r7, #4]
 800215c:	2200      	movs	r2, #0
 800215e:	f883 203c 	strb.w	r2, [r3, #60]	; 0x3c

  return HAL_OK;
 8002162:	2300      	movs	r3, #0
}
 8002164:	4618      	mov	r0, r3
 8002166:	3714      	adds	r7, #20
 8002168:	46bd      	mov	sp, r7
 800216a:	bc80      	pop	{r7}
 800216c:	4770      	bx	lr
 800216e:	bf00      	nop
 8002170:	40012c00 	.word	0x40012c00
 8002174:	40000400 	.word	0x40000400

08002178 <HAL_TIMEx_CommutCallback>:
  * @brief  Hall commutation changed callback in non-blocking mode
  * @param  htim TIM handle
  * @retval None
  */
__weak void HAL_TIMEx_CommutCallback(TIM_HandleTypeDef *htim)
{
 8002178:	b480      	push	{r7}
 800217a:	b083      	sub	sp, #12
 800217c:	af00      	add	r7, sp, #0
 800217e:	6078      	str	r0, [r7, #4]
  UNUSED(htim);

  /* NOTE : This function should not be modified, when the callback is needed,
            the HAL_TIMEx_CommutCallback could be implemented in the user file
   */
}
 8002180:	bf00      	nop
 8002182:	370c      	adds	r7, #12
 8002184:	46bd      	mov	sp, r7
 8002186:	bc80      	pop	{r7}
 8002188:	4770      	bx	lr

0800218a <HAL_TIMEx_BreakCallback>:
  * @brief  Hall Break detection callback in non-blocking mode
  * @param  htim TIM handle
  * @retval None
  */
__weak void HAL_TIMEx_BreakCallback(TIM_HandleTypeDef *htim)
{
 800218a:	b480      	push	{r7}
 800218c:	b083      	sub	sp, #12
 800218e:	af00      	add	r7, sp, #0
 8002190:	6078      	str	r0, [r7, #4]
  UNUSED(htim);

  /* NOTE : This function should not be modified, when the callback is needed,
            the HAL_TIMEx_BreakCallback could be implemented in the user file
   */
}
 8002192:	bf00      	nop
 8002194:	370c      	adds	r7, #12
 8002196:	46bd      	mov	sp, r7
 8002198:	bc80      	pop	{r7}
 800219a:	4770      	bx	lr

0800219c <__libc_init_array>:
 800219c:	b570      	push	{r4, r5, r6, lr}
 800219e:	2600      	movs	r6, #0
 80021a0:	4d0c      	ldr	r5, [pc, #48]	; (80021d4 <__libc_init_array+0x38>)
 80021a2:	4c0d      	ldr	r4, [pc, #52]	; (80021d8 <__libc_init_array+0x3c>)
 80021a4:	1b64      	subs	r4, r4, r5
 80021a6:	10a4      	asrs	r4, r4, #2
 80021a8:	42a6      	cmp	r6, r4
 80021aa:	d109      	bne.n	80021c0 <__libc_init_array+0x24>
 80021ac:	f000 f822 	bl	80021f4 <_init>
 80021b0:	2600      	movs	r6, #0
 80021b2:	4d0a      	ldr	r5, [pc, #40]	; (80021dc <__libc_init_array+0x40>)
 80021b4:	4c0a      	ldr	r4, [pc, #40]	; (80021e0 <__libc_init_array+0x44>)
 80021b6:	1b64      	subs	r4, r4, r5
 80021b8:	10a4      	asrs	r4, r4, #2
 80021ba:	42a6      	cmp	r6, r4
 80021bc:	d105      	bne.n	80021ca <__libc_init_array+0x2e>
 80021be:	bd70      	pop	{r4, r5, r6, pc}
 80021c0:	f855 3b04 	ldr.w	r3, [r5], #4
 80021c4:	4798      	blx	r3
 80021c6:	3601      	adds	r6, #1
 80021c8:	e7ee      	b.n	80021a8 <__libc_init_array+0xc>
 80021ca:	f855 3b04 	ldr.w	r3, [r5], #4
 80021ce:	4798      	blx	r3
 80021d0:	3601      	adds	r6, #1
 80021d2:	e7f2      	b.n	80021ba <__libc_init_array+0x1e>
 80021d4:	08002230 	.word	0x08002230
 80021d8:	08002230 	.word	0x08002230
 80021dc:	08002230 	.word	0x08002230
 80021e0:	08002234 	.word	0x08002234

080021e4 <memset>:
 80021e4:	4603      	mov	r3, r0
 80021e6:	4402      	add	r2, r0
 80021e8:	4293      	cmp	r3, r2
 80021ea:	d100      	bne.n	80021ee <memset+0xa>
 80021ec:	4770      	bx	lr
 80021ee:	f803 1b01 	strb.w	r1, [r3], #1
 80021f2:	e7f9      	b.n	80021e8 <memset+0x4>

080021f4 <_init>:
 80021f4:	b5f8      	push	{r3, r4, r5, r6, r7, lr}
 80021f6:	bf00      	nop
 80021f8:	bcf8      	pop	{r3, r4, r5, r6, r7}
 80021fa:	bc08      	pop	{r3}
 80021fc:	469e      	mov	lr, r3
 80021fe:	4770      	bx	lr

08002200 <_fini>:
 8002200:	b5f8      	push	{r3, r4, r5, r6, r7, lr}
 8002202:	bf00      	nop
 8002204:	bcf8      	pop	{r3, r4, r5, r6, r7}
 8002206:	bc08      	pop	{r3}
 8002208:	469e      	mov	lr, r3
 800220a:	4770      	bx	lr
